ARM GAS  C:\Users\ali\AppData\Local\Temp\ccPL16ze.s 			page 1


   1              		.syntax unified
   2              		.cpu cortex-m3
   3              		.fpu softvfp
   4              		.eabi_attribute 20, 1
   5              		.eabi_attribute 21, 1
   6              		.eabi_attribute 23, 3
   7              		.eabi_attribute 24, 1
   8              		.eabi_attribute 25, 1
   9              		.eabi_attribute 26, 1
  10              		.eabi_attribute 30, 2
  11              		.eabi_attribute 34, 1
  12              		.eabi_attribute 18, 4
  13              		.thumb
  14              		.syntax unified
  15              		.file	"SEGGER_SYSVIEW.c"
  16              		.section	.text.SEGGER_SYSVIEW_Init,"ax",%progbits
  17              		.align	2
  18              		.global	SEGGER_SYSVIEW_Init
  19              		.thumb
  20              		.thumb_func
  21              		.type	SEGGER_SYSVIEW_Init, %function
  22              	SEGGER_SYSVIEW_Init:
  23              		@ args = 0, pretend = 0, frame = 0
  24              		@ frame_needed = 0, uses_anonymous_args = 0
  25 0000 2DE9F04F 		push	{r4, r5, r6, r7, r8, r9, r10, fp, lr}
  26 0004 174C     		ldr	r4, .L3
  27 0006 184F     		ldr	r7, .L3+4
  28 0008 83B0     		sub	sp, sp, #12
  29 000a 8246     		mov	r10, r0
  30 000c 8946     		mov	r9, r1
  31 000e 9346     		mov	fp, r2
  32 0010 9846     		mov	r8, r3
  33 0012 2146     		mov	r1, r4
  34 0014 3846     		mov	r0, r7
  35 0016 0023     		movs	r3, #0
  36 0018 4FF48062 		mov	r2, #1024
  37 001c FFF7FEFF 		bl	SEGGER_RTT_AllocUpBuffer
  38 0020 0026     		movs	r6, #0
  39 0022 C5B2     		uxtb	r5, r0
  40 0024 04F58562 		add	r2, r4, #1064
  41 0028 2846     		mov	r0, r5
  42 002a 3946     		mov	r1, r7
  43 002c 0096     		str	r6, [sp]
  44 002e 0823     		movs	r3, #8
  45 0030 84F80154 		strb	r5, [r4, #1025]
  46 0034 84F81854 		strb	r5, [r4, #1048]
  47 0038 FFF7FEFF 		bl	SEGGER_RTT_ConfigDownBuffer
  48 003c 0B4B     		ldr	r3, .L3+8
  49 003e 0C4A     		ldr	r2, .L3+12
  50 0040 1B68     		ldr	r3, [r3]
  51 0042 C4F820B4 		str	fp, [r4, #1056]
  52 0046 C4F804A4 		str	r10, [r4, #1028]
  53 004a C4F80894 		str	r9, [r4, #1032]
  54 004e C4F82484 		str	r8, [r4, #1060]
  55 0052 84F80064 		strb	r6, [r4, #1024]
  56 0056 C4F81024 		str	r2, [r4, #1040]
  57 005a C4F80C34 		str	r3, [r4, #1036]
ARM GAS  C:\Users\ali\AppData\Local\Temp\ccPL16ze.s 			page 2


  58 005e 03B0     		add	sp, sp, #12
  59              		@ sp needed
  60 0060 BDE8F08F 		pop	{r4, r5, r6, r7, r8, r9, r10, fp, pc}
  61              	.L4:
  62              		.align	2
  63              	.L3:
  64 0064 00000000 		.word	.LANCHOR0
  65 0068 00000000 		.word	.LC0
  66 006c 041000E0 		.word	-536866812
  67 0070 0080FF1F 		.word	536838144
  68              		.size	SEGGER_SYSVIEW_Init, .-SEGGER_SYSVIEW_Init
  69              		.section	.text.SEGGER_SYSVIEW_SetRAMBase,"ax",%progbits
  70              		.align	2
  71              		.global	SEGGER_SYSVIEW_SetRAMBase
  72              		.thumb
  73              		.thumb_func
  74              		.type	SEGGER_SYSVIEW_SetRAMBase, %function
  75              	SEGGER_SYSVIEW_SetRAMBase:
  76              		@ args = 0, pretend = 0, frame = 0
  77              		@ frame_needed = 0, uses_anonymous_args = 0
  78              		@ link register save eliminated.
  79 0000 014B     		ldr	r3, .L6
  80 0002 C3F81004 		str	r0, [r3, #1040]
  81 0006 7047     		bx	lr
  82              	.L7:
  83              		.align	2
  84              	.L6:
  85 0008 00000000 		.word	.LANCHOR0
  86              		.size	SEGGER_SYSVIEW_SetRAMBase, .-SEGGER_SYSVIEW_SetRAMBase
  87              		.section	.text.SEGGER_SYSVIEW_GetChannelID,"ax",%progbits
  88              		.align	2
  89              		.global	SEGGER_SYSVIEW_GetChannelID
  90              		.thumb
  91              		.thumb_func
  92              		.type	SEGGER_SYSVIEW_GetChannelID, %function
  93              	SEGGER_SYSVIEW_GetChannelID:
  94              		@ args = 0, pretend = 0, frame = 0
  95              		@ frame_needed = 0, uses_anonymous_args = 0
  96              		@ link register save eliminated.
  97 0000 014B     		ldr	r3, .L9
  98 0002 93F80104 		ldrb	r0, [r3, #1025]	@ zero_extendqisi2
  99 0006 7047     		bx	lr
 100              	.L10:
 101              		.align	2
 102              	.L9:
 103 0008 00000000 		.word	.LANCHOR0
 104              		.size	SEGGER_SYSVIEW_GetChannelID, .-SEGGER_SYSVIEW_GetChannelID
 105              		.section	.text.SEGGER_SYSVIEW_SendTaskList,"ax",%progbits
 106              		.align	2
 107              		.global	SEGGER_SYSVIEW_SendTaskList
 108              		.thumb
 109              		.thumb_func
 110              		.type	SEGGER_SYSVIEW_SendTaskList, %function
 111              	SEGGER_SYSVIEW_SendTaskList:
 112              		@ args = 0, pretend = 0, frame = 0
 113              		@ frame_needed = 0, uses_anonymous_args = 0
 114              		@ link register save eliminated.
ARM GAS  C:\Users\ali\AppData\Local\Temp\ccPL16ze.s 			page 3


 115 0000 034B     		ldr	r3, .L20
 116 0002 D3F82034 		ldr	r3, [r3, #1056]
 117 0006 13B1     		cbz	r3, .L11
 118 0008 5B68     		ldr	r3, [r3, #4]
 119 000a 03B1     		cbz	r3, .L11
 120 000c 1847     		bx	r3	@ indirect register sibling call
 121              	.L11:
 122 000e 7047     		bx	lr
 123              	.L21:
 124              		.align	2
 125              	.L20:
 126 0010 00000000 		.word	.LANCHOR0
 127              		.size	SEGGER_SYSVIEW_SendTaskList, .-SEGGER_SYSVIEW_SendTaskList
 128              		.section	.text.SEGGER_SYSVIEW_EncodeU32,"ax",%progbits
 129              		.align	2
 130              		.global	SEGGER_SYSVIEW_EncodeU32
 131              		.thumb
 132              		.thumb_func
 133              		.type	SEGGER_SYSVIEW_EncodeU32, %function
 134              	SEGGER_SYSVIEW_EncodeU32:
 135              		@ args = 0, pretend = 0, frame = 0
 136              		@ frame_needed = 0, uses_anonymous_args = 0
 137              		@ link register save eliminated.
 138 0000 04E0     		b	.L26
 139              	.L24:
 140 0002 61F07F03 		orn	r3, r1, #127
 141 0006 00F8013B 		strb	r3, [r0], #1
 142 000a C909     		lsrs	r1, r1, #7
 143              	.L26:
 144 000c 7F29     		cmp	r1, #127
 145 000e F8D8     		bhi	.L24
 146 0010 00F8011B 		strb	r1, [r0], #1
 147 0014 7047     		bx	lr
 148              		.size	SEGGER_SYSVIEW_EncodeU32, .-SEGGER_SYSVIEW_EncodeU32
 149 0016 00BF     		.section	.text.SEGGER_SYSVIEW_EncodeString,"ax",%progbits
 150              		.align	2
 151              		.global	SEGGER_SYSVIEW_EncodeString
 152              		.thumb
 153              		.thumb_func
 154              		.type	SEGGER_SYSVIEW_EncodeString, %function
 155              	SEGGER_SYSVIEW_EncodeString:
 156              		@ args = 0, pretend = 0, frame = 0
 157              		@ frame_needed = 0, uses_anonymous_args = 0
 158 0000 F0B5     		push	{r4, r5, r6, r7, lr}
 159 0002 0029     		cmp	r1, #0
 160 0004 5AD0     		beq	.L40
 161 0006 0C78     		ldrb	r4, [r1]	@ zero_extendqisi2
 162 0008 002C     		cmp	r4, #0
 163 000a 5AD0     		beq	.L41
 164 000c 0C46     		mov	r4, r1
 165 000e 0023     		movs	r3, #0
 166              	.L29:
 167 0010 14F8015F 		ldrb	r5, [r4, #1]!	@ zero_extendqisi2
 168 0014 0133     		adds	r3, r3, #1
 169 0016 002D     		cmp	r5, #0
 170 0018 FAD1     		bne	.L29
 171 001a 9342     		cmp	r3, r2
ARM GAS  C:\Users\ali\AppData\Local\Temp\ccPL16ze.s 			page 4


 172 001c 28BF     		it	cs
 173 001e 1346     		movcs	r3, r2
 174 0020 FE2B     		cmp	r3, #254
 175 0022 3BD9     		bls	.L54
 176 0024 1A0A     		lsrs	r2, r3, #8
 177 0026 FF24     		movs	r4, #255
 178 0028 4370     		strb	r3, [r0, #1]
 179 002a 8270     		strb	r2, [r0, #2]
 180 002c 0470     		strb	r4, [r0]
 181 002e 0330     		adds	r0, r0, #3
 182              	.L31:
 183 0030 021D     		adds	r2, r0, #4
 184 0032 0C1D     		adds	r4, r1, #4
 185 0034 A042     		cmp	r0, r4
 186 0036 38BF     		it	cc
 187 0038 9142     		cmpcc	r1, r2
 188 003a 2CBF     		ite	cs
 189 003c 0122     		movcs	r2, #1
 190 003e 0022     		movcc	r2, #0
 191 0040 092B     		cmp	r3, #9
 192 0042 94BF     		ite	ls
 193 0044 0022     		movls	r2, #0
 194 0046 02F00102 		andhi	r2, r2, #1
 195 004a 6AB3     		cbz	r2, .L33
 196 004c 41EA0002 		orr	r2, r1, r0
 197 0050 9207     		lsls	r2, r2, #30
 198 0052 29D1     		bne	.L33
 199 0054 0746     		mov	r7, r0
 200 0056 1A1F     		subs	r2, r3, #4
 201 0058 9208     		lsrs	r2, r2, #2
 202 005a 0132     		adds	r2, r2, #1
 203 005c 9400     		lsls	r4, r2, #2
 204 005e 0E1F     		subs	r6, r1, #4
 205 0060 0025     		movs	r5, #0
 206              	.L34:
 207 0062 56F804EF 		ldr	lr, [r6, #4]!
 208 0066 0135     		adds	r5, r5, #1
 209 0068 AA42     		cmp	r2, r5
 210 006a 47F804EB 		str	lr, [r7], #4
 211 006e F8D8     		bhi	.L34
 212 0070 9C42     		cmp	r4, r3
 213 0072 00EB0405 		add	r5, r0, r4
 214 0076 01EB0406 		add	r6, r1, r4
 215 007a 0DD0     		beq	.L39
 216 007c 11F82270 		ldrb	r7, [r1, r2, lsl #2]	@ zero_extendqisi2
 217 0080 611C     		adds	r1, r4, #1
 218 0082 9942     		cmp	r1, r3
 219 0084 00F82270 		strb	r7, [r0, r2, lsl #2]
 220 0088 06D2     		bcs	.L39
 221 008a 7278     		ldrb	r2, [r6, #1]	@ zero_extendqisi2
 222 008c 0234     		adds	r4, r4, #2
 223 008e 9C42     		cmp	r4, r3
 224 0090 6A70     		strb	r2, [r5, #1]
 225 0092 01D2     		bcs	.L39
 226 0094 B278     		ldrb	r2, [r6, #2]	@ zero_extendqisi2
 227 0096 AA70     		strb	r2, [r5, #2]
 228              	.L39:
ARM GAS  C:\Users\ali\AppData\Local\Temp\ccPL16ze.s 			page 5


 229 0098 1844     		add	r0, r0, r3
 230 009a F0BD     		pop	{r4, r5, r6, r7, pc}
 231              	.L54:
 232 009c DCB2     		uxtb	r4, r3
 233              	.L28:
 234 009e 0470     		strb	r4, [r0]
 235 00a0 0130     		adds	r0, r0, #1
 236 00a2 002B     		cmp	r3, #0
 237 00a4 C4D1     		bne	.L31
 238 00a6 F0BD     		pop	{r4, r5, r6, r7, pc}
 239              	.L33:
 240 00a8 421E     		subs	r2, r0, #1
 241 00aa CD18     		adds	r5, r1, r3
 242              	.L38:
 243 00ac 11F8014B 		ldrb	r4, [r1], #1	@ zero_extendqisi2
 244 00b0 A942     		cmp	r1, r5
 245 00b2 02F8014F 		strb	r4, [r2, #1]!
 246 00b6 F9D1     		bne	.L38
 247 00b8 1844     		add	r0, r0, r3
 248 00ba F0BD     		pop	{r4, r5, r6, r7, pc}
 249              	.L40:
 250 00bc 0C46     		mov	r4, r1
 251 00be 0B46     		mov	r3, r1
 252 00c0 EDE7     		b	.L28
 253              	.L41:
 254 00c2 2346     		mov	r3, r4
 255 00c4 EBE7     		b	.L28
 256              		.size	SEGGER_SYSVIEW_EncodeString, .-SEGGER_SYSVIEW_EncodeString
 257 00c6 00BF     		.section	.text.SEGGER_SYSVIEW_EncodeData,"ax",%progbits
 258              		.align	2
 259              		.global	SEGGER_SYSVIEW_EncodeData
 260              		.thumb
 261              		.thumb_func
 262              		.type	SEGGER_SYSVIEW_EncodeData, %function
 263              	SEGGER_SYSVIEW_EncodeData:
 264              		@ args = 0, pretend = 0, frame = 0
 265              		@ frame_needed = 0, uses_anonymous_args = 0
 266 0000 0346     		mov	r3, r0
 267 0002 0270     		strb	r2, [r0]
 268 0004 0130     		adds	r0, r0, #1
 269 0006 002A     		cmp	r2, #0
 270 0008 3FD0     		beq	.L77
 271 000a F0B5     		push	{r4, r5, r6, r7, lr}
 272 000c 5C1D     		adds	r4, r3, #5
 273 000e 0D1D     		adds	r5, r1, #4
 274 0010 A842     		cmp	r0, r5
 275 0012 38BF     		it	cc
 276 0014 A142     		cmpcc	r1, r4
 277 0016 2CBF     		ite	cs
 278 0018 0124     		movcs	r4, #1
 279 001a 0024     		movcc	r4, #0
 280 001c 092A     		cmp	r2, #9
 281 001e 94BF     		ite	ls
 282 0020 0024     		movls	r4, #0
 283 0022 04F00104 		andhi	r4, r4, #1
 284 0026 3CB3     		cbz	r4, .L57
 285 0028 41EA0004 		orr	r4, r1, r0
ARM GAS  C:\Users\ali\AppData\Local\Temp\ccPL16ze.s 			page 6


 286 002c A407     		lsls	r4, r4, #30
 287 002e 23D1     		bne	.L57
 288 0030 0746     		mov	r7, r0
 289 0032 131F     		subs	r3, r2, #4
 290 0034 9B08     		lsrs	r3, r3, #2
 291 0036 0133     		adds	r3, r3, #1
 292 0038 9C00     		lsls	r4, r3, #2
 293 003a 0E1F     		subs	r6, r1, #4
 294 003c 0025     		movs	r5, #0
 295              	.L58:
 296 003e 56F804EF 		ldr	lr, [r6, #4]!
 297 0042 0135     		adds	r5, r5, #1
 298 0044 9D42     		cmp	r5, r3
 299 0046 47F804EB 		str	lr, [r7], #4
 300 004a F8D3     		bcc	.L58
 301 004c A242     		cmp	r2, r4
 302 004e 00EB0405 		add	r5, r0, r4
 303 0052 01EB0406 		add	r6, r1, r4
 304 0056 0DD0     		beq	.L63
 305 0058 11F82370 		ldrb	r7, [r1, r3, lsl #2]	@ zero_extendqisi2
 306 005c 611C     		adds	r1, r4, #1
 307 005e 8A42     		cmp	r2, r1
 308 0060 00F82370 		strb	r7, [r0, r3, lsl #2]
 309 0064 06D9     		bls	.L63
 310 0066 7378     		ldrb	r3, [r6, #1]	@ zero_extendqisi2
 311 0068 0234     		adds	r4, r4, #2
 312 006a A242     		cmp	r2, r4
 313 006c 6B70     		strb	r3, [r5, #1]
 314 006e 01D9     		bls	.L63
 315 0070 B378     		ldrb	r3, [r6, #2]	@ zero_extendqisi2
 316 0072 AB70     		strb	r3, [r5, #2]
 317              	.L63:
 318 0074 1044     		add	r0, r0, r2
 319 0076 F0BD     		pop	{r4, r5, r6, r7, pc}
 320              	.L57:
 321 0078 8D18     		adds	r5, r1, r2
 322              	.L62:
 323 007a 11F8014B 		ldrb	r4, [r1], #1	@ zero_extendqisi2
 324 007e A942     		cmp	r1, r5
 325 0080 03F8014F 		strb	r4, [r3, #1]!
 326 0084 F9D1     		bne	.L62
 327 0086 1044     		add	r0, r0, r2
 328 0088 F0BD     		pop	{r4, r5, r6, r7, pc}
 329              	.L77:
 330 008a 7047     		bx	lr
 331              		.size	SEGGER_SYSVIEW_EncodeData, .-SEGGER_SYSVIEW_EncodeData
 332              		.section	.text.SEGGER_SYSVIEW_EncodeId,"ax",%progbits
 333              		.align	2
 334              		.global	SEGGER_SYSVIEW_EncodeId
 335              		.thumb
 336              		.thumb_func
 337              		.type	SEGGER_SYSVIEW_EncodeId, %function
 338              	SEGGER_SYSVIEW_EncodeId:
 339              		@ args = 0, pretend = 0, frame = 0
 340              		@ frame_needed = 0, uses_anonymous_args = 0
 341              		@ link register save eliminated.
 342 0000 074B     		ldr	r3, .L83
ARM GAS  C:\Users\ali\AppData\Local\Temp\ccPL16ze.s 			page 7


 343 0002 D3F81034 		ldr	r3, [r3, #1040]
 344 0006 C91A     		subs	r1, r1, r3
 345 0008 7F29     		cmp	r1, #127
 346 000a 06D9     		bls	.L80
 347              	.L81:
 348 000c 61F07F03 		orn	r3, r1, #127
 349 0010 C909     		lsrs	r1, r1, #7
 350 0012 7F29     		cmp	r1, #127
 351 0014 00F8013B 		strb	r3, [r0], #1
 352 0018 F8D8     		bhi	.L81
 353              	.L80:
 354 001a 00F8011B 		strb	r1, [r0], #1
 355 001e 7047     		bx	lr
 356              	.L84:
 357              		.align	2
 358              	.L83:
 359 0020 00000000 		.word	.LANCHOR0
 360              		.size	SEGGER_SYSVIEW_EncodeId, .-SEGGER_SYSVIEW_EncodeId
 361              		.section	.text.SEGGER_SYSVIEW_ShrinkId,"ax",%progbits
 362              		.align	2
 363              		.global	SEGGER_SYSVIEW_ShrinkId
 364              		.thumb
 365              		.thumb_func
 366              		.type	SEGGER_SYSVIEW_ShrinkId, %function
 367              	SEGGER_SYSVIEW_ShrinkId:
 368              		@ args = 0, pretend = 0, frame = 0
 369              		@ frame_needed = 0, uses_anonymous_args = 0
 370              		@ link register save eliminated.
 371 0000 024B     		ldr	r3, .L86
 372 0002 D3F81034 		ldr	r3, [r3, #1040]
 373 0006 C01A     		subs	r0, r0, r3
 374 0008 7047     		bx	lr
 375              	.L87:
 376 000a 00BF     		.align	2
 377              	.L86:
 378 000c 00000000 		.word	.LANCHOR0
 379              		.size	SEGGER_SYSVIEW_ShrinkId, .-SEGGER_SYSVIEW_ShrinkId
 380              		.section	.text.SEGGER_SYSVIEW_SendModule,"ax",%progbits
 381              		.align	2
 382              		.global	SEGGER_SYSVIEW_SendModule
 383              		.thumb
 384              		.thumb_func
 385              		.type	SEGGER_SYSVIEW_SendModule, %function
 386              	SEGGER_SYSVIEW_SendModule:
 387              		@ args = 0, pretend = 0, frame = 0
 388              		@ frame_needed = 0, uses_anonymous_args = 0
 389 0000 F8B5     		push	{r3, r4, r5, r6, r7, lr}
 390 0002 464E     		ldr	r6, .L132
 391 0004 D6F81445 		ldr	r4, [r6, #1300]
 392 0008 002C     		cmp	r4, #0
 393 000a 75D0     		beq	.L88
 394 000c 50B1     		cbz	r0, .L108
 395 000e 2469     		ldr	r4, [r4, #16]
 396 0010 002C     		cmp	r4, #0
 397 0012 71D0     		beq	.L88
 398 0014 0023     		movs	r3, #0
 399 0016 02E0     		b	.L91
ARM GAS  C:\Users\ali\AppData\Local\Temp\ccPL16ze.s 			page 8


 400              	.L92:
 401 0018 2469     		ldr	r4, [r4, #16]
 402 001a 002C     		cmp	r4, #0
 403 001c 6CD0     		beq	.L88
 404              	.L91:
 405 001e 0133     		adds	r3, r3, #1
 406 0020 8342     		cmp	r3, r0
 407 0022 F9D1     		bne	.L92
 408              	.L108:
 409 0024 0346     		mov	r3, r0
 410              		.syntax unified
 411              	@ 2646 "..\SEGGER\SEGGER_SYSVIEW.c" 1
 412 0026 EFF31185 		mrs   r5, basepri  
 413 002a 4FF02001 		mov   r1, #32       
 414 002e 81F31188 		msr   basepri, r1  
 415              		
 416              	@ 0 "" 2
 417              		.thumb
 418              		.syntax unified
 419 0032 7F28     		cmp	r0, #127
 420 0034 6DD9     		bls	.L131
 421 0036 3A4A     		ldr	r2, .L132+4
 422 0038 86F83404 		strb	r0, [r6, #1076]
 423 003c 0123     		movs	r3, #1
 424              	.L107:
 425 003e 1370     		strb	r3, [r2]
 426 0040 A368     		ldr	r3, [r4, #8]
 427 0042 0132     		adds	r2, r2, #1
 428 0044 7F2B     		cmp	r3, #127
 429 0046 06D9     		bls	.L93
 430              	.L94:
 431 0048 63F07F01 		orn	r1, r3, #127
 432 004c DB09     		lsrs	r3, r3, #7
 433 004e 7F2B     		cmp	r3, #127
 434 0050 02F8011B 		strb	r1, [r2], #1
 435 0054 F8D8     		bhi	.L94
 436              	.L93:
 437 0056 1370     		strb	r3, [r2]
 438 0058 2468     		ldr	r4, [r4]
 439 005a 002C     		cmp	r4, #0
 440 005c 56D0     		beq	.L95
 441 005e 2378     		ldrb	r3, [r4]	@ zero_extendqisi2
 442 0060 002B     		cmp	r3, #0
 443 0062 58D0     		beq	.L96
 444 0064 2046     		mov	r0, r4
 445 0066 0021     		movs	r1, #0
 446              	.L97:
 447 0068 10F8013F 		ldrb	r3, [r0, #1]!	@ zero_extendqisi2
 448 006c 0131     		adds	r1, r1, #1
 449 006e 002B     		cmp	r3, #0
 450 0070 FAD1     		bne	.L97
 451 0072 201D     		adds	r0, r4, #4
 452 0074 961C     		adds	r6, r2, #2
 453 0076 971D     		adds	r7, r2, #6
 454 0078 BC42     		cmp	r4, r7
 455 007a 38BF     		it	cc
 456 007c 8642     		cmpcc	r6, r0
ARM GAS  C:\Users\ali\AppData\Local\Temp\ccPL16ze.s 			page 9


 457 007e 46EA0407 		orr	r7, r6, r4
 458 0082 2CBF     		ite	cs
 459 0084 0120     		movcs	r0, #1
 460 0086 0020     		movcc	r0, #0
 461 0088 8029     		cmp	r1, #128
 462 008a 28BF     		it	cs
 463 008c 8021     		movcs	r1, #128
 464 008e 17F0030F 		tst	r7, #3
 465 0092 00F00100 		and	r0, r0, #1
 466 0096 18BF     		it	ne
 467 0098 0020     		movne	r0, #0
 468 009a 5170     		strb	r1, [r2, #1]
 469 009c 68B3     		cbz	r0, .L98
 470 009e 0929     		cmp	r1, #9
 471 00a0 2BD9     		bls	.L98
 472 00a2 B646     		mov	lr, r6
 473 00a4 081F     		subs	r0, r1, #4
 474 00a6 8008     		lsrs	r0, r0, #2
 475 00a8 0130     		adds	r0, r0, #1
 476 00aa 8200     		lsls	r2, r0, #2
 477 00ac 271F     		subs	r7, r4, #4
 478              	.L99:
 479 00ae 57F804CF 		ldr	ip, [r7, #4]!
 480 00b2 0133     		adds	r3, r3, #1
 481 00b4 9842     		cmp	r0, r3
 482 00b6 4EF804CB 		str	ip, [lr], #4
 483 00ba F8D8     		bhi	.L99
 484 00bc 9142     		cmp	r1, r2
 485 00be 06EB0207 		add	r7, r6, r2
 486 00c2 04EB020E 		add	lr, r4, r2
 487 00c6 0FD0     		beq	.L105
 488 00c8 14F82040 		ldrb	r4, [r4, r0, lsl #2]	@ zero_extendqisi2
 489 00cc 531C     		adds	r3, r2, #1
 490 00ce 8B42     		cmp	r3, r1
 491 00d0 06F82040 		strb	r4, [r6, r0, lsl #2]
 492 00d4 08D2     		bcs	.L105
 493 00d6 9EF80130 		ldrb	r3, [lr, #1]	@ zero_extendqisi2
 494 00da 0232     		adds	r2, r2, #2
 495 00dc 9142     		cmp	r1, r2
 496 00de 7B70     		strb	r3, [r7, #1]
 497 00e0 02D9     		bls	.L105
 498 00e2 9EF80230 		ldrb	r3, [lr, #2]	@ zero_extendqisi2
 499 00e6 BB70     		strb	r3, [r7, #2]
 500              	.L105:
 501 00e8 3144     		add	r1, r1, r6
 502              	.L103:
 503 00ea 1622     		movs	r2, #22
 504 00ec 0D48     		ldr	r0, .L132+8
 505 00ee FFF7FEFF 		bl	_SendPacket
 506              		.syntax unified
 507              	@ 2657 "..\SEGGER\SEGGER_SYSVIEW.c" 1
 508 00f2 85F31188 		msr   basepri, r5  
 509              		
 510              	@ 0 "" 2
 511              		.thumb
 512              		.syntax unified
 513 00f6 F8BD     		pop	{r3, r4, r5, r6, r7, pc}
ARM GAS  C:\Users\ali\AppData\Local\Temp\ccPL16ze.s 			page 10


 514              	.L88:
 515 00f8 F8BD     		pop	{r3, r4, r5, r6, r7, pc}
 516              	.L98:
 517 00fa 0132     		adds	r2, r2, #1
 518 00fc 6018     		adds	r0, r4, r1
 519              	.L104:
 520 00fe 14F8013B 		ldrb	r3, [r4], #1	@ zero_extendqisi2
 521 0102 8442     		cmp	r4, r0
 522 0104 02F8013F 		strb	r3, [r2, #1]!
 523 0108 F9D1     		bne	.L104
 524 010a EDE7     		b	.L105
 525              	.L95:
 526 010c 5470     		strb	r4, [r2, #1]
 527 010e 911C     		adds	r1, r2, #2
 528 0110 EBE7     		b	.L103
 529              	.L131:
 530 0112 044A     		ldr	r2, .L132+8
 531 0114 93E7     		b	.L107
 532              	.L96:
 533 0116 5370     		strb	r3, [r2, #1]
 534 0118 911C     		adds	r1, r2, #2
 535 011a E6E7     		b	.L103
 536              	.L133:
 537              		.align	2
 538              	.L132:
 539 011c 00000000 		.word	.LANCHOR0
 540 0120 35040000 		.word	.LANCHOR0+1077
 541 0124 34040000 		.word	.LANCHOR0+1076
 542              		.size	SEGGER_SYSVIEW_SendModule, .-SEGGER_SYSVIEW_SendModule
 543              		.section	.text._HandleIncomingPacket,"ax",%progbits
 544              		.align	2
 545              		.thumb
 546              		.thumb_func
 547              		.type	_HandleIncomingPacket, %function
 548              	_HandleIncomingPacket:
 549              		@ args = 0, pretend = 0, frame = 8
 550              		@ frame_needed = 0, uses_anonymous_args = 0
 551 0000 30B5     		push	{r4, r5, lr}
 552 0002 444C     		ldr	r4, .L178
 553 0004 83B0     		sub	sp, sp, #12
 554 0006 94F81804 		ldrb	r0, [r4, #1048]	@ zero_extendqisi2
 555 000a 0DF10701 		add	r1, sp, #7
 556 000e 0122     		movs	r2, #1
 557 0010 FFF7FEFF 		bl	SEGGER_RTT_ReadNoLock
 558 0014 0028     		cmp	r0, #0
 559 0016 18DD     		ble	.L134
 560 0018 9DF80730 		ldrb	r3, [sp, #7]	@ zero_extendqisi2
 561 001c 052B     		cmp	r3, #5
 562 001e 39D0     		beq	.L138
 563 0020 15D9     		bls	.L175
 564 0022 072B     		cmp	r3, #7
 565 0024 53D0     		beq	.L145
 566 0026 38D3     		bcc	.L146
 567 0028 7F2B     		cmp	r3, #127
 568 002a 0ED0     		beq	.L134
 569 002c 802B     		cmp	r3, #128
 570 002e 59D1     		bne	.L137
ARM GAS  C:\Users\ali\AppData\Local\Temp\ccPL16ze.s 			page 11


 571 0030 0DF10701 		add	r1, sp, #7
 572 0034 94F81804 		ldrb	r0, [r4, #1048]	@ zero_extendqisi2
 573 0038 0122     		movs	r2, #1
 574 003a FFF7FEFF 		bl	SEGGER_RTT_ReadNoLock
 575 003e 0028     		cmp	r0, #0
 576 0040 03DD     		ble	.L134
 577 0042 9DF80700 		ldrb	r0, [sp, #7]	@ zero_extendqisi2
 578 0046 FFF7FEFF 		bl	SEGGER_SYSVIEW_SendModule
 579              	.L134:
 580 004a 03B0     		add	sp, sp, #12
 581              		@ sp needed
 582 004c 30BD     		pop	{r4, r5, pc}
 583              	.L175:
 584 004e 022B     		cmp	r3, #2
 585 0050 12D0     		beq	.L140
 586 0052 0CD9     		bls	.L176
 587 0054 032B     		cmp	r3, #3
 588 0056 4FD0     		beq	.L143
 589 0058 042B     		cmp	r3, #4
 590 005a 43D1     		bne	.L137
 591 005c D4F82034 		ldr	r3, [r4, #1056]
 592 0060 002B     		cmp	r3, #0
 593 0062 F2D0     		beq	.L134
 594 0064 5B68     		ldr	r3, [r3, #4]
 595 0066 002B     		cmp	r3, #0
 596 0068 EFD0     		beq	.L134
 597 006a 9847     		blx	r3
 598 006c EDE7     		b	.L134
 599              	.L176:
 600 006e 012B     		cmp	r3, #1
 601 0070 38D1     		bne	.L137
 602 0072 FFF7FEFF 		bl	SEGGER_SYSVIEW_Start
 603 0076 E8E7     		b	.L134
 604              	.L140:
 605              		.syntax unified
 606              	@ 1814 "..\SEGGER\SEGGER_SYSVIEW.c" 1
 607 0078 EFF31185 		mrs   r5, basepri  
 608 007c 4FF02001 		mov   r1, #32       
 609 0080 81F31188 		msr   basepri, r1  
 610              		
 611              	@ 0 "" 2
 612              		.thumb
 613              		.syntax unified
 614 0084 94F80034 		ldrb	r3, [r4, #1024]	@ zero_extendqisi2
 615 0088 002B     		cmp	r3, #0
 616 008a 38D1     		bne	.L177
 617              	.L174:
 618              		.syntax unified
 619              	@ 2698 "..\SEGGER\SEGGER_SYSVIEW.c" 1
 620 008c 85F31188 		msr   basepri, r5  
 621              		
 622              	@ 0 "" 2
 623              		.thumb
 624              		.syntax unified
 625 0090 03B0     		add	sp, sp, #12
 626              		@ sp needed
 627 0092 30BD     		pop	{r4, r5, pc}
ARM GAS  C:\Users\ali\AppData\Local\Temp\ccPL16ze.s 			page 12


 628              	.L138:
 629 0094 FFF7FEFF 		bl	SEGGER_SYSVIEW_GetSysDesc
 630 0098 D7E7     		b	.L134
 631              	.L146:
 632              		.syntax unified
 633              	@ 2694 "..\SEGGER\SEGGER_SYSVIEW.c" 1
 634 009a EFF31185 		mrs   r5, basepri  
 635 009e 4FF02001 		mov   r1, #32       
 636 00a2 81F31188 		msr   basepri, r1  
 637              		
 638              	@ 0 "" 2
 639              		.thumb
 640              		.syntax unified
 641 00a6 94F81835 		ldrb	r3, [r4, #1304]	@ zero_extendqisi2
 642 00aa 1B22     		movs	r2, #27
 643 00ac 7F2B     		cmp	r3, #127
 644 00ae 8ABF     		itet	hi
 645 00b0 84F83434 		strbhi	r3, [r4, #1076]
 646 00b4 04F23444 		addwls	r4, r4, #1076
 647 00b8 04F23544 		addwhi	r4, r4, #1077
 648 00bc 2146     		mov	r1, r4
 649 00be 88BF     		it	hi
 650 00c0 0123     		movhi	r3, #1
 651 00c2 01F8013B 		strb	r3, [r1], #1
 652 00c6 1448     		ldr	r0, .L178+4
 653 00c8 FFF7FEFF 		bl	_SendPacket
 654 00cc DEE7     		b	.L174
 655              	.L145:
 656 00ce D4F81445 		ldr	r4, [r4, #1300]
 657 00d2 002C     		cmp	r4, #0
 658 00d4 B9D0     		beq	.L134
 659              	.L153:
 660 00d6 E368     		ldr	r3, [r4, #12]
 661 00d8 03B1     		cbz	r3, .L152
 662 00da 9847     		blx	r3
 663              	.L152:
 664 00dc 2469     		ldr	r4, [r4, #16]
 665 00de 002C     		cmp	r4, #0
 666 00e0 F9D1     		bne	.L153
 667 00e2 B2E7     		b	.L134
 668              	.L137:
 669 00e4 1B06     		lsls	r3, r3, #24
 670 00e6 B0D5     		bpl	.L134
 671 00e8 0DF10701 		add	r1, sp, #7
 672 00ec 94F81804 		ldrb	r0, [r4, #1048]	@ zero_extendqisi2
 673 00f0 0122     		movs	r2, #1
 674 00f2 FFF7FEFF 		bl	SEGGER_RTT_ReadNoLock
 675 00f6 A8E7     		b	.L134
 676              	.L143:
 677 00f8 FFF7FEFF 		bl	SEGGER_SYSVIEW_RecordSystime
 678 00fc A5E7     		b	.L134
 679              	.L177:
 680 00fe 04F23441 		addw	r1, r4, #1076
 681 0102 0846     		mov	r0, r1
 682 0104 0B22     		movs	r2, #11
 683 0106 FFF7FEFF 		bl	_SendPacket
 684 010a 0023     		movs	r3, #0
ARM GAS  C:\Users\ali\AppData\Local\Temp\ccPL16ze.s 			page 13


 685 010c 84F80034 		strb	r3, [r4, #1024]
 686 0110 BCE7     		b	.L174
 687              	.L179:
 688 0112 00BF     		.align	2
 689              	.L178:
 690 0114 00000000 		.word	.LANCHOR0
 691 0118 34040000 		.word	.LANCHOR0+1076
 692              		.size	_HandleIncomingPacket, .-_HandleIncomingPacket
 693              		.section	.text._SendPacket,"ax",%progbits
 694              		.align	2
 695              		.thumb
 696              		.thumb_func
 697              		.type	_SendPacket, %function
 698              	_SendPacket:
 699              		@ args = 0, pretend = 0, frame = 16
 700              		@ frame_needed = 0, uses_anonymous_args = 0
 701 0000 2DE9F043 		push	{r4, r5, r6, r7, r8, r9, lr}
 702 0004 5C4D     		ldr	r5, .L213
 703 0006 85B0     		sub	sp, sp, #20
 704 0008 95F80034 		ldrb	r3, [r5, #1024]	@ zero_extendqisi2
 705 000c 0646     		mov	r6, r0
 706 000e 012B     		cmp	r3, #1
 707 0010 0C46     		mov	r4, r1
 708 0012 1746     		mov	r7, r2
 709 0014 14D0     		beq	.L186
 710 0016 8BB9     		cbnz	r3, .L207
 711              	.L185:
 712 0018 95F81834 		ldrb	r3, [r5, #1048]	@ zero_extendqisi2
 713 001c 574A     		ldr	r2, .L213+4
 714 001e 03EB4303 		add	r3, r3, r3, lsl #1
 715 0022 02EBC303 		add	r3, r2, r3, lsl #3
 716 0026 DA6E     		ldr	r2, [r3, #108]
 717 0028 1B6F     		ldr	r3, [r3, #112]
 718 002a 534C     		ldr	r4, .L213
 719 002c 9A42     		cmp	r2, r3
 720 002e 02D0     		beq	.L180
 721 0030 94F80254 		ldrb	r5, [r4, #1026]	@ zero_extendqisi2
 722 0034 5DB3     		cbz	r5, .L208
 723              	.L180:
 724 0036 05B0     		add	sp, sp, #20
 725              		@ sp needed
 726 0038 BDE8F083 		pop	{r4, r5, r6, r7, r8, r9, pc}
 727              	.L207:
 728 003c 022B     		cmp	r3, #2
 729 003e 59D0     		beq	.L209
 730              	.L186:
 731 0040 1F2F     		cmp	r7, #31
 732 0042 2ED8     		bhi	.L183
 733 0044 D5F81C34 		ldr	r3, [r5, #1052]
 734 0048 FB40     		lsrs	r3, r3, r7
 735 004a DB07     		lsls	r3, r3, #31
 736 004c E4D4     		bmi	.L185
 737 004e 172F     		cmp	r7, #23
 738 0050 27D8     		bhi	.L183
 739 0052 06F8017C 		strb	r7, [r6, #-1]
 740 0056 711E     		subs	r1, r6, #1
 741              	.L194:
ARM GAS  C:\Users\ali\AppData\Local\Temp\ccPL16ze.s 			page 14


 742 0058 494A     		ldr	r2, .L213+8
 743 005a D5F80C34 		ldr	r3, [r5, #1036]
 744 005e 1668     		ldr	r6, [r2]
 745 0060 F31A     		subs	r3, r6, r3
 746 0062 7F2B     		cmp	r3, #127
 747 0064 06D9     		bls	.L198
 748              	.L199:
 749 0066 63F07F02 		orn	r2, r3, #127
 750 006a DB09     		lsrs	r3, r3, #7
 751 006c 7F2B     		cmp	r3, #127
 752 006e 04F8012B 		strb	r2, [r4], #1
 753 0072 F8D8     		bhi	.L199
 754              	.L198:
 755 0074 2246     		mov	r2, r4
 756 0076 02F8013B 		strb	r3, [r2], #1
 757 007a 521A     		subs	r2, r2, r1
 758 007c 95F80104 		ldrb	r0, [r5, #1025]	@ zero_extendqisi2
 759 0080 3D4C     		ldr	r4, .L213
 760 0082 FFF7FEFF 		bl	SEGGER_RTT_ASM_WriteSkipNoLock
 761 0086 78B3     		cbz	r0, .L200
 762 0088 C4F80C64 		str	r6, [r4, #1036]
 763 008c C4E7     		b	.L185
 764              	.L208:
 765 008e 0123     		movs	r3, #1
 766 0090 84F80234 		strb	r3, [r4, #1026]
 767 0094 FFF7FEFF 		bl	_HandleIncomingPacket
 768 0098 84F80254 		strb	r5, [r4, #1026]
 769 009c 05B0     		add	sp, sp, #20
 770              		@ sp needed
 771 009e BDE8F083 		pop	{r4, r5, r6, r7, r8, r9, pc}
 772              	.L183:
 773 00a2 A31B     		subs	r3, r4, r6
 774 00a4 7F2B     		cmp	r3, #127
 775 00a6 0FD8     		bhi	.L210
 776 00a8 DBB2     		uxtb	r3, r3
 777 00aa 7F2F     		cmp	r7, #127
 778 00ac 06F1FF31 		add	r1, r6, #-1
 779 00b0 06F8013C 		strb	r3, [r6, #-1]
 780 00b4 14D9     		bls	.L197
 781              	.L211:
 782 00b6 FB09     		lsrs	r3, r7, #7
 783 00b8 67F07F07 		orn	r7, r7, #127
 784 00bc 01F8013C 		strb	r3, [r1, #-1]
 785 00c0 01F8027C 		strb	r7, [r1, #-2]
 786 00c4 0239     		subs	r1, r1, #2
 787 00c6 C7E7     		b	.L194
 788              	.L210:
 789 00c8 63F07F02 		orn	r2, r3, #127
 790 00cc 7F2F     		cmp	r7, #127
 791 00ce C3F3C713 		ubfx	r3, r3, #7, #8
 792 00d2 06F8022C 		strb	r2, [r6, #-2]
 793 00d6 A6F10201 		sub	r1, r6, #2
 794 00da 06F8013C 		strb	r3, [r6, #-1]
 795 00de EAD8     		bhi	.L211
 796              	.L197:
 797 00e0 01F8017C 		strb	r7, [r1, #-1]
 798 00e4 0139     		subs	r1, r1, #1
ARM GAS  C:\Users\ali\AppData\Local\Temp\ccPL16ze.s 			page 15


 799 00e6 B7E7     		b	.L194
 800              	.L200:
 801 00e8 94F80034 		ldrb	r3, [r4, #1024]	@ zero_extendqisi2
 802 00ec 0133     		adds	r3, r3, #1
 803 00ee 84F80034 		strb	r3, [r4, #1024]
 804 00f2 91E7     		b	.L185
 805              	.L209:
 806 00f4 D5F81424 		ldr	r2, [r5, #1044]
 807 00f8 0123     		movs	r3, #1
 808 00fa 7F2A     		cmp	r2, #127
 809 00fc 8DF80430 		strb	r3, [sp, #4]
 810 0100 0DF10503 		add	r3, sp, #5
 811 0104 06D9     		bls	.L187
 812              	.L188:
 813 0106 62F07F01 		orn	r1, r2, #127
 814 010a D209     		lsrs	r2, r2, #7
 815 010c 7F2A     		cmp	r2, #127
 816 010e 03F8011B 		strb	r1, [r3], #1
 817 0112 F8D8     		bhi	.L188
 818              	.L187:
 819 0114 1A49     		ldr	r1, .L213+8
 820 0116 1A70     		strb	r2, [r3]
 821 0118 D1F80080 		ldr	r8, [r1]
 822 011c D5F80C14 		ldr	r1, [r5, #1036]
 823 0120 5A1C     		adds	r2, r3, #1
 824 0122 C1EB0803 		rsb	r3, r1, r8
 825 0126 7F2B     		cmp	r3, #127
 826 0128 06D9     		bls	.L189
 827              	.L190:
 828 012a 63F07F01 		orn	r1, r3, #127
 829 012e DB09     		lsrs	r3, r3, #7
 830 0130 7F2B     		cmp	r3, #127
 831 0132 02F8011B 		strb	r1, [r2], #1
 832 0136 F8D8     		bhi	.L190
 833              	.L189:
 834 0138 01A9     		add	r1, sp, #4
 835 013a 02F8013B 		strb	r3, [r2], #1
 836 013e 521A     		subs	r2, r2, r1
 837 0140 95F80104 		ldrb	r0, [r5, #1025]	@ zero_extendqisi2
 838 0144 DFF83090 		ldr	r9, .L213
 839 0148 FFF7FEFF 		bl	SEGGER_RTT_ASM_WriteSkipNoLock
 840 014c 50B9     		cbnz	r0, .L212
 841 014e D9F81424 		ldr	r2, [r9, #1044]
 842 0152 99F80034 		ldrb	r3, [r9, #1024]	@ zero_extendqisi2
 843 0156 0132     		adds	r2, r2, #1
 844 0158 C9F81424 		str	r2, [r9, #1044]
 845              	.L192:
 846 015c 012B     		cmp	r3, #1
 847 015e 7FF45BAF 		bne	.L185
 848 0162 6DE7     		b	.L186
 849              	.L212:
 850 0164 99F80034 		ldrb	r3, [r9, #1024]	@ zero_extendqisi2
 851 0168 C9F80C84 		str	r8, [r9, #1036]
 852 016c 013B     		subs	r3, r3, #1
 853 016e DBB2     		uxtb	r3, r3
 854 0170 89F80034 		strb	r3, [r9, #1024]
 855 0174 F2E7     		b	.L192
ARM GAS  C:\Users\ali\AppData\Local\Temp\ccPL16ze.s 			page 16


 856              	.L214:
 857 0176 00BF     		.align	2
 858              	.L213:
 859 0178 00000000 		.word	.LANCHOR0
 860 017c 00000000 		.word	_SEGGER_RTT
 861 0180 041000E0 		.word	-536866812
 862              		.size	_SendPacket, .-_SendPacket
 863              		.section	.text.SEGGER_SYSVIEW_RecordU32,"ax",%progbits
 864              		.align	2
 865              		.global	SEGGER_SYSVIEW_RecordU32
 866              		.thumb
 867              		.thumb_func
 868              		.type	SEGGER_SYSVIEW_RecordU32, %function
 869              	SEGGER_SYSVIEW_RecordU32:
 870              		@ args = 0, pretend = 0, frame = 0
 871              		@ frame_needed = 0, uses_anonymous_args = 0
 872 0000 38B5     		push	{r3, r4, r5, lr}
 873 0002 0246     		mov	r2, r0
 874 0004 0B46     		mov	r3, r1
 875              		.syntax unified
 876              	@ 1410 "..\SEGGER\SEGGER_SYSVIEW.c" 1
 877 0006 EFF31185 		mrs   r5, basepri  
 878 000a 4FF02001 		mov   r1, #32       
 879 000e 81F31188 		msr   basepri, r1  
 880              		
 881              	@ 0 "" 2
 882              		.thumb
 883              		.syntax unified
 884 0012 7F2B     		cmp	r3, #127
 885 0014 0849     		ldr	r1, .L221
 886 0016 06D9     		bls	.L216
 887              	.L217:
 888 0018 63F07F04 		orn	r4, r3, #127
 889 001c DB09     		lsrs	r3, r3, #7
 890 001e 7F2B     		cmp	r3, #127
 891 0020 01F8014B 		strb	r4, [r1], #1
 892 0024 F8D8     		bhi	.L217
 893              	.L216:
 894 0026 01F8013B 		strb	r3, [r1], #1
 895 002a 0348     		ldr	r0, .L221
 896 002c FFF7FEFF 		bl	_SendPacket
 897              		.syntax unified
 898              	@ 1415 "..\SEGGER\SEGGER_SYSVIEW.c" 1
 899 0030 85F31188 		msr   basepri, r5  
 900              		
 901              	@ 0 "" 2
 902              		.thumb
 903              		.syntax unified
 904 0034 38BD     		pop	{r3, r4, r5, pc}
 905              	.L222:
 906 0036 00BF     		.align	2
 907              	.L221:
 908 0038 34040000 		.word	.LANCHOR0+1076
 909              		.size	SEGGER_SYSVIEW_RecordU32, .-SEGGER_SYSVIEW_RecordU32
 910              		.section	.text.SEGGER_SYSVIEW_RecordU32x2,"ax",%progbits
 911              		.align	2
 912              		.global	SEGGER_SYSVIEW_RecordU32x2
ARM GAS  C:\Users\ali\AppData\Local\Temp\ccPL16ze.s 			page 17


 913              		.thumb
 914              		.thumb_func
 915              		.type	SEGGER_SYSVIEW_RecordU32x2, %function
 916              	SEGGER_SYSVIEW_RecordU32x2:
 917              		@ args = 0, pretend = 0, frame = 0
 918              		@ frame_needed = 0, uses_anonymous_args = 0
 919 0000 38B5     		push	{r3, r4, r5, lr}
 920 0002 0B46     		mov	r3, r1
 921              		.syntax unified
 922              	@ 1433 "..\SEGGER\SEGGER_SYSVIEW.c" 1
 923 0004 EFF31185 		mrs   r5, basepri  
 924 0008 4FF02001 		mov   r1, #32       
 925 000c 81F31188 		msr   basepri, r1  
 926              		
 927              	@ 0 "" 2
 928              		.thumb
 929              		.syntax unified
 930 0010 7F2B     		cmp	r3, #127
 931 0012 0F49     		ldr	r1, .L232
 932 0014 06D9     		bls	.L224
 933              	.L225:
 934 0016 63F07F04 		orn	r4, r3, #127
 935 001a DB09     		lsrs	r3, r3, #7
 936 001c 7F2B     		cmp	r3, #127
 937 001e 01F8014B 		strb	r4, [r1], #1
 938 0022 F8D8     		bhi	.L225
 939              	.L224:
 940 0024 7F2A     		cmp	r2, #127
 941 0026 0B70     		strb	r3, [r1]
 942 0028 01F10101 		add	r1, r1, #1
 943 002c 06D9     		bls	.L226
 944              	.L227:
 945 002e 62F07F03 		orn	r3, r2, #127
 946 0032 D209     		lsrs	r2, r2, #7
 947 0034 7F2A     		cmp	r2, #127
 948 0036 01F8013B 		strb	r3, [r1], #1
 949 003a F8D8     		bhi	.L227
 950              	.L226:
 951 003c 01F8012B 		strb	r2, [r1], #1
 952 0040 0246     		mov	r2, r0
 953 0042 0348     		ldr	r0, .L232
 954 0044 FFF7FEFF 		bl	_SendPacket
 955              		.syntax unified
 956              	@ 1439 "..\SEGGER\SEGGER_SYSVIEW.c" 1
 957 0048 85F31188 		msr   basepri, r5  
 958              		
 959              	@ 0 "" 2
 960              		.thumb
 961              		.syntax unified
 962 004c 38BD     		pop	{r3, r4, r5, pc}
 963              	.L233:
 964 004e 00BF     		.align	2
 965              	.L232:
 966 0050 34040000 		.word	.LANCHOR0+1076
 967              		.size	SEGGER_SYSVIEW_RecordU32x2, .-SEGGER_SYSVIEW_RecordU32x2
 968              		.section	.text.SEGGER_SYSVIEW_RecordU32x3,"ax",%progbits
 969              		.align	2
ARM GAS  C:\Users\ali\AppData\Local\Temp\ccPL16ze.s 			page 18


 970              		.global	SEGGER_SYSVIEW_RecordU32x3
 971              		.thumb
 972              		.thumb_func
 973              		.type	SEGGER_SYSVIEW_RecordU32x3, %function
 974              	SEGGER_SYSVIEW_RecordU32x3:
 975              		@ args = 0, pretend = 0, frame = 0
 976              		@ frame_needed = 0, uses_anonymous_args = 0
 977 0000 70B5     		push	{r4, r5, r6, lr}
 978 0002 0C46     		mov	r4, r1
 979              		.syntax unified
 980              	@ 1458 "..\SEGGER\SEGGER_SYSVIEW.c" 1
 981 0004 EFF31185 		mrs   r5, basepri  
 982 0008 4FF02001 		mov   r1, #32       
 983 000c 81F31188 		msr   basepri, r1  
 984              		
 985              	@ 0 "" 2
 986              		.thumb
 987              		.syntax unified
 988 0010 7F2C     		cmp	r4, #127
 989 0012 1549     		ldr	r1, .L246
 990 0014 06D9     		bls	.L235
 991              	.L236:
 992 0016 64F07F06 		orn	r6, r4, #127
 993 001a E409     		lsrs	r4, r4, #7
 994 001c 7F2C     		cmp	r4, #127
 995 001e 01F8016B 		strb	r6, [r1], #1
 996 0022 F8D8     		bhi	.L236
 997              	.L235:
 998 0024 7F2A     		cmp	r2, #127
 999 0026 0C70     		strb	r4, [r1]
 1000 0028 01F10101 		add	r1, r1, #1
 1001 002c 06D9     		bls	.L237
 1002              	.L238:
 1003 002e 62F07F04 		orn	r4, r2, #127
 1004 0032 D209     		lsrs	r2, r2, #7
 1005 0034 7F2A     		cmp	r2, #127
 1006 0036 01F8014B 		strb	r4, [r1], #1
 1007 003a F8D8     		bhi	.L238
 1008              	.L237:
 1009 003c 7F2B     		cmp	r3, #127
 1010 003e 0A70     		strb	r2, [r1]
 1011 0040 01F10101 		add	r1, r1, #1
 1012 0044 06D9     		bls	.L239
 1013              	.L240:
 1014 0046 63F07F02 		orn	r2, r3, #127
 1015 004a DB09     		lsrs	r3, r3, #7
 1016 004c 7F2B     		cmp	r3, #127
 1017 004e 01F8012B 		strb	r2, [r1], #1
 1018 0052 F8D8     		bhi	.L240
 1019              	.L239:
 1020 0054 0246     		mov	r2, r0
 1021 0056 01F8013B 		strb	r3, [r1], #1
 1022 005a 0348     		ldr	r0, .L246
 1023 005c FFF7FEFF 		bl	_SendPacket
 1024              		.syntax unified
 1025              	@ 1465 "..\SEGGER\SEGGER_SYSVIEW.c" 1
 1026 0060 85F31188 		msr   basepri, r5  
ARM GAS  C:\Users\ali\AppData\Local\Temp\ccPL16ze.s 			page 19


 1027              		
 1028              	@ 0 "" 2
 1029              		.thumb
 1030              		.syntax unified
 1031 0064 70BD     		pop	{r4, r5, r6, pc}
 1032              	.L247:
 1033 0066 00BF     		.align	2
 1034              	.L246:
 1035 0068 34040000 		.word	.LANCHOR0+1076
 1036              		.size	SEGGER_SYSVIEW_RecordU32x3, .-SEGGER_SYSVIEW_RecordU32x3
 1037              		.section	.text.SEGGER_SYSVIEW_RecordU32x4,"ax",%progbits
 1038              		.align	2
 1039              		.global	SEGGER_SYSVIEW_RecordU32x4
 1040              		.thumb
 1041              		.thumb_func
 1042              		.type	SEGGER_SYSVIEW_RecordU32x4, %function
 1043              	SEGGER_SYSVIEW_RecordU32x4:
 1044              		@ args = 4, pretend = 0, frame = 0
 1045              		@ frame_needed = 0, uses_anonymous_args = 0
 1046 0000 F8B5     		push	{r3, r4, r5, r6, r7, lr}
 1047 0002 069C     		ldr	r4, [sp, #24]
 1048 0004 0E46     		mov	r6, r1
 1049              		.syntax unified
 1050              	@ 1485 "..\SEGGER\SEGGER_SYSVIEW.c" 1
 1051 0006 EFF31185 		mrs   r5, basepri  
 1052 000a 4FF02001 		mov   r1, #32       
 1053 000e 81F31188 		msr   basepri, r1  
 1054              		
 1055              	@ 0 "" 2
 1056              		.thumb
 1057              		.syntax unified
 1058 0012 7F2E     		cmp	r6, #127
 1059 0014 1A49     		ldr	r1, .L263
 1060 0016 06D9     		bls	.L249
 1061              	.L250:
 1062 0018 66F07F07 		orn	r7, r6, #127
 1063 001c F609     		lsrs	r6, r6, #7
 1064 001e 7F2E     		cmp	r6, #127
 1065 0020 01F8017B 		strb	r7, [r1], #1
 1066 0024 F8D8     		bhi	.L250
 1067              	.L249:
 1068 0026 7F2A     		cmp	r2, #127
 1069 0028 0E70     		strb	r6, [r1]
 1070 002a 01F10101 		add	r1, r1, #1
 1071 002e 06D9     		bls	.L251
 1072              	.L252:
 1073 0030 62F07F06 		orn	r6, r2, #127
 1074 0034 D209     		lsrs	r2, r2, #7
 1075 0036 7F2A     		cmp	r2, #127
 1076 0038 01F8016B 		strb	r6, [r1], #1
 1077 003c F8D8     		bhi	.L252
 1078              	.L251:
 1079 003e 7F2B     		cmp	r3, #127
 1080 0040 0A70     		strb	r2, [r1]
 1081 0042 01F10101 		add	r1, r1, #1
 1082 0046 06D9     		bls	.L253
 1083              	.L254:
ARM GAS  C:\Users\ali\AppData\Local\Temp\ccPL16ze.s 			page 20


 1084 0048 63F07F02 		orn	r2, r3, #127
 1085 004c DB09     		lsrs	r3, r3, #7
 1086 004e 7F2B     		cmp	r3, #127
 1087 0050 01F8012B 		strb	r2, [r1], #1
 1088 0054 F8D8     		bhi	.L254
 1089              	.L253:
 1090 0056 7F2C     		cmp	r4, #127
 1091 0058 0B70     		strb	r3, [r1]
 1092 005a 01F10101 		add	r1, r1, #1
 1093 005e 06D9     		bls	.L255
 1094              	.L256:
 1095 0060 64F07F03 		orn	r3, r4, #127
 1096 0064 E409     		lsrs	r4, r4, #7
 1097 0066 7F2C     		cmp	r4, #127
 1098 0068 01F8013B 		strb	r3, [r1], #1
 1099 006c F8D8     		bhi	.L256
 1100              	.L255:
 1101 006e 0246     		mov	r2, r0
 1102 0070 01F8014B 		strb	r4, [r1], #1
 1103 0074 0248     		ldr	r0, .L263
 1104 0076 FFF7FEFF 		bl	_SendPacket
 1105              		.syntax unified
 1106              	@ 1493 "..\SEGGER\SEGGER_SYSVIEW.c" 1
 1107 007a 85F31188 		msr   basepri, r5  
 1108              		
 1109              	@ 0 "" 2
 1110              		.thumb
 1111              		.syntax unified
 1112 007e F8BD     		pop	{r3, r4, r5, r6, r7, pc}
 1113              	.L264:
 1114              		.align	2
 1115              	.L263:
 1116 0080 34040000 		.word	.LANCHOR0+1076
 1117              		.size	SEGGER_SYSVIEW_RecordU32x4, .-SEGGER_SYSVIEW_RecordU32x4
 1118              		.section	.text.SEGGER_SYSVIEW_RecordU32x5,"ax",%progbits
 1119              		.align	2
 1120              		.global	SEGGER_SYSVIEW_RecordU32x5
 1121              		.thumb
 1122              		.thumb_func
 1123              		.type	SEGGER_SYSVIEW_RecordU32x5, %function
 1124              	SEGGER_SYSVIEW_RecordU32x5:
 1125              		@ args = 8, pretend = 0, frame = 0
 1126              		@ frame_needed = 0, uses_anonymous_args = 0
 1127 0000 F8B5     		push	{r3, r4, r5, r6, r7, lr}
 1128 0002 069D     		ldr	r5, [sp, #24]
 1129 0004 0F46     		mov	r7, r1
 1130 0006 079C     		ldr	r4, [sp, #28]
 1131              		.syntax unified
 1132              	@ 1514 "..\SEGGER\SEGGER_SYSVIEW.c" 1
 1133 0008 EFF31186 		mrs   r6, basepri  
 1134 000c 4FF02001 		mov   r1, #32       
 1135 0010 81F31188 		msr   basepri, r1  
 1136              		
 1137              	@ 0 "" 2
 1138              		.thumb
 1139              		.syntax unified
 1140 0014 7F2F     		cmp	r7, #127
ARM GAS  C:\Users\ali\AppData\Local\Temp\ccPL16ze.s 			page 21


 1141 0016 2149     		ldr	r1, .L283
 1142 0018 06D9     		bls	.L266
 1143              	.L267:
 1144 001a 67F07F0E 		orn	lr, r7, #127
 1145 001e FF09     		lsrs	r7, r7, #7
 1146 0020 7F2F     		cmp	r7, #127
 1147 0022 01F801EB 		strb	lr, [r1], #1
 1148 0026 F8D8     		bhi	.L267
 1149              	.L266:
 1150 0028 7F2A     		cmp	r2, #127
 1151 002a 0F70     		strb	r7, [r1]
 1152 002c 01F10101 		add	r1, r1, #1
 1153 0030 06D9     		bls	.L268
 1154              	.L269:
 1155 0032 62F07F07 		orn	r7, r2, #127
 1156 0036 D209     		lsrs	r2, r2, #7
 1157 0038 7F2A     		cmp	r2, #127
 1158 003a 01F8017B 		strb	r7, [r1], #1
 1159 003e F8D8     		bhi	.L269
 1160              	.L268:
 1161 0040 7F2B     		cmp	r3, #127
 1162 0042 0A70     		strb	r2, [r1]
 1163 0044 01F10101 		add	r1, r1, #1
 1164 0048 06D9     		bls	.L270
 1165              	.L271:
 1166 004a 63F07F02 		orn	r2, r3, #127
 1167 004e DB09     		lsrs	r3, r3, #7
 1168 0050 7F2B     		cmp	r3, #127
 1169 0052 01F8012B 		strb	r2, [r1], #1
 1170 0056 F8D8     		bhi	.L271
 1171              	.L270:
 1172 0058 7F2D     		cmp	r5, #127
 1173 005a 0B70     		strb	r3, [r1]
 1174 005c 01F10101 		add	r1, r1, #1
 1175 0060 06D9     		bls	.L272
 1176              	.L273:
 1177 0062 65F07F03 		orn	r3, r5, #127
 1178 0066 ED09     		lsrs	r5, r5, #7
 1179 0068 7F2D     		cmp	r5, #127
 1180 006a 01F8013B 		strb	r3, [r1], #1
 1181 006e F8D8     		bhi	.L273
 1182              	.L272:
 1183 0070 7F2C     		cmp	r4, #127
 1184 0072 0D70     		strb	r5, [r1]
 1185 0074 01F10101 		add	r1, r1, #1
 1186 0078 06D9     		bls	.L274
 1187              	.L275:
 1188 007a 64F07F03 		orn	r3, r4, #127
 1189 007e E409     		lsrs	r4, r4, #7
 1190 0080 7F2C     		cmp	r4, #127
 1191 0082 01F8013B 		strb	r3, [r1], #1
 1192 0086 F8D8     		bhi	.L275
 1193              	.L274:
 1194 0088 0246     		mov	r2, r0
 1195 008a 01F8014B 		strb	r4, [r1], #1
 1196 008e 0348     		ldr	r0, .L283
 1197 0090 FFF7FEFF 		bl	_SendPacket
ARM GAS  C:\Users\ali\AppData\Local\Temp\ccPL16ze.s 			page 22


 1198              		.syntax unified
 1199              	@ 1523 "..\SEGGER\SEGGER_SYSVIEW.c" 1
 1200 0094 86F31188 		msr   basepri, r6  
 1201              		
 1202              	@ 0 "" 2
 1203              		.thumb
 1204              		.syntax unified
 1205 0098 F8BD     		pop	{r3, r4, r5, r6, r7, pc}
 1206              	.L284:
 1207 009a 00BF     		.align	2
 1208              	.L283:
 1209 009c 34040000 		.word	.LANCHOR0+1076
 1210              		.size	SEGGER_SYSVIEW_RecordU32x5, .-SEGGER_SYSVIEW_RecordU32x5
 1211              		.section	.text.SEGGER_SYSVIEW_RecordU32x6,"ax",%progbits
 1212              		.align	2
 1213              		.global	SEGGER_SYSVIEW_RecordU32x6
 1214              		.thumb
 1215              		.thumb_func
 1216              		.type	SEGGER_SYSVIEW_RecordU32x6, %function
 1217              	SEGGER_SYSVIEW_RecordU32x6:
 1218              		@ args = 12, pretend = 0, frame = 0
 1219              		@ frame_needed = 0, uses_anonymous_args = 0
 1220 0000 F8B5     		push	{r3, r4, r5, r6, r7, lr}
 1221 0002 069F     		ldr	r7, [sp, #24]
 1222 0004 8E46     		mov	lr, r1
 1223 0006 079E     		ldr	r6, [sp, #28]
 1224 0008 089C     		ldr	r4, [sp, #32]
 1225              		.syntax unified
 1226              	@ 1545 "..\SEGGER\SEGGER_SYSVIEW.c" 1
 1227 000a EFF31185 		mrs   r5, basepri  
 1228 000e 4FF02001 		mov   r1, #32       
 1229 0012 81F31188 		msr   basepri, r1  
 1230              		
 1231              	@ 0 "" 2
 1232              		.thumb
 1233              		.syntax unified
 1234 0016 BEF17F0F 		cmp	lr, #127
 1235 001a 2849     		ldr	r1, .L306
 1236 001c 08D9     		bls	.L286
 1237              	.L287:
 1238 001e 6EF07F0C 		orn	ip, lr, #127
 1239 0022 4FEADE1E 		lsr	lr, lr, #7
 1240 0026 BEF17F0F 		cmp	lr, #127
 1241 002a 01F801CB 		strb	ip, [r1], #1
 1242 002e F6D8     		bhi	.L287
 1243              	.L286:
 1244 0030 7F2A     		cmp	r2, #127
 1245 0032 81F800E0 		strb	lr, [r1]
 1246 0036 01F10101 		add	r1, r1, #1
 1247 003a 06D9     		bls	.L288
 1248              	.L289:
 1249 003c 62F07F0E 		orn	lr, r2, #127
 1250 0040 D209     		lsrs	r2, r2, #7
 1251 0042 7F2A     		cmp	r2, #127
 1252 0044 01F801EB 		strb	lr, [r1], #1
 1253 0048 F8D8     		bhi	.L289
 1254              	.L288:
ARM GAS  C:\Users\ali\AppData\Local\Temp\ccPL16ze.s 			page 23


 1255 004a 7F2B     		cmp	r3, #127
 1256 004c 0A70     		strb	r2, [r1]
 1257 004e 01F10101 		add	r1, r1, #1
 1258 0052 06D9     		bls	.L290
 1259              	.L291:
 1260 0054 63F07F02 		orn	r2, r3, #127
 1261 0058 DB09     		lsrs	r3, r3, #7
 1262 005a 7F2B     		cmp	r3, #127
 1263 005c 01F8012B 		strb	r2, [r1], #1
 1264 0060 F8D8     		bhi	.L291
 1265              	.L290:
 1266 0062 7F2F     		cmp	r7, #127
 1267 0064 0B70     		strb	r3, [r1]
 1268 0066 01F10101 		add	r1, r1, #1
 1269 006a 06D9     		bls	.L292
 1270              	.L293:
 1271 006c 67F07F03 		orn	r3, r7, #127
 1272 0070 FF09     		lsrs	r7, r7, #7
 1273 0072 7F2F     		cmp	r7, #127
 1274 0074 01F8013B 		strb	r3, [r1], #1
 1275 0078 F8D8     		bhi	.L293
 1276              	.L292:
 1277 007a 7F2E     		cmp	r6, #127
 1278 007c 0F70     		strb	r7, [r1]
 1279 007e 01F10101 		add	r1, r1, #1
 1280 0082 06D9     		bls	.L294
 1281              	.L295:
 1282 0084 66F07F03 		orn	r3, r6, #127
 1283 0088 F609     		lsrs	r6, r6, #7
 1284 008a 7F2E     		cmp	r6, #127
 1285 008c 01F8013B 		strb	r3, [r1], #1
 1286 0090 F8D8     		bhi	.L295
 1287              	.L294:
 1288 0092 7F2C     		cmp	r4, #127
 1289 0094 0E70     		strb	r6, [r1]
 1290 0096 01F10101 		add	r1, r1, #1
 1291 009a 06D9     		bls	.L296
 1292              	.L297:
 1293 009c 64F07F03 		orn	r3, r4, #127
 1294 00a0 E409     		lsrs	r4, r4, #7
 1295 00a2 7F2C     		cmp	r4, #127
 1296 00a4 01F8013B 		strb	r3, [r1], #1
 1297 00a8 F8D8     		bhi	.L297
 1298              	.L296:
 1299 00aa 0246     		mov	r2, r0
 1300 00ac 01F8014B 		strb	r4, [r1], #1
 1301 00b0 0248     		ldr	r0, .L306
 1302 00b2 FFF7FEFF 		bl	_SendPacket
 1303              		.syntax unified
 1304              	@ 1555 "..\SEGGER\SEGGER_SYSVIEW.c" 1
 1305 00b6 85F31188 		msr   basepri, r5  
 1306              		
 1307              	@ 0 "" 2
 1308              		.thumb
 1309              		.syntax unified
 1310 00ba F8BD     		pop	{r3, r4, r5, r6, r7, pc}
 1311              	.L307:
ARM GAS  C:\Users\ali\AppData\Local\Temp\ccPL16ze.s 			page 24


 1312              		.align	2
 1313              	.L306:
 1314 00bc 34040000 		.word	.LANCHOR0+1076
 1315              		.size	SEGGER_SYSVIEW_RecordU32x6, .-SEGGER_SYSVIEW_RecordU32x6
 1316              		.section	.text.SEGGER_SYSVIEW_RecordU32x7,"ax",%progbits
 1317              		.align	2
 1318              		.global	SEGGER_SYSVIEW_RecordU32x7
 1319              		.thumb
 1320              		.thumb_func
 1321              		.type	SEGGER_SYSVIEW_RecordU32x7, %function
 1322              	SEGGER_SYSVIEW_RecordU32x7:
 1323              		@ args = 16, pretend = 0, frame = 0
 1324              		@ frame_needed = 0, uses_anonymous_args = 0
 1325 0000 2DE9F041 		push	{r4, r5, r6, r7, r8, lr}
 1326 0004 8C46     		mov	ip, r1
 1327 0006 DDF818E0 		ldr	lr, [sp, #24]
 1328 000a 079F     		ldr	r7, [sp, #28]
 1329 000c 089E     		ldr	r6, [sp, #32]
 1330 000e 099D     		ldr	r5, [sp, #36]
 1331              		.syntax unified
 1332              	@ 1578 "..\SEGGER\SEGGER_SYSVIEW.c" 1
 1333 0010 EFF31184 		mrs   r4, basepri  
 1334 0014 4FF02001 		mov   r1, #32       
 1335 0018 81F31188 		msr   basepri, r1  
 1336              		
 1337              	@ 0 "" 2
 1338              		.thumb
 1339              		.syntax unified
 1340 001c BCF17F0F 		cmp	ip, #127
 1341 0020 3049     		ldr	r1, .L332
 1342 0022 08D9     		bls	.L309
 1343              	.L310:
 1344 0024 6CF07F08 		orn	r8, ip, #127
 1345 0028 4FEADC1C 		lsr	ip, ip, #7
 1346 002c BCF17F0F 		cmp	ip, #127
 1347 0030 01F8018B 		strb	r8, [r1], #1
 1348 0034 F6D8     		bhi	.L310
 1349              	.L309:
 1350 0036 7F2A     		cmp	r2, #127
 1351 0038 81F800C0 		strb	ip, [r1]
 1352 003c 01F10101 		add	r1, r1, #1
 1353 0040 06D9     		bls	.L311
 1354              	.L312:
 1355 0042 62F07F0C 		orn	ip, r2, #127
 1356 0046 D209     		lsrs	r2, r2, #7
 1357 0048 7F2A     		cmp	r2, #127
 1358 004a 01F801CB 		strb	ip, [r1], #1
 1359 004e F8D8     		bhi	.L312
 1360              	.L311:
 1361 0050 7F2B     		cmp	r3, #127
 1362 0052 0A70     		strb	r2, [r1]
 1363 0054 01F10101 		add	r1, r1, #1
 1364 0058 06D9     		bls	.L313
 1365              	.L314:
 1366 005a 63F07F02 		orn	r2, r3, #127
 1367 005e DB09     		lsrs	r3, r3, #7
 1368 0060 7F2B     		cmp	r3, #127
ARM GAS  C:\Users\ali\AppData\Local\Temp\ccPL16ze.s 			page 25


 1369 0062 01F8012B 		strb	r2, [r1], #1
 1370 0066 F8D8     		bhi	.L314
 1371              	.L313:
 1372 0068 BEF17F0F 		cmp	lr, #127
 1373 006c 0B70     		strb	r3, [r1]
 1374 006e 01F10101 		add	r1, r1, #1
 1375 0072 08D9     		bls	.L315
 1376              	.L316:
 1377 0074 6EF07F03 		orn	r3, lr, #127
 1378 0078 4FEADE1E 		lsr	lr, lr, #7
 1379 007c BEF17F0F 		cmp	lr, #127
 1380 0080 01F8013B 		strb	r3, [r1], #1
 1381 0084 F6D8     		bhi	.L316
 1382              	.L315:
 1383 0086 7F2F     		cmp	r7, #127
 1384 0088 81F800E0 		strb	lr, [r1]
 1385 008c 01F10101 		add	r1, r1, #1
 1386 0090 06D9     		bls	.L317
 1387              	.L318:
 1388 0092 67F07F03 		orn	r3, r7, #127
 1389 0096 FF09     		lsrs	r7, r7, #7
 1390 0098 7F2F     		cmp	r7, #127
 1391 009a 01F8013B 		strb	r3, [r1], #1
 1392 009e F8D8     		bhi	.L318
 1393              	.L317:
 1394 00a0 7F2E     		cmp	r6, #127
 1395 00a2 0F70     		strb	r7, [r1]
 1396 00a4 01F10101 		add	r1, r1, #1
 1397 00a8 06D9     		bls	.L319
 1398              	.L320:
 1399 00aa 66F07F03 		orn	r3, r6, #127
 1400 00ae F609     		lsrs	r6, r6, #7
 1401 00b0 7F2E     		cmp	r6, #127
 1402 00b2 01F8013B 		strb	r3, [r1], #1
 1403 00b6 F8D8     		bhi	.L320
 1404              	.L319:
 1405 00b8 7F2D     		cmp	r5, #127
 1406 00ba 0E70     		strb	r6, [r1]
 1407 00bc 01F10101 		add	r1, r1, #1
 1408 00c0 06D9     		bls	.L321
 1409              	.L322:
 1410 00c2 65F07F03 		orn	r3, r5, #127
 1411 00c6 ED09     		lsrs	r5, r5, #7
 1412 00c8 7F2D     		cmp	r5, #127
 1413 00ca 01F8013B 		strb	r3, [r1], #1
 1414 00ce F8D8     		bhi	.L322
 1415              	.L321:
 1416 00d0 0246     		mov	r2, r0
 1417 00d2 01F8015B 		strb	r5, [r1], #1
 1418 00d6 0348     		ldr	r0, .L332
 1419 00d8 FFF7FEFF 		bl	_SendPacket
 1420              		.syntax unified
 1421              	@ 1589 "..\SEGGER\SEGGER_SYSVIEW.c" 1
 1422 00dc 84F31188 		msr   basepri, r4  
 1423              		
 1424              	@ 0 "" 2
 1425              		.thumb
ARM GAS  C:\Users\ali\AppData\Local\Temp\ccPL16ze.s 			page 26


 1426              		.syntax unified
 1427 00e0 BDE8F081 		pop	{r4, r5, r6, r7, r8, pc}
 1428              	.L333:
 1429              		.align	2
 1430              	.L332:
 1431 00e4 34040000 		.word	.LANCHOR0+1076
 1432              		.size	SEGGER_SYSVIEW_RecordU32x7, .-SEGGER_SYSVIEW_RecordU32x7
 1433              		.section	.text.SEGGER_SYSVIEW_RecordU32x8,"ax",%progbits
 1434              		.align	2
 1435              		.global	SEGGER_SYSVIEW_RecordU32x8
 1436              		.thumb
 1437              		.thumb_func
 1438              		.type	SEGGER_SYSVIEW_RecordU32x8, %function
 1439              	SEGGER_SYSVIEW_RecordU32x8:
 1440              		@ args = 20, pretend = 0, frame = 0
 1441              		@ frame_needed = 0, uses_anonymous_args = 0
 1442 0000 2DE9F843 		push	{r3, r4, r5, r6, r7, r8, r9, lr}
 1443 0004 DDF820C0 		ldr	ip, [sp, #32]
 1444 0008 8846     		mov	r8, r1
 1445 000a DDF824E0 		ldr	lr, [sp, #36]
 1446 000e 0A9F     		ldr	r7, [sp, #40]
 1447 0010 0B9E     		ldr	r6, [sp, #44]
 1448 0012 0C9D     		ldr	r5, [sp, #48]
 1449              		.syntax unified
 1450              	@ 1613 "..\SEGGER\SEGGER_SYSVIEW.c" 1
 1451 0014 EFF31184 		mrs   r4, basepri  
 1452 0018 4FF02001 		mov   r1, #32       
 1453 001c 81F31188 		msr   basepri, r1  
 1454              		
 1455              	@ 0 "" 2
 1456              		.thumb
 1457              		.syntax unified
 1458 0020 B8F17F0F 		cmp	r8, #127
 1459 0024 3849     		ldr	r1, .L361
 1460 0026 08D9     		bls	.L335
 1461              	.L336:
 1462 0028 68F07F09 		orn	r9, r8, #127
 1463 002c 4FEAD818 		lsr	r8, r8, #7
 1464 0030 B8F17F0F 		cmp	r8, #127
 1465 0034 01F8019B 		strb	r9, [r1], #1
 1466 0038 F6D8     		bhi	.L336
 1467              	.L335:
 1468 003a 7F2A     		cmp	r2, #127
 1469 003c 81F80080 		strb	r8, [r1]
 1470 0040 01F10101 		add	r1, r1, #1
 1471 0044 06D9     		bls	.L337
 1472              	.L338:
 1473 0046 62F07F08 		orn	r8, r2, #127
 1474 004a D209     		lsrs	r2, r2, #7
 1475 004c 7F2A     		cmp	r2, #127
 1476 004e 01F8018B 		strb	r8, [r1], #1
 1477 0052 F8D8     		bhi	.L338
 1478              	.L337:
 1479 0054 7F2B     		cmp	r3, #127
 1480 0056 0A70     		strb	r2, [r1]
 1481 0058 01F10101 		add	r1, r1, #1
 1482 005c 06D9     		bls	.L339
ARM GAS  C:\Users\ali\AppData\Local\Temp\ccPL16ze.s 			page 27


 1483              	.L340:
 1484 005e 63F07F02 		orn	r2, r3, #127
 1485 0062 DB09     		lsrs	r3, r3, #7
 1486 0064 7F2B     		cmp	r3, #127
 1487 0066 01F8012B 		strb	r2, [r1], #1
 1488 006a F8D8     		bhi	.L340
 1489              	.L339:
 1490 006c BCF17F0F 		cmp	ip, #127
 1491 0070 0B70     		strb	r3, [r1]
 1492 0072 01F10101 		add	r1, r1, #1
 1493 0076 08D9     		bls	.L341
 1494              	.L342:
 1495 0078 6CF07F03 		orn	r3, ip, #127
 1496 007c 4FEADC1C 		lsr	ip, ip, #7
 1497 0080 BCF17F0F 		cmp	ip, #127
 1498 0084 01F8013B 		strb	r3, [r1], #1
 1499 0088 F6D8     		bhi	.L342
 1500              	.L341:
 1501 008a BEF17F0F 		cmp	lr, #127
 1502 008e 81F800C0 		strb	ip, [r1]
 1503 0092 01F10101 		add	r1, r1, #1
 1504 0096 08D9     		bls	.L343
 1505              	.L344:
 1506 0098 6EF07F03 		orn	r3, lr, #127
 1507 009c 4FEADE1E 		lsr	lr, lr, #7
 1508 00a0 BEF17F0F 		cmp	lr, #127
 1509 00a4 01F8013B 		strb	r3, [r1], #1
 1510 00a8 F6D8     		bhi	.L344
 1511              	.L343:
 1512 00aa 7F2F     		cmp	r7, #127
 1513 00ac 81F800E0 		strb	lr, [r1]
 1514 00b0 01F10101 		add	r1, r1, #1
 1515 00b4 06D9     		bls	.L345
 1516              	.L346:
 1517 00b6 67F07F03 		orn	r3, r7, #127
 1518 00ba FF09     		lsrs	r7, r7, #7
 1519 00bc 7F2F     		cmp	r7, #127
 1520 00be 01F8013B 		strb	r3, [r1], #1
 1521 00c2 F8D8     		bhi	.L346
 1522              	.L345:
 1523 00c4 7F2E     		cmp	r6, #127
 1524 00c6 0F70     		strb	r7, [r1]
 1525 00c8 01F10101 		add	r1, r1, #1
 1526 00cc 06D9     		bls	.L347
 1527              	.L348:
 1528 00ce 66F07F03 		orn	r3, r6, #127
 1529 00d2 F609     		lsrs	r6, r6, #7
 1530 00d4 7F2E     		cmp	r6, #127
 1531 00d6 01F8013B 		strb	r3, [r1], #1
 1532 00da F8D8     		bhi	.L348
 1533              	.L347:
 1534 00dc 7F2D     		cmp	r5, #127
 1535 00de 0E70     		strb	r6, [r1]
 1536 00e0 01F10101 		add	r1, r1, #1
 1537 00e4 06D9     		bls	.L349
 1538              	.L350:
 1539 00e6 65F07F03 		orn	r3, r5, #127
ARM GAS  C:\Users\ali\AppData\Local\Temp\ccPL16ze.s 			page 28


 1540 00ea ED09     		lsrs	r5, r5, #7
 1541 00ec 7F2D     		cmp	r5, #127
 1542 00ee 01F8013B 		strb	r3, [r1], #1
 1543 00f2 F8D8     		bhi	.L350
 1544              	.L349:
 1545 00f4 0246     		mov	r2, r0
 1546 00f6 01F8015B 		strb	r5, [r1], #1
 1547 00fa 0348     		ldr	r0, .L361
 1548 00fc FFF7FEFF 		bl	_SendPacket
 1549              		.syntax unified
 1550              	@ 1625 "..\SEGGER\SEGGER_SYSVIEW.c" 1
 1551 0100 84F31188 		msr   basepri, r4  
 1552              		
 1553              	@ 0 "" 2
 1554              		.thumb
 1555              		.syntax unified
 1556 0104 BDE8F883 		pop	{r3, r4, r5, r6, r7, r8, r9, pc}
 1557              	.L362:
 1558              		.align	2
 1559              	.L361:
 1560 0108 34040000 		.word	.LANCHOR0+1076
 1561              		.size	SEGGER_SYSVIEW_RecordU32x8, .-SEGGER_SYSVIEW_RecordU32x8
 1562              		.section	.text.SEGGER_SYSVIEW_RecordU32x9,"ax",%progbits
 1563              		.align	2
 1564              		.global	SEGGER_SYSVIEW_RecordU32x9
 1565              		.thumb
 1566              		.thumb_func
 1567              		.type	SEGGER_SYSVIEW_RecordU32x9, %function
 1568              	SEGGER_SYSVIEW_RecordU32x9:
 1569              		@ args = 24, pretend = 0, frame = 0
 1570              		@ frame_needed = 0, uses_anonymous_args = 0
 1571 0000 2DE9F047 		push	{r4, r5, r6, r7, r8, r9, r10, lr}
 1572 0004 0DF12008 		add	r8, sp, #32
 1573 0008 8946     		mov	r9, r1
 1574 000a 98E80051 		ldmia	r8, {r8, ip, lr}
 1575 000e 0B9F     		ldr	r7, [sp, #44]
 1576 0010 0C9E     		ldr	r6, [sp, #48]
 1577 0012 0D9C     		ldr	r4, [sp, #52]
 1578              		.syntax unified
 1579              	@ 1650 "..\SEGGER\SEGGER_SYSVIEW.c" 1
 1580 0014 EFF31185 		mrs   r5, basepri  
 1581 0018 4FF02001 		mov   r1, #32       
 1582 001c 81F31188 		msr   basepri, r1  
 1583              		
 1584              	@ 0 "" 2
 1585              		.thumb
 1586              		.syntax unified
 1587 0020 B9F17F0F 		cmp	r9, #127
 1588 0024 4049     		ldr	r1, .L393
 1589 0026 08D9     		bls	.L364
 1590              	.L365:
 1591 0028 69F07F0A 		orn	r10, r9, #127
 1592 002c 4FEAD919 		lsr	r9, r9, #7
 1593 0030 B9F17F0F 		cmp	r9, #127
 1594 0034 01F801AB 		strb	r10, [r1], #1
 1595 0038 F6D8     		bhi	.L365
 1596              	.L364:
ARM GAS  C:\Users\ali\AppData\Local\Temp\ccPL16ze.s 			page 29


 1597 003a 7F2A     		cmp	r2, #127
 1598 003c 81F80090 		strb	r9, [r1]
 1599 0040 01F10101 		add	r1, r1, #1
 1600 0044 06D9     		bls	.L366
 1601              	.L367:
 1602 0046 62F07F09 		orn	r9, r2, #127
 1603 004a D209     		lsrs	r2, r2, #7
 1604 004c 7F2A     		cmp	r2, #127
 1605 004e 01F8019B 		strb	r9, [r1], #1
 1606 0052 F8D8     		bhi	.L367
 1607              	.L366:
 1608 0054 7F2B     		cmp	r3, #127
 1609 0056 0A70     		strb	r2, [r1]
 1610 0058 01F10101 		add	r1, r1, #1
 1611 005c 06D9     		bls	.L368
 1612              	.L369:
 1613 005e 63F07F02 		orn	r2, r3, #127
 1614 0062 DB09     		lsrs	r3, r3, #7
 1615 0064 7F2B     		cmp	r3, #127
 1616 0066 01F8012B 		strb	r2, [r1], #1
 1617 006a F8D8     		bhi	.L369
 1618              	.L368:
 1619 006c B8F17F0F 		cmp	r8, #127
 1620 0070 0B70     		strb	r3, [r1]
 1621 0072 01F10101 		add	r1, r1, #1
 1622 0076 08D9     		bls	.L370
 1623              	.L371:
 1624 0078 68F07F03 		orn	r3, r8, #127
 1625 007c 4FEAD818 		lsr	r8, r8, #7
 1626 0080 B8F17F0F 		cmp	r8, #127
 1627 0084 01F8013B 		strb	r3, [r1], #1
 1628 0088 F6D8     		bhi	.L371
 1629              	.L370:
 1630 008a BCF17F0F 		cmp	ip, #127
 1631 008e 81F80080 		strb	r8, [r1]
 1632 0092 01F10101 		add	r1, r1, #1
 1633 0096 08D9     		bls	.L372
 1634              	.L373:
 1635 0098 6CF07F03 		orn	r3, ip, #127
 1636 009c 4FEADC1C 		lsr	ip, ip, #7
 1637 00a0 BCF17F0F 		cmp	ip, #127
 1638 00a4 01F8013B 		strb	r3, [r1], #1
 1639 00a8 F6D8     		bhi	.L373
 1640              	.L372:
 1641 00aa BEF17F0F 		cmp	lr, #127
 1642 00ae 81F800C0 		strb	ip, [r1]
 1643 00b2 01F10101 		add	r1, r1, #1
 1644 00b6 08D9     		bls	.L374
 1645              	.L375:
 1646 00b8 6EF07F03 		orn	r3, lr, #127
 1647 00bc 4FEADE1E 		lsr	lr, lr, #7
 1648 00c0 BEF17F0F 		cmp	lr, #127
 1649 00c4 01F8013B 		strb	r3, [r1], #1
 1650 00c8 F6D8     		bhi	.L375
 1651              	.L374:
 1652 00ca 7F2F     		cmp	r7, #127
 1653 00cc 81F800E0 		strb	lr, [r1]
ARM GAS  C:\Users\ali\AppData\Local\Temp\ccPL16ze.s 			page 30


 1654 00d0 01F10101 		add	r1, r1, #1
 1655 00d4 06D9     		bls	.L376
 1656              	.L377:
 1657 00d6 67F07F03 		orn	r3, r7, #127
 1658 00da FF09     		lsrs	r7, r7, #7
 1659 00dc 7F2F     		cmp	r7, #127
 1660 00de 01F8013B 		strb	r3, [r1], #1
 1661 00e2 F8D8     		bhi	.L377
 1662              	.L376:
 1663 00e4 7F2E     		cmp	r6, #127
 1664 00e6 0F70     		strb	r7, [r1]
 1665 00e8 01F10101 		add	r1, r1, #1
 1666 00ec 06D9     		bls	.L378
 1667              	.L379:
 1668 00ee 66F07F03 		orn	r3, r6, #127
 1669 00f2 F609     		lsrs	r6, r6, #7
 1670 00f4 7F2E     		cmp	r6, #127
 1671 00f6 01F8013B 		strb	r3, [r1], #1
 1672 00fa F8D8     		bhi	.L379
 1673              	.L378:
 1674 00fc 7F2C     		cmp	r4, #127
 1675 00fe 0E70     		strb	r6, [r1]
 1676 0100 01F10101 		add	r1, r1, #1
 1677 0104 06D9     		bls	.L380
 1678              	.L381:
 1679 0106 64F07F03 		orn	r3, r4, #127
 1680 010a E409     		lsrs	r4, r4, #7
 1681 010c 7F2C     		cmp	r4, #127
 1682 010e 01F8013B 		strb	r3, [r1], #1
 1683 0112 F8D8     		bhi	.L381
 1684              	.L380:
 1685 0114 0246     		mov	r2, r0
 1686 0116 01F8014B 		strb	r4, [r1], #1
 1687 011a 0348     		ldr	r0, .L393
 1688 011c FFF7FEFF 		bl	_SendPacket
 1689              		.syntax unified
 1690              	@ 1663 "..\SEGGER\SEGGER_SYSVIEW.c" 1
 1691 0120 85F31188 		msr   basepri, r5  
 1692              		
 1693              	@ 0 "" 2
 1694              		.thumb
 1695              		.syntax unified
 1696 0124 BDE8F087 		pop	{r4, r5, r6, r7, r8, r9, r10, pc}
 1697              	.L394:
 1698              		.align	2
 1699              	.L393:
 1700 0128 34040000 		.word	.LANCHOR0+1076
 1701              		.size	SEGGER_SYSVIEW_RecordU32x9, .-SEGGER_SYSVIEW_RecordU32x9
 1702              		.section	.text.SEGGER_SYSVIEW_RecordU32x10,"ax",%progbits
 1703              		.align	2
 1704              		.global	SEGGER_SYSVIEW_RecordU32x10
 1705              		.thumb
 1706              		.thumb_func
 1707              		.type	SEGGER_SYSVIEW_RecordU32x10, %function
 1708              	SEGGER_SYSVIEW_RecordU32x10:
 1709              		@ args = 28, pretend = 0, frame = 0
 1710              		@ frame_needed = 0, uses_anonymous_args = 0
ARM GAS  C:\Users\ali\AppData\Local\Temp\ccPL16ze.s 			page 31


 1711 0000 2DE9F84F 		push	{r3, r4, r5, r6, r7, r8, r9, r10, fp, lr}
 1712 0004 0DF12C08 		add	r8, sp, #44
 1713 0008 8A46     		mov	r10, r1
 1714 000a 98E80051 		ldmia	r8, {r8, ip, lr}
 1715 000e DDF82890 		ldr	r9, [sp, #40]
 1716 0012 0E9F     		ldr	r7, [sp, #56]
 1717 0014 0F9E     		ldr	r6, [sp, #60]
 1718 0016 109C     		ldr	r4, [sp, #64]
 1719              		.syntax unified
 1720              	@ 1689 "..\SEGGER\SEGGER_SYSVIEW.c" 1
 1721 0018 EFF31185 		mrs   r5, basepri  
 1722 001c 4FF02001 		mov   r1, #32       
 1723 0020 81F31188 		msr   basepri, r1  
 1724              		
 1725              	@ 0 "" 2
 1726              		.thumb
 1727              		.syntax unified
 1728 0024 BAF17F0F 		cmp	r10, #127
 1729 0028 4849     		ldr	r1, .L428
 1730 002a 08D9     		bls	.L396
 1731              	.L397:
 1732 002c 6AF07F0B 		orn	fp, r10, #127
 1733 0030 4FEADA1A 		lsr	r10, r10, #7
 1734 0034 BAF17F0F 		cmp	r10, #127
 1735 0038 01F801BB 		strb	fp, [r1], #1
 1736 003c F6D8     		bhi	.L397
 1737              	.L396:
 1738 003e 7F2A     		cmp	r2, #127
 1739 0040 81F800A0 		strb	r10, [r1]
 1740 0044 01F10101 		add	r1, r1, #1
 1741 0048 06D9     		bls	.L398
 1742              	.L399:
 1743 004a 62F07F0A 		orn	r10, r2, #127
 1744 004e D209     		lsrs	r2, r2, #7
 1745 0050 7F2A     		cmp	r2, #127
 1746 0052 01F801AB 		strb	r10, [r1], #1
 1747 0056 F8D8     		bhi	.L399
 1748              	.L398:
 1749 0058 7F2B     		cmp	r3, #127
 1750 005a 0A70     		strb	r2, [r1]
 1751 005c 01F10101 		add	r1, r1, #1
 1752 0060 06D9     		bls	.L400
 1753              	.L401:
 1754 0062 63F07F02 		orn	r2, r3, #127
 1755 0066 DB09     		lsrs	r3, r3, #7
 1756 0068 7F2B     		cmp	r3, #127
 1757 006a 01F8012B 		strb	r2, [r1], #1
 1758 006e F8D8     		bhi	.L401
 1759              	.L400:
 1760 0070 B9F17F0F 		cmp	r9, #127
 1761 0074 0B70     		strb	r3, [r1]
 1762 0076 01F10101 		add	r1, r1, #1
 1763 007a 08D9     		bls	.L402
 1764              	.L403:
 1765 007c 69F07F03 		orn	r3, r9, #127
 1766 0080 4FEAD919 		lsr	r9, r9, #7
 1767 0084 B9F17F0F 		cmp	r9, #127
ARM GAS  C:\Users\ali\AppData\Local\Temp\ccPL16ze.s 			page 32


 1768 0088 01F8013B 		strb	r3, [r1], #1
 1769 008c F6D8     		bhi	.L403
 1770              	.L402:
 1771 008e B8F17F0F 		cmp	r8, #127
 1772 0092 81F80090 		strb	r9, [r1]
 1773 0096 01F10101 		add	r1, r1, #1
 1774 009a 08D9     		bls	.L404
 1775              	.L405:
 1776 009c 68F07F03 		orn	r3, r8, #127
 1777 00a0 4FEAD818 		lsr	r8, r8, #7
 1778 00a4 B8F17F0F 		cmp	r8, #127
 1779 00a8 01F8013B 		strb	r3, [r1], #1
 1780 00ac F6D8     		bhi	.L405
 1781              	.L404:
 1782 00ae BCF17F0F 		cmp	ip, #127
 1783 00b2 81F80080 		strb	r8, [r1]
 1784 00b6 01F10101 		add	r1, r1, #1
 1785 00ba 08D9     		bls	.L406
 1786              	.L407:
 1787 00bc 6CF07F03 		orn	r3, ip, #127
 1788 00c0 4FEADC1C 		lsr	ip, ip, #7
 1789 00c4 BCF17F0F 		cmp	ip, #127
 1790 00c8 01F8013B 		strb	r3, [r1], #1
 1791 00cc F6D8     		bhi	.L407
 1792              	.L406:
 1793 00ce BEF17F0F 		cmp	lr, #127
 1794 00d2 81F800C0 		strb	ip, [r1]
 1795 00d6 01F10101 		add	r1, r1, #1
 1796 00da 08D9     		bls	.L408
 1797              	.L409:
 1798 00dc 6EF07F03 		orn	r3, lr, #127
 1799 00e0 4FEADE1E 		lsr	lr, lr, #7
 1800 00e4 BEF17F0F 		cmp	lr, #127
 1801 00e8 01F8013B 		strb	r3, [r1], #1
 1802 00ec F6D8     		bhi	.L409
 1803              	.L408:
 1804 00ee 7F2F     		cmp	r7, #127
 1805 00f0 81F800E0 		strb	lr, [r1]
 1806 00f4 01F10101 		add	r1, r1, #1
 1807 00f8 06D9     		bls	.L410
 1808              	.L411:
 1809 00fa 67F07F03 		orn	r3, r7, #127
 1810 00fe FF09     		lsrs	r7, r7, #7
 1811 0100 7F2F     		cmp	r7, #127
 1812 0102 01F8013B 		strb	r3, [r1], #1
 1813 0106 F8D8     		bhi	.L411
 1814              	.L410:
 1815 0108 7F2E     		cmp	r6, #127
 1816 010a 0F70     		strb	r7, [r1]
 1817 010c 01F10101 		add	r1, r1, #1
 1818 0110 06D9     		bls	.L412
 1819              	.L413:
 1820 0112 66F07F03 		orn	r3, r6, #127
 1821 0116 F609     		lsrs	r6, r6, #7
 1822 0118 7F2E     		cmp	r6, #127
 1823 011a 01F8013B 		strb	r3, [r1], #1
 1824 011e F8D8     		bhi	.L413
ARM GAS  C:\Users\ali\AppData\Local\Temp\ccPL16ze.s 			page 33


 1825              	.L412:
 1826 0120 7F2C     		cmp	r4, #127
 1827 0122 0E70     		strb	r6, [r1]
 1828 0124 01F10101 		add	r1, r1, #1
 1829 0128 06D9     		bls	.L414
 1830              	.L415:
 1831 012a 64F07F03 		orn	r3, r4, #127
 1832 012e E409     		lsrs	r4, r4, #7
 1833 0130 7F2C     		cmp	r4, #127
 1834 0132 01F8013B 		strb	r3, [r1], #1
 1835 0136 F8D8     		bhi	.L415
 1836              	.L414:
 1837 0138 0246     		mov	r2, r0
 1838 013a 01F8014B 		strb	r4, [r1], #1
 1839 013e 0348     		ldr	r0, .L428
 1840 0140 FFF7FEFF 		bl	_SendPacket
 1841              		.syntax unified
 1842              	@ 1703 "..\SEGGER\SEGGER_SYSVIEW.c" 1
 1843 0144 85F31188 		msr   basepri, r5  
 1844              		
 1845              	@ 0 "" 2
 1846              		.thumb
 1847              		.syntax unified
 1848 0148 BDE8F88F 		pop	{r3, r4, r5, r6, r7, r8, r9, r10, fp, pc}
 1849              	.L429:
 1850              		.align	2
 1851              	.L428:
 1852 014c 34040000 		.word	.LANCHOR0+1076
 1853              		.size	SEGGER_SYSVIEW_RecordU32x10, .-SEGGER_SYSVIEW_RecordU32x10
 1854              		.section	.text.SEGGER_SYSVIEW_RecordString,"ax",%progbits
 1855              		.align	2
 1856              		.global	SEGGER_SYSVIEW_RecordString
 1857              		.thumb
 1858              		.thumb_func
 1859              		.type	SEGGER_SYSVIEW_RecordString, %function
 1860              	SEGGER_SYSVIEW_RecordString:
 1861              		@ args = 0, pretend = 0, frame = 0
 1862              		@ frame_needed = 0, uses_anonymous_args = 0
 1863 0000 2DE9F843 		push	{r3, r4, r5, r6, r7, r8, r9, lr}
 1864 0004 0246     		mov	r2, r0
 1865 0006 0E46     		mov	r6, r1
 1866              		.syntax unified
 1867              	@ 1724 "..\SEGGER\SEGGER_SYSVIEW.c" 1
 1868 0008 EFF31185 		mrs   r5, basepri  
 1869 000c 4FF02001 		mov   r1, #32       
 1870 0010 81F31188 		msr   basepri, r1  
 1871              		
 1872              	@ 0 "" 2
 1873              		.thumb
 1874              		.syntax unified
 1875 0014 002E     		cmp	r6, #0
 1876 0016 77D0     		beq	.L431
 1877 0018 3378     		ldrb	r3, [r6]	@ zero_extendqisi2
 1878 001a 002B     		cmp	r3, #0
 1879 001c 7AD0     		beq	.L432
 1880 001e 3446     		mov	r4, r6
 1881 0020 0021     		movs	r1, #0
ARM GAS  C:\Users\ali\AppData\Local\Temp\ccPL16ze.s 			page 34


 1882              	.L433:
 1883 0022 14F8013F 		ldrb	r3, [r4, #1]!	@ zero_extendqisi2
 1884 0026 0131     		adds	r1, r1, #1
 1885 0028 002B     		cmp	r3, #0
 1886 002a FAD1     		bne	.L433
 1887 002c 3C4F     		ldr	r7, .L455
 1888 002e 06F10804 		add	r4, r6, #8
 1889 0032 07F23540 		addw	r0, r7, #1077
 1890 0036 07F23D4E 		addw	lr, r7, #1085
 1891 003a B645     		cmp	lr, r6
 1892 003c 88BF     		it	hi
 1893 003e 8442     		cmphi	r4, r0
 1894 0040 46EA000E 		orr	lr, r6, r0
 1895 0044 94BF     		ite	ls
 1896 0046 0124     		movls	r4, #1
 1897 0048 0024     		movhi	r4, #0
 1898 004a 8029     		cmp	r1, #128
 1899 004c 28BF     		it	cs
 1900 004e 8021     		movcs	r1, #128
 1901 0050 1EF0070F 		tst	lr, #7
 1902 0054 04F00104 		and	r4, r4, #1
 1903 0058 18BF     		it	ne
 1904 005a 0024     		movne	r4, #0
 1905 005c 87F83414 		strb	r1, [r7, #1076]
 1906 0060 002C     		cmp	r4, #0
 1907 0062 48D0     		beq	.L434
 1908 0064 0A29     		cmp	r1, #10
 1909 0066 46D9     		bls	.L434
 1910 0068 8446     		mov	ip, r0
 1911 006a A1F10807 		sub	r7, r1, #8
 1912 006e FF08     		lsrs	r7, r7, #3
 1913 0070 0137     		adds	r7, r7, #1
 1914 0072 FC00     		lsls	r4, r7, #3
 1915 0074 A6F1080E 		sub	lr, r6, #8
 1916              	.L435:
 1917 0078 0133     		adds	r3, r3, #1
 1918 007a BB42     		cmp	r3, r7
 1919 007c FEE90289 		ldrd	r8, [lr, #8]!
 1920 0080 ECE80289 		strd	r8, [ip], #8
 1921 0084 F8D3     		bcc	.L435
 1922 0086 A142     		cmp	r1, r4
 1923 0088 DFF89C80 		ldr	r8, .L455+8
 1924 008c 00EB0403 		add	r3, r0, r4
 1925 0090 06EB040E 		add	lr, r6, r4
 1926 0094 27D0     		beq	.L441
 1927 0096 16F837C0 		ldrb	ip, [r6, r7, lsl #3]	@ zero_extendqisi2
 1928 009a 661C     		adds	r6, r4, #1
 1929 009c 8E42     		cmp	r6, r1
 1930 009e 08F837C0 		strb	ip, [r8, r7, lsl #3]
 1931 00a2 20D2     		bcs	.L441
 1932 00a4 9EF80170 		ldrb	r7, [lr, #1]	@ zero_extendqisi2
 1933 00a8 A61C     		adds	r6, r4, #2
 1934 00aa B142     		cmp	r1, r6
 1935 00ac 5F70     		strb	r7, [r3, #1]
 1936 00ae 1AD9     		bls	.L441
 1937 00b0 9EF80270 		ldrb	r7, [lr, #2]	@ zero_extendqisi2
 1938 00b4 E61C     		adds	r6, r4, #3
ARM GAS  C:\Users\ali\AppData\Local\Temp\ccPL16ze.s 			page 35


 1939 00b6 B142     		cmp	r1, r6
 1940 00b8 9F70     		strb	r7, [r3, #2]
 1941 00ba 14D9     		bls	.L441
 1942 00bc 9EF80370 		ldrb	r7, [lr, #3]	@ zero_extendqisi2
 1943 00c0 261D     		adds	r6, r4, #4
 1944 00c2 B142     		cmp	r1, r6
 1945 00c4 DF70     		strb	r7, [r3, #3]
 1946 00c6 0ED9     		bls	.L441
 1947 00c8 9EF80470 		ldrb	r7, [lr, #4]	@ zero_extendqisi2
 1948 00cc 661D     		adds	r6, r4, #5
 1949 00ce B142     		cmp	r1, r6
 1950 00d0 1F71     		strb	r7, [r3, #4]
 1951 00d2 08D9     		bls	.L441
 1952 00d4 9EF80560 		ldrb	r6, [lr, #5]	@ zero_extendqisi2
 1953 00d8 0634     		adds	r4, r4, #6
 1954 00da A142     		cmp	r1, r4
 1955 00dc 5E71     		strb	r6, [r3, #5]
 1956 00de 02D9     		bls	.L441
 1957 00e0 9EF80640 		ldrb	r4, [lr, #6]	@ zero_extendqisi2
 1958 00e4 9C71     		strb	r4, [r3, #6]
 1959              	.L441:
 1960 00e6 0144     		add	r1, r1, r0
 1961              	.L439:
 1962 00e8 0E48     		ldr	r0, .L455+4
 1963 00ea FFF7FEFF 		bl	_SendPacket
 1964              		.syntax unified
 1965              	@ 1728 "..\SEGGER\SEGGER_SYSVIEW.c" 1
 1966 00ee 85F31188 		msr   basepri, r5  
 1967              		
 1968              	@ 0 "" 2
 1969              		.thumb
 1970              		.syntax unified
 1971 00f2 BDE8F883 		pop	{r3, r4, r5, r6, r7, r8, r9, pc}
 1972              	.L434:
 1973 00f6 0B4B     		ldr	r3, .L455+4
 1974 00f8 7718     		adds	r7, r6, r1
 1975              	.L440:
 1976 00fa 16F8014B 		ldrb	r4, [r6], #1	@ zero_extendqisi2
 1977 00fe BE42     		cmp	r6, r7
 1978 0100 03F8014F 		strb	r4, [r3, #1]!
 1979 0104 F9D1     		bne	.L440
 1980 0106 EEE7     		b	.L441
 1981              	.L431:
 1982 0108 0549     		ldr	r1, .L455
 1983 010a 81F83464 		strb	r6, [r1, #1076]
 1984 010e 01F23541 		addw	r1, r1, #1077
 1985 0112 E9E7     		b	.L439
 1986              	.L432:
 1987 0114 0249     		ldr	r1, .L455
 1988 0116 81F83434 		strb	r3, [r1, #1076]
 1989 011a 01F23541 		addw	r1, r1, #1077
 1990 011e E3E7     		b	.L439
 1991              	.L456:
 1992              		.align	2
 1993              	.L455:
 1994 0120 00000000 		.word	.LANCHOR0
 1995 0124 34040000 		.word	.LANCHOR0+1076
ARM GAS  C:\Users\ali\AppData\Local\Temp\ccPL16ze.s 			page 36


 1996 0128 35040000 		.word	.LANCHOR0+1077
 1997              		.size	SEGGER_SYSVIEW_RecordString, .-SEGGER_SYSVIEW_RecordString
 1998              		.section	.text.SEGGER_SYSVIEW_GetSysDesc,"ax",%progbits
 1999              		.align	2
 2000              		.global	SEGGER_SYSVIEW_GetSysDesc
 2001              		.thumb
 2002              		.thumb_func
 2003              		.type	SEGGER_SYSVIEW_GetSysDesc, %function
 2004              	SEGGER_SYSVIEW_GetSysDesc:
 2005              		@ args = 0, pretend = 0, frame = 0
 2006              		@ frame_needed = 0, uses_anonymous_args = 0
 2007 0000 2DE9F041 		push	{r4, r5, r6, r7, r8, lr}
 2008              		.syntax unified
 2009              	@ 1845 "..\SEGGER\SEGGER_SYSVIEW.c" 1
 2010 0004 EFF31186 		mrs   r6, basepri  
 2011 0008 4FF02001 		mov   r1, #32       
 2012 000c 81F31188 		msr   basepri, r1  
 2013              		
 2014              	@ 0 "" 2
 2015              		.thumb
 2016              		.syntax unified
 2017 0010 1D4D     		ldr	r5, .L470
 2018 0012 D5F80414 		ldr	r1, [r5, #1028]
 2019 0016 05F23443 		addw	r3, r5, #1076
 2020 001a 7F29     		cmp	r1, #127
 2021 001c 06D9     		bls	.L458
 2022              	.L459:
 2023 001e 61F07F02 		orn	r2, r1, #127
 2024 0022 C909     		lsrs	r1, r1, #7
 2025 0024 7F29     		cmp	r1, #127
 2026 0026 03F8012B 		strb	r2, [r3], #1
 2027 002a F8D8     		bhi	.L459
 2028              	.L458:
 2029 002c D5F80824 		ldr	r2, [r5, #1032]
 2030 0030 1970     		strb	r1, [r3]
 2031 0032 7F2A     		cmp	r2, #127
 2032 0034 03F10103 		add	r3, r3, #1
 2033 0038 06D9     		bls	.L460
 2034              	.L461:
 2035 003a 62F07F01 		orn	r1, r2, #127
 2036 003e D209     		lsrs	r2, r2, #7
 2037 0040 7F2A     		cmp	r2, #127
 2038 0042 03F8011B 		strb	r1, [r3], #1
 2039 0046 F8D8     		bhi	.L461
 2040              	.L460:
 2041 0048 D5F81044 		ldr	r4, [r5, #1040]
 2042 004c 1A70     		strb	r2, [r3]
 2043 004e 7F2C     		cmp	r4, #127
 2044 0050 03F10103 		add	r3, r3, #1
 2045 0054 06D9     		bls	.L462
 2046              	.L463:
 2047 0056 64F07F02 		orn	r2, r4, #127
 2048 005a E409     		lsrs	r4, r4, #7
 2049 005c 7F2C     		cmp	r4, #127
 2050 005e 03F8012B 		strb	r2, [r3], #1
 2051 0062 F8D8     		bhi	.L463
 2052              	.L462:
ARM GAS  C:\Users\ali\AppData\Local\Temp\ccPL16ze.s 			page 37


 2053 0064 0027     		movs	r7, #0
 2054 0066 991C     		adds	r1, r3, #2
 2055 0068 1822     		movs	r2, #24
 2056 006a 0848     		ldr	r0, .L470+4
 2057 006c 1C70     		strb	r4, [r3]
 2058 006e 5F70     		strb	r7, [r3, #1]
 2059 0070 FFF7FEFF 		bl	_SendPacket
 2060              		.syntax unified
 2061              	@ 1853 "..\SEGGER\SEGGER_SYSVIEW.c" 1
 2062 0074 86F31188 		msr   basepri, r6  
 2063              		
 2064              	@ 0 "" 2
 2065              		.thumb
 2066              		.syntax unified
 2067 0078 D5F82434 		ldr	r3, [r5, #1060]
 2068 007c 13B1     		cbz	r3, .L457
 2069 007e BDE8F041 		pop	{r4, r5, r6, r7, r8, lr}
 2070 0082 1847     		bx	r3	@ indirect register sibling call
 2071              	.L457:
 2072 0084 BDE8F081 		pop	{r4, r5, r6, r7, r8, pc}
 2073              	.L471:
 2074              		.align	2
 2075              	.L470:
 2076 0088 00000000 		.word	.LANCHOR0
 2077 008c 34040000 		.word	.LANCHOR0+1076
 2078              		.size	SEGGER_SYSVIEW_GetSysDesc, .-SEGGER_SYSVIEW_GetSysDesc
 2079              		.section	.text.SEGGER_SYSVIEW_SendTaskInfo,"ax",%progbits
 2080              		.align	2
 2081              		.global	SEGGER_SYSVIEW_SendTaskInfo
 2082              		.thumb
 2083              		.thumb_func
 2084              		.type	SEGGER_SYSVIEW_SendTaskInfo, %function
 2085              	SEGGER_SYSVIEW_SendTaskInfo:
 2086              		@ args = 0, pretend = 0, frame = 0
 2087              		@ frame_needed = 0, uses_anonymous_args = 0
 2088 0000 2DE9F047 		push	{r4, r5, r6, r7, r8, r9, r10, lr}
 2089 0004 0646     		mov	r6, r0
 2090              		.syntax unified
 2091              	@ 1873 "..\SEGGER\SEGGER_SYSVIEW.c" 1
 2092 0006 EFF31185 		mrs   r5, basepri  
 2093 000a 4FF02001 		mov   r1, #32       
 2094 000e 81F31188 		msr   basepri, r1  
 2095              		
 2096              	@ 0 "" 2
 2097              		.thumb
 2098              		.syntax unified
 2099 0012 5D4F     		ldr	r7, .L514
 2100 0014 0368     		ldr	r3, [r0]
 2101 0016 D7F81024 		ldr	r2, [r7, #1040]
 2102 001a 07F23444 		addw	r4, r7, #1076
 2103 001e 9A1A     		subs	r2, r3, r2
 2104 0020 7F2A     		cmp	r2, #127
 2105 0022 2346     		mov	r3, r4
 2106 0024 06D9     		bls	.L473
 2107              	.L474:
 2108 0026 62F07F01 		orn	r1, r2, #127
 2109 002a D209     		lsrs	r2, r2, #7
ARM GAS  C:\Users\ali\AppData\Local\Temp\ccPL16ze.s 			page 38


 2110 002c 7F2A     		cmp	r2, #127
 2111 002e 03F8011B 		strb	r1, [r3], #1
 2112 0032 F8D8     		bhi	.L474
 2113              	.L473:
 2114 0034 1A70     		strb	r2, [r3]
 2115 0036 B268     		ldr	r2, [r6, #8]
 2116 0038 0133     		adds	r3, r3, #1
 2117 003a 7F2A     		cmp	r2, #127
 2118 003c 06D9     		bls	.L475
 2119              	.L476:
 2120 003e 62F07F01 		orn	r1, r2, #127
 2121 0042 D209     		lsrs	r2, r2, #7
 2122 0044 7F2A     		cmp	r2, #127
 2123 0046 03F8011B 		strb	r1, [r3], #1
 2124 004a F8D8     		bhi	.L476
 2125              	.L475:
 2126 004c 1A70     		strb	r2, [r3]
 2127 004e D6F804E0 		ldr	lr, [r6, #4]
 2128 0052 BEF1000F 		cmp	lr, #0
 2129 0056 00F08F80 		beq	.L477
 2130 005a 9EF80020 		ldrb	r2, [lr]	@ zero_extendqisi2
 2131 005e 002A     		cmp	r2, #0
 2132 0060 00F08E80 		beq	.L478
 2133 0064 7246     		mov	r2, lr
 2134 0066 0021     		movs	r1, #0
 2135              	.L479:
 2136 0068 12F8010F 		ldrb	r0, [r2, #1]!	@ zero_extendqisi2
 2137 006c 0131     		adds	r1, r1, #1
 2138 006e 0028     		cmp	r0, #0
 2139 0070 FAD1     		bne	.L479
 2140 0072 0EF10402 		add	r2, lr, #4
 2141 0076 03F1020C 		add	ip, r3, #2
 2142 007a 03F10608 		add	r8, r3, #6
 2143 007e C645     		cmp	lr, r8
 2144 0080 38BF     		it	cc
 2145 0082 9445     		cmpcc	ip, r2
 2146 0084 4CEA0E08 		orr	r8, ip, lr
 2147 0088 2CBF     		ite	cs
 2148 008a 0122     		movcs	r2, #1
 2149 008c 0022     		movcc	r2, #0
 2150 008e 2029     		cmp	r1, #32
 2151 0090 28BF     		it	cs
 2152 0092 2021     		movcs	r1, #32
 2153 0094 18F0030F 		tst	r8, #3
 2154 0098 02F00102 		and	r2, r2, #1
 2155 009c 18BF     		it	ne
 2156 009e 0022     		movne	r2, #0
 2157 00a0 5970     		strb	r1, [r3, #1]
 2158 00a2 002A     		cmp	r2, #0
 2159 00a4 5ED0     		beq	.L480
 2160 00a6 0929     		cmp	r1, #9
 2161 00a8 5CD9     		bls	.L480
 2162 00aa E146     		mov	r9, ip
 2163 00ac 0B1F     		subs	r3, r1, #4
 2164 00ae 9B08     		lsrs	r3, r3, #2
 2165 00b0 0133     		adds	r3, r3, #1
 2166 00b2 9A00     		lsls	r2, r3, #2
ARM GAS  C:\Users\ali\AppData\Local\Temp\ccPL16ze.s 			page 39


 2167 00b4 AEF10408 		sub	r8, lr, #4
 2168              	.L481:
 2169 00b8 58F804AF 		ldr	r10, [r8, #4]!
 2170 00bc 0130     		adds	r0, r0, #1
 2171 00be 8342     		cmp	r3, r0
 2172 00c0 49F804AB 		str	r10, [r9], #4
 2173 00c4 F8D8     		bhi	.L481
 2174 00c6 8A42     		cmp	r2, r1
 2175 00c8 0CEB0208 		add	r8, ip, r2
 2176 00cc 0EEB0209 		add	r9, lr, r2
 2177 00d0 11D0     		beq	.L487
 2178 00d2 1EF823E0 		ldrb	lr, [lr, r3, lsl #2]	@ zero_extendqisi2
 2179 00d6 501C     		adds	r0, r2, #1
 2180 00d8 8842     		cmp	r0, r1
 2181 00da 0CF823E0 		strb	lr, [ip, r3, lsl #2]
 2182 00de 0AD2     		bcs	.L487
 2183 00e0 99F80100 		ldrb	r0, [r9, #1]	@ zero_extendqisi2
 2184 00e4 931C     		adds	r3, r2, #2
 2185 00e6 9942     		cmp	r1, r3
 2186 00e8 88F80100 		strb	r0, [r8, #1]
 2187 00ec 03D9     		bls	.L487
 2188 00ee 99F80230 		ldrb	r3, [r9, #2]	@ zero_extendqisi2
 2189 00f2 88F80230 		strb	r3, [r8, #2]
 2190              	.L487:
 2191 00f6 6144     		add	r1, r1, ip
 2192              	.L485:
 2193 00f8 0922     		movs	r2, #9
 2194 00fa 2448     		ldr	r0, .L514+4
 2195 00fc FFF7FEFF 		bl	_SendPacket
 2196 0100 3368     		ldr	r3, [r6]
 2197 0102 D7F81024 		ldr	r2, [r7, #1040]
 2198 0106 9A1A     		subs	r2, r3, r2
 2199 0108 7F2A     		cmp	r2, #127
 2200 010a 2346     		mov	r3, r4
 2201 010c 06D9     		bls	.L488
 2202              	.L489:
 2203 010e 62F07F01 		orn	r1, r2, #127
 2204 0112 D209     		lsrs	r2, r2, #7
 2205 0114 7F2A     		cmp	r2, #127
 2206 0116 03F8011B 		strb	r1, [r3], #1
 2207 011a F8D8     		bhi	.L489
 2208              	.L488:
 2209 011c 1A70     		strb	r2, [r3]
 2210 011e F268     		ldr	r2, [r6, #12]
 2211 0120 0133     		adds	r3, r3, #1
 2212 0122 7F2A     		cmp	r2, #127
 2213 0124 06D9     		bls	.L490
 2214              	.L491:
 2215 0126 62F07F01 		orn	r1, r2, #127
 2216 012a D209     		lsrs	r2, r2, #7
 2217 012c 7F2A     		cmp	r2, #127
 2218 012e 03F8011B 		strb	r1, [r3], #1
 2219 0132 F8D8     		bhi	.L491
 2220              	.L490:
 2221 0134 1A70     		strb	r2, [r3]
 2222 0136 3469     		ldr	r4, [r6, #16]
 2223 0138 0133     		adds	r3, r3, #1
ARM GAS  C:\Users\ali\AppData\Local\Temp\ccPL16ze.s 			page 40


 2224 013a 7F2C     		cmp	r4, #127
 2225 013c 06D9     		bls	.L492
 2226              	.L493:
 2227 013e 64F07F02 		orn	r2, r4, #127
 2228 0142 E409     		lsrs	r4, r4, #7
 2229 0144 7F2C     		cmp	r4, #127
 2230 0146 03F8012B 		strb	r2, [r3], #1
 2231 014a F8D8     		bhi	.L493
 2232              	.L492:
 2233 014c 0026     		movs	r6, #0
 2234 014e 991C     		adds	r1, r3, #2
 2235 0150 1522     		movs	r2, #21
 2236 0152 0E48     		ldr	r0, .L514+4
 2237 0154 1C70     		strb	r4, [r3]
 2238 0156 5E70     		strb	r6, [r3, #1]
 2239 0158 FFF7FEFF 		bl	_SendPacket
 2240              		.syntax unified
 2241              	@ 1887 "..\SEGGER\SEGGER_SYSVIEW.c" 1
 2242 015c 85F31188 		msr   basepri, r5  
 2243              		
 2244              	@ 0 "" 2
 2245              		.thumb
 2246              		.syntax unified
 2247 0160 BDE8F087 		pop	{r4, r5, r6, r7, r8, r9, r10, pc}
 2248              	.L480:
 2249 0164 0133     		adds	r3, r3, #1
 2250 0166 0EEB0100 		add	r0, lr, r1
 2251              	.L486:
 2252 016a 1EF8012B 		ldrb	r2, [lr], #1	@ zero_extendqisi2
 2253 016e 8645     		cmp	lr, r0
 2254 0170 03F8012F 		strb	r2, [r3, #1]!
 2255 0174 F9D1     		bne	.L486
 2256 0176 BEE7     		b	.L487
 2257              	.L477:
 2258 0178 83F801E0 		strb	lr, [r3, #1]
 2259 017c 991C     		adds	r1, r3, #2
 2260 017e BBE7     		b	.L485
 2261              	.L478:
 2262 0180 5A70     		strb	r2, [r3, #1]
 2263 0182 991C     		adds	r1, r3, #2
 2264 0184 B8E7     		b	.L485
 2265              	.L515:
 2266 0186 00BF     		.align	2
 2267              	.L514:
 2268 0188 00000000 		.word	.LANCHOR0
 2269 018c 34040000 		.word	.LANCHOR0+1076
 2270              		.size	SEGGER_SYSVIEW_SendTaskInfo, .-SEGGER_SYSVIEW_SendTaskInfo
 2271              		.section	.text.SEGGER_SYSVIEW_SendSysDesc,"ax",%progbits
 2272              		.align	2
 2273              		.global	SEGGER_SYSVIEW_SendSysDesc
 2274              		.thumb
 2275              		.thumb_func
 2276              		.type	SEGGER_SYSVIEW_SendSysDesc, %function
 2277              	SEGGER_SYSVIEW_SendSysDesc:
 2278              		@ args = 0, pretend = 0, frame = 0
 2279              		@ frame_needed = 0, uses_anonymous_args = 0
 2280 0000 2DE9F041 		push	{r4, r5, r6, r7, r8, lr}
ARM GAS  C:\Users\ali\AppData\Local\Temp\ccPL16ze.s 			page 41


 2281              		.syntax unified
 2282              	@ 1930 "..\SEGGER\SEGGER_SYSVIEW.c" 1
 2283 0004 EFF31184 		mrs   r4, basepri  
 2284 0008 4FF02001 		mov   r1, #32       
 2285 000c 81F31188 		msr   basepri, r1  
 2286              		
 2287              	@ 0 "" 2
 2288              		.thumb
 2289              		.syntax unified
 2290 0010 0028     		cmp	r0, #0
 2291 0012 75D0     		beq	.L517
 2292 0014 0378     		ldrb	r3, [r0]	@ zero_extendqisi2
 2293 0016 002B     		cmp	r3, #0
 2294 0018 78D0     		beq	.L518
 2295 001a 0146     		mov	r1, r0
 2296 001c 0022     		movs	r2, #0
 2297              	.L519:
 2298 001e 11F8013F 		ldrb	r3, [r1, #1]!	@ zero_extendqisi2
 2299 0022 0132     		adds	r2, r2, #1
 2300 0024 002B     		cmp	r3, #0
 2301 0026 FAD1     		bne	.L519
 2302 0028 3B4E     		ldr	r6, .L541
 2303 002a 00F10805 		add	r5, r0, #8
 2304 002e 06F23541 		addw	r1, r6, #1077
 2305 0032 06F23D47 		addw	r7, r6, #1085
 2306 0036 8742     		cmp	r7, r0
 2307 0038 88BF     		it	hi
 2308 003a 8D42     		cmphi	r5, r1
 2309 003c 40EA0107 		orr	r7, r0, r1
 2310 0040 94BF     		ite	ls
 2311 0042 0125     		movls	r5, #1
 2312 0044 0025     		movhi	r5, #0
 2313 0046 802A     		cmp	r2, #128
 2314 0048 28BF     		it	cs
 2315 004a 8022     		movcs	r2, #128
 2316 004c 17F0070F 		tst	r7, #7
 2317 0050 05F00105 		and	r5, r5, #1
 2318 0054 18BF     		it	ne
 2319 0056 0025     		movne	r5, #0
 2320 0058 86F83424 		strb	r2, [r6, #1076]
 2321 005c 002D     		cmp	r5, #0
 2322 005e 46D0     		beq	.L520
 2323 0060 0A2A     		cmp	r2, #10
 2324 0062 44D9     		bls	.L520
 2325 0064 8846     		mov	r8, r1
 2326 0066 A2F1080E 		sub	lr, r2, #8
 2327 006a 4FEADE0E 		lsr	lr, lr, #3
 2328 006e 0EF1010E 		add	lr, lr, #1
 2329 0072 4FEACE05 		lsl	r5, lr, #3
 2330 0076 A0F1080C 		sub	ip, r0, #8
 2331              	.L521:
 2332 007a 0133     		adds	r3, r3, #1
 2333 007c 7345     		cmp	r3, lr
 2334 007e FCE90267 		ldrd	r6, [ip, #8]!
 2335 0082 E8E80267 		strd	r6, [r8], #8
 2336 0086 F8D3     		bcc	.L521
 2337 0088 AA42     		cmp	r2, r5
ARM GAS  C:\Users\ali\AppData\Local\Temp\ccPL16ze.s 			page 42


 2338 008a DFF894C0 		ldr	ip, .L541+8
 2339 008e 01EB0503 		add	r3, r1, r5
 2340 0092 00EB0506 		add	r6, r0, r5
 2341 0096 21D0     		beq	.L527
 2342 0098 10F83E70 		ldrb	r7, [r0, lr, lsl #3]	@ zero_extendqisi2
 2343 009c 681C     		adds	r0, r5, #1
 2344 009e 9042     		cmp	r0, r2
 2345 00a0 0CF83E70 		strb	r7, [ip, lr, lsl #3]
 2346 00a4 1AD2     		bcs	.L527
 2347 00a6 7778     		ldrb	r7, [r6, #1]	@ zero_extendqisi2
 2348 00a8 A81C     		adds	r0, r5, #2
 2349 00aa 8242     		cmp	r2, r0
 2350 00ac 5F70     		strb	r7, [r3, #1]
 2351 00ae 15D9     		bls	.L527
 2352 00b0 B778     		ldrb	r7, [r6, #2]	@ zero_extendqisi2
 2353 00b2 E81C     		adds	r0, r5, #3
 2354 00b4 8242     		cmp	r2, r0
 2355 00b6 9F70     		strb	r7, [r3, #2]
 2356 00b8 10D9     		bls	.L527
 2357 00ba F778     		ldrb	r7, [r6, #3]	@ zero_extendqisi2
 2358 00bc 281D     		adds	r0, r5, #4
 2359 00be 8242     		cmp	r2, r0
 2360 00c0 DF70     		strb	r7, [r3, #3]
 2361 00c2 0BD9     		bls	.L527
 2362 00c4 3779     		ldrb	r7, [r6, #4]	@ zero_extendqisi2
 2363 00c6 681D     		adds	r0, r5, #5
 2364 00c8 8242     		cmp	r2, r0
 2365 00ca 1F71     		strb	r7, [r3, #4]
 2366 00cc 06D9     		bls	.L527
 2367 00ce 7079     		ldrb	r0, [r6, #5]	@ zero_extendqisi2
 2368 00d0 0635     		adds	r5, r5, #6
 2369 00d2 AA42     		cmp	r2, r5
 2370 00d4 5871     		strb	r0, [r3, #5]
 2371 00d6 01D9     		bls	.L527
 2372 00d8 B079     		ldrb	r0, [r6, #6]	@ zero_extendqisi2
 2373 00da 9871     		strb	r0, [r3, #6]
 2374              	.L527:
 2375 00dc 1144     		add	r1, r1, r2
 2376              	.L525:
 2377 00de 0E22     		movs	r2, #14
 2378 00e0 0E48     		ldr	r0, .L541+4
 2379 00e2 FFF7FEFF 		bl	_SendPacket
 2380              		.syntax unified
 2381              	@ 1934 "..\SEGGER\SEGGER_SYSVIEW.c" 1
 2382 00e6 84F31188 		msr   basepri, r4  
 2383              		
 2384              	@ 0 "" 2
 2385              		.thumb
 2386              		.syntax unified
 2387 00ea BDE8F081 		pop	{r4, r5, r6, r7, r8, pc}
 2388              	.L520:
 2389 00ee 0B4B     		ldr	r3, .L541+4
 2390 00f0 8618     		adds	r6, r0, r2
 2391              	.L526:
 2392 00f2 10F8015B 		ldrb	r5, [r0], #1	@ zero_extendqisi2
 2393 00f6 B042     		cmp	r0, r6
 2394 00f8 03F8015F 		strb	r5, [r3, #1]!
ARM GAS  C:\Users\ali\AppData\Local\Temp\ccPL16ze.s 			page 43


 2395 00fc F9D1     		bne	.L526
 2396 00fe EDE7     		b	.L527
 2397              	.L517:
 2398 0100 054A     		ldr	r2, .L541
 2399 0102 82F83404 		strb	r0, [r2, #1076]
 2400 0106 02F23541 		addw	r1, r2, #1077
 2401 010a E8E7     		b	.L525
 2402              	.L518:
 2403 010c 024A     		ldr	r2, .L541
 2404 010e 82F83434 		strb	r3, [r2, #1076]
 2405 0112 02F23541 		addw	r1, r2, #1077
 2406 0116 E2E7     		b	.L525
 2407              	.L542:
 2408              		.align	2
 2409              	.L541:
 2410 0118 00000000 		.word	.LANCHOR0
 2411 011c 34040000 		.word	.LANCHOR0+1076
 2412 0120 35040000 		.word	.LANCHOR0+1077
 2413              		.size	SEGGER_SYSVIEW_SendSysDesc, .-SEGGER_SYSVIEW_SendSysDesc
 2414              		.section	.text.SEGGER_SYSVIEW_RecordEndCallU32,"ax",%progbits
 2415              		.align	2
 2416              		.global	SEGGER_SYSVIEW_RecordEndCallU32
 2417              		.thumb
 2418              		.thumb_func
 2419              		.type	SEGGER_SYSVIEW_RecordEndCallU32, %function
 2420              	SEGGER_SYSVIEW_RecordEndCallU32:
 2421              		@ args = 0, pretend = 0, frame = 0
 2422              		@ frame_needed = 0, uses_anonymous_args = 0
 2423 0000 10B5     		push	{r4, lr}
 2424 0002 0B46     		mov	r3, r1
 2425              		.syntax unified
 2426              	@ 2097 "..\SEGGER\SEGGER_SYSVIEW.c" 1
 2427 0004 EFF31184 		mrs   r4, basepri  
 2428 0008 4FF02001 		mov   r1, #32       
 2429 000c 81F31188 		msr   basepri, r1  
 2430              		
 2431              	@ 0 "" 2
 2432              		.thumb
 2433              		.syntax unified
 2434 0010 7F28     		cmp	r0, #127
 2435 0012 0F49     		ldr	r1, .L552
 2436 0014 06D9     		bls	.L544
 2437              	.L545:
 2438 0016 60F07F02 		orn	r2, r0, #127
 2439 001a C009     		lsrs	r0, r0, #7
 2440 001c 7F28     		cmp	r0, #127
 2441 001e 01F8012B 		strb	r2, [r1], #1
 2442 0022 F8D8     		bhi	.L545
 2443              	.L544:
 2444 0024 7F2B     		cmp	r3, #127
 2445 0026 0870     		strb	r0, [r1]
 2446 0028 01F10101 		add	r1, r1, #1
 2447 002c 06D9     		bls	.L546
 2448              	.L547:
 2449 002e 63F07F02 		orn	r2, r3, #127
 2450 0032 DB09     		lsrs	r3, r3, #7
 2451 0034 7F2B     		cmp	r3, #127
ARM GAS  C:\Users\ali\AppData\Local\Temp\ccPL16ze.s 			page 44


 2452 0036 01F8012B 		strb	r2, [r1], #1
 2453 003a F8D8     		bhi	.L547
 2454              	.L546:
 2455 003c 01F8013B 		strb	r3, [r1], #1
 2456 0040 1C22     		movs	r2, #28
 2457 0042 0348     		ldr	r0, .L552
 2458 0044 FFF7FEFF 		bl	_SendPacket
 2459              		.syntax unified
 2460              	@ 2103 "..\SEGGER\SEGGER_SYSVIEW.c" 1
 2461 0048 84F31188 		msr   basepri, r4  
 2462              		
 2463              	@ 0 "" 2
 2464              		.thumb
 2465              		.syntax unified
 2466 004c 10BD     		pop	{r4, pc}
 2467              	.L553:
 2468 004e 00BF     		.align	2
 2469              	.L552:
 2470 0050 34040000 		.word	.LANCHOR0+1076
 2471              		.size	SEGGER_SYSVIEW_RecordEndCallU32, .-SEGGER_SYSVIEW_RecordEndCallU32
 2472              		.section	.text.SEGGER_SYSVIEW_OnTaskStopReady,"ax",%progbits
 2473              		.align	2
 2474              		.global	SEGGER_SYSVIEW_OnTaskStopReady
 2475              		.thumb
 2476              		.thumb_func
 2477              		.type	SEGGER_SYSVIEW_OnTaskStopReady, %function
 2478              	SEGGER_SYSVIEW_OnTaskStopReady:
 2479              		@ args = 0, pretend = 0, frame = 0
 2480              		@ frame_needed = 0, uses_anonymous_args = 0
 2481 0000 10B5     		push	{r4, lr}
 2482 0002 0B46     		mov	r3, r1
 2483              		.syntax unified
 2484              	@ 2245 "..\SEGGER\SEGGER_SYSVIEW.c" 1
 2485 0004 EFF31184 		mrs   r4, basepri  
 2486 0008 4FF02001 		mov   r1, #32       
 2487 000c 81F31188 		msr   basepri, r1  
 2488              		
 2489              	@ 0 "" 2
 2490              		.thumb
 2491              		.syntax unified
 2492 0010 1149     		ldr	r1, .L563
 2493 0012 D1F81024 		ldr	r2, [r1, #1040]
 2494 0016 01F23441 		addw	r1, r1, #1076
 2495 001a 801A     		subs	r0, r0, r2
 2496 001c 7F28     		cmp	r0, #127
 2497 001e 06D9     		bls	.L555
 2498              	.L556:
 2499 0020 60F07F02 		orn	r2, r0, #127
 2500 0024 C009     		lsrs	r0, r0, #7
 2501 0026 7F28     		cmp	r0, #127
 2502 0028 01F8012B 		strb	r2, [r1], #1
 2503 002c F8D8     		bhi	.L556
 2504              	.L555:
 2505 002e 7F2B     		cmp	r3, #127
 2506 0030 0870     		strb	r0, [r1]
 2507 0032 01F10101 		add	r1, r1, #1
 2508 0036 06D9     		bls	.L557
ARM GAS  C:\Users\ali\AppData\Local\Temp\ccPL16ze.s 			page 45


 2509              	.L558:
 2510 0038 63F07F02 		orn	r2, r3, #127
 2511 003c DB09     		lsrs	r3, r3, #7
 2512 003e 7F2B     		cmp	r3, #127
 2513 0040 01F8012B 		strb	r2, [r1], #1
 2514 0044 F8D8     		bhi	.L558
 2515              	.L557:
 2516 0046 01F8013B 		strb	r3, [r1], #1
 2517 004a 0722     		movs	r2, #7
 2518 004c 0348     		ldr	r0, .L563+4
 2519 004e FFF7FEFF 		bl	_SendPacket
 2520              		.syntax unified
 2521              	@ 2252 "..\SEGGER\SEGGER_SYSVIEW.c" 1
 2522 0052 84F31188 		msr   basepri, r4  
 2523              		
 2524              	@ 0 "" 2
 2525              		.thumb
 2526              		.syntax unified
 2527 0056 10BD     		pop	{r4, pc}
 2528              	.L564:
 2529              		.align	2
 2530              	.L563:
 2531 0058 00000000 		.word	.LANCHOR0
 2532 005c 34040000 		.word	.LANCHOR0+1076
 2533              		.size	SEGGER_SYSVIEW_OnTaskStopReady, .-SEGGER_SYSVIEW_OnTaskStopReady
 2534              		.section	.text.SEGGER_SYSVIEW_NameMarker,"ax",%progbits
 2535              		.align	2
 2536              		.global	SEGGER_SYSVIEW_NameMarker
 2537              		.thumb
 2538              		.thumb_func
 2539              		.type	SEGGER_SYSVIEW_NameMarker, %function
 2540              	SEGGER_SYSVIEW_NameMarker:
 2541              		@ args = 0, pretend = 0, frame = 0
 2542              		@ frame_needed = 0, uses_anonymous_args = 0
 2543 0000 F8B5     		push	{r3, r4, r5, r6, r7, lr}
 2544 0002 0D46     		mov	r5, r1
 2545              		.syntax unified
 2546              	@ 2337 "..\SEGGER\SEGGER_SYSVIEW.c" 1
 2547 0004 EFF31184 		mrs   r4, basepri  
 2548 0008 4FF02001 		mov   r1, #32       
 2549 000c 81F31188 		msr   basepri, r1  
 2550              		
 2551              	@ 0 "" 2
 2552              		.thumb
 2553              		.syntax unified
 2554 0010 364B     		ldr	r3, .L594
 2555 0012 0122     		movs	r2, #1
 2556 0014 7F28     		cmp	r0, #127
 2557 0016 83F83424 		strb	r2, [r3, #1076]
 2558 001a 03F23543 		addw	r3, r3, #1077
 2559 001e 06D9     		bls	.L566
 2560              	.L567:
 2561 0020 60F07F02 		orn	r2, r0, #127
 2562 0024 C009     		lsrs	r0, r0, #7
 2563 0026 7F28     		cmp	r0, #127
 2564 0028 03F8012B 		strb	r2, [r3], #1
 2565 002c F8D8     		bhi	.L567
ARM GAS  C:\Users\ali\AppData\Local\Temp\ccPL16ze.s 			page 46


 2566              	.L566:
 2567 002e 1870     		strb	r0, [r3]
 2568 0030 002D     		cmp	r5, #0
 2569 0032 55D0     		beq	.L568
 2570 0034 2A78     		ldrb	r2, [r5]	@ zero_extendqisi2
 2571 0036 002A     		cmp	r2, #0
 2572 0038 55D0     		beq	.L569
 2573 003a 2846     		mov	r0, r5
 2574 003c 0021     		movs	r1, #0
 2575              	.L570:
 2576 003e 10F8012F 		ldrb	r2, [r0, #1]!	@ zero_extendqisi2
 2577 0042 0131     		adds	r1, r1, #1
 2578 0044 002A     		cmp	r2, #0
 2579 0046 FAD1     		bne	.L570
 2580 0048 281D     		adds	r0, r5, #4
 2581 004a 9E1C     		adds	r6, r3, #2
 2582 004c 9F1D     		adds	r7, r3, #6
 2583 004e BD42     		cmp	r5, r7
 2584 0050 38BF     		it	cc
 2585 0052 8642     		cmpcc	r6, r0
 2586 0054 46EA0507 		orr	r7, r6, r5
 2587 0058 2CBF     		ite	cs
 2588 005a 0120     		movcs	r0, #1
 2589 005c 0020     		movcc	r0, #0
 2590 005e 8029     		cmp	r1, #128
 2591 0060 28BF     		it	cs
 2592 0062 8021     		movcs	r1, #128
 2593 0064 17F0030F 		tst	r7, #3
 2594 0068 00F00100 		and	r0, r0, #1
 2595 006c 18BF     		it	ne
 2596 006e 0020     		movne	r0, #0
 2597 0070 5970     		strb	r1, [r3, #1]
 2598 0072 60B3     		cbz	r0, .L571
 2599 0074 0929     		cmp	r1, #9
 2600 0076 2AD9     		bls	.L571
 2601 0078 B646     		mov	lr, r6
 2602 007a 081F     		subs	r0, r1, #4
 2603 007c 8008     		lsrs	r0, r0, #2
 2604 007e 0130     		adds	r0, r0, #1
 2605 0080 8300     		lsls	r3, r0, #2
 2606 0082 2F1F     		subs	r7, r5, #4
 2607              	.L572:
 2608 0084 57F804CF 		ldr	ip, [r7, #4]!
 2609 0088 0132     		adds	r2, r2, #1
 2610 008a 9042     		cmp	r0, r2
 2611 008c 4EF804CB 		str	ip, [lr], #4
 2612 0090 F8D8     		bhi	.L572
 2613 0092 9942     		cmp	r1, r3
 2614 0094 06EB0307 		add	r7, r6, r3
 2615 0098 05EB030E 		add	lr, r5, r3
 2616 009c 0FD0     		beq	.L578
 2617 009e 15F82050 		ldrb	r5, [r5, r0, lsl #2]	@ zero_extendqisi2
 2618 00a2 5A1C     		adds	r2, r3, #1
 2619 00a4 8A42     		cmp	r2, r1
 2620 00a6 06F82050 		strb	r5, [r6, r0, lsl #2]
 2621 00aa 08D2     		bcs	.L578
 2622 00ac 9EF80120 		ldrb	r2, [lr, #1]	@ zero_extendqisi2
ARM GAS  C:\Users\ali\AppData\Local\Temp\ccPL16ze.s 			page 47


 2623 00b0 0233     		adds	r3, r3, #2
 2624 00b2 9942     		cmp	r1, r3
 2625 00b4 7A70     		strb	r2, [r7, #1]
 2626 00b6 02D9     		bls	.L578
 2627 00b8 9EF80230 		ldrb	r3, [lr, #2]	@ zero_extendqisi2
 2628 00bc BB70     		strb	r3, [r7, #2]
 2629              	.L578:
 2630 00be 3144     		add	r1, r1, r6
 2631              	.L576:
 2632 00c0 1F22     		movs	r2, #31
 2633 00c2 0B48     		ldr	r0, .L594+4
 2634 00c4 FFF7FEFF 		bl	_SendPacket
 2635              		.syntax unified
 2636              	@ 2344 "..\SEGGER\SEGGER_SYSVIEW.c" 1
 2637 00c8 84F31188 		msr   basepri, r4  
 2638              		
 2639              	@ 0 "" 2
 2640              		.thumb
 2641              		.syntax unified
 2642 00cc F8BD     		pop	{r3, r4, r5, r6, r7, pc}
 2643              	.L571:
 2644 00ce 5A1C     		adds	r2, r3, #1
 2645 00d0 6818     		adds	r0, r5, r1
 2646              	.L577:
 2647 00d2 15F8013B 		ldrb	r3, [r5], #1	@ zero_extendqisi2
 2648 00d6 8542     		cmp	r5, r0
 2649 00d8 02F8013F 		strb	r3, [r2, #1]!
 2650 00dc F9D1     		bne	.L577
 2651 00de EEE7     		b	.L578
 2652              	.L568:
 2653 00e0 5D70     		strb	r5, [r3, #1]
 2654 00e2 991C     		adds	r1, r3, #2
 2655 00e4 ECE7     		b	.L576
 2656              	.L569:
 2657 00e6 5A70     		strb	r2, [r3, #1]
 2658 00e8 991C     		adds	r1, r3, #2
 2659 00ea E9E7     		b	.L576
 2660              	.L595:
 2661              		.align	2
 2662              	.L594:
 2663 00ec 00000000 		.word	.LANCHOR0
 2664 00f0 34040000 		.word	.LANCHOR0+1076
 2665              		.size	SEGGER_SYSVIEW_NameMarker, .-SEGGER_SYSVIEW_NameMarker
 2666              		.section	.text.SEGGER_SYSVIEW_NameResource,"ax",%progbits
 2667              		.align	2
 2668              		.global	SEGGER_SYSVIEW_NameResource
 2669              		.thumb
 2670              		.thumb_func
 2671              		.type	SEGGER_SYSVIEW_NameResource, %function
 2672              	SEGGER_SYSVIEW_NameResource:
 2673              		@ args = 0, pretend = 0, frame = 0
 2674              		@ frame_needed = 0, uses_anonymous_args = 0
 2675 0000 F8B5     		push	{r3, r4, r5, r6, r7, lr}
 2676 0002 0D46     		mov	r5, r1
 2677              		.syntax unified
 2678              	@ 2365 "..\SEGGER\SEGGER_SYSVIEW.c" 1
 2679 0004 EFF31184 		mrs   r4, basepri  
ARM GAS  C:\Users\ali\AppData\Local\Temp\ccPL16ze.s 			page 48


 2680 0008 4FF02001 		mov   r1, #32       
 2681 000c 81F31188 		msr   basepri, r1  
 2682              		
 2683              	@ 0 "" 2
 2684              		.thumb
 2685              		.syntax unified
 2686 0010 364B     		ldr	r3, .L625
 2687 0012 D3F81024 		ldr	r2, [r3, #1040]
 2688 0016 03F23443 		addw	r3, r3, #1076
 2689 001a 801A     		subs	r0, r0, r2
 2690 001c 7F28     		cmp	r0, #127
 2691 001e 06D9     		bls	.L597
 2692              	.L598:
 2693 0020 60F07F02 		orn	r2, r0, #127
 2694 0024 C009     		lsrs	r0, r0, #7
 2695 0026 7F28     		cmp	r0, #127
 2696 0028 03F8012B 		strb	r2, [r3], #1
 2697 002c F8D8     		bhi	.L598
 2698              	.L597:
 2699 002e 1870     		strb	r0, [r3]
 2700 0030 002D     		cmp	r5, #0
 2701 0032 55D0     		beq	.L599
 2702 0034 2A78     		ldrb	r2, [r5]	@ zero_extendqisi2
 2703 0036 002A     		cmp	r2, #0
 2704 0038 55D0     		beq	.L600
 2705 003a 2846     		mov	r0, r5
 2706 003c 0021     		movs	r1, #0
 2707              	.L601:
 2708 003e 10F8012F 		ldrb	r2, [r0, #1]!	@ zero_extendqisi2
 2709 0042 0131     		adds	r1, r1, #1
 2710 0044 002A     		cmp	r2, #0
 2711 0046 FAD1     		bne	.L601
 2712 0048 281D     		adds	r0, r5, #4
 2713 004a 9E1C     		adds	r6, r3, #2
 2714 004c 9F1D     		adds	r7, r3, #6
 2715 004e BD42     		cmp	r5, r7
 2716 0050 38BF     		it	cc
 2717 0052 8642     		cmpcc	r6, r0
 2718 0054 46EA0507 		orr	r7, r6, r5
 2719 0058 2CBF     		ite	cs
 2720 005a 0120     		movcs	r0, #1
 2721 005c 0020     		movcc	r0, #0
 2722 005e 8029     		cmp	r1, #128
 2723 0060 28BF     		it	cs
 2724 0062 8021     		movcs	r1, #128
 2725 0064 17F0030F 		tst	r7, #3
 2726 0068 00F00100 		and	r0, r0, #1
 2727 006c 18BF     		it	ne
 2728 006e 0020     		movne	r0, #0
 2729 0070 5970     		strb	r1, [r3, #1]
 2730 0072 60B3     		cbz	r0, .L602
 2731 0074 0929     		cmp	r1, #9
 2732 0076 2AD9     		bls	.L602
 2733 0078 B646     		mov	lr, r6
 2734 007a 081F     		subs	r0, r1, #4
 2735 007c 8008     		lsrs	r0, r0, #2
 2736 007e 0130     		adds	r0, r0, #1
ARM GAS  C:\Users\ali\AppData\Local\Temp\ccPL16ze.s 			page 49


 2737 0080 8300     		lsls	r3, r0, #2
 2738 0082 2F1F     		subs	r7, r5, #4
 2739              	.L603:
 2740 0084 57F804CF 		ldr	ip, [r7, #4]!
 2741 0088 0132     		adds	r2, r2, #1
 2742 008a 9042     		cmp	r0, r2
 2743 008c 4EF804CB 		str	ip, [lr], #4
 2744 0090 F8D8     		bhi	.L603
 2745 0092 9942     		cmp	r1, r3
 2746 0094 06EB0307 		add	r7, r6, r3
 2747 0098 05EB030E 		add	lr, r5, r3
 2748 009c 0FD0     		beq	.L609
 2749 009e 15F82050 		ldrb	r5, [r5, r0, lsl #2]	@ zero_extendqisi2
 2750 00a2 5A1C     		adds	r2, r3, #1
 2751 00a4 8A42     		cmp	r2, r1
 2752 00a6 06F82050 		strb	r5, [r6, r0, lsl #2]
 2753 00aa 08D2     		bcs	.L609
 2754 00ac 9EF80120 		ldrb	r2, [lr, #1]	@ zero_extendqisi2
 2755 00b0 0233     		adds	r3, r3, #2
 2756 00b2 9942     		cmp	r1, r3
 2757 00b4 7A70     		strb	r2, [r7, #1]
 2758 00b6 02D9     		bls	.L609
 2759 00b8 9EF80230 		ldrb	r3, [lr, #2]	@ zero_extendqisi2
 2760 00bc BB70     		strb	r3, [r7, #2]
 2761              	.L609:
 2762 00be 3144     		add	r1, r1, r6
 2763              	.L607:
 2764 00c0 1922     		movs	r2, #25
 2765 00c2 0B48     		ldr	r0, .L625+4
 2766 00c4 FFF7FEFF 		bl	_SendPacket
 2767              		.syntax unified
 2768              	@ 2371 "..\SEGGER\SEGGER_SYSVIEW.c" 1
 2769 00c8 84F31188 		msr   basepri, r4  
 2770              		
 2771              	@ 0 "" 2
 2772              		.thumb
 2773              		.syntax unified
 2774 00cc F8BD     		pop	{r3, r4, r5, r6, r7, pc}
 2775              	.L602:
 2776 00ce 5A1C     		adds	r2, r3, #1
 2777 00d0 6818     		adds	r0, r5, r1
 2778              	.L608:
 2779 00d2 15F8013B 		ldrb	r3, [r5], #1	@ zero_extendqisi2
 2780 00d6 8542     		cmp	r5, r0
 2781 00d8 02F8013F 		strb	r3, [r2, #1]!
 2782 00dc F9D1     		bne	.L608
 2783 00de EEE7     		b	.L609
 2784              	.L599:
 2785 00e0 5D70     		strb	r5, [r3, #1]
 2786 00e2 991C     		adds	r1, r3, #2
 2787 00e4 ECE7     		b	.L607
 2788              	.L600:
 2789 00e6 5A70     		strb	r2, [r3, #1]
 2790 00e8 991C     		adds	r1, r3, #2
 2791 00ea E9E7     		b	.L607
 2792              	.L626:
 2793              		.align	2
ARM GAS  C:\Users\ali\AppData\Local\Temp\ccPL16ze.s 			page 50


 2794              	.L625:
 2795 00ec 00000000 		.word	.LANCHOR0
 2796 00f0 34040000 		.word	.LANCHOR0+1076
 2797              		.size	SEGGER_SYSVIEW_NameResource, .-SEGGER_SYSVIEW_NameResource
 2798              		.section	.text.SEGGER_SYSVIEW_RecordModuleDescription,"ax",%progbits
 2799              		.align	2
 2800              		.global	SEGGER_SYSVIEW_RecordModuleDescription
 2801              		.thumb
 2802              		.thumb_func
 2803              		.type	SEGGER_SYSVIEW_RecordModuleDescription, %function
 2804              	SEGGER_SYSVIEW_RecordModuleDescription:
 2805              		@ args = 0, pretend = 0, frame = 0
 2806              		@ frame_needed = 0, uses_anonymous_args = 0
 2807 0000 F8B5     		push	{r3, r4, r5, r6, r7, lr}
 2808 0002 4A4F     		ldr	r7, .L665
 2809 0004 0D46     		mov	r5, r1
 2810 0006 D7F81435 		ldr	r3, [r7, #1300]
 2811 000a 8342     		cmp	r3, r0
 2812 000c 00F08780 		beq	.L646
 2813 0010 1A69     		ldr	r2, [r3, #16]
 2814 0012 0123     		movs	r3, #1
 2815 0014 1AB9     		cbnz	r2, .L630
 2816 0016 85E0     		b	.L664
 2817              	.L631:
 2818 0018 1269     		ldr	r2, [r2, #16]
 2819 001a CBB2     		uxtb	r3, r1
 2820 001c 1AB1     		cbz	r2, .L662
 2821              	.L630:
 2822 001e 9042     		cmp	r0, r2
 2823 0020 03F10101 		add	r1, r3, #1
 2824 0024 F8D1     		bne	.L631
 2825              	.L662:
 2826 0026 1E46     		mov	r6, r3
 2827              	.L628:
 2828              		.syntax unified
 2829              	@ 2606 "..\SEGGER\SEGGER_SYSVIEW.c" 1
 2830 0028 EFF31184 		mrs   r4, basepri  
 2831 002c 4FF02001 		mov   r1, #32       
 2832 0030 81F31188 		msr   basepri, r1  
 2833              		
 2834              	@ 0 "" 2
 2835              		.thumb
 2836              		.syntax unified
 2837 0034 7F2E     		cmp	r6, #127
 2838 0036 6DD9     		bls	.L647
 2839 0038 63F07F03 		orn	r3, r3, #127
 2840 003c 3C4A     		ldr	r2, .L665+4
 2841 003e 87F83434 		strb	r3, [r7, #1076]
 2842 0042 0126     		movs	r6, #1
 2843              	.L632:
 2844 0044 1670     		strb	r6, [r2]
 2845 0046 8368     		ldr	r3, [r0, #8]
 2846 0048 0132     		adds	r2, r2, #1
 2847 004a 7F2B     		cmp	r3, #127
 2848 004c 06D9     		bls	.L633
 2849              	.L634:
 2850 004e 63F07F01 		orn	r1, r3, #127
ARM GAS  C:\Users\ali\AppData\Local\Temp\ccPL16ze.s 			page 51


 2851 0052 DB09     		lsrs	r3, r3, #7
 2852 0054 7F2B     		cmp	r3, #127
 2853 0056 02F8011B 		strb	r1, [r2], #1
 2854 005a F8D8     		bhi	.L634
 2855              	.L633:
 2856 005c 1370     		strb	r3, [r2]
 2857 005e 002D     		cmp	r5, #0
 2858 0060 55D0     		beq	.L635
 2859 0062 2B78     		ldrb	r3, [r5]	@ zero_extendqisi2
 2860 0064 002B     		cmp	r3, #0
 2861 0066 57D0     		beq	.L636
 2862 0068 2846     		mov	r0, r5
 2863 006a 0021     		movs	r1, #0
 2864              	.L637:
 2865 006c 10F8013F 		ldrb	r3, [r0, #1]!	@ zero_extendqisi2
 2866 0070 0131     		adds	r1, r1, #1
 2867 0072 002B     		cmp	r3, #0
 2868 0074 FAD1     		bne	.L637
 2869 0076 281D     		adds	r0, r5, #4
 2870 0078 961C     		adds	r6, r2, #2
 2871 007a 971D     		adds	r7, r2, #6
 2872 007c BD42     		cmp	r5, r7
 2873 007e 38BF     		it	cc
 2874 0080 8642     		cmpcc	r6, r0
 2875 0082 45EA0607 		orr	r7, r5, r6
 2876 0086 2CBF     		ite	cs
 2877 0088 0120     		movcs	r0, #1
 2878 008a 0020     		movcc	r0, #0
 2879 008c 8029     		cmp	r1, #128
 2880 008e 28BF     		it	cs
 2881 0090 8021     		movcs	r1, #128
 2882 0092 17F0030F 		tst	r7, #3
 2883 0096 00F00100 		and	r0, r0, #1
 2884 009a 18BF     		it	ne
 2885 009c 0020     		movne	r0, #0
 2886 009e 5170     		strb	r1, [r2, #1]
 2887 00a0 60B3     		cbz	r0, .L638
 2888 00a2 0929     		cmp	r1, #9
 2889 00a4 2AD9     		bls	.L638
 2890 00a6 B646     		mov	lr, r6
 2891 00a8 081F     		subs	r0, r1, #4
 2892 00aa 8008     		lsrs	r0, r0, #2
 2893 00ac 0130     		adds	r0, r0, #1
 2894 00ae 8200     		lsls	r2, r0, #2
 2895 00b0 2F1F     		subs	r7, r5, #4
 2896              	.L639:
 2897 00b2 57F804CF 		ldr	ip, [r7, #4]!
 2898 00b6 0133     		adds	r3, r3, #1
 2899 00b8 9842     		cmp	r0, r3
 2900 00ba 4EF804CB 		str	ip, [lr], #4
 2901 00be F8D8     		bhi	.L639
 2902 00c0 9142     		cmp	r1, r2
 2903 00c2 06EB0207 		add	r7, r6, r2
 2904 00c6 05EB020E 		add	lr, r5, r2
 2905 00ca 0FD0     		beq	.L645
 2906 00cc 15F82050 		ldrb	r5, [r5, r0, lsl #2]	@ zero_extendqisi2
 2907 00d0 531C     		adds	r3, r2, #1
ARM GAS  C:\Users\ali\AppData\Local\Temp\ccPL16ze.s 			page 52


 2908 00d2 8B42     		cmp	r3, r1
 2909 00d4 06F82050 		strb	r5, [r6, r0, lsl #2]
 2910 00d8 08D2     		bcs	.L645
 2911 00da 9EF80130 		ldrb	r3, [lr, #1]	@ zero_extendqisi2
 2912 00de 0232     		adds	r2, r2, #2
 2913 00e0 9142     		cmp	r1, r2
 2914 00e2 7B70     		strb	r3, [r7, #1]
 2915 00e4 02D9     		bls	.L645
 2916 00e6 9EF80230 		ldrb	r3, [lr, #2]	@ zero_extendqisi2
 2917 00ea BB70     		strb	r3, [r7, #2]
 2918              	.L645:
 2919 00ec 3144     		add	r1, r1, r6
 2920              	.L643:
 2921 00ee 1622     		movs	r2, #22
 2922 00f0 1048     		ldr	r0, .L665+8
 2923 00f2 FFF7FEFF 		bl	_SendPacket
 2924              		.syntax unified
 2925              	@ 2617 "..\SEGGER\SEGGER_SYSVIEW.c" 1
 2926 00f6 84F31188 		msr   basepri, r4  
 2927              		
 2928              	@ 0 "" 2
 2929              		.thumb
 2930              		.syntax unified
 2931 00fa F8BD     		pop	{r3, r4, r5, r6, r7, pc}
 2932              	.L638:
 2933 00fc 531C     		adds	r3, r2, #1
 2934 00fe 6818     		adds	r0, r5, r1
 2935              	.L644:
 2936 0100 15F8012B 		ldrb	r2, [r5], #1	@ zero_extendqisi2
 2937 0104 8542     		cmp	r5, r0
 2938 0106 03F8012F 		strb	r2, [r3, #1]!
 2939 010a F9D1     		bne	.L644
 2940 010c EEE7     		b	.L645
 2941              	.L635:
 2942 010e 5570     		strb	r5, [r2, #1]
 2943 0110 911C     		adds	r1, r2, #2
 2944 0112 ECE7     		b	.L643
 2945              	.L647:
 2946 0114 074A     		ldr	r2, .L665+8
 2947 0116 95E7     		b	.L632
 2948              	.L636:
 2949 0118 5370     		strb	r3, [r2, #1]
 2950 011a 911C     		adds	r1, r2, #2
 2951 011c E7E7     		b	.L643
 2952              	.L646:
 2953 011e 0026     		movs	r6, #0
 2954 0120 3346     		mov	r3, r6
 2955 0122 81E7     		b	.L628
 2956              	.L664:
 2957 0124 0126     		movs	r6, #1
 2958 0126 3346     		mov	r3, r6
 2959 0128 7EE7     		b	.L628
 2960              	.L666:
 2961 012a 00BF     		.align	2
 2962              	.L665:
 2963 012c 00000000 		.word	.LANCHOR0
 2964 0130 35040000 		.word	.LANCHOR0+1077
ARM GAS  C:\Users\ali\AppData\Local\Temp\ccPL16ze.s 			page 53


 2965 0134 34040000 		.word	.LANCHOR0+1076
 2966              		.size	SEGGER_SYSVIEW_RecordModuleDescription, .-SEGGER_SYSVIEW_RecordModuleDescription
 2967              		.section	.text._VPrintHost,"ax",%progbits
 2968              		.align	2
 2969              		.thumb
 2970              		.thumb_func
 2971              		.type	_VPrintHost, %function
 2972              	_VPrintHost:
 2973              		@ args = 0, pretend = 0, frame = 72
 2974              		@ frame_needed = 0, uses_anonymous_args = 0
 2975 0000 2DE9F04F 		push	{r4, r5, r6, r7, r8, r9, r10, fp, lr}
 2976 0004 0D46     		mov	r5, r1
 2977 0006 0146     		mov	r1, r0
 2978 0008 93B0     		sub	sp, sp, #76
 2979 000a 0024     		movs	r4, #0
 2980              	.L668:
 2981 000c 11F8013B 		ldrb	r3, [r1], #1	@ zero_extendqisi2
 2982 0010 83B1     		cbz	r3, .L716
 2983 0012 252B     		cmp	r3, #37
 2984 0014 FAD1     		bne	.L668
 2985 0016 1368     		ldr	r3, [r2]
 2986 0018 12AE     		add	r6, sp, #72
 2987 001a 1F68     		ldr	r7, [r3]
 2988 001c 06EB8406 		add	r6, r6, r4, lsl #2
 2989 0020 0134     		adds	r4, r4, #1
 2990 0022 0433     		adds	r3, r3, #4
 2991 0024 102C     		cmp	r4, #16
 2992 0026 1360     		str	r3, [r2]
 2993 0028 46F8407C 		str	r7, [r6, #-64]
 2994 002c EED1     		bne	.L668
 2995 002e 0194     		str	r4, [sp, #4]
 2996 0030 0F22     		movs	r2, #15
 2997 0032 02E0     		b	.L670
 2998              	.L716:
 2999 0034 E3B2     		uxtb	r3, r4
 3000 0036 0193     		str	r3, [sp, #4]
 3001 0038 621E     		subs	r2, r4, #1
 3002              	.L670:
 3003              		.syntax unified
 3004              	@ 913 "..\SEGGER\SEGGER_SYSVIEW.c" 1
 3005 003a EFF31188 		mrs   r8, basepri  
 3006 003e 4FF02001 		mov   r1, #32       
 3007 0042 81F31188 		msr   basepri, r1  
 3008              		
 3009              	@ 0 "" 2
 3010              		.thumb
 3011              		.syntax unified
 3012 0046 0028     		cmp	r0, #0
 3013 0048 00F0A680 		beq	.L672
 3014 004c 0178     		ldrb	r1, [r0]	@ zero_extendqisi2
 3015 004e 0029     		cmp	r1, #0
 3016 0050 00F0AF80 		beq	.L673
 3017 0054 0646     		mov	r6, r0
 3018 0056 0023     		movs	r3, #0
 3019              	.L674:
 3020 0058 16F8011F 		ldrb	r1, [r6, #1]!	@ zero_extendqisi2
 3021 005c 0133     		adds	r3, r3, #1
ARM GAS  C:\Users\ali\AppData\Local\Temp\ccPL16ze.s 			page 54


 3022 005e 0029     		cmp	r1, #0
 3023 0060 FAD1     		bne	.L674
 3024 0062 574F     		ldr	r7, .L717
 3025 0064 00F10806 		add	r6, r0, #8
 3026 0068 07F23549 		addw	r9, r7, #1077
 3027 006c 07F23D4E 		addw	lr, r7, #1085
 3028 0070 8645     		cmp	lr, r0
 3029 0072 88BF     		it	hi
 3030 0074 4E45     		cmphi	r6, r9
 3031 0076 40EA090E 		orr	lr, r0, r9
 3032 007a 94BF     		ite	ls
 3033 007c 0126     		movls	r6, #1
 3034 007e 0026     		movhi	r6, #0
 3035 0080 802B     		cmp	r3, #128
 3036 0082 28BF     		it	cs
 3037 0084 8023     		movcs	r3, #128
 3038 0086 1EF0070F 		tst	lr, #7
 3039 008a 06F00106 		and	r6, r6, #1
 3040 008e 18BF     		it	ne
 3041 0090 0026     		movne	r6, #0
 3042 0092 87F83434 		strb	r3, [r7, #1076]
 3043 0096 002E     		cmp	r6, #0
 3044 0098 75D0     		beq	.L675
 3045 009a 0A2B     		cmp	r3, #10
 3046 009c 73D9     		bls	.L675
 3047 009e CB46     		mov	fp, r9
 3048 00a0 A3F1080C 		sub	ip, r3, #8
 3049 00a4 4FEADC0C 		lsr	ip, ip, #3
 3050 00a8 0CF1010C 		add	ip, ip, #1
 3051 00ac 4FEACC0E 		lsl	lr, ip, #3
 3052 00b0 A0F1080A 		sub	r10, r0, #8
 3053              	.L676:
 3054 00b4 0131     		adds	r1, r1, #1
 3055 00b6 8C45     		cmp	ip, r1
 3056 00b8 FAE90267 		ldrd	r6, [r10, #8]!
 3057 00bc EBE80267 		strd	r6, [fp], #8
 3058 00c0 F8D8     		bhi	.L676
 3059 00c2 9E45     		cmp	lr, r3
 3060 00c4 3F4F     		ldr	r7, .L717+4
 3061 00c6 09EB0E01 		add	r1, r9, lr
 3062 00ca 00EB0E06 		add	r6, r0, lr
 3063 00ce 27D0     		beq	.L682
 3064 00d0 10F83CA0 		ldrb	r10, [r0, ip, lsl #3]	@ zero_extendqisi2
 3065 00d4 0EF10100 		add	r0, lr, #1
 3066 00d8 9842     		cmp	r0, r3
 3067 00da 07F83CA0 		strb	r10, [r7, ip, lsl #3]
 3068 00de 1FD2     		bcs	.L682
 3069 00e0 7778     		ldrb	r7, [r6, #1]	@ zero_extendqisi2
 3070 00e2 0EF10200 		add	r0, lr, #2
 3071 00e6 8342     		cmp	r3, r0
 3072 00e8 4F70     		strb	r7, [r1, #1]
 3073 00ea 19D9     		bls	.L682
 3074 00ec B778     		ldrb	r7, [r6, #2]	@ zero_extendqisi2
 3075 00ee 0EF10300 		add	r0, lr, #3
 3076 00f2 8342     		cmp	r3, r0
 3077 00f4 8F70     		strb	r7, [r1, #2]
 3078 00f6 13D9     		bls	.L682
ARM GAS  C:\Users\ali\AppData\Local\Temp\ccPL16ze.s 			page 55


 3079 00f8 F778     		ldrb	r7, [r6, #3]	@ zero_extendqisi2
 3080 00fa 0EF10400 		add	r0, lr, #4
 3081 00fe 8342     		cmp	r3, r0
 3082 0100 CF70     		strb	r7, [r1, #3]
 3083 0102 0DD9     		bls	.L682
 3084 0104 3779     		ldrb	r7, [r6, #4]	@ zero_extendqisi2
 3085 0106 0EF10500 		add	r0, lr, #5
 3086 010a 8342     		cmp	r3, r0
 3087 010c 0F71     		strb	r7, [r1, #4]
 3088 010e 07D9     		bls	.L682
 3089 0110 7079     		ldrb	r0, [r6, #5]	@ zero_extendqisi2
 3090 0112 0EF1060E 		add	lr, lr, #6
 3091 0116 7345     		cmp	r3, lr
 3092 0118 4871     		strb	r0, [r1, #5]
 3093 011a 01D9     		bls	.L682
 3094 011c B079     		ldrb	r0, [r6, #6]	@ zero_extendqisi2
 3095 011e 8871     		strb	r0, [r1, #6]
 3096              	.L682:
 3097 0120 4B44     		add	r3, r3, r9
 3098 0122 04E0     		b	.L714
 3099              	.L684:
 3100 0124 65F07F01 		orn	r1, r5, #127
 3101 0128 03F8011B 		strb	r1, [r3], #1
 3102 012c ED09     		lsrs	r5, r5, #7
 3103              	.L714:
 3104 012e 7F2D     		cmp	r5, #127
 3105 0130 F8D8     		bhi	.L684
 3106 0132 7F2C     		cmp	r4, #127
 3107 0134 1D70     		strb	r5, [r3]
 3108 0136 03F10101 		add	r1, r3, #1
 3109 013a 33D9     		bls	.L685
 3110              	.L686:
 3111 013c 64F07F03 		orn	r3, r4, #127
 3112 0140 E409     		lsrs	r4, r4, #7
 3113 0142 7F2C     		cmp	r4, #127
 3114 0144 01F8013B 		strb	r3, [r1], #1
 3115 0148 F8D8     		bhi	.L686
 3116 014a 0C70     		strb	r4, [r1]
 3117 014c 0131     		adds	r1, r1, #1
 3118              	.L687:
 3119 014e 02AC     		add	r4, sp, #8
 3120              	.L691:
 3121 0150 54F8043B 		ldr	r3, [r4], #4
 3122 0154 7F2B     		cmp	r3, #127
 3123 0156 06D9     		bls	.L689
 3124              	.L690:
 3125 0158 63F07F00 		orn	r0, r3, #127
 3126 015c DB09     		lsrs	r3, r3, #7
 3127 015e 7F2B     		cmp	r3, #127
 3128 0160 01F8010B 		strb	r0, [r1], #1
 3129 0164 F8D8     		bhi	.L690
 3130              	.L689:
 3131 0166 013A     		subs	r2, r2, #1
 3132 0168 0B70     		strb	r3, [r1]
 3133 016a 531C     		adds	r3, r2, #1
 3134 016c 01F10101 		add	r1, r1, #1
 3135 0170 EED1     		bne	.L691
ARM GAS  C:\Users\ali\AppData\Local\Temp\ccPL16ze.s 			page 56


 3136              	.L688:
 3137 0172 1A22     		movs	r2, #26
 3138 0174 1448     		ldr	r0, .L717+8
 3139 0176 FFF7FEFF 		bl	_SendPacket
 3140              		.syntax unified
 3141              	@ 923 "..\SEGGER\SEGGER_SYSVIEW.c" 1
 3142 017a 88F31188 		msr   basepri, r8  
 3143              		
 3144              	@ 0 "" 2
 3145              		.thumb
 3146              		.syntax unified
 3147 017e 0020     		movs	r0, #0
 3148 0180 13B0     		add	sp, sp, #76
 3149              		@ sp needed
 3150 0182 BDE8F08F 		pop	{r4, r5, r6, r7, r8, r9, r10, fp, pc}
 3151              	.L675:
 3152 0186 1049     		ldr	r1, .L717+8
 3153 0188 C718     		adds	r7, r0, r3
 3154              	.L681:
 3155 018a 10F8016B 		ldrb	r6, [r0], #1	@ zero_extendqisi2
 3156 018e B842     		cmp	r0, r7
 3157 0190 01F8016F 		strb	r6, [r1, #1]!
 3158 0194 F9D1     		bne	.L681
 3159 0196 C3E7     		b	.L682
 3160              	.L672:
 3161 0198 094B     		ldr	r3, .L717
 3162 019a 83F83404 		strb	r0, [r3, #1076]
 3163 019e 03F23543 		addw	r3, r3, #1077
 3164 01a2 C4E7     		b	.L714
 3165              	.L685:
 3166 01a4 9DF80410 		ldrb	r1, [sp, #4]	@ zero_extendqisi2
 3167 01a8 5970     		strb	r1, [r3, #1]
 3168 01aa 991C     		adds	r1, r3, #2
 3169 01ac 002C     		cmp	r4, #0
 3170 01ae E0D0     		beq	.L688
 3171 01b0 CDE7     		b	.L687
 3172              	.L673:
 3173 01b2 034B     		ldr	r3, .L717
 3174 01b4 83F83414 		strb	r1, [r3, #1076]
 3175 01b8 03F23543 		addw	r3, r3, #1077
 3176 01bc B7E7     		b	.L714
 3177              	.L718:
 3178 01be 00BF     		.align	2
 3179              	.L717:
 3180 01c0 00000000 		.word	.LANCHOR0
 3181 01c4 35040000 		.word	.LANCHOR0+1077
 3182 01c8 34040000 		.word	.LANCHOR0+1076
 3183              		.size	_VPrintHost, .-_VPrintHost
 3184              		.section	.text.SEGGER_SYSVIEW_RegisterModule,"ax",%progbits
 3185              		.align	2
 3186              		.global	SEGGER_SYSVIEW_RegisterModule
 3187              		.thumb
 3188              		.thumb_func
 3189              		.type	SEGGER_SYSVIEW_RegisterModule, %function
 3190              	SEGGER_SYSVIEW_RegisterModule:
 3191              		@ args = 0, pretend = 0, frame = 0
 3192              		@ frame_needed = 0, uses_anonymous_args = 0
ARM GAS  C:\Users\ali\AppData\Local\Temp\ccPL16ze.s 			page 57


 3193 0000 2DE9F843 		push	{r3, r4, r5, r6, r7, r8, r9, lr}
 3194 0004 0546     		mov	r5, r0
 3195              		.syntax unified
 3196              	@ 2550 "..\SEGGER\SEGGER_SYSVIEW.c" 1
 3197 0006 EFF31184 		mrs   r4, basepri  
 3198 000a 4FF02001 		mov   r1, #32       
 3199 000e 81F31188 		msr   basepri, r1  
 3200              		
 3201              	@ 0 "" 2
 3202              		.thumb
 3203              		.syntax unified
 3204 0012 4D48     		ldr	r0, .L755
 3205 0014 D0F81425 		ldr	r2, [r0, #1300]
 3206 0018 002A     		cmp	r2, #0
 3207 001a 7BD0     		beq	.L754
 3208 001c 9668     		ldr	r6, [r2, #8]
 3209 001e 5368     		ldr	r3, [r2, #4]
 3210 0020 90F81815 		ldrb	r1, [r0, #1304]	@ zero_extendqisi2
 3211 0024 3344     		add	r3, r3, r6
 3212 0026 0131     		adds	r1, r1, #1
 3213 0028 C0F81455 		str	r5, [r0, #1300]
 3214 002c AB60     		str	r3, [r5, #8]
 3215 002e 2A61     		str	r2, [r5, #16]
 3216 0030 80F81815 		strb	r1, [r0, #1304]
 3217              	.L721:
 3218              		.syntax unified
 3219              	@ 2646 "..\SEGGER\SEGGER_SYSVIEW.c" 1
 3220 0034 EFF31186 		mrs   r6, basepri  
 3221 0038 4FF02001 		mov   r1, #32       
 3222 003c 81F31188 		msr   basepri, r1  
 3223              		
 3224              	@ 0 "" 2
 3225              		.thumb
 3226              		.syntax unified
 3227 0040 0022     		movs	r2, #0
 3228 0042 7F2B     		cmp	r3, #127
 3229 0044 80F83424 		strb	r2, [r0, #1076]
 3230 0048 404A     		ldr	r2, .L755+4
 3231 004a 06D9     		bls	.L736
 3232              	.L722:
 3233 004c 63F07F01 		orn	r1, r3, #127
 3234 0050 DB09     		lsrs	r3, r3, #7
 3235 0052 7F2B     		cmp	r3, #127
 3236 0054 02F8011B 		strb	r1, [r2], #1
 3237 0058 F8D8     		bhi	.L722
 3238              	.L736:
 3239 005a 1370     		strb	r3, [r2]
 3240 005c 2F68     		ldr	r7, [r5]
 3241 005e 002F     		cmp	r7, #0
 3242 0060 6BD0     		beq	.L723
 3243 0062 3B78     		ldrb	r3, [r7]	@ zero_extendqisi2
 3244 0064 002B     		cmp	r3, #0
 3245 0066 6BD0     		beq	.L724
 3246 0068 3846     		mov	r0, r7
 3247 006a 0021     		movs	r1, #0
 3248              	.L725:
 3249 006c 10F8013F 		ldrb	r3, [r0, #1]!	@ zero_extendqisi2
ARM GAS  C:\Users\ali\AppData\Local\Temp\ccPL16ze.s 			page 58


 3250 0070 0131     		adds	r1, r1, #1
 3251 0072 002B     		cmp	r3, #0
 3252 0074 FAD1     		bne	.L725
 3253 0076 381D     		adds	r0, r7, #4
 3254 0078 02F1020E 		add	lr, r2, #2
 3255 007c 02F1060C 		add	ip, r2, #6
 3256 0080 6745     		cmp	r7, ip
 3257 0082 38BF     		it	cc
 3258 0084 8645     		cmpcc	lr, r0
 3259 0086 47EA0E0C 		orr	ip, r7, lr
 3260 008a 2CBF     		ite	cs
 3261 008c 0120     		movcs	r0, #1
 3262 008e 0020     		movcc	r0, #0
 3263 0090 8029     		cmp	r1, #128
 3264 0092 28BF     		it	cs
 3265 0094 8021     		movcs	r1, #128
 3266 0096 1CF0030F 		tst	ip, #3
 3267 009a 00F00100 		and	r0, r0, #1
 3268 009e 18BF     		it	ne
 3269 00a0 0020     		movne	r0, #0
 3270 00a2 5170     		strb	r1, [r2, #1]
 3271 00a4 0028     		cmp	r0, #0
 3272 00a6 3FD0     		beq	.L726
 3273 00a8 0929     		cmp	r1, #9
 3274 00aa 3DD9     		bls	.L726
 3275 00ac F046     		mov	r8, lr
 3276 00ae 0A1F     		subs	r2, r1, #4
 3277 00b0 9208     		lsrs	r2, r2, #2
 3278 00b2 0132     		adds	r2, r2, #1
 3279 00b4 9000     		lsls	r0, r2, #2
 3280 00b6 A7F1040C 		sub	ip, r7, #4
 3281              	.L727:
 3282 00ba 5CF8049F 		ldr	r9, [ip, #4]!
 3283 00be 0133     		adds	r3, r3, #1
 3284 00c0 9A42     		cmp	r2, r3
 3285 00c2 48F8049B 		str	r9, [r8], #4
 3286 00c6 F8D8     		bhi	.L727
 3287 00c8 8142     		cmp	r1, r0
 3288 00ca 0EEB000C 		add	ip, lr, r0
 3289 00ce 07EB0008 		add	r8, r7, r0
 3290 00d2 11D0     		beq	.L733
 3291 00d4 17F82270 		ldrb	r7, [r7, r2, lsl #2]	@ zero_extendqisi2
 3292 00d8 431C     		adds	r3, r0, #1
 3293 00da 9942     		cmp	r1, r3
 3294 00dc 0EF82270 		strb	r7, [lr, r2, lsl #2]
 3295 00e0 0AD9     		bls	.L733
 3296 00e2 98F80120 		ldrb	r2, [r8, #1]	@ zero_extendqisi2
 3297 00e6 831C     		adds	r3, r0, #2
 3298 00e8 9942     		cmp	r1, r3
 3299 00ea 8CF80120 		strb	r2, [ip, #1]
 3300 00ee 03D9     		bls	.L733
 3301 00f0 98F80230 		ldrb	r3, [r8, #2]	@ zero_extendqisi2
 3302 00f4 8CF80230 		strb	r3, [ip, #2]
 3303              	.L733:
 3304 00f8 7144     		add	r1, r1, lr
 3305              	.L731:
 3306 00fa 1622     		movs	r2, #22
ARM GAS  C:\Users\ali\AppData\Local\Temp\ccPL16ze.s 			page 59


 3307 00fc 1448     		ldr	r0, .L755+8
 3308 00fe FFF7FEFF 		bl	_SendPacket
 3309              		.syntax unified
 3310              	@ 2657 "..\SEGGER\SEGGER_SYSVIEW.c" 1
 3311 0102 86F31188 		msr   basepri, r6  
 3312              		
 3313              	@ 0 "" 2
 3314              		.thumb
 3315              		.syntax unified
 3316 0106 EB68     		ldr	r3, [r5, #12]
 3317 0108 03B1     		cbz	r3, .L734
 3318 010a 9847     		blx	r3
 3319              	.L734:
 3320              		.syntax unified
 3321              	@ 2576 "..\SEGGER\SEGGER_SYSVIEW.c" 1
 3322 010c 84F31188 		msr   basepri, r4  
 3323              		
 3324              	@ 0 "" 2
 3325              		.thumb
 3326              		.syntax unified
 3327 0110 BDE8F883 		pop	{r3, r4, r5, r6, r7, r8, r9, pc}
 3328              	.L754:
 3329 0114 4FF40073 		mov	r3, #512
 3330 0118 0121     		movs	r1, #1
 3331 011a 2A61     		str	r2, [r5, #16]
 3332 011c C0F81455 		str	r5, [r0, #1300]
 3333 0120 AB60     		str	r3, [r5, #8]
 3334 0122 80F81815 		strb	r1, [r0, #1304]
 3335 0126 85E7     		b	.L721
 3336              	.L726:
 3337 0128 0132     		adds	r2, r2, #1
 3338 012a 7818     		adds	r0, r7, r1
 3339              	.L732:
 3340 012c 17F8013B 		ldrb	r3, [r7], #1	@ zero_extendqisi2
 3341 0130 8742     		cmp	r7, r0
 3342 0132 02F8013F 		strb	r3, [r2, #1]!
 3343 0136 F9D1     		bne	.L732
 3344 0138 DEE7     		b	.L733
 3345              	.L723:
 3346 013a 5770     		strb	r7, [r2, #1]
 3347 013c 911C     		adds	r1, r2, #2
 3348 013e DCE7     		b	.L731
 3349              	.L724:
 3350 0140 5370     		strb	r3, [r2, #1]
 3351 0142 911C     		adds	r1, r2, #2
 3352 0144 D9E7     		b	.L731
 3353              	.L756:
 3354 0146 00BF     		.align	2
 3355              	.L755:
 3356 0148 00000000 		.word	.LANCHOR0
 3357 014c 35040000 		.word	.LANCHOR0+1077
 3358 0150 34040000 		.word	.LANCHOR0+1076
 3359              		.size	SEGGER_SYSVIEW_RegisterModule, .-SEGGER_SYSVIEW_RegisterModule
 3360              		.section	.text.SEGGER_SYSVIEW_RecordSystime,"ax",%progbits
 3361              		.align	2
 3362              		.global	SEGGER_SYSVIEW_RecordSystime
 3363              		.thumb
ARM GAS  C:\Users\ali\AppData\Local\Temp\ccPL16ze.s 			page 60


 3364              		.thumb_func
 3365              		.type	SEGGER_SYSVIEW_RecordSystime, %function
 3366              	SEGGER_SYSVIEW_RecordSystime:
 3367              		@ args = 0, pretend = 0, frame = 0
 3368              		@ frame_needed = 0, uses_anonymous_args = 0
 3369 0000 F8B5     		push	{r3, r4, r5, r6, r7, lr}
 3370 0002 264C     		ldr	r4, .L778
 3371 0004 D4F82034 		ldr	r3, [r4, #1056]
 3372 0008 6BB3     		cbz	r3, .L758
 3373 000a 1B68     		ldr	r3, [r3]
 3374 000c 5BB3     		cbz	r3, .L758
 3375 000e 9847     		blx	r3
 3376 0010 0027     		movs	r7, #0
 3377 0012 0E46     		mov	r6, r1
 3378 0014 0B46     		mov	r3, r1
 3379              		.syntax unified
 3380              	@ 1433 "..\SEGGER\SEGGER_SYSVIEW.c" 1
 3381 0016 EFF31185 		mrs   r5, basepri  
 3382 001a 4FF02001 		mov   r1, #32       
 3383 001e 81F31188 		msr   basepri, r1  
 3384              		
 3385              	@ 0 "" 2
 3386              		.thumb
 3387              		.syntax unified
 3388 0022 7F28     		cmp	r0, #127
 3389 0024 04F23441 		addw	r1, r4, #1076
 3390 0028 06D9     		bls	.L759
 3391              	.L760:
 3392 002a 60F07F02 		orn	r2, r0, #127
 3393 002e C009     		lsrs	r0, r0, #7
 3394 0030 7F28     		cmp	r0, #127
 3395 0032 01F8012B 		strb	r2, [r1], #1
 3396 0036 F8D8     		bhi	.L760
 3397              	.L759:
 3398 0038 002F     		cmp	r7, #0
 3399 003a 08BF     		it	eq
 3400 003c 802E     		cmpeq	r6, #128
 3401 003e 0870     		strb	r0, [r1]
 3402 0040 01F10101 		add	r1, r1, #1
 3403 0044 06D3     		bcc	.L761
 3404              	.L762:
 3405 0046 63F07F02 		orn	r2, r3, #127
 3406 004a DB09     		lsrs	r3, r3, #7
 3407 004c 7F2B     		cmp	r3, #127
 3408 004e 01F8012B 		strb	r2, [r1], #1
 3409 0052 F8D8     		bhi	.L762
 3410              	.L761:
 3411 0054 01F8013B 		strb	r3, [r1], #1
 3412 0058 0D22     		movs	r2, #13
 3413 005a 1148     		ldr	r0, .L778+4
 3414 005c FFF7FEFF 		bl	_SendPacket
 3415              		.syntax unified
 3416              	@ 1439 "..\SEGGER\SEGGER_SYSVIEW.c" 1
 3417 0060 85F31188 		msr   basepri, r5  
 3418              		
 3419              	@ 0 "" 2
 3420              		.thumb
ARM GAS  C:\Users\ali\AppData\Local\Temp\ccPL16ze.s 			page 61


 3421              		.syntax unified
 3422 0064 F8BD     		pop	{r3, r4, r5, r6, r7, pc}
 3423              	.L758:
 3424 0066 0F4B     		ldr	r3, .L778+8
 3425 0068 1B68     		ldr	r3, [r3]
 3426              		.syntax unified
 3427              	@ 1410 "..\SEGGER\SEGGER_SYSVIEW.c" 1
 3428 006a EFF31184 		mrs   r4, basepri  
 3429 006e 4FF02001 		mov   r1, #32       
 3430 0072 81F31188 		msr   basepri, r1  
 3431              		
 3432              	@ 0 "" 2
 3433              		.thumb
 3434              		.syntax unified
 3435 0076 7F2B     		cmp	r3, #127
 3436 0078 0949     		ldr	r1, .L778+4
 3437 007a 06D9     		bls	.L764
 3438              	.L765:
 3439 007c 63F07F02 		orn	r2, r3, #127
 3440 0080 DB09     		lsrs	r3, r3, #7
 3441 0082 7F2B     		cmp	r3, #127
 3442 0084 01F8012B 		strb	r2, [r1], #1
 3443 0088 F8D8     		bhi	.L765
 3444              	.L764:
 3445 008a 01F8013B 		strb	r3, [r1], #1
 3446 008e 0C22     		movs	r2, #12
 3447 0090 0348     		ldr	r0, .L778+4
 3448 0092 FFF7FEFF 		bl	_SendPacket
 3449              		.syntax unified
 3450              	@ 1415 "..\SEGGER\SEGGER_SYSVIEW.c" 1
 3451 0096 84F31188 		msr   basepri, r4  
 3452              		
 3453              	@ 0 "" 2
 3454              		.thumb
 3455              		.syntax unified
 3456 009a F8BD     		pop	{r3, r4, r5, r6, r7, pc}
 3457              	.L779:
 3458              		.align	2
 3459              	.L778:
 3460 009c 00000000 		.word	.LANCHOR0
 3461 00a0 34040000 		.word	.LANCHOR0+1076
 3462 00a4 041000E0 		.word	-536866812
 3463              		.size	SEGGER_SYSVIEW_RecordSystime, .-SEGGER_SYSVIEW_RecordSystime
 3464              		.section	.text.SEGGER_SYSVIEW_Start,"ax",%progbits
 3465              		.align	2
 3466              		.global	SEGGER_SYSVIEW_Start
 3467              		.thumb
 3468              		.thumb_func
 3469              		.type	SEGGER_SYSVIEW_Start, %function
 3470              	SEGGER_SYSVIEW_Start:
 3471              		@ args = 0, pretend = 0, frame = 0
 3472              		@ frame_needed = 0, uses_anonymous_args = 0
 3473 0000 F8B5     		push	{r3, r4, r5, r6, r7, lr}
 3474 0002 404D     		ldr	r5, .L805
 3475 0004 0123     		movs	r3, #1
 3476 0006 85F80034 		strb	r3, [r5, #1024]
 3477              		.syntax unified
ARM GAS  C:\Users\ali\AppData\Local\Temp\ccPL16ze.s 			page 62


 3478              	@ 1765 "..\SEGGER\SEGGER_SYSVIEW.c" 1
 3479 000a EFF31184 		mrs   r4, basepri  
 3480 000e 4FF02001 		mov   r1, #32       
 3481 0012 81F31188 		msr   basepri, r1  
 3482              		
 3483              	@ 0 "" 2
 3484              		.thumb
 3485              		.syntax unified
 3486 0016 0A22     		movs	r2, #10
 3487 0018 95F80104 		ldrb	r0, [r5, #1025]	@ zero_extendqisi2
 3488 001c 3A49     		ldr	r1, .L805+4
 3489 001e FFF7FEFF 		bl	SEGGER_RTT_ASM_WriteSkipNoLock
 3490              		.syntax unified
 3491              	@ 1767 "..\SEGGER\SEGGER_SYSVIEW.c" 1
 3492 0022 84F31188 		msr   basepri, r4  
 3493              		
 3494              	@ 0 "" 2
 3495              	@ 1389 "..\SEGGER\SEGGER_SYSVIEW.c" 1
 3496 0026 EFF31184 		mrs   r4, basepri  
 3497 002a 4FF02001 		mov   r1, #32       
 3498 002e 81F31188 		msr   basepri, r1  
 3499              		
 3500              	@ 0 "" 2
 3501              		.thumb
 3502              		.syntax unified
 3503 0032 05F23441 		addw	r1, r5, #1076
 3504 0036 0846     		mov	r0, r1
 3505 0038 0A22     		movs	r2, #10
 3506 003a FFF7FEFF 		bl	_SendPacket
 3507              		.syntax unified
 3508              	@ 1392 "..\SEGGER\SEGGER_SYSVIEW.c" 1
 3509 003e 84F31188 		msr   basepri, r4  
 3510              		
 3511              	@ 0 "" 2
 3512              	@ 1773 "..\SEGGER\SEGGER_SYSVIEW.c" 1
 3513 0042 EFF31186 		mrs   r6, basepri  
 3514 0046 4FF02001 		mov   r1, #32       
 3515 004a 81F31188 		msr   basepri, r1  
 3516              		
 3517              	@ 0 "" 2
 3518              		.thumb
 3519              		.syntax unified
 3520 004e D5F80414 		ldr	r1, [r5, #1028]
 3521 0052 05F23444 		addw	r4, r5, #1076
 3522 0056 7F29     		cmp	r1, #127
 3523 0058 2346     		mov	r3, r4
 3524 005a 06D9     		bls	.L781
 3525              	.L782:
 3526 005c 61F07F02 		orn	r2, r1, #127
 3527 0060 C909     		lsrs	r1, r1, #7
 3528 0062 7F29     		cmp	r1, #127
 3529 0064 03F8012B 		strb	r2, [r3], #1
 3530 0068 F8D8     		bhi	.L782
 3531              	.L781:
 3532 006a D5F80824 		ldr	r2, [r5, #1032]
 3533 006e 1970     		strb	r1, [r3]
 3534 0070 7F2A     		cmp	r2, #127
ARM GAS  C:\Users\ali\AppData\Local\Temp\ccPL16ze.s 			page 63


 3535 0072 03F10103 		add	r3, r3, #1
 3536 0076 06D9     		bls	.L783
 3537              	.L784:
 3538 0078 62F07F01 		orn	r1, r2, #127
 3539 007c D209     		lsrs	r2, r2, #7
 3540 007e 7F2A     		cmp	r2, #127
 3541 0080 03F8011B 		strb	r1, [r3], #1
 3542 0084 F8D8     		bhi	.L784
 3543              	.L783:
 3544 0086 D5F81004 		ldr	r0, [r5, #1040]
 3545 008a 1A70     		strb	r2, [r3]
 3546 008c 7F28     		cmp	r0, #127
 3547 008e 03F10103 		add	r3, r3, #1
 3548 0092 06D9     		bls	.L785
 3549              	.L786:
 3550 0094 60F07F02 		orn	r2, r0, #127
 3551 0098 C009     		lsrs	r0, r0, #7
 3552 009a 7F28     		cmp	r0, #127
 3553 009c 03F8012B 		strb	r2, [r3], #1
 3554 00a0 F8D8     		bhi	.L786
 3555              	.L785:
 3556 00a2 0027     		movs	r7, #0
 3557 00a4 1870     		strb	r0, [r3]
 3558 00a6 991C     		adds	r1, r3, #2
 3559 00a8 1822     		movs	r2, #24
 3560 00aa 1848     		ldr	r0, .L805+8
 3561 00ac 5F70     		strb	r7, [r3, #1]
 3562 00ae FFF7FEFF 		bl	_SendPacket
 3563              		.syntax unified
 3564              	@ 1781 "..\SEGGER\SEGGER_SYSVIEW.c" 1
 3565 00b2 86F31188 		msr   basepri, r6  
 3566              		
 3567              	@ 0 "" 2
 3568              		.thumb
 3569              		.syntax unified
 3570 00b6 D5F82434 		ldr	r3, [r5, #1060]
 3571 00ba 03B1     		cbz	r3, .L787
 3572 00bc 9847     		blx	r3
 3573              	.L787:
 3574 00be FFF7FEFF 		bl	SEGGER_SYSVIEW_RecordSystime
 3575 00c2 D5F82034 		ldr	r3, [r5, #1056]
 3576 00c6 13B1     		cbz	r3, .L788
 3577 00c8 5B68     		ldr	r3, [r3, #4]
 3578 00ca 03B1     		cbz	r3, .L788
 3579 00cc 9847     		blx	r3
 3580              	.L788:
 3581              		.syntax unified
 3582              	@ 2694 "..\SEGGER\SEGGER_SYSVIEW.c" 1
 3583 00ce EFF31186 		mrs   r6, basepri  
 3584 00d2 4FF02001 		mov   r1, #32       
 3585 00d6 81F31188 		msr   basepri, r1  
 3586              		
 3587              	@ 0 "" 2
 3588              		.thumb
 3589              		.syntax unified
 3590 00da 95F81835 		ldrb	r3, [r5, #1304]	@ zero_extendqisi2
 3591 00de 0949     		ldr	r1, .L805
ARM GAS  C:\Users\ali\AppData\Local\Temp\ccPL16ze.s 			page 64


 3592 00e0 7F2B     		cmp	r3, #127
 3593 00e2 91BF     		iteee	ls
 3594 00e4 2146     		movls	r1, r4
 3595 00e6 81F83434 		strbhi	r3, [r1, #1076]
 3596 00ea 01F23541 		addwhi	r1, r1, #1077
 3597 00ee 0123     		movhi	r3, #1
 3598 00f0 01F8013B 		strb	r3, [r1], #1
 3599 00f4 1B22     		movs	r2, #27
 3600 00f6 0548     		ldr	r0, .L805+8
 3601 00f8 FFF7FEFF 		bl	_SendPacket
 3602              		.syntax unified
 3603              	@ 2698 "..\SEGGER\SEGGER_SYSVIEW.c" 1
 3604 00fc 86F31188 		msr   basepri, r6  
 3605              		
 3606              	@ 0 "" 2
 3607              		.thumb
 3608              		.syntax unified
 3609 0100 F8BD     		pop	{r3, r4, r5, r6, r7, pc}
 3610              	.L806:
 3611 0102 00BF     		.align	2
 3612              	.L805:
 3613 0104 00000000 		.word	.LANCHOR0
 3614 0108 00000000 		.word	.LANCHOR1
 3615 010c 34040000 		.word	.LANCHOR0+1076
 3616              		.size	SEGGER_SYSVIEW_Start, .-SEGGER_SYSVIEW_Start
 3617              		.section	.text._PrintUnsigned,"ax",%progbits
 3618              		.align	2
 3619              		.thumb
 3620              		.thumb_func
 3621              		.type	_PrintUnsigned, %function
 3622              	_PrintUnsigned:
 3623              		@ args = 8, pretend = 0, frame = 8
 3624              		@ frame_needed = 0, uses_anonymous_args = 0
 3625 0000 2DE9F04F 		push	{r4, r5, r6, r7, r8, r9, r10, fp, lr}
 3626 0004 1546     		mov	r5, r2
 3627 0006 83B0     		sub	sp, sp, #12
 3628 0008 A942     		cmp	r1, r5
 3629 000a 0F46     		mov	r7, r1
 3630 000c 0646     		mov	r6, r0
 3631 000e 9A46     		mov	r10, r3
 3632 0010 DDF83090 		ldr	r9, [sp, #48]
 3633 0014 0D9A     		ldr	r2, [sp, #52]
 3634 0016 C0F0D980 		bcc	.L839
 3635 001a 0B46     		mov	r3, r1
 3636 001c 4FF00108 		mov	r8, #1
 3637              	.L809:
 3638 0020 B3FBF5F3 		udiv	r3, r3, r5
 3639 0024 9D42     		cmp	r5, r3
 3640 0026 08F10108 		add	r8, r8, #1
 3641 002a F9D9     		bls	.L809
 3642              	.L808:
 3643 002c D045     		cmp	r8, r10
 3644 002e 38BF     		it	cc
 3645 0030 D046     		movcc	r8, r10
 3646 0032 12F00103 		ands	r3, r2, #1
 3647 0036 0193     		str	r3, [sp, #4]
 3648 0038 03D1     		bne	.L815
ARM GAS  C:\Users\ali\AppData\Local\Temp\ccPL16ze.s 			page 65


 3649 003a B9F1000F 		cmp	r9, #0
 3650 003e 40F08480 		bne	.L854
 3651              	.L815:
 3652 0042 3169     		ldr	r1, [r6, #16]
 3653              	.L813:
 3654 0044 0124     		movs	r4, #1
 3655 0046 03E0     		b	.L811
 3656              	.L855:
 3657 0048 0AF1FF3A 		add	r10, r10, #-1
 3658              	.L822:
 3659 004c 05FB04F4 		mul	r4, r5, r4
 3660              	.L811:
 3661 0050 BAF1010F 		cmp	r10, #1
 3662 0054 F8D8     		bhi	.L855
 3663 0056 B7FBF4F2 		udiv	r2, r7, r4
 3664 005a 9542     		cmp	r5, r2
 3665 005c F6D9     		bls	.L822
 3666 005e DFF874A1 		ldr	r10, .L860
 3667 0062 4FF0000B 		mov	fp, #0
 3668 0066 04E0     		b	.L828
 3669              	.L825:
 3670 0068 B4FBF5F4 		udiv	r4, r4, r5
 3671 006c 9CB3     		cbz	r4, .L852
 3672              	.L856:
 3673 006e B7FBF4F2 		udiv	r2, r7, r4
 3674              	.L828:
 3675 0072 481C     		adds	r0, r1, #1
 3676 0074 8028     		cmp	r0, #128
 3677 0076 02FB1477 		mls	r7, r2, r4, r7
 3678 007a 09D8     		bhi	.L824
 3679 007c 0146     		mov	r1, r0
 3680 007e 7368     		ldr	r3, [r6, #4]
 3681 0080 5244     		add	r2, r2, r10
 3682 0082 127B     		ldrb	r2, [r2, #12]	@ zero_extendqisi2
 3683 0084 03F1010C 		add	ip, r3, #1
 3684 0088 C6F804C0 		str	ip, [r6, #4]
 3685 008c 1A70     		strb	r2, [r3]
 3686 008e 3061     		str	r0, [r6, #16]
 3687              	.L824:
 3688 0090 8029     		cmp	r1, #128
 3689 0092 E9D1     		bne	.L825
 3690 0094 B268     		ldr	r2, [r6, #8]
 3691 0096 1170     		strb	r1, [r2]
 3692 0098 F268     		ldr	r2, [r6, #12]
 3693 009a 7168     		ldr	r1, [r6, #4]
 3694 009c 7F2A     		cmp	r2, #127
 3695 009e 06D9     		bls	.L826
 3696              	.L827:
 3697 00a0 62F07F00 		orn	r0, r2, #127
 3698 00a4 D209     		lsrs	r2, r2, #7
 3699 00a6 7F2A     		cmp	r2, #127
 3700 00a8 01F8010B 		strb	r0, [r1], #1
 3701 00ac F8D8     		bhi	.L827
 3702              	.L826:
 3703 00ae 0A70     		strb	r2, [r1]
 3704 00b0 81F801B0 		strb	fp, [r1, #1]
 3705 00b4 1A22     		movs	r2, #26
ARM GAS  C:\Users\ali\AppData\Local\Temp\ccPL16ze.s 			page 66


 3706 00b6 0231     		adds	r1, r1, #2
 3707 00b8 B068     		ldr	r0, [r6, #8]
 3708 00ba FFF7FEFF 		bl	_SendPacket
 3709 00be B4FBF5F4 		udiv	r4, r4, r5
 3710 00c2 3268     		ldr	r2, [r6]
 3711 00c4 C6F810B0 		str	fp, [r6, #16]
 3712 00c8 111D     		adds	r1, r2, #4
 3713 00ca 0532     		adds	r2, r2, #5
 3714 00cc B160     		str	r1, [r6, #8]
 3715 00ce 7260     		str	r2, [r6, #4]
 3716 00d0 0021     		movs	r1, #0
 3717 00d2 002C     		cmp	r4, #0
 3718 00d4 CBD1     		bne	.L856
 3719              	.L852:
 3720 00d6 019B     		ldr	r3, [sp, #4]
 3721 00d8 C3B1     		cbz	r3, .L807
 3722 00da B9F1000F 		cmp	r9, #0
 3723 00de 15D0     		beq	.L807
 3724 00e0 C845     		cmp	r8, r9
 3725 00e2 38BF     		it	cc
 3726 00e4 2025     		movcc	r5, #32
 3727 00e6 11D2     		bcs	.L807
 3728              	.L838:
 3729 00e8 4B1C     		adds	r3, r1, #1
 3730 00ea 802B     		cmp	r3, #128
 3731 00ec 09F1FF39 		add	r9, r9, #-1
 3732 00f0 05D8     		bhi	.L832
 3733 00f2 1946     		mov	r1, r3
 3734 00f4 7268     		ldr	r2, [r6, #4]
 3735 00f6 501C     		adds	r0, r2, #1
 3736 00f8 7060     		str	r0, [r6, #4]
 3737 00fa 1570     		strb	r5, [r2]
 3738 00fc 3361     		str	r3, [r6, #16]
 3739              	.L832:
 3740 00fe 8029     		cmp	r1, #128
 3741 0100 07D0     		beq	.L857
 3742              	.L833:
 3743 0102 B9F1000F 		cmp	r9, #0
 3744 0106 01D0     		beq	.L807
 3745 0108 C845     		cmp	r8, r9
 3746 010a EDD3     		bcc	.L838
 3747              	.L807:
 3748 010c 03B0     		add	sp, sp, #12
 3749              		@ sp needed
 3750 010e BDE8F08F 		pop	{r4, r5, r6, r7, r8, r9, r10, fp, pc}
 3751              	.L857:
 3752 0112 B368     		ldr	r3, [r6, #8]
 3753 0114 1970     		strb	r1, [r3]
 3754 0116 F368     		ldr	r3, [r6, #12]
 3755 0118 7168     		ldr	r1, [r6, #4]
 3756 011a 7F2B     		cmp	r3, #127
 3757 011c 06D9     		bls	.L834
 3758              	.L835:
 3759 011e 63F07F02 		orn	r2, r3, #127
 3760 0122 DB09     		lsrs	r3, r3, #7
 3761 0124 7F2B     		cmp	r3, #127
 3762 0126 01F8012B 		strb	r2, [r1], #1
ARM GAS  C:\Users\ali\AppData\Local\Temp\ccPL16ze.s 			page 67


 3763 012a F8D8     		bhi	.L835
 3764              	.L834:
 3765 012c 0B70     		strb	r3, [r1]
 3766 012e 4C70     		strb	r4, [r1, #1]
 3767 0130 1A22     		movs	r2, #26
 3768 0132 0231     		adds	r1, r1, #2
 3769 0134 B068     		ldr	r0, [r6, #8]
 3770 0136 FFF7FEFF 		bl	_SendPacket
 3771 013a 3368     		ldr	r3, [r6]
 3772 013c 3461     		str	r4, [r6, #16]
 3773 013e 1A1D     		adds	r2, r3, #4
 3774 0140 0533     		adds	r3, r3, #5
 3775 0142 B260     		str	r2, [r6, #8]
 3776 0144 7360     		str	r3, [r6, #4]
 3777 0146 0021     		movs	r1, #0
 3778 0148 DBE7     		b	.L833
 3779              	.L854:
 3780 014a 9307     		lsls	r3, r2, #30
 3781 014c 38D4     		bmi	.L858
 3782 014e 2024     		movs	r4, #32
 3783              	.L814:
 3784 0150 C845     		cmp	r8, r9
 3785 0152 BFF476AF 		bcs	.L815
 3786 0156 3169     		ldr	r1, [r6, #16]
 3787 0158 4FF0000B 		mov	fp, #0
 3788              	.L820:
 3789 015c 4A1C     		adds	r2, r1, #1
 3790 015e 802A     		cmp	r2, #128
 3791 0160 09F1FF39 		add	r9, r9, #-1
 3792 0164 05D8     		bhi	.L816
 3793 0166 1146     		mov	r1, r2
 3794 0168 7068     		ldr	r0, [r6, #4]
 3795 016a 431C     		adds	r3, r0, #1
 3796 016c 7360     		str	r3, [r6, #4]
 3797 016e 0470     		strb	r4, [r0]
 3798 0170 3261     		str	r2, [r6, #16]
 3799              	.L816:
 3800 0172 8029     		cmp	r1, #128
 3801 0174 06D0     		beq	.L859
 3802              	.L817:
 3803 0176 B9F1000F 		cmp	r9, #0
 3804 017a 3FF463AF 		beq	.L813
 3805 017e C845     		cmp	r8, r9
 3806 0180 ECD3     		bcc	.L820
 3807 0182 5FE7     		b	.L813
 3808              	.L859:
 3809 0184 B268     		ldr	r2, [r6, #8]
 3810 0186 1170     		strb	r1, [r2]
 3811 0188 F268     		ldr	r2, [r6, #12]
 3812 018a 7168     		ldr	r1, [r6, #4]
 3813 018c 7F2A     		cmp	r2, #127
 3814 018e 06D9     		bls	.L818
 3815              	.L819:
 3816 0190 62F07F00 		orn	r0, r2, #127
 3817 0194 D209     		lsrs	r2, r2, #7
 3818 0196 7F2A     		cmp	r2, #127
 3819 0198 01F8010B 		strb	r0, [r1], #1
ARM GAS  C:\Users\ali\AppData\Local\Temp\ccPL16ze.s 			page 68


 3820 019c F8D8     		bhi	.L819
 3821              	.L818:
 3822 019e 0A70     		strb	r2, [r1]
 3823 01a0 81F801B0 		strb	fp, [r1, #1]
 3824 01a4 1A22     		movs	r2, #26
 3825 01a6 0231     		adds	r1, r1, #2
 3826 01a8 B068     		ldr	r0, [r6, #8]
 3827 01aa FFF7FEFF 		bl	_SendPacket
 3828 01ae 3268     		ldr	r2, [r6]
 3829 01b0 C6F810B0 		str	fp, [r6, #16]
 3830 01b4 111D     		adds	r1, r2, #4
 3831 01b6 0532     		adds	r2, r2, #5
 3832 01b8 B160     		str	r1, [r6, #8]
 3833 01ba 7260     		str	r2, [r6, #4]
 3834 01bc 0021     		movs	r1, #0
 3835 01be DAE7     		b	.L817
 3836              	.L858:
 3837 01c0 BAF1000F 		cmp	r10, #0
 3838 01c4 0CBF     		ite	eq
 3839 01c6 3024     		moveq	r4, #48
 3840 01c8 2024     		movne	r4, #32
 3841 01ca C1E7     		b	.L814
 3842              	.L839:
 3843 01cc 4FF00108 		mov	r8, #1
 3844 01d0 2CE7     		b	.L808
 3845              	.L861:
 3846 01d2 00BF     		.align	2
 3847              	.L860:
 3848 01d4 00000000 		.word	.LANCHOR1
 3849              		.size	_PrintUnsigned, .-_PrintUnsigned
 3850              		.section	.text._VPrintTarget,"ax",%progbits
 3851              		.align	2
 3852              		.thumb
 3853              		.thumb_func
 3854              		.type	_VPrintTarget, %function
 3855              	_VPrintTarget:
 3856              		@ args = 0, pretend = 0, frame = 32
 3857              		@ frame_needed = 0, uses_anonymous_args = 0
 3858 0000 2DE9F04F 		push	{r4, r5, r6, r7, r8, r9, r10, fp, lr}
 3859 0004 0446     		mov	r4, r0
 3860 0006 8BB0     		sub	sp, sp, #44
 3861 0008 0D46     		mov	r5, r1
 3862 000a 9246     		mov	r10, r2
 3863              		.syntax unified
 3864              	@ 1158 "..\SEGGER\SEGGER_SYSVIEW.c" 1
 3865 000c EFF31183 		mrs   r3, basepri  
 3866 0010 4FF02001 		mov   r1, #32       
 3867 0014 81F31188 		msr   basepri, r1  
 3868              		
 3869              	@ 0 "" 2
 3870              		.thumb
 3871              		.syntax unified
 3872 0018 0022     		movs	r2, #0
 3873 001a 9046     		mov	r8, r2
 3874 001c 0293     		str	r3, [sp, #8]
 3875 001e B84B     		ldr	r3, .L999
 3876 0020 DFF8E092 		ldr	r9, .L999+4
ARM GAS  C:\Users\ali\AppData\Local\Temp\ccPL16ze.s 			page 69


 3877 0024 181D     		adds	r0, r3, #4
 3878 0026 591D     		adds	r1, r3, #5
 3879 0028 0593     		str	r3, [sp, #20]
 3880 002a 2378     		ldrb	r3, [r4]	@ zero_extendqisi2
 3881 002c 0895     		str	r5, [sp, #32]
 3882 002e 0790     		str	r0, [sp, #28]
 3883 0030 0691     		str	r1, [sp, #24]
 3884 0032 0992     		str	r2, [sp, #36]
 3885              	.L934:
 3886 0034 0134     		adds	r4, r4, #1
 3887 0036 002B     		cmp	r3, #0
 3888 0038 4BD0     		beq	.L935
 3889 003a 252B     		cmp	r3, #37
 3890 003c 69D1     		bne	.L866
 3891 003e 2346     		mov	r3, r4
 3892 0040 0027     		movs	r7, #0
 3893              	.L938:
 3894 0042 1C46     		mov	r4, r3
 3895 0044 13F8012B 		ldrb	r2, [r3], #1	@ zero_extendqisi2
 3896 0048 A2F12301 		sub	r1, r2, #35
 3897 004c 0D29     		cmp	r1, #13
 3898 004e 14D8     		bhi	.L867
 3899 0050 DFE801F0 		tbb	[pc, r1]
 3900              	.L869:
 3901 0054 10       		.byte	(.L868-.L869)/2
 3902 0055 13       		.byte	(.L867-.L869)/2
 3903 0056 13       		.byte	(.L867-.L869)/2
 3904 0057 13       		.byte	(.L867-.L869)/2
 3905 0058 13       		.byte	(.L867-.L869)/2
 3906 0059 13       		.byte	(.L867-.L869)/2
 3907 005a 13       		.byte	(.L867-.L869)/2
 3908 005b 13       		.byte	(.L867-.L869)/2
 3909 005c 0D       		.byte	(.L870-.L869)/2
 3910 005d 13       		.byte	(.L867-.L869)/2
 3911 005e 0A       		.byte	(.L871-.L869)/2
 3912 005f 13       		.byte	(.L867-.L869)/2
 3913 0060 13       		.byte	(.L867-.L869)/2
 3914 0061 07       		.byte	(.L872-.L869)/2
 3915              		.p2align 1
 3916              	.L872:
 3917 0062 47F00207 		orr	r7, r7, #2
 3918 0066 ECE7     		b	.L938
 3919              	.L871:
 3920 0068 47F00107 		orr	r7, r7, #1
 3921 006c E9E7     		b	.L938
 3922              	.L870:
 3923 006e 47F00407 		orr	r7, r7, #4
 3924 0072 E6E7     		b	.L938
 3925              	.L868:
 3926 0074 47F00807 		orr	r7, r7, #8
 3927 0078 E3E7     		b	.L938
 3928              	.L867:
 3929 007a A2F13003 		sub	r3, r2, #48
 3930 007e 092B     		cmp	r3, #9
 3931 0080 4FF00005 		mov	r5, #0
 3932 0084 0AD8     		bhi	.L873
 3933              	.L876:
ARM GAS  C:\Users\ali\AppData\Local\Temp\ccPL16ze.s 			page 70


 3934 0086 05EB8505 		add	r5, r5, r5, lsl #2
 3935 008a 02EB4505 		add	r5, r2, r5, lsl #1
 3936 008e 14F8012F 		ldrb	r2, [r4, #1]!	@ zero_extendqisi2
 3937 0092 303D     		subs	r5, r5, #48
 3938 0094 A2F13003 		sub	r3, r2, #48
 3939 0098 092B     		cmp	r3, #9
 3940 009a F4D9     		bls	.L876
 3941              	.L873:
 3942 009c 2E2A     		cmp	r2, #46
 3943 009e 78D0     		beq	.L985
 3944 00a0 0026     		movs	r6, #0
 3945 00a2 01E0     		b	.L880
 3946              	.L986:
 3947 00a4 14F8012B 		ldrb	r2, [r4], #1	@ zero_extendqisi2
 3948              	.L880:
 3949 00a8 02F0FB03 		and	r3, r2, #251
 3950 00ac 682B     		cmp	r3, #104
 3951 00ae F9D0     		beq	.L986
 3952 00b0 642A     		cmp	r2, #100
 3953 00b2 00F08280 		beq	.L882
 3954 00b6 56D8     		bhi	.L883
 3955 00b8 582A     		cmp	r2, #88
 3956 00ba 00F0E480 		beq	.L884
 3957 00be 632A     		cmp	r2, #99
 3958 00c0 00F0B780 		beq	.L885
 3959 00c4 252A     		cmp	r2, #37
 3960 00c6 00F0EC80 		beq	.L987
 3961              	.L881:
 3962 00ca 0134     		adds	r4, r4, #1
 3963              	.L930:
 3964 00cc 2378     		ldrb	r3, [r4]	@ zero_extendqisi2
 3965 00ce 002B     		cmp	r3, #0
 3966 00d0 B0D1     		bne	.L934
 3967              	.L935:
 3968 00d2 099B     		ldr	r3, [sp, #36]
 3969 00d4 BBB1     		cbz	r3, .L865
 3970 00d6 079A     		ldr	r2, [sp, #28]
 3971 00d8 1370     		strb	r3, [r2]
 3972 00da 089B     		ldr	r3, [sp, #32]
 3973 00dc 069A     		ldr	r2, [sp, #24]
 3974 00de 7F2B     		cmp	r3, #127
 3975 00e0 06D9     		bls	.L936
 3976              	.L937:
 3977 00e2 63F07F01 		orn	r1, r3, #127
 3978 00e6 DB09     		lsrs	r3, r3, #7
 3979 00e8 7F2B     		cmp	r3, #127
 3980 00ea 02F8011B 		strb	r1, [r2], #1
 3981 00ee F8D8     		bhi	.L937
 3982              	.L936:
 3983 00f0 1446     		mov	r4, r2
 3984 00f2 0021     		movs	r1, #0
 3985 00f4 04F8023B 		strb	r3, [r4], #2
 3986 00f8 5170     		strb	r1, [r2, #1]
 3987 00fa 0798     		ldr	r0, [sp, #28]
 3988 00fc 2146     		mov	r1, r4
 3989 00fe 1A22     		movs	r2, #26
 3990 0100 0694     		str	r4, [sp, #24]
ARM GAS  C:\Users\ali\AppData\Local\Temp\ccPL16ze.s 			page 71


 3991 0102 FFF7FEFF 		bl	_SendPacket
 3992              	.L865:
 3993 0106 029B     		ldr	r3, [sp, #8]
 3994              		.syntax unified
 3995              	@ 1287 "..\SEGGER\SEGGER_SYSVIEW.c" 1
 3996 0108 83F31188 		msr   basepri, r3  
 3997              		
 3998              	@ 0 "" 2
 3999              		.thumb
 4000              		.syntax unified
 4001 010c 0BB0     		add	sp, sp, #44
 4002              		@ sp needed
 4003 010e BDE8F08F 		pop	{r4, r5, r6, r7, r8, r9, r10, fp, pc}
 4004              	.L866:
 4005 0112 0999     		ldr	r1, [sp, #36]
 4006 0114 4A1C     		adds	r2, r1, #1
 4007 0116 802A     		cmp	r2, #128
 4008 0118 23D8     		bhi	.L947
 4009 011a 0699     		ldr	r1, [sp, #24]
 4010 011c 481C     		adds	r0, r1, #1
 4011 011e 0690     		str	r0, [sp, #24]
 4012 0120 0B70     		strb	r3, [r1]
 4013 0122 0992     		str	r2, [sp, #36]
 4014              	.L931:
 4015 0124 802A     		cmp	r2, #128
 4016 0126 D1D1     		bne	.L930
 4017 0128 079B     		ldr	r3, [sp, #28]
 4018 012a 1A70     		strb	r2, [r3]
 4019 012c 089B     		ldr	r3, [sp, #32]
 4020 012e 0699     		ldr	r1, [sp, #24]
 4021 0130 7F2B     		cmp	r3, #127
 4022 0132 06D9     		bls	.L932
 4023              	.L933:
 4024 0134 63F07F02 		orn	r2, r3, #127
 4025 0138 DB09     		lsrs	r3, r3, #7
 4026 013a 7F2B     		cmp	r3, #127
 4027 013c 01F8012B 		strb	r2, [r1], #1
 4028 0140 F8D8     		bhi	.L933
 4029              	.L932:
 4030 0142 0B70     		strb	r3, [r1]
 4031 0144 81F80180 		strb	r8, [r1, #1]
 4032 0148 1A22     		movs	r2, #26
 4033 014a 0231     		adds	r1, r1, #2
 4034 014c 0798     		ldr	r0, [sp, #28]
 4035 014e FFF7FEFF 		bl	_SendPacket
 4036 0152 059B     		ldr	r3, [sp, #20]
 4037 0154 CDF82480 		str	r8, [sp, #36]
 4038 0158 1A1D     		adds	r2, r3, #4
 4039 015a 0533     		adds	r3, r3, #5
 4040 015c 0792     		str	r2, [sp, #28]
 4041 015e 0693     		str	r3, [sp, #24]
 4042 0160 B4E7     		b	.L930
 4043              	.L947:
 4044 0162 0A46     		mov	r2, r1
 4045 0164 DEE7     		b	.L931
 4046              	.L883:
 4047 0166 752A     		cmp	r2, #117
ARM GAS  C:\Users\ali\AppData\Local\Temp\ccPL16ze.s 			page 72


 4048 0168 00F0B180 		beq	.L887
 4049 016c 782A     		cmp	r2, #120
 4050 016e 00F08A80 		beq	.L884
 4051 0172 702A     		cmp	r2, #112
 4052 0174 A9D1     		bne	.L881
 4053 0176 DAF80020 		ldr	r2, [r10]
 4054 017a 0823     		movs	r3, #8
 4055 017c 1168     		ldr	r1, [r2]
 4056 017e 0432     		adds	r2, r2, #4
 4057 0180 CAF80020 		str	r2, [r10]
 4058 0184 05A8     		add	r0, sp, #20
 4059 0186 8DE80801 		stmia	sp, {r3, r8}
 4060 018a 1022     		movs	r2, #16
 4061 018c FFF7FEFF 		bl	_PrintUnsigned
 4062 0190 9BE7     		b	.L881
 4063              	.L985:
 4064 0192 6278     		ldrb	r2, [r4, #1]	@ zero_extendqisi2
 4065 0194 0026     		movs	r6, #0
 4066 0196 A2F13003 		sub	r3, r2, #48
 4067 019a 092B     		cmp	r3, #9
 4068 019c 04F10104 		add	r4, r4, #1
 4069 01a0 82D8     		bhi	.L880
 4070              	.L878:
 4071 01a2 06EB8606 		add	r6, r6, r6, lsl #2
 4072 01a6 02EB4606 		add	r6, r2, r6, lsl #1
 4073 01aa 14F8012F 		ldrb	r2, [r4, #1]!	@ zero_extendqisi2
 4074 01ae 303E     		subs	r6, r6, #48
 4075 01b0 A2F13003 		sub	r3, r2, #48
 4076 01b4 092B     		cmp	r3, #9
 4077 01b6 F4D9     		bls	.L878
 4078 01b8 76E7     		b	.L880
 4079              	.L882:
 4080 01ba DAF80030 		ldr	r3, [r10]
 4081 01be D3F800B0 		ldr	fp, [r3]
 4082 01c2 0433     		adds	r3, r3, #4
 4083 01c4 8BEAEB72 		eor	r2, fp, fp, asr #31
 4084 01c8 A2EBEB72 		sub	r2, r2, fp, asr #31
 4085 01cc 092A     		cmp	r2, #9
 4086 01ce CAF80030 		str	r3, [r10]
 4087 01d2 4FF00103 		mov	r3, #1
 4088 01d6 08DD     		ble	.L893
 4089              	.L894:
 4090 01d8 89FB0201 		smull	r0, r1, r9, r2
 4091 01dc D217     		asrs	r2, r2, #31
 4092 01de C2EBA102 		rsb	r2, r2, r1, asr #2
 4093 01e2 092A     		cmp	r2, #9
 4094 01e4 03F10103 		add	r3, r3, #1
 4095 01e8 F6DC     		bgt	.L894
 4096              	.L893:
 4097 01ea B342     		cmp	r3, r6
 4098 01ec 38BF     		it	cc
 4099 01ee 3346     		movcc	r3, r6
 4100 01f0 2DB1     		cbz	r5, .L895
 4101 01f2 BBF1000F 		cmp	fp, #0
 4102 01f6 01DB     		blt	.L896
 4103 01f8 7A07     		lsls	r2, r7, #29
 4104 01fa 00D5     		bpl	.L895
ARM GAS  C:\Users\ali\AppData\Local\Temp\ccPL16ze.s 			page 73


 4105              	.L896:
 4106 01fc 013D     		subs	r5, r5, #1
 4107              	.L895:
 4108 01fe B807     		lsls	r0, r7, #30
 4109 0200 79D4     		bmi	.L988
 4110 0202 F907     		lsls	r1, r7, #31
 4111 0204 40F18780 		bpl	.L989
 4112              	.L898:
 4113 0208 BBF1000F 		cmp	fp, #0
 4114 020c C0F2CB80 		blt	.L990
 4115              	.L908:
 4116 0210 7A07     		lsls	r2, r7, #29
 4117 0212 00F1FE80 		bmi	.L991
 4118              	.L910:
 4119 0216 07F00302 		and	r2, r7, #3
 4120 021a 022A     		cmp	r2, #2
 4121 021c 00F09980 		beq	.L992
 4122              	.L916:
 4123 0220 8DE8A000 		stmia	sp, {r5, r7}
 4124 0224 3346     		mov	r3, r6
 4125 0226 5946     		mov	r1, fp
 4126 0228 0A22     		movs	r2, #10
 4127 022a 05A8     		add	r0, sp, #20
 4128 022c FFF7FEFF 		bl	_PrintUnsigned
 4129 0230 4BE7     		b	.L881
 4130              	.L885:
 4131 0232 099A     		ldr	r2, [sp, #36]
 4132 0234 DAF80010 		ldr	r1, [r10]
 4133 0238 531C     		adds	r3, r2, #1
 4134 023a 081D     		adds	r0, r1, #4
 4135 023c 802B     		cmp	r3, #128
 4136 023e CAF80000 		str	r0, [r10]
 4137 0242 61D9     		bls	.L993
 4138 0244 1346     		mov	r3, r2
 4139              	.L889:
 4140 0246 802B     		cmp	r3, #128
 4141 0248 7FF43FAF 		bne	.L881
 4142 024c 079A     		ldr	r2, [sp, #28]
 4143 024e 1370     		strb	r3, [r2]
 4144 0250 089B     		ldr	r3, [sp, #32]
 4145 0252 0699     		ldr	r1, [sp, #24]
 4146 0254 7F2B     		cmp	r3, #127
 4147 0256 06D9     		bls	.L928
 4148              	.L892:
 4149 0258 63F07F02 		orn	r2, r3, #127
 4150 025c DB09     		lsrs	r3, r3, #7
 4151 025e 7F2B     		cmp	r3, #127
 4152 0260 01F8012B 		strb	r2, [r1], #1
 4153 0264 F8D8     		bhi	.L892
 4154              	.L928:
 4155 0266 0B70     		strb	r3, [r1]
 4156 0268 81F80180 		strb	r8, [r1, #1]
 4157 026c 1A22     		movs	r2, #26
 4158 026e 0231     		adds	r1, r1, #2
 4159 0270 0798     		ldr	r0, [sp, #28]
 4160 0272 FFF7FEFF 		bl	_SendPacket
 4161 0276 059B     		ldr	r3, [sp, #20]
ARM GAS  C:\Users\ali\AppData\Local\Temp\ccPL16ze.s 			page 74


 4162 0278 CDF82480 		str	r8, [sp, #36]
 4163 027c 1A1D     		adds	r2, r3, #4
 4164 027e 0533     		adds	r3, r3, #5
 4165 0280 0792     		str	r2, [sp, #28]
 4166 0282 0693     		str	r3, [sp, #24]
 4167 0284 21E7     		b	.L881
 4168              	.L884:
 4169 0286 DAF80020 		ldr	r2, [r10]
 4170 028a 3346     		mov	r3, r6
 4171 028c 1168     		ldr	r1, [r2]
 4172 028e 0432     		adds	r2, r2, #4
 4173 0290 CAF80020 		str	r2, [r10]
 4174 0294 05A8     		add	r0, sp, #20
 4175 0296 8DE8A000 		stmia	sp, {r5, r7}
 4176 029a 1022     		movs	r2, #16
 4177 029c FFF7FEFF 		bl	_PrintUnsigned
 4178 02a0 13E7     		b	.L881
 4179              	.L987:
 4180 02a2 0999     		ldr	r1, [sp, #36]
 4181 02a4 4B1C     		adds	r3, r1, #1
 4182 02a6 802B     		cmp	r3, #128
 4183 02a8 1FD9     		bls	.L994
 4184 02aa 0B46     		mov	r3, r1
 4185              	.L926:
 4186 02ac 802B     		cmp	r3, #128
 4187 02ae 7FF40CAF 		bne	.L881
 4188 02b2 079A     		ldr	r2, [sp, #28]
 4189 02b4 1370     		strb	r3, [r2]
 4190 02b6 089B     		ldr	r3, [sp, #32]
 4191 02b8 0699     		ldr	r1, [sp, #24]
 4192 02ba 7F2B     		cmp	r3, #127
 4193 02bc D3D9     		bls	.L928
 4194              	.L929:
 4195 02be 63F07F02 		orn	r2, r3, #127
 4196 02c2 DB09     		lsrs	r3, r3, #7
 4197 02c4 7F2B     		cmp	r3, #127
 4198 02c6 01F8012B 		strb	r2, [r1], #1
 4199 02ca F8D8     		bhi	.L929
 4200 02cc CBE7     		b	.L928
 4201              	.L887:
 4202 02ce DAF80020 		ldr	r2, [r10]
 4203 02d2 3346     		mov	r3, r6
 4204 02d4 1168     		ldr	r1, [r2]
 4205 02d6 0432     		adds	r2, r2, #4
 4206 02d8 CAF80020 		str	r2, [r10]
 4207 02dc 05A8     		add	r0, sp, #20
 4208 02de 8DE8A000 		stmia	sp, {r5, r7}
 4209 02e2 0A22     		movs	r2, #10
 4210 02e4 FFF7FEFF 		bl	_PrintUnsigned
 4211 02e8 EFE6     		b	.L881
 4212              	.L994:
 4213 02ea 0699     		ldr	r1, [sp, #24]
 4214 02ec 481C     		adds	r0, r1, #1
 4215 02ee 0690     		str	r0, [sp, #24]
 4216 02f0 0A70     		strb	r2, [r1]
 4217 02f2 0993     		str	r3, [sp, #36]
 4218 02f4 DAE7     		b	.L926
ARM GAS  C:\Users\ali\AppData\Local\Temp\ccPL16ze.s 			page 75


 4219              	.L988:
 4220 02f6 002E     		cmp	r6, #0
 4221 02f8 86D0     		beq	.L898
 4222 02fa F907     		lsls	r1, r7, #31
 4223 02fc 84D4     		bmi	.L898
 4224 02fe 0AE0     		b	.L989
 4225              	.L1000:
 4226              		.align	2
 4227              	.L999:
 4228 0300 30040000 		.word	.LANCHOR0+1072
 4229 0304 67666666 		.word	1717986919
 4230              	.L993:
 4231 0308 069A     		ldr	r2, [sp, #24]
 4232 030a 0968     		ldr	r1, [r1]
 4233 030c 501C     		adds	r0, r2, #1
 4234 030e 0690     		str	r0, [sp, #24]
 4235 0310 1170     		strb	r1, [r2]
 4236 0312 0993     		str	r3, [sp, #36]
 4237 0314 97E7     		b	.L889
 4238              	.L989:
 4239 0316 002D     		cmp	r5, #0
 4240 0318 3FD0     		beq	.L905
 4241 031a AB42     		cmp	r3, r5
 4242 031c BFF474AF 		bcs	.L898
 4243 0320 0394     		str	r4, [sp, #12]
 4244 0322 1C46     		mov	r4, r3
 4245 0324 099A     		ldr	r2, [sp, #36]
 4246              	.L907:
 4247 0326 511C     		adds	r1, r2, #1
 4248 0328 8029     		cmp	r1, #128
 4249 032a 05F1FF35 		add	r5, r5, #-1
 4250 032e 07D8     		bhi	.L900
 4251 0330 0698     		ldr	r0, [sp, #24]
 4252 0332 0A46     		mov	r2, r1
 4253 0334 431C     		adds	r3, r0, #1
 4254 0336 0693     		str	r3, [sp, #24]
 4255 0338 4FF02003 		mov	r3, #32
 4256 033c 0370     		strb	r3, [r0]
 4257 033e 0991     		str	r1, [sp, #36]
 4258              	.L900:
 4259 0340 802A     		cmp	r2, #128
 4260 0342 00F0A180 		beq	.L995
 4261              	.L901:
 4262 0346 35B3     		cbz	r5, .L996
 4263 0348 AC42     		cmp	r4, r5
 4264 034a ECD3     		bcc	.L907
 4265 034c 2346     		mov	r3, r4
 4266 034e 039C     		ldr	r4, [sp, #12]
 4267 0350 5AE7     		b	.L898
 4268              	.L992:
 4269 0352 002E     		cmp	r6, #0
 4270 0354 7FF464AF 		bne	.L916
 4271 0358 002D     		cmp	r5, #0
 4272 035a 00F0B480 		beq	.L923
 4273 035e AB42     		cmp	r3, r5
 4274 0360 BFF45EAF 		bcs	.L916
 4275 0364 0394     		str	r4, [sp, #12]
ARM GAS  C:\Users\ali\AppData\Local\Temp\ccPL16ze.s 			page 76


 4276 0366 1C46     		mov	r4, r3
 4277 0368 099A     		ldr	r2, [sp, #36]
 4278              	.L925:
 4279 036a 511C     		adds	r1, r2, #1
 4280 036c 8029     		cmp	r1, #128
 4281 036e 05F1FF35 		add	r5, r5, #-1
 4282 0372 07D8     		bhi	.L918
 4283 0374 0698     		ldr	r0, [sp, #24]
 4284 0376 0A46     		mov	r2, r1
 4285 0378 431C     		adds	r3, r0, #1
 4286 037a 0693     		str	r3, [sp, #24]
 4287 037c 4FF03003 		mov	r3, #48
 4288 0380 0370     		strb	r3, [r0]
 4289 0382 0991     		str	r1, [sp, #36]
 4290              	.L918:
 4291 0384 802A     		cmp	r2, #128
 4292 0386 61D0     		beq	.L997
 4293              	.L919:
 4294 0388 002D     		cmp	r5, #0
 4295 038a 00F09B80 		beq	.L998
 4296 038e AC42     		cmp	r4, r5
 4297 0390 EBD3     		bcc	.L925
 4298 0392 039C     		ldr	r4, [sp, #12]
 4299 0394 44E7     		b	.L916
 4300              	.L996:
 4301 0396 2346     		mov	r3, r4
 4302 0398 039C     		ldr	r4, [sp, #12]
 4303              	.L905:
 4304 039a BBF1000F 		cmp	fp, #0
 4305 039e 4FF00005 		mov	r5, #0
 4306 03a2 BFF635AF 		bge	.L908
 4307              	.L990:
 4308 03a6 0999     		ldr	r1, [sp, #36]
 4309 03a8 CBF1000B 		rsb	fp, fp, #0
 4310 03ac 4A1C     		adds	r2, r1, #1
 4311 03ae 802A     		cmp	r2, #128
 4312 03b0 00F28D80 		bhi	.L944
 4313 03b4 0699     		ldr	r1, [sp, #24]
 4314 03b6 2D20     		movs	r0, #45
 4315 03b8 01F1010E 		add	lr, r1, #1
 4316 03bc CDF818E0 		str	lr, [sp, #24]
 4317 03c0 0870     		strb	r0, [r1]
 4318 03c2 0992     		str	r2, [sp, #36]
 4319              	.L909:
 4320 03c4 802A     		cmp	r2, #128
 4321 03c6 7FF426AF 		bne	.L910
 4322 03ca 0799     		ldr	r1, [sp, #28]
 4323 03cc 0A70     		strb	r2, [r1]
 4324 03ce 089A     		ldr	r2, [sp, #32]
 4325 03d0 0699     		ldr	r1, [sp, #24]
 4326 03d2 7F2A     		cmp	r2, #127
 4327 03d4 06D9     		bls	.L914
 4328              	.L912:
 4329 03d6 62F07F00 		orn	r0, r2, #127
 4330 03da D209     		lsrs	r2, r2, #7
 4331 03dc 7F2A     		cmp	r2, #127
 4332 03de 01F8010B 		strb	r0, [r1], #1
ARM GAS  C:\Users\ali\AppData\Local\Temp\ccPL16ze.s 			page 77


 4333 03e2 F8D8     		bhi	.L912
 4334              	.L914:
 4335 03e4 0393     		str	r3, [sp, #12]
 4336 03e6 0A70     		strb	r2, [r1]
 4337 03e8 81F80180 		strb	r8, [r1, #1]
 4338 03ec 1A22     		movs	r2, #26
 4339 03ee 0231     		adds	r1, r1, #2
 4340 03f0 0798     		ldr	r0, [sp, #28]
 4341 03f2 FFF7FEFF 		bl	_SendPacket
 4342 03f6 059A     		ldr	r2, [sp, #20]
 4343 03f8 CDF82480 		str	r8, [sp, #36]
 4344 03fc 111D     		adds	r1, r2, #4
 4345 03fe 0532     		adds	r2, r2, #5
 4346 0400 0692     		str	r2, [sp, #24]
 4347 0402 07F00302 		and	r2, r7, #3
 4348 0406 022A     		cmp	r2, #2
 4349 0408 0791     		str	r1, [sp, #28]
 4350 040a 039B     		ldr	r3, [sp, #12]
 4351 040c 7FF408AF 		bne	.L916
 4352 0410 9FE7     		b	.L992
 4353              	.L991:
 4354 0412 0999     		ldr	r1, [sp, #36]
 4355 0414 4A1C     		adds	r2, r1, #1
 4356 0416 802A     		cmp	r2, #128
 4357 0418 57D8     		bhi	.L945
 4358 041a 0699     		ldr	r1, [sp, #24]
 4359 041c 2B20     		movs	r0, #43
 4360 041e 01F1010E 		add	lr, r1, #1
 4361 0422 CDF818E0 		str	lr, [sp, #24]
 4362 0426 0870     		strb	r0, [r1]
 4363 0428 0992     		str	r2, [sp, #36]
 4364              	.L913:
 4365 042a 802A     		cmp	r2, #128
 4366 042c 7FF4F3AE 		bne	.L910
 4367 0430 0799     		ldr	r1, [sp, #28]
 4368 0432 0A70     		strb	r2, [r1]
 4369 0434 089A     		ldr	r2, [sp, #32]
 4370 0436 0699     		ldr	r1, [sp, #24]
 4371 0438 7F2A     		cmp	r2, #127
 4372 043a D3D9     		bls	.L914
 4373              	.L915:
 4374 043c 62F07F00 		orn	r0, r2, #127
 4375 0440 D209     		lsrs	r2, r2, #7
 4376 0442 7F2A     		cmp	r2, #127
 4377 0444 01F8010B 		strb	r0, [r1], #1
 4378 0448 F8D8     		bhi	.L915
 4379 044a CBE7     		b	.L914
 4380              	.L997:
 4381 044c 0799     		ldr	r1, [sp, #28]
 4382 044e 0A70     		strb	r2, [r1]
 4383 0450 089A     		ldr	r2, [sp, #32]
 4384 0452 0699     		ldr	r1, [sp, #24]
 4385 0454 7F2A     		cmp	r2, #127
 4386 0456 06D9     		bls	.L920
 4387              	.L921:
 4388 0458 62F07F03 		orn	r3, r2, #127
 4389 045c D209     		lsrs	r2, r2, #7
ARM GAS  C:\Users\ali\AppData\Local\Temp\ccPL16ze.s 			page 78


 4390 045e 7F2A     		cmp	r2, #127
 4391 0460 01F8013B 		strb	r3, [r1], #1
 4392 0464 F8D8     		bhi	.L921
 4393              	.L920:
 4394 0466 0A70     		strb	r2, [r1]
 4395 0468 81F80180 		strb	r8, [r1, #1]
 4396 046c 1A22     		movs	r2, #26
 4397 046e 0231     		adds	r1, r1, #2
 4398 0470 0798     		ldr	r0, [sp, #28]
 4399 0472 FFF7FEFF 		bl	_SendPacket
 4400 0476 059A     		ldr	r2, [sp, #20]
 4401 0478 CDF82480 		str	r8, [sp, #36]
 4402 047c 111D     		adds	r1, r2, #4
 4403 047e 0532     		adds	r2, r2, #5
 4404 0480 0692     		str	r2, [sp, #24]
 4405 0482 0791     		str	r1, [sp, #28]
 4406 0484 0022     		movs	r2, #0
 4407 0486 7FE7     		b	.L919
 4408              	.L995:
 4409 0488 0799     		ldr	r1, [sp, #28]
 4410 048a 0A70     		strb	r2, [r1]
 4411 048c 089A     		ldr	r2, [sp, #32]
 4412 048e 0699     		ldr	r1, [sp, #24]
 4413 0490 7F2A     		cmp	r2, #127
 4414 0492 06D9     		bls	.L902
 4415              	.L903:
 4416 0494 62F07F03 		orn	r3, r2, #127
 4417 0498 D209     		lsrs	r2, r2, #7
 4418 049a 7F2A     		cmp	r2, #127
 4419 049c 01F8013B 		strb	r3, [r1], #1
 4420 04a0 F8D8     		bhi	.L903
 4421              	.L902:
 4422 04a2 0A70     		strb	r2, [r1]
 4423 04a4 81F80180 		strb	r8, [r1, #1]
 4424 04a8 1A22     		movs	r2, #26
 4425 04aa 0231     		adds	r1, r1, #2
 4426 04ac 0798     		ldr	r0, [sp, #28]
 4427 04ae FFF7FEFF 		bl	_SendPacket
 4428 04b2 059A     		ldr	r2, [sp, #20]
 4429 04b4 CDF82480 		str	r8, [sp, #36]
 4430 04b8 111D     		adds	r1, r2, #4
 4431 04ba 0532     		adds	r2, r2, #5
 4432 04bc 0692     		str	r2, [sp, #24]
 4433 04be 0791     		str	r1, [sp, #28]
 4434 04c0 0022     		movs	r2, #0
 4435 04c2 40E7     		b	.L901
 4436              	.L998:
 4437 04c4 039C     		ldr	r4, [sp, #12]
 4438              	.L923:
 4439 04c6 0025     		movs	r5, #0
 4440 04c8 AAE6     		b	.L916
 4441              	.L945:
 4442 04ca 0A46     		mov	r2, r1
 4443 04cc ADE7     		b	.L913
 4444              	.L944:
 4445 04ce 0A46     		mov	r2, r1
 4446 04d0 78E7     		b	.L909
ARM GAS  C:\Users\ali\AppData\Local\Temp\ccPL16ze.s 			page 79


 4447              		.size	_VPrintTarget, .-_VPrintTarget
 4448 04d2 00BF     		.section	.text.SEGGER_SYSVIEW_RecordExitISRToScheduler,"ax",%progbits
 4449              		.align	2
 4450              		.global	SEGGER_SYSVIEW_RecordExitISRToScheduler
 4451              		.thumb
 4452              		.thumb_func
 4453              		.type	SEGGER_SYSVIEW_RecordExitISRToScheduler, %function
 4454              	SEGGER_SYSVIEW_RecordExitISRToScheduler:
 4455              		@ args = 0, pretend = 0, frame = 16
 4456              		@ frame_needed = 0, uses_anonymous_args = 0
 4457 0000 F0B5     		push	{r4, r5, r6, r7, lr}
 4458 0002 85B0     		sub	sp, sp, #20
 4459              		.syntax unified
 4460              	@ 2020 "..\SEGGER\SEGGER_SYSVIEW.c" 1
 4461 0004 EFF31184 		mrs   r4, basepri  
 4462 0008 4FF02001 		mov   r1, #32       
 4463 000c 81F31188 		msr   basepri, r1  
 4464              		
 4465              	@ 0 "" 2
 4466              		.thumb
 4467              		.syntax unified
 4468 0010 474D     		ldr	r5, .L1030
 4469 0012 95F80034 		ldrb	r3, [r5, #1024]	@ zero_extendqisi2
 4470 0016 012B     		cmp	r3, #1
 4471 0018 15D0     		beq	.L1007
 4472 001a 93B9     		cbnz	r3, .L1026
 4473              	.L1006:
 4474 001c 95F81834 		ldrb	r3, [r5, #1048]	@ zero_extendqisi2
 4475 0020 444A     		ldr	r2, .L1030+4
 4476 0022 03EB4303 		add	r3, r3, r3, lsl #1
 4477 0026 02EBC303 		add	r3, r2, r3, lsl #3
 4478 002a DA6E     		ldr	r2, [r3, #108]
 4479 002c 1B6F     		ldr	r3, [r3, #112]
 4480 002e 404D     		ldr	r5, .L1030
 4481 0030 9A42     		cmp	r2, r3
 4482 0032 02D0     		beq	.L1017
 4483 0034 95F80264 		ldrb	r6, [r5, #1026]	@ zero_extendqisi2
 4484 0038 5EB3     		cbz	r6, .L1027
 4485              	.L1017:
 4486              		.syntax unified
 4487              	@ 2023 "..\SEGGER\SEGGER_SYSVIEW.c" 1
 4488 003a 84F31188 		msr   basepri, r4  
 4489              		
 4490              	@ 0 "" 2
 4491              		.thumb
 4492              		.syntax unified
 4493 003e 05B0     		add	sp, sp, #20
 4494              		@ sp needed
 4495 0040 F0BD     		pop	{r4, r5, r6, r7, pc}
 4496              	.L1026:
 4497 0042 022B     		cmp	r3, #2
 4498 0044 36D0     		beq	.L1028
 4499              	.L1007:
 4500 0046 D5F81C34 		ldr	r3, [r5, #1052]
 4501 004a 394A     		ldr	r2, .L1030
 4502 004c 5B03     		lsls	r3, r3, #13
 4503 004e E5D4     		bmi	.L1006
ARM GAS  C:\Users\ali\AppData\Local\Temp\ccPL16ze.s 			page 80


 4504 0050 3949     		ldr	r1, .L1030+8
 4505 0052 D2F80C34 		ldr	r3, [r2, #1036]
 4506 0056 0E68     		ldr	r6, [r1]
 4507 0058 1221     		movs	r1, #18
 4508 005a F31A     		subs	r3, r6, r3
 4509 005c 7F2B     		cmp	r3, #127
 4510 005e 82F83314 		strb	r1, [r2, #1075]
 4511 0062 02F23442 		addw	r2, r2, #1076
 4512 0066 06D9     		bls	.L1014
 4513              	.L1015:
 4514 0068 63F07F01 		orn	r1, r3, #127
 4515 006c DB09     		lsrs	r3, r3, #7
 4516 006e 7F2B     		cmp	r3, #127
 4517 0070 02F8011B 		strb	r1, [r2], #1
 4518 0074 F8D8     		bhi	.L1015
 4519              	.L1014:
 4520 0076 2E4F     		ldr	r7, .L1030
 4521 0078 02F8013B 		strb	r3, [r2], #1
 4522 007c 07F23341 		addw	r1, r7, #1075
 4523 0080 521A     		subs	r2, r2, r1
 4524 0082 95F80104 		ldrb	r0, [r5, #1025]	@ zero_extendqisi2
 4525 0086 FFF7FEFF 		bl	SEGGER_RTT_ASM_WriteSkipNoLock
 4526 008a 68B1     		cbz	r0, .L1016
 4527 008c C7F80C64 		str	r6, [r7, #1036]
 4528 0090 C4E7     		b	.L1006
 4529              	.L1027:
 4530 0092 0123     		movs	r3, #1
 4531 0094 85F80234 		strb	r3, [r5, #1026]
 4532 0098 FFF7FEFF 		bl	_HandleIncomingPacket
 4533 009c 85F80264 		strb	r6, [r5, #1026]
 4534              		.syntax unified
 4535              	@ 2023 "..\SEGGER\SEGGER_SYSVIEW.c" 1
 4536 00a0 84F31188 		msr   basepri, r4  
 4537              		
 4538              	@ 0 "" 2
 4539              		.thumb
 4540              		.syntax unified
 4541 00a4 05B0     		add	sp, sp, #20
 4542              		@ sp needed
 4543 00a6 F0BD     		pop	{r4, r5, r6, r7, pc}
 4544              	.L1016:
 4545 00a8 97F80034 		ldrb	r3, [r7, #1024]	@ zero_extendqisi2
 4546 00ac 0133     		adds	r3, r3, #1
 4547 00ae 87F80034 		strb	r3, [r7, #1024]
 4548 00b2 B3E7     		b	.L1006
 4549              	.L1028:
 4550 00b4 D5F81424 		ldr	r2, [r5, #1044]
 4551 00b8 0123     		movs	r3, #1
 4552 00ba 7F2A     		cmp	r2, #127
 4553 00bc 8DF80430 		strb	r3, [sp, #4]
 4554 00c0 0DF10503 		add	r3, sp, #5
 4555 00c4 06D9     		bls	.L1008
 4556              	.L1009:
 4557 00c6 62F07F01 		orn	r1, r2, #127
 4558 00ca D209     		lsrs	r2, r2, #7
 4559 00cc 7F2A     		cmp	r2, #127
 4560 00ce 03F8011B 		strb	r1, [r3], #1
ARM GAS  C:\Users\ali\AppData\Local\Temp\ccPL16ze.s 			page 81


 4561 00d2 F8D8     		bhi	.L1009
 4562              	.L1008:
 4563 00d4 1849     		ldr	r1, .L1030+8
 4564 00d6 1A70     		strb	r2, [r3]
 4565 00d8 0E68     		ldr	r6, [r1]
 4566 00da D5F80C14 		ldr	r1, [r5, #1036]
 4567 00de 5A1C     		adds	r2, r3, #1
 4568 00e0 731A     		subs	r3, r6, r1
 4569 00e2 7F2B     		cmp	r3, #127
 4570 00e4 06D9     		bls	.L1010
 4571              	.L1011:
 4572 00e6 63F07F01 		orn	r1, r3, #127
 4573 00ea DB09     		lsrs	r3, r3, #7
 4574 00ec 7F2B     		cmp	r3, #127
 4575 00ee 02F8011B 		strb	r1, [r2], #1
 4576 00f2 F8D8     		bhi	.L1011
 4577              	.L1010:
 4578 00f4 01A9     		add	r1, sp, #4
 4579 00f6 02F8013B 		strb	r3, [r2], #1
 4580 00fa 521A     		subs	r2, r2, r1
 4581 00fc 95F80104 		ldrb	r0, [r5, #1025]	@ zero_extendqisi2
 4582 0100 0B4F     		ldr	r7, .L1030
 4583 0102 FFF7FEFF 		bl	SEGGER_RTT_ASM_WriteSkipNoLock
 4584 0106 48B9     		cbnz	r0, .L1029
 4585 0108 D7F81424 		ldr	r2, [r7, #1044]
 4586 010c 97F80034 		ldrb	r3, [r7, #1024]	@ zero_extendqisi2
 4587 0110 0132     		adds	r2, r2, #1
 4588 0112 C7F81424 		str	r2, [r7, #1044]
 4589              	.L1013:
 4590 0116 012B     		cmp	r3, #1
 4591 0118 80D1     		bne	.L1006
 4592 011a 94E7     		b	.L1007
 4593              	.L1029:
 4594 011c 97F80034 		ldrb	r3, [r7, #1024]	@ zero_extendqisi2
 4595 0120 C7F80C64 		str	r6, [r7, #1036]
 4596 0124 013B     		subs	r3, r3, #1
 4597 0126 DBB2     		uxtb	r3, r3
 4598 0128 87F80034 		strb	r3, [r7, #1024]
 4599 012c F3E7     		b	.L1013
 4600              	.L1031:
 4601 012e 00BF     		.align	2
 4602              	.L1030:
 4603 0130 00000000 		.word	.LANCHOR0
 4604 0134 00000000 		.word	_SEGGER_RTT
 4605 0138 041000E0 		.word	-536866812
 4606              		.size	SEGGER_SYSVIEW_RecordExitISRToScheduler, .-SEGGER_SYSVIEW_RecordExitISRToScheduler
 4607              		.section	.text.SEGGER_SYSVIEW_OnIdle,"ax",%progbits
 4608              		.align	2
 4609              		.global	SEGGER_SYSVIEW_OnIdle
 4610              		.thumb
 4611              		.thumb_func
 4612              		.type	SEGGER_SYSVIEW_OnIdle, %function
 4613              	SEGGER_SYSVIEW_OnIdle:
 4614              		@ args = 0, pretend = 0, frame = 16
 4615              		@ frame_needed = 0, uses_anonymous_args = 0
 4616 0000 F0B5     		push	{r4, r5, r6, r7, lr}
 4617 0002 85B0     		sub	sp, sp, #20
ARM GAS  C:\Users\ali\AppData\Local\Temp\ccPL16ze.s 			page 82


 4618              		.syntax unified
 4619              	@ 2115 "..\SEGGER\SEGGER_SYSVIEW.c" 1
 4620 0004 EFF31184 		mrs   r4, basepri  
 4621 0008 4FF02001 		mov   r1, #32       
 4622 000c 81F31188 		msr   basepri, r1  
 4623              		
 4624              	@ 0 "" 2
 4625              		.thumb
 4626              		.syntax unified
 4627 0010 474D     		ldr	r5, .L1061
 4628 0012 95F80034 		ldrb	r3, [r5, #1024]	@ zero_extendqisi2
 4629 0016 012B     		cmp	r3, #1
 4630 0018 15D0     		beq	.L1038
 4631 001a 93B9     		cbnz	r3, .L1057
 4632              	.L1037:
 4633 001c 95F81834 		ldrb	r3, [r5, #1048]	@ zero_extendqisi2
 4634 0020 444A     		ldr	r2, .L1061+4
 4635 0022 03EB4303 		add	r3, r3, r3, lsl #1
 4636 0026 02EBC303 		add	r3, r2, r3, lsl #3
 4637 002a DA6E     		ldr	r2, [r3, #108]
 4638 002c 1B6F     		ldr	r3, [r3, #112]
 4639 002e 404D     		ldr	r5, .L1061
 4640 0030 9A42     		cmp	r2, r3
 4641 0032 02D0     		beq	.L1048
 4642 0034 95F80264 		ldrb	r6, [r5, #1026]	@ zero_extendqisi2
 4643 0038 5EB3     		cbz	r6, .L1058
 4644              	.L1048:
 4645              		.syntax unified
 4646              	@ 2118 "..\SEGGER\SEGGER_SYSVIEW.c" 1
 4647 003a 84F31188 		msr   basepri, r4  
 4648              		
 4649              	@ 0 "" 2
 4650              		.thumb
 4651              		.syntax unified
 4652 003e 05B0     		add	sp, sp, #20
 4653              		@ sp needed
 4654 0040 F0BD     		pop	{r4, r5, r6, r7, pc}
 4655              	.L1057:
 4656 0042 022B     		cmp	r3, #2
 4657 0044 36D0     		beq	.L1059
 4658              	.L1038:
 4659 0046 D5F81C34 		ldr	r3, [r5, #1052]
 4660 004a 394A     		ldr	r2, .L1061
 4661 004c 9B03     		lsls	r3, r3, #14
 4662 004e E5D4     		bmi	.L1037
 4663 0050 3949     		ldr	r1, .L1061+8
 4664 0052 D2F80C34 		ldr	r3, [r2, #1036]
 4665 0056 0E68     		ldr	r6, [r1]
 4666 0058 1121     		movs	r1, #17
 4667 005a F31A     		subs	r3, r6, r3
 4668 005c 7F2B     		cmp	r3, #127
 4669 005e 82F83314 		strb	r1, [r2, #1075]
 4670 0062 02F23442 		addw	r2, r2, #1076
 4671 0066 06D9     		bls	.L1045
 4672              	.L1046:
 4673 0068 63F07F01 		orn	r1, r3, #127
 4674 006c DB09     		lsrs	r3, r3, #7
ARM GAS  C:\Users\ali\AppData\Local\Temp\ccPL16ze.s 			page 83


 4675 006e 7F2B     		cmp	r3, #127
 4676 0070 02F8011B 		strb	r1, [r2], #1
 4677 0074 F8D8     		bhi	.L1046
 4678              	.L1045:
 4679 0076 2E4F     		ldr	r7, .L1061
 4680 0078 02F8013B 		strb	r3, [r2], #1
 4681 007c 07F23341 		addw	r1, r7, #1075
 4682 0080 521A     		subs	r2, r2, r1
 4683 0082 95F80104 		ldrb	r0, [r5, #1025]	@ zero_extendqisi2
 4684 0086 FFF7FEFF 		bl	SEGGER_RTT_ASM_WriteSkipNoLock
 4685 008a 68B1     		cbz	r0, .L1047
 4686 008c C7F80C64 		str	r6, [r7, #1036]
 4687 0090 C4E7     		b	.L1037
 4688              	.L1058:
 4689 0092 0123     		movs	r3, #1
 4690 0094 85F80234 		strb	r3, [r5, #1026]
 4691 0098 FFF7FEFF 		bl	_HandleIncomingPacket
 4692 009c 85F80264 		strb	r6, [r5, #1026]
 4693              		.syntax unified
 4694              	@ 2118 "..\SEGGER\SEGGER_SYSVIEW.c" 1
 4695 00a0 84F31188 		msr   basepri, r4  
 4696              		
 4697              	@ 0 "" 2
 4698              		.thumb
 4699              		.syntax unified
 4700 00a4 05B0     		add	sp, sp, #20
 4701              		@ sp needed
 4702 00a6 F0BD     		pop	{r4, r5, r6, r7, pc}
 4703              	.L1047:
 4704 00a8 97F80034 		ldrb	r3, [r7, #1024]	@ zero_extendqisi2
 4705 00ac 0133     		adds	r3, r3, #1
 4706 00ae 87F80034 		strb	r3, [r7, #1024]
 4707 00b2 B3E7     		b	.L1037
 4708              	.L1059:
 4709 00b4 D5F81424 		ldr	r2, [r5, #1044]
 4710 00b8 0123     		movs	r3, #1
 4711 00ba 7F2A     		cmp	r2, #127
 4712 00bc 8DF80430 		strb	r3, [sp, #4]
 4713 00c0 0DF10503 		add	r3, sp, #5
 4714 00c4 06D9     		bls	.L1039
 4715              	.L1040:
 4716 00c6 62F07F01 		orn	r1, r2, #127
 4717 00ca D209     		lsrs	r2, r2, #7
 4718 00cc 7F2A     		cmp	r2, #127
 4719 00ce 03F8011B 		strb	r1, [r3], #1
 4720 00d2 F8D8     		bhi	.L1040
 4721              	.L1039:
 4722 00d4 1849     		ldr	r1, .L1061+8
 4723 00d6 1A70     		strb	r2, [r3]
 4724 00d8 0E68     		ldr	r6, [r1]
 4725 00da D5F80C14 		ldr	r1, [r5, #1036]
 4726 00de 5A1C     		adds	r2, r3, #1
 4727 00e0 731A     		subs	r3, r6, r1
 4728 00e2 7F2B     		cmp	r3, #127
 4729 00e4 06D9     		bls	.L1041
 4730              	.L1042:
 4731 00e6 63F07F01 		orn	r1, r3, #127
ARM GAS  C:\Users\ali\AppData\Local\Temp\ccPL16ze.s 			page 84


 4732 00ea DB09     		lsrs	r3, r3, #7
 4733 00ec 7F2B     		cmp	r3, #127
 4734 00ee 02F8011B 		strb	r1, [r2], #1
 4735 00f2 F8D8     		bhi	.L1042
 4736              	.L1041:
 4737 00f4 01A9     		add	r1, sp, #4
 4738 00f6 02F8013B 		strb	r3, [r2], #1
 4739 00fa 521A     		subs	r2, r2, r1
 4740 00fc 95F80104 		ldrb	r0, [r5, #1025]	@ zero_extendqisi2
 4741 0100 0B4F     		ldr	r7, .L1061
 4742 0102 FFF7FEFF 		bl	SEGGER_RTT_ASM_WriteSkipNoLock
 4743 0106 48B9     		cbnz	r0, .L1060
 4744 0108 D7F81424 		ldr	r2, [r7, #1044]
 4745 010c 97F80034 		ldrb	r3, [r7, #1024]	@ zero_extendqisi2
 4746 0110 0132     		adds	r2, r2, #1
 4747 0112 C7F81424 		str	r2, [r7, #1044]
 4748              	.L1044:
 4749 0116 012B     		cmp	r3, #1
 4750 0118 80D1     		bne	.L1037
 4751 011a 94E7     		b	.L1038
 4752              	.L1060:
 4753 011c 97F80034 		ldrb	r3, [r7, #1024]	@ zero_extendqisi2
 4754 0120 C7F80C64 		str	r6, [r7, #1036]
 4755 0124 013B     		subs	r3, r3, #1
 4756 0126 DBB2     		uxtb	r3, r3
 4757 0128 87F80034 		strb	r3, [r7, #1024]
 4758 012c F3E7     		b	.L1044
 4759              	.L1062:
 4760 012e 00BF     		.align	2
 4761              	.L1061:
 4762 0130 00000000 		.word	.LANCHOR0
 4763 0134 00000000 		.word	_SEGGER_RTT
 4764 0138 041000E0 		.word	-536866812
 4765              		.size	SEGGER_SYSVIEW_OnIdle, .-SEGGER_SYSVIEW_OnIdle
 4766              		.section	.text.SEGGER_SYSVIEW_RecordExitTimer,"ax",%progbits
 4767              		.align	2
 4768              		.global	SEGGER_SYSVIEW_RecordExitTimer
 4769              		.thumb
 4770              		.thumb_func
 4771              		.type	SEGGER_SYSVIEW_RecordExitTimer, %function
 4772              	SEGGER_SYSVIEW_RecordExitTimer:
 4773              		@ args = 0, pretend = 0, frame = 16
 4774              		@ frame_needed = 0, uses_anonymous_args = 0
 4775 0000 F0B5     		push	{r4, r5, r6, r7, lr}
 4776 0002 85B0     		sub	sp, sp, #20
 4777              		.syntax unified
 4778              	@ 2056 "..\SEGGER\SEGGER_SYSVIEW.c" 1
 4779 0004 EFF31184 		mrs   r4, basepri  
 4780 0008 4FF02001 		mov   r1, #32       
 4781 000c 81F31188 		msr   basepri, r1  
 4782              		
 4783              	@ 0 "" 2
 4784              		.thumb
 4785              		.syntax unified
 4786 0010 474D     		ldr	r5, .L1092
 4787 0012 95F80034 		ldrb	r3, [r5, #1024]	@ zero_extendqisi2
 4788 0016 012B     		cmp	r3, #1
ARM GAS  C:\Users\ali\AppData\Local\Temp\ccPL16ze.s 			page 85


 4789 0018 15D0     		beq	.L1069
 4790 001a 93B9     		cbnz	r3, .L1088
 4791              	.L1068:
 4792 001c 95F81834 		ldrb	r3, [r5, #1048]	@ zero_extendqisi2
 4793 0020 444A     		ldr	r2, .L1092+4
 4794 0022 03EB4303 		add	r3, r3, r3, lsl #1
 4795 0026 02EBC303 		add	r3, r2, r3, lsl #3
 4796 002a DA6E     		ldr	r2, [r3, #108]
 4797 002c 1B6F     		ldr	r3, [r3, #112]
 4798 002e 404D     		ldr	r5, .L1092
 4799 0030 9A42     		cmp	r2, r3
 4800 0032 02D0     		beq	.L1079
 4801 0034 95F80264 		ldrb	r6, [r5, #1026]	@ zero_extendqisi2
 4802 0038 5EB3     		cbz	r6, .L1089
 4803              	.L1079:
 4804              		.syntax unified
 4805              	@ 2059 "..\SEGGER\SEGGER_SYSVIEW.c" 1
 4806 003a 84F31188 		msr   basepri, r4  
 4807              		
 4808              	@ 0 "" 2
 4809              		.thumb
 4810              		.syntax unified
 4811 003e 05B0     		add	sp, sp, #20
 4812              		@ sp needed
 4813 0040 F0BD     		pop	{r4, r5, r6, r7, pc}
 4814              	.L1088:
 4815 0042 022B     		cmp	r3, #2
 4816 0044 36D0     		beq	.L1090
 4817              	.L1069:
 4818 0046 D5F81C34 		ldr	r3, [r5, #1052]
 4819 004a 394A     		ldr	r2, .L1092
 4820 004c DB02     		lsls	r3, r3, #11
 4821 004e E5D4     		bmi	.L1068
 4822 0050 3949     		ldr	r1, .L1092+8
 4823 0052 D2F80C34 		ldr	r3, [r2, #1036]
 4824 0056 0E68     		ldr	r6, [r1]
 4825 0058 1421     		movs	r1, #20
 4826 005a F31A     		subs	r3, r6, r3
 4827 005c 7F2B     		cmp	r3, #127
 4828 005e 82F83314 		strb	r1, [r2, #1075]
 4829 0062 02F23442 		addw	r2, r2, #1076
 4830 0066 06D9     		bls	.L1076
 4831              	.L1077:
 4832 0068 63F07F01 		orn	r1, r3, #127
 4833 006c DB09     		lsrs	r3, r3, #7
 4834 006e 7F2B     		cmp	r3, #127
 4835 0070 02F8011B 		strb	r1, [r2], #1
 4836 0074 F8D8     		bhi	.L1077
 4837              	.L1076:
 4838 0076 2E4F     		ldr	r7, .L1092
 4839 0078 02F8013B 		strb	r3, [r2], #1
 4840 007c 07F23341 		addw	r1, r7, #1075
 4841 0080 521A     		subs	r2, r2, r1
 4842 0082 95F80104 		ldrb	r0, [r5, #1025]	@ zero_extendqisi2
 4843 0086 FFF7FEFF 		bl	SEGGER_RTT_ASM_WriteSkipNoLock
 4844 008a 68B1     		cbz	r0, .L1078
 4845 008c C7F80C64 		str	r6, [r7, #1036]
ARM GAS  C:\Users\ali\AppData\Local\Temp\ccPL16ze.s 			page 86


 4846 0090 C4E7     		b	.L1068
 4847              	.L1089:
 4848 0092 0123     		movs	r3, #1
 4849 0094 85F80234 		strb	r3, [r5, #1026]
 4850 0098 FFF7FEFF 		bl	_HandleIncomingPacket
 4851 009c 85F80264 		strb	r6, [r5, #1026]
 4852              		.syntax unified
 4853              	@ 2059 "..\SEGGER\SEGGER_SYSVIEW.c" 1
 4854 00a0 84F31188 		msr   basepri, r4  
 4855              		
 4856              	@ 0 "" 2
 4857              		.thumb
 4858              		.syntax unified
 4859 00a4 05B0     		add	sp, sp, #20
 4860              		@ sp needed
 4861 00a6 F0BD     		pop	{r4, r5, r6, r7, pc}
 4862              	.L1078:
 4863 00a8 97F80034 		ldrb	r3, [r7, #1024]	@ zero_extendqisi2
 4864 00ac 0133     		adds	r3, r3, #1
 4865 00ae 87F80034 		strb	r3, [r7, #1024]
 4866 00b2 B3E7     		b	.L1068
 4867              	.L1090:
 4868 00b4 D5F81424 		ldr	r2, [r5, #1044]
 4869 00b8 0123     		movs	r3, #1
 4870 00ba 7F2A     		cmp	r2, #127
 4871 00bc 8DF80430 		strb	r3, [sp, #4]
 4872 00c0 0DF10503 		add	r3, sp, #5
 4873 00c4 06D9     		bls	.L1070
 4874              	.L1071:
 4875 00c6 62F07F01 		orn	r1, r2, #127
 4876 00ca D209     		lsrs	r2, r2, #7
 4877 00cc 7F2A     		cmp	r2, #127
 4878 00ce 03F8011B 		strb	r1, [r3], #1
 4879 00d2 F8D8     		bhi	.L1071
 4880              	.L1070:
 4881 00d4 1849     		ldr	r1, .L1092+8
 4882 00d6 1A70     		strb	r2, [r3]
 4883 00d8 0E68     		ldr	r6, [r1]
 4884 00da D5F80C14 		ldr	r1, [r5, #1036]
 4885 00de 5A1C     		adds	r2, r3, #1
 4886 00e0 731A     		subs	r3, r6, r1
 4887 00e2 7F2B     		cmp	r3, #127
 4888 00e4 06D9     		bls	.L1072
 4889              	.L1073:
 4890 00e6 63F07F01 		orn	r1, r3, #127
 4891 00ea DB09     		lsrs	r3, r3, #7
 4892 00ec 7F2B     		cmp	r3, #127
 4893 00ee 02F8011B 		strb	r1, [r2], #1
 4894 00f2 F8D8     		bhi	.L1073
 4895              	.L1072:
 4896 00f4 01A9     		add	r1, sp, #4
 4897 00f6 02F8013B 		strb	r3, [r2], #1
 4898 00fa 521A     		subs	r2, r2, r1
 4899 00fc 95F80104 		ldrb	r0, [r5, #1025]	@ zero_extendqisi2
 4900 0100 0B4F     		ldr	r7, .L1092
 4901 0102 FFF7FEFF 		bl	SEGGER_RTT_ASM_WriteSkipNoLock
 4902 0106 48B9     		cbnz	r0, .L1091
ARM GAS  C:\Users\ali\AppData\Local\Temp\ccPL16ze.s 			page 87


 4903 0108 D7F81424 		ldr	r2, [r7, #1044]
 4904 010c 97F80034 		ldrb	r3, [r7, #1024]	@ zero_extendqisi2
 4905 0110 0132     		adds	r2, r2, #1
 4906 0112 C7F81424 		str	r2, [r7, #1044]
 4907              	.L1075:
 4908 0116 012B     		cmp	r3, #1
 4909 0118 80D1     		bne	.L1068
 4910 011a 94E7     		b	.L1069
 4911              	.L1091:
 4912 011c 97F80034 		ldrb	r3, [r7, #1024]	@ zero_extendqisi2
 4913 0120 C7F80C64 		str	r6, [r7, #1036]
 4914 0124 013B     		subs	r3, r3, #1
 4915 0126 DBB2     		uxtb	r3, r3
 4916 0128 87F80034 		strb	r3, [r7, #1024]
 4917 012c F3E7     		b	.L1075
 4918              	.L1093:
 4919 012e 00BF     		.align	2
 4920              	.L1092:
 4921 0130 00000000 		.word	.LANCHOR0
 4922 0134 00000000 		.word	_SEGGER_RTT
 4923 0138 041000E0 		.word	-536866812
 4924              		.size	SEGGER_SYSVIEW_RecordExitTimer, .-SEGGER_SYSVIEW_RecordExitTimer
 4925              		.section	.text.SEGGER_SYSVIEW_OnTaskStopExec,"ax",%progbits
 4926              		.align	2
 4927              		.global	SEGGER_SYSVIEW_OnTaskStopExec
 4928              		.thumb
 4929              		.thumb_func
 4930              		.type	SEGGER_SYSVIEW_OnTaskStopExec, %function
 4931              	SEGGER_SYSVIEW_OnTaskStopExec:
 4932              		@ args = 0, pretend = 0, frame = 16
 4933              		@ frame_needed = 0, uses_anonymous_args = 0
 4934 0000 F0B5     		push	{r4, r5, r6, r7, lr}
 4935 0002 85B0     		sub	sp, sp, #20
 4936              		.syntax unified
 4937              	@ 2203 "..\SEGGER\SEGGER_SYSVIEW.c" 1
 4938 0004 EFF31184 		mrs   r4, basepri  
 4939 0008 4FF02001 		mov   r1, #32       
 4940 000c 81F31188 		msr   basepri, r1  
 4941              		
 4942              	@ 0 "" 2
 4943              		.thumb
 4944              		.syntax unified
 4945 0010 474D     		ldr	r5, .L1123
 4946 0012 95F80034 		ldrb	r3, [r5, #1024]	@ zero_extendqisi2
 4947 0016 012B     		cmp	r3, #1
 4948 0018 15D0     		beq	.L1100
 4949 001a 93B9     		cbnz	r3, .L1119
 4950              	.L1099:
 4951 001c 95F81834 		ldrb	r3, [r5, #1048]	@ zero_extendqisi2
 4952 0020 444A     		ldr	r2, .L1123+4
 4953 0022 03EB4303 		add	r3, r3, r3, lsl #1
 4954 0026 02EBC303 		add	r3, r2, r3, lsl #3
 4955 002a DA6E     		ldr	r2, [r3, #108]
 4956 002c 1B6F     		ldr	r3, [r3, #112]
 4957 002e 404D     		ldr	r5, .L1123
 4958 0030 9A42     		cmp	r2, r3
 4959 0032 02D0     		beq	.L1110
ARM GAS  C:\Users\ali\AppData\Local\Temp\ccPL16ze.s 			page 88


 4960 0034 95F80264 		ldrb	r6, [r5, #1026]	@ zero_extendqisi2
 4961 0038 5EB3     		cbz	r6, .L1120
 4962              	.L1110:
 4963              		.syntax unified
 4964              	@ 2206 "..\SEGGER\SEGGER_SYSVIEW.c" 1
 4965 003a 84F31188 		msr   basepri, r4  
 4966              		
 4967              	@ 0 "" 2
 4968              		.thumb
 4969              		.syntax unified
 4970 003e 05B0     		add	sp, sp, #20
 4971              		@ sp needed
 4972 0040 F0BD     		pop	{r4, r5, r6, r7, pc}
 4973              	.L1119:
 4974 0042 022B     		cmp	r3, #2
 4975 0044 36D0     		beq	.L1121
 4976              	.L1100:
 4977 0046 D5F81C34 		ldr	r3, [r5, #1052]
 4978 004a 394A     		ldr	r2, .L1123
 4979 004c 9B06     		lsls	r3, r3, #26
 4980 004e E5D4     		bmi	.L1099
 4981 0050 3949     		ldr	r1, .L1123+8
 4982 0052 D2F80C34 		ldr	r3, [r2, #1036]
 4983 0056 0E68     		ldr	r6, [r1]
 4984 0058 0521     		movs	r1, #5
 4985 005a F31A     		subs	r3, r6, r3
 4986 005c 7F2B     		cmp	r3, #127
 4987 005e 82F83314 		strb	r1, [r2, #1075]
 4988 0062 02F23442 		addw	r2, r2, #1076
 4989 0066 06D9     		bls	.L1107
 4990              	.L1108:
 4991 0068 63F07F01 		orn	r1, r3, #127
 4992 006c DB09     		lsrs	r3, r3, #7
 4993 006e 7F2B     		cmp	r3, #127
 4994 0070 02F8011B 		strb	r1, [r2], #1
 4995 0074 F8D8     		bhi	.L1108
 4996              	.L1107:
 4997 0076 2E4F     		ldr	r7, .L1123
 4998 0078 02F8013B 		strb	r3, [r2], #1
 4999 007c 07F23341 		addw	r1, r7, #1075
 5000 0080 521A     		subs	r2, r2, r1
 5001 0082 95F80104 		ldrb	r0, [r5, #1025]	@ zero_extendqisi2
 5002 0086 FFF7FEFF 		bl	SEGGER_RTT_ASM_WriteSkipNoLock
 5003 008a 68B1     		cbz	r0, .L1109
 5004 008c C7F80C64 		str	r6, [r7, #1036]
 5005 0090 C4E7     		b	.L1099
 5006              	.L1120:
 5007 0092 0123     		movs	r3, #1
 5008 0094 85F80234 		strb	r3, [r5, #1026]
 5009 0098 FFF7FEFF 		bl	_HandleIncomingPacket
 5010 009c 85F80264 		strb	r6, [r5, #1026]
 5011              		.syntax unified
 5012              	@ 2206 "..\SEGGER\SEGGER_SYSVIEW.c" 1
 5013 00a0 84F31188 		msr   basepri, r4  
 5014              		
 5015              	@ 0 "" 2
 5016              		.thumb
ARM GAS  C:\Users\ali\AppData\Local\Temp\ccPL16ze.s 			page 89


 5017              		.syntax unified
 5018 00a4 05B0     		add	sp, sp, #20
 5019              		@ sp needed
 5020 00a6 F0BD     		pop	{r4, r5, r6, r7, pc}
 5021              	.L1109:
 5022 00a8 97F80034 		ldrb	r3, [r7, #1024]	@ zero_extendqisi2
 5023 00ac 0133     		adds	r3, r3, #1
 5024 00ae 87F80034 		strb	r3, [r7, #1024]
 5025 00b2 B3E7     		b	.L1099
 5026              	.L1121:
 5027 00b4 D5F81424 		ldr	r2, [r5, #1044]
 5028 00b8 0123     		movs	r3, #1
 5029 00ba 7F2A     		cmp	r2, #127
 5030 00bc 8DF80430 		strb	r3, [sp, #4]
 5031 00c0 0DF10503 		add	r3, sp, #5
 5032 00c4 06D9     		bls	.L1101
 5033              	.L1102:
 5034 00c6 62F07F01 		orn	r1, r2, #127
 5035 00ca D209     		lsrs	r2, r2, #7
 5036 00cc 7F2A     		cmp	r2, #127
 5037 00ce 03F8011B 		strb	r1, [r3], #1
 5038 00d2 F8D8     		bhi	.L1102
 5039              	.L1101:
 5040 00d4 1849     		ldr	r1, .L1123+8
 5041 00d6 1A70     		strb	r2, [r3]
 5042 00d8 0E68     		ldr	r6, [r1]
 5043 00da D5F80C14 		ldr	r1, [r5, #1036]
 5044 00de 5A1C     		adds	r2, r3, #1
 5045 00e0 731A     		subs	r3, r6, r1
 5046 00e2 7F2B     		cmp	r3, #127
 5047 00e4 06D9     		bls	.L1103
 5048              	.L1104:
 5049 00e6 63F07F01 		orn	r1, r3, #127
 5050 00ea DB09     		lsrs	r3, r3, #7
 5051 00ec 7F2B     		cmp	r3, #127
 5052 00ee 02F8011B 		strb	r1, [r2], #1
 5053 00f2 F8D8     		bhi	.L1104
 5054              	.L1103:
 5055 00f4 01A9     		add	r1, sp, #4
 5056 00f6 02F8013B 		strb	r3, [r2], #1
 5057 00fa 521A     		subs	r2, r2, r1
 5058 00fc 95F80104 		ldrb	r0, [r5, #1025]	@ zero_extendqisi2
 5059 0100 0B4F     		ldr	r7, .L1123
 5060 0102 FFF7FEFF 		bl	SEGGER_RTT_ASM_WriteSkipNoLock
 5061 0106 48B9     		cbnz	r0, .L1122
 5062 0108 D7F81424 		ldr	r2, [r7, #1044]
 5063 010c 97F80034 		ldrb	r3, [r7, #1024]	@ zero_extendqisi2
 5064 0110 0132     		adds	r2, r2, #1
 5065 0112 C7F81424 		str	r2, [r7, #1044]
 5066              	.L1106:
 5067 0116 012B     		cmp	r3, #1
 5068 0118 80D1     		bne	.L1099
 5069 011a 94E7     		b	.L1100
 5070              	.L1122:
 5071 011c 97F80034 		ldrb	r3, [r7, #1024]	@ zero_extendqisi2
 5072 0120 C7F80C64 		str	r6, [r7, #1036]
 5073 0124 013B     		subs	r3, r3, #1
ARM GAS  C:\Users\ali\AppData\Local\Temp\ccPL16ze.s 			page 90


 5074 0126 DBB2     		uxtb	r3, r3
 5075 0128 87F80034 		strb	r3, [r7, #1024]
 5076 012c F3E7     		b	.L1106
 5077              	.L1124:
 5078 012e 00BF     		.align	2
 5079              	.L1123:
 5080 0130 00000000 		.word	.LANCHOR0
 5081 0134 00000000 		.word	_SEGGER_RTT
 5082 0138 041000E0 		.word	-536866812
 5083              		.size	SEGGER_SYSVIEW_OnTaskStopExec, .-SEGGER_SYSVIEW_OnTaskStopExec
 5084              		.section	.text.SEGGER_SYSVIEW_RecordExitISR,"ax",%progbits
 5085              		.align	2
 5086              		.global	SEGGER_SYSVIEW_RecordExitISR
 5087              		.thumb
 5088              		.thumb_func
 5089              		.type	SEGGER_SYSVIEW_RecordExitISR, %function
 5090              	SEGGER_SYSVIEW_RecordExitISR:
 5091              		@ args = 0, pretend = 0, frame = 16
 5092              		@ frame_needed = 0, uses_anonymous_args = 0
 5093 0000 F0B5     		push	{r4, r5, r6, r7, lr}
 5094 0002 85B0     		sub	sp, sp, #20
 5095              		.syntax unified
 5096              	@ 1998 "..\SEGGER\SEGGER_SYSVIEW.c" 1
 5097 0004 EFF31184 		mrs   r4, basepri  
 5098 0008 4FF02001 		mov   r1, #32       
 5099 000c 81F31188 		msr   basepri, r1  
 5100              		
 5101              	@ 0 "" 2
 5102              		.thumb
 5103              		.syntax unified
 5104 0010 474D     		ldr	r5, .L1154
 5105 0012 95F80034 		ldrb	r3, [r5, #1024]	@ zero_extendqisi2
 5106 0016 012B     		cmp	r3, #1
 5107 0018 15D0     		beq	.L1131
 5108 001a 93B9     		cbnz	r3, .L1150
 5109              	.L1130:
 5110 001c 95F81834 		ldrb	r3, [r5, #1048]	@ zero_extendqisi2
 5111 0020 444A     		ldr	r2, .L1154+4
 5112 0022 03EB4303 		add	r3, r3, r3, lsl #1
 5113 0026 02EBC303 		add	r3, r2, r3, lsl #3
 5114 002a DA6E     		ldr	r2, [r3, #108]
 5115 002c 1B6F     		ldr	r3, [r3, #112]
 5116 002e 404D     		ldr	r5, .L1154
 5117 0030 9A42     		cmp	r2, r3
 5118 0032 02D0     		beq	.L1141
 5119 0034 95F80264 		ldrb	r6, [r5, #1026]	@ zero_extendqisi2
 5120 0038 5EB3     		cbz	r6, .L1151
 5121              	.L1141:
 5122              		.syntax unified
 5123              	@ 2001 "..\SEGGER\SEGGER_SYSVIEW.c" 1
 5124 003a 84F31188 		msr   basepri, r4  
 5125              		
 5126              	@ 0 "" 2
 5127              		.thumb
 5128              		.syntax unified
 5129 003e 05B0     		add	sp, sp, #20
 5130              		@ sp needed
ARM GAS  C:\Users\ali\AppData\Local\Temp\ccPL16ze.s 			page 91


 5131 0040 F0BD     		pop	{r4, r5, r6, r7, pc}
 5132              	.L1150:
 5133 0042 022B     		cmp	r3, #2
 5134 0044 36D0     		beq	.L1152
 5135              	.L1131:
 5136 0046 D5F81C34 		ldr	r3, [r5, #1052]
 5137 004a 394A     		ldr	r2, .L1154
 5138 004c 1B07     		lsls	r3, r3, #28
 5139 004e E5D4     		bmi	.L1130
 5140 0050 3949     		ldr	r1, .L1154+8
 5141 0052 D2F80C34 		ldr	r3, [r2, #1036]
 5142 0056 0E68     		ldr	r6, [r1]
 5143 0058 0321     		movs	r1, #3
 5144 005a F31A     		subs	r3, r6, r3
 5145 005c 7F2B     		cmp	r3, #127
 5146 005e 82F83314 		strb	r1, [r2, #1075]
 5147 0062 02F23442 		addw	r2, r2, #1076
 5148 0066 06D9     		bls	.L1138
 5149              	.L1139:
 5150 0068 63F07F01 		orn	r1, r3, #127
 5151 006c DB09     		lsrs	r3, r3, #7
 5152 006e 7F2B     		cmp	r3, #127
 5153 0070 02F8011B 		strb	r1, [r2], #1
 5154 0074 F8D8     		bhi	.L1139
 5155              	.L1138:
 5156 0076 2E4F     		ldr	r7, .L1154
 5157 0078 02F8013B 		strb	r3, [r2], #1
 5158 007c 07F23341 		addw	r1, r7, #1075
 5159 0080 521A     		subs	r2, r2, r1
 5160 0082 95F80104 		ldrb	r0, [r5, #1025]	@ zero_extendqisi2
 5161 0086 FFF7FEFF 		bl	SEGGER_RTT_ASM_WriteSkipNoLock
 5162 008a 68B1     		cbz	r0, .L1140
 5163 008c C7F80C64 		str	r6, [r7, #1036]
 5164 0090 C4E7     		b	.L1130
 5165              	.L1151:
 5166 0092 0123     		movs	r3, #1
 5167 0094 85F80234 		strb	r3, [r5, #1026]
 5168 0098 FFF7FEFF 		bl	_HandleIncomingPacket
 5169 009c 85F80264 		strb	r6, [r5, #1026]
 5170              		.syntax unified
 5171              	@ 2001 "..\SEGGER\SEGGER_SYSVIEW.c" 1
 5172 00a0 84F31188 		msr   basepri, r4  
 5173              		
 5174              	@ 0 "" 2
 5175              		.thumb
 5176              		.syntax unified
 5177 00a4 05B0     		add	sp, sp, #20
 5178              		@ sp needed
 5179 00a6 F0BD     		pop	{r4, r5, r6, r7, pc}
 5180              	.L1140:
 5181 00a8 97F80034 		ldrb	r3, [r7, #1024]	@ zero_extendqisi2
 5182 00ac 0133     		adds	r3, r3, #1
 5183 00ae 87F80034 		strb	r3, [r7, #1024]
 5184 00b2 B3E7     		b	.L1130
 5185              	.L1152:
 5186 00b4 D5F81424 		ldr	r2, [r5, #1044]
 5187 00b8 0123     		movs	r3, #1
ARM GAS  C:\Users\ali\AppData\Local\Temp\ccPL16ze.s 			page 92


 5188 00ba 7F2A     		cmp	r2, #127
 5189 00bc 8DF80430 		strb	r3, [sp, #4]
 5190 00c0 0DF10503 		add	r3, sp, #5
 5191 00c4 06D9     		bls	.L1132
 5192              	.L1133:
 5193 00c6 62F07F01 		orn	r1, r2, #127
 5194 00ca D209     		lsrs	r2, r2, #7
 5195 00cc 7F2A     		cmp	r2, #127
 5196 00ce 03F8011B 		strb	r1, [r3], #1
 5197 00d2 F8D8     		bhi	.L1133
 5198              	.L1132:
 5199 00d4 1849     		ldr	r1, .L1154+8
 5200 00d6 1A70     		strb	r2, [r3]
 5201 00d8 0E68     		ldr	r6, [r1]
 5202 00da D5F80C14 		ldr	r1, [r5, #1036]
 5203 00de 5A1C     		adds	r2, r3, #1
 5204 00e0 731A     		subs	r3, r6, r1
 5205 00e2 7F2B     		cmp	r3, #127
 5206 00e4 06D9     		bls	.L1134
 5207              	.L1135:
 5208 00e6 63F07F01 		orn	r1, r3, #127
 5209 00ea DB09     		lsrs	r3, r3, #7
 5210 00ec 7F2B     		cmp	r3, #127
 5211 00ee 02F8011B 		strb	r1, [r2], #1
 5212 00f2 F8D8     		bhi	.L1135
 5213              	.L1134:
 5214 00f4 01A9     		add	r1, sp, #4
 5215 00f6 02F8013B 		strb	r3, [r2], #1
 5216 00fa 521A     		subs	r2, r2, r1
 5217 00fc 95F80104 		ldrb	r0, [r5, #1025]	@ zero_extendqisi2
 5218 0100 0B4F     		ldr	r7, .L1154
 5219 0102 FFF7FEFF 		bl	SEGGER_RTT_ASM_WriteSkipNoLock
 5220 0106 48B9     		cbnz	r0, .L1153
 5221 0108 D7F81424 		ldr	r2, [r7, #1044]
 5222 010c 97F80034 		ldrb	r3, [r7, #1024]	@ zero_extendqisi2
 5223 0110 0132     		adds	r2, r2, #1
 5224 0112 C7F81424 		str	r2, [r7, #1044]
 5225              	.L1137:
 5226 0116 012B     		cmp	r3, #1
 5227 0118 80D1     		bne	.L1130
 5228 011a 94E7     		b	.L1131
 5229              	.L1153:
 5230 011c 97F80034 		ldrb	r3, [r7, #1024]	@ zero_extendqisi2
 5231 0120 C7F80C64 		str	r6, [r7, #1036]
 5232 0124 013B     		subs	r3, r3, #1
 5233 0126 DBB2     		uxtb	r3, r3
 5234 0128 87F80034 		strb	r3, [r7, #1024]
 5235 012c F3E7     		b	.L1137
 5236              	.L1155:
 5237 012e 00BF     		.align	2
 5238              	.L1154:
 5239 0130 00000000 		.word	.LANCHOR0
 5240 0134 00000000 		.word	_SEGGER_RTT
 5241 0138 041000E0 		.word	-536866812
 5242              		.size	SEGGER_SYSVIEW_RecordExitISR, .-SEGGER_SYSVIEW_RecordExitISR
 5243              		.section	.text.SEGGER_SYSVIEW_MarkStop,"ax",%progbits
 5244              		.align	2
ARM GAS  C:\Users\ali\AppData\Local\Temp\ccPL16ze.s 			page 93


 5245              		.global	SEGGER_SYSVIEW_MarkStop
 5246              		.thumb
 5247              		.thumb_func
 5248              		.type	SEGGER_SYSVIEW_MarkStop, %function
 5249              	SEGGER_SYSVIEW_MarkStop:
 5250              		@ args = 0, pretend = 0, frame = 16
 5251              		@ frame_needed = 0, uses_anonymous_args = 0
 5252 0000 2DE9F041 		push	{r4, r5, r6, r7, r8, lr}
 5253 0004 84B0     		sub	sp, sp, #16
 5254              		.syntax unified
 5255              	@ 2289 "..\SEGGER\SEGGER_SYSVIEW.c" 1
 5256 0006 EFF31185 		mrs   r5, basepri  
 5257 000a 4FF02001 		mov   r1, #32       
 5258 000e 81F31188 		msr   basepri, r1  
 5259              		
 5260              	@ 0 "" 2
 5261              		.thumb
 5262              		.syntax unified
 5263 0012 7F28     		cmp	r0, #127
 5264 0014 4E4C     		ldr	r4, .L1188
 5265 0016 06D9     		bls	.L1157
 5266              	.L1158:
 5267 0018 60F07F03 		orn	r3, r0, #127
 5268 001c C009     		lsrs	r0, r0, #7
 5269 001e 7F28     		cmp	r0, #127
 5270 0020 04F8013B 		strb	r3, [r4], #1
 5271 0024 F8D8     		bhi	.L1158
 5272              	.L1157:
 5273 0026 4B4E     		ldr	r6, .L1188+4
 5274 0028 2070     		strb	r0, [r4]
 5275 002a 96F80034 		ldrb	r3, [r6, #1024]	@ zero_extendqisi2
 5276 002e 012B     		cmp	r3, #1
 5277 0030 16D0     		beq	.L1164
 5278 0032 9BB9     		cbnz	r3, .L1184
 5279              	.L1163:
 5280 0034 96F81834 		ldrb	r3, [r6, #1048]	@ zero_extendqisi2
 5281 0038 474A     		ldr	r2, .L1188+8
 5282 003a 03EB4303 		add	r3, r3, r3, lsl #1
 5283 003e 02EBC303 		add	r3, r2, r3, lsl #3
 5284 0042 DA6E     		ldr	r2, [r3, #108]
 5285 0044 1B6F     		ldr	r3, [r3, #112]
 5286 0046 434C     		ldr	r4, .L1188+4
 5287 0048 9A42     		cmp	r2, r3
 5288 004a 02D0     		beq	.L1174
 5289 004c 94F80264 		ldrb	r6, [r4, #1026]	@ zero_extendqisi2
 5290 0050 66B3     		cbz	r6, .L1185
 5291              	.L1174:
 5292              		.syntax unified
 5293              	@ 2294 "..\SEGGER\SEGGER_SYSVIEW.c" 1
 5294 0052 85F31188 		msr   basepri, r5  
 5295              		
 5296              	@ 0 "" 2
 5297              		.thumb
 5298              		.syntax unified
 5299 0056 04B0     		add	sp, sp, #16
 5300              		@ sp needed
 5301 0058 BDE8F081 		pop	{r4, r5, r6, r7, r8, pc}
ARM GAS  C:\Users\ali\AppData\Local\Temp\ccPL16ze.s 			page 94


 5302              	.L1184:
 5303 005c 022B     		cmp	r3, #2
 5304 005e 37D0     		beq	.L1186
 5305              	.L1164:
 5306 0060 B6F81E34 		ldrh	r3, [r6, #1054]
 5307 0064 3B49     		ldr	r1, .L1188+4
 5308 0066 DB07     		lsls	r3, r3, #31
 5309 0068 E4D4     		bmi	.L1163
 5310 006a 3C4A     		ldr	r2, .L1188+12
 5311 006c D1F80C34 		ldr	r3, [r1, #1036]
 5312 0070 1768     		ldr	r7, [r2]
 5313 0072 1020     		movs	r0, #16
 5314 0074 FB1A     		subs	r3, r7, r3
 5315 0076 7F2B     		cmp	r3, #127
 5316 0078 04F10102 		add	r2, r4, #1
 5317 007c 81F83304 		strb	r0, [r1, #1075]
 5318 0080 06D9     		bls	.L1171
 5319              	.L1172:
 5320 0082 63F07F01 		orn	r1, r3, #127
 5321 0086 DB09     		lsrs	r3, r3, #7
 5322 0088 7F2B     		cmp	r3, #127
 5323 008a 02F8011B 		strb	r1, [r2], #1
 5324 008e F8D8     		bhi	.L1172
 5325              	.L1171:
 5326 0090 304C     		ldr	r4, .L1188+4
 5327 0092 02F8013B 		strb	r3, [r2], #1
 5328 0096 04F23341 		addw	r1, r4, #1075
 5329 009a 521A     		subs	r2, r2, r1
 5330 009c 96F80104 		ldrb	r0, [r6, #1025]	@ zero_extendqisi2
 5331 00a0 FFF7FEFF 		bl	SEGGER_RTT_ASM_WriteSkipNoLock
 5332 00a4 70B1     		cbz	r0, .L1173
 5333 00a6 C4F80C74 		str	r7, [r4, #1036]
 5334 00aa C3E7     		b	.L1163
 5335              	.L1185:
 5336 00ac 0123     		movs	r3, #1
 5337 00ae 84F80234 		strb	r3, [r4, #1026]
 5338 00b2 FFF7FEFF 		bl	_HandleIncomingPacket
 5339 00b6 84F80264 		strb	r6, [r4, #1026]
 5340              		.syntax unified
 5341              	@ 2294 "..\SEGGER\SEGGER_SYSVIEW.c" 1
 5342 00ba 85F31188 		msr   basepri, r5  
 5343              		
 5344              	@ 0 "" 2
 5345              		.thumb
 5346              		.syntax unified
 5347 00be 04B0     		add	sp, sp, #16
 5348              		@ sp needed
 5349 00c0 BDE8F081 		pop	{r4, r5, r6, r7, r8, pc}
 5350              	.L1173:
 5351 00c4 94F80034 		ldrb	r3, [r4, #1024]	@ zero_extendqisi2
 5352 00c8 0133     		adds	r3, r3, #1
 5353 00ca 84F80034 		strb	r3, [r4, #1024]
 5354 00ce B1E7     		b	.L1163
 5355              	.L1186:
 5356 00d0 D6F81424 		ldr	r2, [r6, #1044]
 5357 00d4 0123     		movs	r3, #1
 5358 00d6 7F2A     		cmp	r2, #127
ARM GAS  C:\Users\ali\AppData\Local\Temp\ccPL16ze.s 			page 95


 5359 00d8 8DF80430 		strb	r3, [sp, #4]
 5360 00dc 0DF10503 		add	r3, sp, #5
 5361 00e0 06D9     		bls	.L1165
 5362              	.L1166:
 5363 00e2 62F07F01 		orn	r1, r2, #127
 5364 00e6 D209     		lsrs	r2, r2, #7
 5365 00e8 7F2A     		cmp	r2, #127
 5366 00ea 03F8011B 		strb	r1, [r3], #1
 5367 00ee F8D8     		bhi	.L1166
 5368              	.L1165:
 5369 00f0 1A49     		ldr	r1, .L1188+12
 5370 00f2 1A70     		strb	r2, [r3]
 5371 00f4 0F68     		ldr	r7, [r1]
 5372 00f6 D6F80C24 		ldr	r2, [r6, #1036]
 5373 00fa 0133     		adds	r3, r3, #1
 5374 00fc BA1A     		subs	r2, r7, r2
 5375 00fe 7F2A     		cmp	r2, #127
 5376 0100 06D9     		bls	.L1167
 5377              	.L1168:
 5378 0102 62F07F01 		orn	r1, r2, #127
 5379 0106 D209     		lsrs	r2, r2, #7
 5380 0108 7F2A     		cmp	r2, #127
 5381 010a 03F8011B 		strb	r1, [r3], #1
 5382 010e F8D8     		bhi	.L1168
 5383              	.L1167:
 5384 0110 01A9     		add	r1, sp, #4
 5385 0112 03F8012B 		strb	r2, [r3], #1
 5386 0116 5A1A     		subs	r2, r3, r1
 5387 0118 96F80104 		ldrb	r0, [r6, #1025]	@ zero_extendqisi2
 5388 011c DFF83480 		ldr	r8, .L1188+4
 5389 0120 FFF7FEFF 		bl	SEGGER_RTT_ASM_WriteSkipNoLock
 5390 0124 50B9     		cbnz	r0, .L1187
 5391 0126 D8F81424 		ldr	r2, [r8, #1044]
 5392 012a 98F80034 		ldrb	r3, [r8, #1024]	@ zero_extendqisi2
 5393 012e 0132     		adds	r2, r2, #1
 5394 0130 C8F81424 		str	r2, [r8, #1044]
 5395              	.L1170:
 5396 0134 012B     		cmp	r3, #1
 5397 0136 7FF47DAF 		bne	.L1163
 5398 013a 91E7     		b	.L1164
 5399              	.L1187:
 5400 013c 98F80034 		ldrb	r3, [r8, #1024]	@ zero_extendqisi2
 5401 0140 C8F80C74 		str	r7, [r8, #1036]
 5402 0144 013B     		subs	r3, r3, #1
 5403 0146 DBB2     		uxtb	r3, r3
 5404 0148 88F80034 		strb	r3, [r8, #1024]
 5405 014c F2E7     		b	.L1170
 5406              	.L1189:
 5407 014e 00BF     		.align	2
 5408              	.L1188:
 5409 0150 34040000 		.word	.LANCHOR0+1076
 5410 0154 00000000 		.word	.LANCHOR0
 5411 0158 00000000 		.word	_SEGGER_RTT
 5412 015c 041000E0 		.word	-536866812
 5413              		.size	SEGGER_SYSVIEW_MarkStop, .-SEGGER_SYSVIEW_MarkStop
 5414              		.section	.text.SEGGER_SYSVIEW_MarkStart,"ax",%progbits
 5415              		.align	2
ARM GAS  C:\Users\ali\AppData\Local\Temp\ccPL16ze.s 			page 96


 5416              		.global	SEGGER_SYSVIEW_MarkStart
 5417              		.thumb
 5418              		.thumb_func
 5419              		.type	SEGGER_SYSVIEW_MarkStart, %function
 5420              	SEGGER_SYSVIEW_MarkStart:
 5421              		@ args = 0, pretend = 0, frame = 16
 5422              		@ frame_needed = 0, uses_anonymous_args = 0
 5423 0000 2DE9F041 		push	{r4, r5, r6, r7, r8, lr}
 5424 0004 84B0     		sub	sp, sp, #16
 5425              		.syntax unified
 5426              	@ 2268 "..\SEGGER\SEGGER_SYSVIEW.c" 1
 5427 0006 EFF31185 		mrs   r5, basepri  
 5428 000a 4FF02001 		mov   r1, #32       
 5429 000e 81F31188 		msr   basepri, r1  
 5430              		
 5431              	@ 0 "" 2
 5432              		.thumb
 5433              		.syntax unified
 5434 0012 7F28     		cmp	r0, #127
 5435 0014 4E4C     		ldr	r4, .L1222
 5436 0016 06D9     		bls	.L1191
 5437              	.L1192:
 5438 0018 60F07F03 		orn	r3, r0, #127
 5439 001c C009     		lsrs	r0, r0, #7
 5440 001e 7F28     		cmp	r0, #127
 5441 0020 04F8013B 		strb	r3, [r4], #1
 5442 0024 F8D8     		bhi	.L1192
 5443              	.L1191:
 5444 0026 4B4E     		ldr	r6, .L1222+4
 5445 0028 2070     		strb	r0, [r4]
 5446 002a 96F80034 		ldrb	r3, [r6, #1024]	@ zero_extendqisi2
 5447 002e 012B     		cmp	r3, #1
 5448 0030 16D0     		beq	.L1198
 5449 0032 9BB9     		cbnz	r3, .L1218
 5450              	.L1197:
 5451 0034 96F81834 		ldrb	r3, [r6, #1048]	@ zero_extendqisi2
 5452 0038 474A     		ldr	r2, .L1222+8
 5453 003a 03EB4303 		add	r3, r3, r3, lsl #1
 5454 003e 02EBC303 		add	r3, r2, r3, lsl #3
 5455 0042 DA6E     		ldr	r2, [r3, #108]
 5456 0044 1B6F     		ldr	r3, [r3, #112]
 5457 0046 434C     		ldr	r4, .L1222+4
 5458 0048 9A42     		cmp	r2, r3
 5459 004a 02D0     		beq	.L1208
 5460 004c 94F80264 		ldrb	r6, [r4, #1026]	@ zero_extendqisi2
 5461 0050 66B3     		cbz	r6, .L1219
 5462              	.L1208:
 5463              		.syntax unified
 5464              	@ 2273 "..\SEGGER\SEGGER_SYSVIEW.c" 1
 5465 0052 85F31188 		msr   basepri, r5  
 5466              		
 5467              	@ 0 "" 2
 5468              		.thumb
 5469              		.syntax unified
 5470 0056 04B0     		add	sp, sp, #16
 5471              		@ sp needed
 5472 0058 BDE8F081 		pop	{r4, r5, r6, r7, r8, pc}
ARM GAS  C:\Users\ali\AppData\Local\Temp\ccPL16ze.s 			page 97


 5473              	.L1218:
 5474 005c 022B     		cmp	r3, #2
 5475 005e 37D0     		beq	.L1220
 5476              	.L1198:
 5477 0060 D6F81C34 		ldr	r3, [r6, #1052]
 5478 0064 3B49     		ldr	r1, .L1222+4
 5479 0066 1B04     		lsls	r3, r3, #16
 5480 0068 E4D4     		bmi	.L1197
 5481 006a 3C4A     		ldr	r2, .L1222+12
 5482 006c D1F80C34 		ldr	r3, [r1, #1036]
 5483 0070 1768     		ldr	r7, [r2]
 5484 0072 0F20     		movs	r0, #15
 5485 0074 FB1A     		subs	r3, r7, r3
 5486 0076 7F2B     		cmp	r3, #127
 5487 0078 04F10102 		add	r2, r4, #1
 5488 007c 81F83304 		strb	r0, [r1, #1075]
 5489 0080 06D9     		bls	.L1205
 5490              	.L1206:
 5491 0082 63F07F01 		orn	r1, r3, #127
 5492 0086 DB09     		lsrs	r3, r3, #7
 5493 0088 7F2B     		cmp	r3, #127
 5494 008a 02F8011B 		strb	r1, [r2], #1
 5495 008e F8D8     		bhi	.L1206
 5496              	.L1205:
 5497 0090 304C     		ldr	r4, .L1222+4
 5498 0092 02F8013B 		strb	r3, [r2], #1
 5499 0096 04F23341 		addw	r1, r4, #1075
 5500 009a 521A     		subs	r2, r2, r1
 5501 009c 96F80104 		ldrb	r0, [r6, #1025]	@ zero_extendqisi2
 5502 00a0 FFF7FEFF 		bl	SEGGER_RTT_ASM_WriteSkipNoLock
 5503 00a4 70B1     		cbz	r0, .L1207
 5504 00a6 C4F80C74 		str	r7, [r4, #1036]
 5505 00aa C3E7     		b	.L1197
 5506              	.L1219:
 5507 00ac 0123     		movs	r3, #1
 5508 00ae 84F80234 		strb	r3, [r4, #1026]
 5509 00b2 FFF7FEFF 		bl	_HandleIncomingPacket
 5510 00b6 84F80264 		strb	r6, [r4, #1026]
 5511              		.syntax unified
 5512              	@ 2273 "..\SEGGER\SEGGER_SYSVIEW.c" 1
 5513 00ba 85F31188 		msr   basepri, r5  
 5514              		
 5515              	@ 0 "" 2
 5516              		.thumb
 5517              		.syntax unified
 5518 00be 04B0     		add	sp, sp, #16
 5519              		@ sp needed
 5520 00c0 BDE8F081 		pop	{r4, r5, r6, r7, r8, pc}
 5521              	.L1207:
 5522 00c4 94F80034 		ldrb	r3, [r4, #1024]	@ zero_extendqisi2
 5523 00c8 0133     		adds	r3, r3, #1
 5524 00ca 84F80034 		strb	r3, [r4, #1024]
 5525 00ce B1E7     		b	.L1197
 5526              	.L1220:
 5527 00d0 D6F81424 		ldr	r2, [r6, #1044]
 5528 00d4 0123     		movs	r3, #1
 5529 00d6 7F2A     		cmp	r2, #127
ARM GAS  C:\Users\ali\AppData\Local\Temp\ccPL16ze.s 			page 98


 5530 00d8 8DF80430 		strb	r3, [sp, #4]
 5531 00dc 0DF10503 		add	r3, sp, #5
 5532 00e0 06D9     		bls	.L1199
 5533              	.L1200:
 5534 00e2 62F07F01 		orn	r1, r2, #127
 5535 00e6 D209     		lsrs	r2, r2, #7
 5536 00e8 7F2A     		cmp	r2, #127
 5537 00ea 03F8011B 		strb	r1, [r3], #1
 5538 00ee F8D8     		bhi	.L1200
 5539              	.L1199:
 5540 00f0 1A49     		ldr	r1, .L1222+12
 5541 00f2 1A70     		strb	r2, [r3]
 5542 00f4 0F68     		ldr	r7, [r1]
 5543 00f6 D6F80C24 		ldr	r2, [r6, #1036]
 5544 00fa 0133     		adds	r3, r3, #1
 5545 00fc BA1A     		subs	r2, r7, r2
 5546 00fe 7F2A     		cmp	r2, #127
 5547 0100 06D9     		bls	.L1201
 5548              	.L1202:
 5549 0102 62F07F01 		orn	r1, r2, #127
 5550 0106 D209     		lsrs	r2, r2, #7
 5551 0108 7F2A     		cmp	r2, #127
 5552 010a 03F8011B 		strb	r1, [r3], #1
 5553 010e F8D8     		bhi	.L1202
 5554              	.L1201:
 5555 0110 01A9     		add	r1, sp, #4
 5556 0112 03F8012B 		strb	r2, [r3], #1
 5557 0116 5A1A     		subs	r2, r3, r1
 5558 0118 96F80104 		ldrb	r0, [r6, #1025]	@ zero_extendqisi2
 5559 011c DFF83480 		ldr	r8, .L1222+4
 5560 0120 FFF7FEFF 		bl	SEGGER_RTT_ASM_WriteSkipNoLock
 5561 0124 50B9     		cbnz	r0, .L1221
 5562 0126 D8F81424 		ldr	r2, [r8, #1044]
 5563 012a 98F80034 		ldrb	r3, [r8, #1024]	@ zero_extendqisi2
 5564 012e 0132     		adds	r2, r2, #1
 5565 0130 C8F81424 		str	r2, [r8, #1044]
 5566              	.L1204:
 5567 0134 012B     		cmp	r3, #1
 5568 0136 7FF47DAF 		bne	.L1197
 5569 013a 91E7     		b	.L1198
 5570              	.L1221:
 5571 013c 98F80034 		ldrb	r3, [r8, #1024]	@ zero_extendqisi2
 5572 0140 C8F80C74 		str	r7, [r8, #1036]
 5573 0144 013B     		subs	r3, r3, #1
 5574 0146 DBB2     		uxtb	r3, r3
 5575 0148 88F80034 		strb	r3, [r8, #1024]
 5576 014c F2E7     		b	.L1204
 5577              	.L1223:
 5578 014e 00BF     		.align	2
 5579              	.L1222:
 5580 0150 34040000 		.word	.LANCHOR0+1076
 5581 0154 00000000 		.word	.LANCHOR0
 5582 0158 00000000 		.word	_SEGGER_RTT
 5583 015c 041000E0 		.word	-536866812
 5584              		.size	SEGGER_SYSVIEW_MarkStart, .-SEGGER_SYSVIEW_MarkStart
 5585              		.section	.text.SEGGER_SYSVIEW_OnTaskCreate,"ax",%progbits
 5586              		.align	2
ARM GAS  C:\Users\ali\AppData\Local\Temp\ccPL16ze.s 			page 99


 5587              		.global	SEGGER_SYSVIEW_OnTaskCreate
 5588              		.thumb
 5589              		.thumb_func
 5590              		.type	SEGGER_SYSVIEW_OnTaskCreate, %function
 5591              	SEGGER_SYSVIEW_OnTaskCreate:
 5592              		@ args = 0, pretend = 0, frame = 16
 5593              		@ frame_needed = 0, uses_anonymous_args = 0
 5594 0000 2DE9F041 		push	{r4, r5, r6, r7, r8, lr}
 5595 0004 84B0     		sub	sp, sp, #16
 5596              		.syntax unified
 5597              	@ 2135 "..\SEGGER\SEGGER_SYSVIEW.c" 1
 5598 0006 EFF31186 		mrs   r6, basepri  
 5599 000a 4FF02001 		mov   r1, #32       
 5600 000e 81F31188 		msr   basepri, r1  
 5601              		
 5602              	@ 0 "" 2
 5603              		.thumb
 5604              		.syntax unified
 5605 0012 514D     		ldr	r5, .L1256
 5606 0014 D5F81034 		ldr	r3, [r5, #1040]
 5607 0018 05F23444 		addw	r4, r5, #1076
 5608 001c C01A     		subs	r0, r0, r3
 5609 001e 7F28     		cmp	r0, #127
 5610 0020 06D9     		bls	.L1225
 5611              	.L1226:
 5612 0022 60F07F03 		orn	r3, r0, #127
 5613 0026 C009     		lsrs	r0, r0, #7
 5614 0028 7F28     		cmp	r0, #127
 5615 002a 04F8013B 		strb	r3, [r4], #1
 5616 002e F8D8     		bhi	.L1226
 5617              	.L1225:
 5618 0030 95F80034 		ldrb	r3, [r5, #1024]	@ zero_extendqisi2
 5619 0034 2070     		strb	r0, [r4]
 5620 0036 012B     		cmp	r3, #1
 5621 0038 474A     		ldr	r2, .L1256
 5622 003a 16D0     		beq	.L1232
 5623 003c 9BB9     		cbnz	r3, .L1252
 5624              	.L1231:
 5625 003e 95F81834 		ldrb	r3, [r5, #1048]	@ zero_extendqisi2
 5626 0042 464A     		ldr	r2, .L1256+4
 5627 0044 03EB4303 		add	r3, r3, r3, lsl #1
 5628 0048 02EBC303 		add	r3, r2, r3, lsl #3
 5629 004c DA6E     		ldr	r2, [r3, #108]
 5630 004e 1B6F     		ldr	r3, [r3, #112]
 5631 0050 414C     		ldr	r4, .L1256
 5632 0052 9A42     		cmp	r2, r3
 5633 0054 02D0     		beq	.L1242
 5634 0056 94F80254 		ldrb	r5, [r4, #1026]	@ zero_extendqisi2
 5635 005a 65B3     		cbz	r5, .L1253
 5636              	.L1242:
 5637              		.syntax unified
 5638              	@ 2141 "..\SEGGER\SEGGER_SYSVIEW.c" 1
 5639 005c 86F31188 		msr   basepri, r6  
 5640              		
 5641              	@ 0 "" 2
 5642              		.thumb
 5643              		.syntax unified
ARM GAS  C:\Users\ali\AppData\Local\Temp\ccPL16ze.s 			page 100


 5644 0060 04B0     		add	sp, sp, #16
 5645              		@ sp needed
 5646 0062 BDE8F081 		pop	{r4, r5, r6, r7, r8, pc}
 5647              	.L1252:
 5648 0066 022B     		cmp	r3, #2
 5649 0068 37D0     		beq	.L1254
 5650              	.L1232:
 5651 006a D5F81C34 		ldr	r3, [r5, #1052]
 5652 006e 3A49     		ldr	r1, .L1256
 5653 0070 DB05     		lsls	r3, r3, #23
 5654 0072 E4D4     		bmi	.L1231
 5655 0074 3A4A     		ldr	r2, .L1256+8
 5656 0076 D1F80C34 		ldr	r3, [r1, #1036]
 5657 007a 1768     		ldr	r7, [r2]
 5658 007c 0820     		movs	r0, #8
 5659 007e FB1A     		subs	r3, r7, r3
 5660 0080 7F2B     		cmp	r3, #127
 5661 0082 04F10102 		add	r2, r4, #1
 5662 0086 81F83304 		strb	r0, [r1, #1075]
 5663 008a 06D9     		bls	.L1239
 5664              	.L1240:
 5665 008c 63F07F01 		orn	r1, r3, #127
 5666 0090 DB09     		lsrs	r3, r3, #7
 5667 0092 7F2B     		cmp	r3, #127
 5668 0094 02F8011B 		strb	r1, [r2], #1
 5669 0098 F8D8     		bhi	.L1240
 5670              	.L1239:
 5671 009a 2F4C     		ldr	r4, .L1256
 5672 009c 02F8013B 		strb	r3, [r2], #1
 5673 00a0 04F23341 		addw	r1, r4, #1075
 5674 00a4 521A     		subs	r2, r2, r1
 5675 00a6 95F80104 		ldrb	r0, [r5, #1025]	@ zero_extendqisi2
 5676 00aa FFF7FEFF 		bl	SEGGER_RTT_ASM_WriteSkipNoLock
 5677 00ae 70B1     		cbz	r0, .L1241
 5678 00b0 C4F80C74 		str	r7, [r4, #1036]
 5679 00b4 C3E7     		b	.L1231
 5680              	.L1253:
 5681 00b6 0123     		movs	r3, #1
 5682 00b8 84F80234 		strb	r3, [r4, #1026]
 5683 00bc FFF7FEFF 		bl	_HandleIncomingPacket
 5684 00c0 84F80254 		strb	r5, [r4, #1026]
 5685              		.syntax unified
 5686              	@ 2141 "..\SEGGER\SEGGER_SYSVIEW.c" 1
 5687 00c4 86F31188 		msr   basepri, r6  
 5688              		
 5689              	@ 0 "" 2
 5690              		.thumb
 5691              		.syntax unified
 5692 00c8 04B0     		add	sp, sp, #16
 5693              		@ sp needed
 5694 00ca BDE8F081 		pop	{r4, r5, r6, r7, r8, pc}
 5695              	.L1241:
 5696 00ce 94F80034 		ldrb	r3, [r4, #1024]	@ zero_extendqisi2
 5697 00d2 0133     		adds	r3, r3, #1
 5698 00d4 84F80034 		strb	r3, [r4, #1024]
 5699 00d8 B1E7     		b	.L1231
 5700              	.L1254:
ARM GAS  C:\Users\ali\AppData\Local\Temp\ccPL16ze.s 			page 101


 5701 00da D2F81424 		ldr	r2, [r2, #1044]
 5702 00de 0123     		movs	r3, #1
 5703 00e0 7F2A     		cmp	r2, #127
 5704 00e2 8DF80430 		strb	r3, [sp, #4]
 5705 00e6 0DF10503 		add	r3, sp, #5
 5706 00ea 06D9     		bls	.L1233
 5707              	.L1234:
 5708 00ec 62F07F01 		orn	r1, r2, #127
 5709 00f0 D209     		lsrs	r2, r2, #7
 5710 00f2 7F2A     		cmp	r2, #127
 5711 00f4 03F8011B 		strb	r1, [r3], #1
 5712 00f8 F8D8     		bhi	.L1234
 5713              	.L1233:
 5714 00fa 1949     		ldr	r1, .L1256+8
 5715 00fc 1A70     		strb	r2, [r3]
 5716 00fe 0F68     		ldr	r7, [r1]
 5717 0100 D5F80C24 		ldr	r2, [r5, #1036]
 5718 0104 0133     		adds	r3, r3, #1
 5719 0106 BA1A     		subs	r2, r7, r2
 5720 0108 7F2A     		cmp	r2, #127
 5721 010a 06D9     		bls	.L1235
 5722              	.L1236:
 5723 010c 62F07F01 		orn	r1, r2, #127
 5724 0110 D209     		lsrs	r2, r2, #7
 5725 0112 7F2A     		cmp	r2, #127
 5726 0114 03F8011B 		strb	r1, [r3], #1
 5727 0118 F8D8     		bhi	.L1236
 5728              	.L1235:
 5729 011a 01A9     		add	r1, sp, #4
 5730 011c 03F8012B 		strb	r2, [r3], #1
 5731 0120 5A1A     		subs	r2, r3, r1
 5732 0122 95F80104 		ldrb	r0, [r5, #1025]	@ zero_extendqisi2
 5733 0126 DFF83080 		ldr	r8, .L1256
 5734 012a FFF7FEFF 		bl	SEGGER_RTT_ASM_WriteSkipNoLock
 5735 012e 50B9     		cbnz	r0, .L1255
 5736 0130 D8F81424 		ldr	r2, [r8, #1044]
 5737 0134 98F80034 		ldrb	r3, [r8, #1024]	@ zero_extendqisi2
 5738 0138 0132     		adds	r2, r2, #1
 5739 013a C8F81424 		str	r2, [r8, #1044]
 5740              	.L1238:
 5741 013e 012B     		cmp	r3, #1
 5742 0140 7FF47DAF 		bne	.L1231
 5743 0144 91E7     		b	.L1232
 5744              	.L1255:
 5745 0146 98F80034 		ldrb	r3, [r8, #1024]	@ zero_extendqisi2
 5746 014a C8F80C74 		str	r7, [r8, #1036]
 5747 014e 013B     		subs	r3, r3, #1
 5748 0150 DBB2     		uxtb	r3, r3
 5749 0152 88F80034 		strb	r3, [r8, #1024]
 5750 0156 F2E7     		b	.L1238
 5751              	.L1257:
 5752              		.align	2
 5753              	.L1256:
 5754 0158 00000000 		.word	.LANCHOR0
 5755 015c 00000000 		.word	_SEGGER_RTT
 5756 0160 041000E0 		.word	-536866812
 5757              		.size	SEGGER_SYSVIEW_OnTaskCreate, .-SEGGER_SYSVIEW_OnTaskCreate
ARM GAS  C:\Users\ali\AppData\Local\Temp\ccPL16ze.s 			page 102


 5758              		.section	.text.SEGGER_SYSVIEW_OnTaskStartExec,"ax",%progbits
 5759              		.align	2
 5760              		.global	SEGGER_SYSVIEW_OnTaskStartExec
 5761              		.thumb
 5762              		.thumb_func
 5763              		.type	SEGGER_SYSVIEW_OnTaskStartExec, %function
 5764              	SEGGER_SYSVIEW_OnTaskStartExec:
 5765              		@ args = 0, pretend = 0, frame = 16
 5766              		@ frame_needed = 0, uses_anonymous_args = 0
 5767 0000 2DE9F041 		push	{r4, r5, r6, r7, r8, lr}
 5768 0004 84B0     		sub	sp, sp, #16
 5769              		.syntax unified
 5770              	@ 2184 "..\SEGGER\SEGGER_SYSVIEW.c" 1
 5771 0006 EFF31186 		mrs   r6, basepri  
 5772 000a 4FF02001 		mov   r1, #32       
 5773 000e 81F31188 		msr   basepri, r1  
 5774              		
 5775              	@ 0 "" 2
 5776              		.thumb
 5777              		.syntax unified
 5778 0012 514D     		ldr	r5, .L1290
 5779 0014 D5F81034 		ldr	r3, [r5, #1040]
 5780 0018 05F23444 		addw	r4, r5, #1076
 5781 001c C01A     		subs	r0, r0, r3
 5782 001e 7F28     		cmp	r0, #127
 5783 0020 06D9     		bls	.L1259
 5784              	.L1260:
 5785 0022 60F07F03 		orn	r3, r0, #127
 5786 0026 C009     		lsrs	r0, r0, #7
 5787 0028 7F28     		cmp	r0, #127
 5788 002a 04F8013B 		strb	r3, [r4], #1
 5789 002e F8D8     		bhi	.L1260
 5790              	.L1259:
 5791 0030 95F80034 		ldrb	r3, [r5, #1024]	@ zero_extendqisi2
 5792 0034 2070     		strb	r0, [r4]
 5793 0036 012B     		cmp	r3, #1
 5794 0038 474A     		ldr	r2, .L1290
 5795 003a 16D0     		beq	.L1266
 5796 003c 9BB9     		cbnz	r3, .L1286
 5797              	.L1265:
 5798 003e 95F81834 		ldrb	r3, [r5, #1048]	@ zero_extendqisi2
 5799 0042 464A     		ldr	r2, .L1290+4
 5800 0044 03EB4303 		add	r3, r3, r3, lsl #1
 5801 0048 02EBC303 		add	r3, r2, r3, lsl #3
 5802 004c DA6E     		ldr	r2, [r3, #108]
 5803 004e 1B6F     		ldr	r3, [r3, #112]
 5804 0050 414C     		ldr	r4, .L1290
 5805 0052 9A42     		cmp	r2, r3
 5806 0054 02D0     		beq	.L1276
 5807 0056 94F80254 		ldrb	r5, [r4, #1026]	@ zero_extendqisi2
 5808 005a 65B3     		cbz	r5, .L1287
 5809              	.L1276:
 5810              		.syntax unified
 5811              	@ 2190 "..\SEGGER\SEGGER_SYSVIEW.c" 1
 5812 005c 86F31188 		msr   basepri, r6  
 5813              		
 5814              	@ 0 "" 2
ARM GAS  C:\Users\ali\AppData\Local\Temp\ccPL16ze.s 			page 103


 5815              		.thumb
 5816              		.syntax unified
 5817 0060 04B0     		add	sp, sp, #16
 5818              		@ sp needed
 5819 0062 BDE8F081 		pop	{r4, r5, r6, r7, r8, pc}
 5820              	.L1286:
 5821 0066 022B     		cmp	r3, #2
 5822 0068 37D0     		beq	.L1288
 5823              	.L1266:
 5824 006a D5F81C34 		ldr	r3, [r5, #1052]
 5825 006e 3A49     		ldr	r1, .L1290
 5826 0070 DB06     		lsls	r3, r3, #27
 5827 0072 E4D4     		bmi	.L1265
 5828 0074 3A4A     		ldr	r2, .L1290+8
 5829 0076 D1F80C34 		ldr	r3, [r1, #1036]
 5830 007a 1768     		ldr	r7, [r2]
 5831 007c 0420     		movs	r0, #4
 5832 007e FB1A     		subs	r3, r7, r3
 5833 0080 7F2B     		cmp	r3, #127
 5834 0082 04F10102 		add	r2, r4, #1
 5835 0086 81F83304 		strb	r0, [r1, #1075]
 5836 008a 06D9     		bls	.L1273
 5837              	.L1274:
 5838 008c 63F07F01 		orn	r1, r3, #127
 5839 0090 DB09     		lsrs	r3, r3, #7
 5840 0092 7F2B     		cmp	r3, #127
 5841 0094 02F8011B 		strb	r1, [r2], #1
 5842 0098 F8D8     		bhi	.L1274
 5843              	.L1273:
 5844 009a 2F4C     		ldr	r4, .L1290
 5845 009c 02F8013B 		strb	r3, [r2], #1
 5846 00a0 04F23341 		addw	r1, r4, #1075
 5847 00a4 521A     		subs	r2, r2, r1
 5848 00a6 95F80104 		ldrb	r0, [r5, #1025]	@ zero_extendqisi2
 5849 00aa FFF7FEFF 		bl	SEGGER_RTT_ASM_WriteSkipNoLock
 5850 00ae 70B1     		cbz	r0, .L1275
 5851 00b0 C4F80C74 		str	r7, [r4, #1036]
 5852 00b4 C3E7     		b	.L1265
 5853              	.L1287:
 5854 00b6 0123     		movs	r3, #1
 5855 00b8 84F80234 		strb	r3, [r4, #1026]
 5856 00bc FFF7FEFF 		bl	_HandleIncomingPacket
 5857 00c0 84F80254 		strb	r5, [r4, #1026]
 5858              		.syntax unified
 5859              	@ 2190 "..\SEGGER\SEGGER_SYSVIEW.c" 1
 5860 00c4 86F31188 		msr   basepri, r6  
 5861              		
 5862              	@ 0 "" 2
 5863              		.thumb
 5864              		.syntax unified
 5865 00c8 04B0     		add	sp, sp, #16
 5866              		@ sp needed
 5867 00ca BDE8F081 		pop	{r4, r5, r6, r7, r8, pc}
 5868              	.L1275:
 5869 00ce 94F80034 		ldrb	r3, [r4, #1024]	@ zero_extendqisi2
 5870 00d2 0133     		adds	r3, r3, #1
 5871 00d4 84F80034 		strb	r3, [r4, #1024]
ARM GAS  C:\Users\ali\AppData\Local\Temp\ccPL16ze.s 			page 104


 5872 00d8 B1E7     		b	.L1265
 5873              	.L1288:
 5874 00da D2F81424 		ldr	r2, [r2, #1044]
 5875 00de 0123     		movs	r3, #1
 5876 00e0 7F2A     		cmp	r2, #127
 5877 00e2 8DF80430 		strb	r3, [sp, #4]
 5878 00e6 0DF10503 		add	r3, sp, #5
 5879 00ea 06D9     		bls	.L1267
 5880              	.L1268:
 5881 00ec 62F07F01 		orn	r1, r2, #127
 5882 00f0 D209     		lsrs	r2, r2, #7
 5883 00f2 7F2A     		cmp	r2, #127
 5884 00f4 03F8011B 		strb	r1, [r3], #1
 5885 00f8 F8D8     		bhi	.L1268
 5886              	.L1267:
 5887 00fa 1949     		ldr	r1, .L1290+8
 5888 00fc 1A70     		strb	r2, [r3]
 5889 00fe 0F68     		ldr	r7, [r1]
 5890 0100 D5F80C24 		ldr	r2, [r5, #1036]
 5891 0104 0133     		adds	r3, r3, #1
 5892 0106 BA1A     		subs	r2, r7, r2
 5893 0108 7F2A     		cmp	r2, #127
 5894 010a 06D9     		bls	.L1269
 5895              	.L1270:
 5896 010c 62F07F01 		orn	r1, r2, #127
 5897 0110 D209     		lsrs	r2, r2, #7
 5898 0112 7F2A     		cmp	r2, #127
 5899 0114 03F8011B 		strb	r1, [r3], #1
 5900 0118 F8D8     		bhi	.L1270
 5901              	.L1269:
 5902 011a 01A9     		add	r1, sp, #4
 5903 011c 03F8012B 		strb	r2, [r3], #1
 5904 0120 5A1A     		subs	r2, r3, r1
 5905 0122 95F80104 		ldrb	r0, [r5, #1025]	@ zero_extendqisi2
 5906 0126 DFF83080 		ldr	r8, .L1290
 5907 012a FFF7FEFF 		bl	SEGGER_RTT_ASM_WriteSkipNoLock
 5908 012e 50B9     		cbnz	r0, .L1289
 5909 0130 D8F81424 		ldr	r2, [r8, #1044]
 5910 0134 98F80034 		ldrb	r3, [r8, #1024]	@ zero_extendqisi2
 5911 0138 0132     		adds	r2, r2, #1
 5912 013a C8F81424 		str	r2, [r8, #1044]
 5913              	.L1272:
 5914 013e 012B     		cmp	r3, #1
 5915 0140 7FF47DAF 		bne	.L1265
 5916 0144 91E7     		b	.L1266
 5917              	.L1289:
 5918 0146 98F80034 		ldrb	r3, [r8, #1024]	@ zero_extendqisi2
 5919 014a C8F80C74 		str	r7, [r8, #1036]
 5920 014e 013B     		subs	r3, r3, #1
 5921 0150 DBB2     		uxtb	r3, r3
 5922 0152 88F80034 		strb	r3, [r8, #1024]
 5923 0156 F2E7     		b	.L1272
 5924              	.L1291:
 5925              		.align	2
 5926              	.L1290:
 5927 0158 00000000 		.word	.LANCHOR0
 5928 015c 00000000 		.word	_SEGGER_RTT
ARM GAS  C:\Users\ali\AppData\Local\Temp\ccPL16ze.s 			page 105


 5929 0160 041000E0 		.word	-536866812
 5930              		.size	SEGGER_SYSVIEW_OnTaskStartExec, .-SEGGER_SYSVIEW_OnTaskStartExec
 5931              		.section	.text.SEGGER_SYSVIEW_RecordEnterISR,"ax",%progbits
 5932              		.align	2
 5933              		.global	SEGGER_SYSVIEW_RecordEnterISR
 5934              		.thumb
 5935              		.thumb_func
 5936              		.type	SEGGER_SYSVIEW_RecordEnterISR, %function
 5937              	SEGGER_SYSVIEW_RecordEnterISR:
 5938              		@ args = 0, pretend = 0, frame = 16
 5939              		@ frame_needed = 0, uses_anonymous_args = 0
 5940 0000 2DE9F041 		push	{r4, r5, r6, r7, r8, lr}
 5941 0004 84B0     		sub	sp, sp, #16
 5942              		.syntax unified
 5943              	@ 1973 "..\SEGGER\SEGGER_SYSVIEW.c" 1
 5944 0006 EFF31186 		mrs   r6, basepri  
 5945 000a 4FF02001 		mov   r1, #32       
 5946 000e 81F31188 		msr   basepri, r1  
 5947              		
 5948              	@ 0 "" 2
 5949              		.thumb
 5950              		.syntax unified
 5951 0012 534B     		ldr	r3, .L1322
 5952 0014 1B68     		ldr	r3, [r3]
 5953 0016 C3F30803 		ubfx	r3, r3, #0, #9
 5954 001a 7F2B     		cmp	r3, #127
 5955 001c 5CD9     		bls	.L1310
 5956 001e 514C     		ldr	r4, .L1322+4
 5957 0020 63F07F02 		orn	r2, r3, #127
 5958 0024 84F83424 		strb	r2, [r4, #1076]
 5959 0028 DB09     		lsrs	r3, r3, #7
 5960 002a 04F23545 		addw	r5, r4, #1077
 5961              	.L1293:
 5962 002e 94F80024 		ldrb	r2, [r4, #1024]	@ zero_extendqisi2
 5963 0032 2B70     		strb	r3, [r5]
 5964 0034 012A     		cmp	r2, #1
 5965 0036 4B4B     		ldr	r3, .L1322+4
 5966 0038 16D0     		beq	.L1299
 5967 003a 9AB9     		cbnz	r2, .L1318
 5968              	.L1298:
 5969 003c 94F81834 		ldrb	r3, [r4, #1048]	@ zero_extendqisi2
 5970 0040 494A     		ldr	r2, .L1322+8
 5971 0042 03EB4303 		add	r3, r3, r3, lsl #1
 5972 0046 02EBC303 		add	r3, r2, r3, lsl #3
 5973 004a DA6E     		ldr	r2, [r3, #108]
 5974 004c 1B6F     		ldr	r3, [r3, #112]
 5975 004e 454C     		ldr	r4, .L1322+4
 5976 0050 9A42     		cmp	r2, r3
 5977 0052 02D0     		beq	.L1309
 5978 0054 94F80254 		ldrb	r5, [r4, #1026]	@ zero_extendqisi2
 5979 0058 65B3     		cbz	r5, .L1319
 5980              	.L1309:
 5981              		.syntax unified
 5982              	@ 1979 "..\SEGGER\SEGGER_SYSVIEW.c" 1
 5983 005a 86F31188 		msr   basepri, r6  
 5984              		
 5985              	@ 0 "" 2
ARM GAS  C:\Users\ali\AppData\Local\Temp\ccPL16ze.s 			page 106


 5986              		.thumb
 5987              		.syntax unified
 5988 005e 04B0     		add	sp, sp, #16
 5989              		@ sp needed
 5990 0060 BDE8F081 		pop	{r4, r5, r6, r7, r8, pc}
 5991              	.L1318:
 5992 0064 022A     		cmp	r2, #2
 5993 0066 3BD0     		beq	.L1320
 5994              	.L1299:
 5995 0068 D4F81C34 		ldr	r3, [r4, #1052]
 5996 006c 3D49     		ldr	r1, .L1322+4
 5997 006e 5B07     		lsls	r3, r3, #29
 5998 0070 E4D4     		bmi	.L1298
 5999 0072 3E4A     		ldr	r2, .L1322+12
 6000 0074 D1F80C34 		ldr	r3, [r1, #1036]
 6001 0078 1768     		ldr	r7, [r2]
 6002 007a 0220     		movs	r0, #2
 6003 007c FB1A     		subs	r3, r7, r3
 6004 007e 7F2B     		cmp	r3, #127
 6005 0080 05F10102 		add	r2, r5, #1
 6006 0084 81F83304 		strb	r0, [r1, #1075]
 6007 0088 06D9     		bls	.L1306
 6008              	.L1307:
 6009 008a 63F07F01 		orn	r1, r3, #127
 6010 008e DB09     		lsrs	r3, r3, #7
 6011 0090 7F2B     		cmp	r3, #127
 6012 0092 02F8011B 		strb	r1, [r2], #1
 6013 0096 F8D8     		bhi	.L1307
 6014              	.L1306:
 6015 0098 324D     		ldr	r5, .L1322+4
 6016 009a 02F8013B 		strb	r3, [r2], #1
 6017 009e 05F23341 		addw	r1, r5, #1075
 6018 00a2 521A     		subs	r2, r2, r1
 6019 00a4 94F80104 		ldrb	r0, [r4, #1025]	@ zero_extendqisi2
 6020 00a8 FFF7FEFF 		bl	SEGGER_RTT_ASM_WriteSkipNoLock
 6021 00ac 70B1     		cbz	r0, .L1308
 6022 00ae C5F80C74 		str	r7, [r5, #1036]
 6023 00b2 C3E7     		b	.L1298
 6024              	.L1319:
 6025 00b4 0123     		movs	r3, #1
 6026 00b6 84F80234 		strb	r3, [r4, #1026]
 6027 00ba FFF7FEFF 		bl	_HandleIncomingPacket
 6028 00be 84F80254 		strb	r5, [r4, #1026]
 6029              		.syntax unified
 6030              	@ 1979 "..\SEGGER\SEGGER_SYSVIEW.c" 1
 6031 00c2 86F31188 		msr   basepri, r6  
 6032              		
 6033              	@ 0 "" 2
 6034              		.thumb
 6035              		.syntax unified
 6036 00c6 04B0     		add	sp, sp, #16
 6037              		@ sp needed
 6038 00c8 BDE8F081 		pop	{r4, r5, r6, r7, r8, pc}
 6039              	.L1308:
 6040 00cc 95F80034 		ldrb	r3, [r5, #1024]	@ zero_extendqisi2
 6041 00d0 0133     		adds	r3, r3, #1
 6042 00d2 85F80034 		strb	r3, [r5, #1024]
ARM GAS  C:\Users\ali\AppData\Local\Temp\ccPL16ze.s 			page 107


 6043 00d6 B1E7     		b	.L1298
 6044              	.L1310:
 6045 00d8 254D     		ldr	r5, .L1322+16
 6046 00da A5F23444 		subw	r4, r5, #1076
 6047 00de A6E7     		b	.L1293
 6048              	.L1320:
 6049 00e0 D3F81424 		ldr	r2, [r3, #1044]
 6050 00e4 0123     		movs	r3, #1
 6051 00e6 7F2A     		cmp	r2, #127
 6052 00e8 8DF80430 		strb	r3, [sp, #4]
 6053 00ec 0DF10503 		add	r3, sp, #5
 6054 00f0 06D9     		bls	.L1300
 6055              	.L1301:
 6056 00f2 62F07F01 		orn	r1, r2, #127
 6057 00f6 D209     		lsrs	r2, r2, #7
 6058 00f8 7F2A     		cmp	r2, #127
 6059 00fa 03F8011B 		strb	r1, [r3], #1
 6060 00fe F8D8     		bhi	.L1301
 6061              	.L1300:
 6062 0100 1A49     		ldr	r1, .L1322+12
 6063 0102 1A70     		strb	r2, [r3]
 6064 0104 0F68     		ldr	r7, [r1]
 6065 0106 D4F80C24 		ldr	r2, [r4, #1036]
 6066 010a 0133     		adds	r3, r3, #1
 6067 010c BA1A     		subs	r2, r7, r2
 6068 010e 7F2A     		cmp	r2, #127
 6069 0110 06D9     		bls	.L1302
 6070              	.L1303:
 6071 0112 62F07F01 		orn	r1, r2, #127
 6072 0116 D209     		lsrs	r2, r2, #7
 6073 0118 7F2A     		cmp	r2, #127
 6074 011a 03F8011B 		strb	r1, [r3], #1
 6075 011e F8D8     		bhi	.L1303
 6076              	.L1302:
 6077 0120 01A9     		add	r1, sp, #4
 6078 0122 03F8012B 		strb	r2, [r3], #1
 6079 0126 5A1A     		subs	r2, r3, r1
 6080 0128 94F80104 		ldrb	r0, [r4, #1025]	@ zero_extendqisi2
 6081 012c DFF83480 		ldr	r8, .L1322+4
 6082 0130 FFF7FEFF 		bl	SEGGER_RTT_ASM_WriteSkipNoLock
 6083 0134 50B9     		cbnz	r0, .L1321
 6084 0136 D8F81424 		ldr	r2, [r8, #1044]
 6085 013a 98F80034 		ldrb	r3, [r8, #1024]	@ zero_extendqisi2
 6086 013e 0132     		adds	r2, r2, #1
 6087 0140 C8F81424 		str	r2, [r8, #1044]
 6088              	.L1305:
 6089 0144 012B     		cmp	r3, #1
 6090 0146 7FF479AF 		bne	.L1298
 6091 014a 8DE7     		b	.L1299
 6092              	.L1321:
 6093 014c 98F80034 		ldrb	r3, [r8, #1024]	@ zero_extendqisi2
 6094 0150 C8F80C74 		str	r7, [r8, #1036]
 6095 0154 013B     		subs	r3, r3, #1
 6096 0156 DBB2     		uxtb	r3, r3
 6097 0158 88F80034 		strb	r3, [r8, #1024]
 6098 015c F2E7     		b	.L1305
 6099              	.L1323:
ARM GAS  C:\Users\ali\AppData\Local\Temp\ccPL16ze.s 			page 108


 6100 015e 00BF     		.align	2
 6101              	.L1322:
 6102 0160 04ED00E0 		.word	-536810236
 6103 0164 00000000 		.word	.LANCHOR0
 6104 0168 00000000 		.word	_SEGGER_RTT
 6105 016c 041000E0 		.word	-536866812
 6106 0170 34040000 		.word	.LANCHOR0+1076
 6107              		.size	SEGGER_SYSVIEW_RecordEnterISR, .-SEGGER_SYSVIEW_RecordEnterISR
 6108              		.section	.text.SEGGER_SYSVIEW_RecordEnterTimer,"ax",%progbits
 6109              		.align	2
 6110              		.global	SEGGER_SYSVIEW_RecordEnterTimer
 6111              		.thumb
 6112              		.thumb_func
 6113              		.type	SEGGER_SYSVIEW_RecordEnterTimer, %function
 6114              	SEGGER_SYSVIEW_RecordEnterTimer:
 6115              		@ args = 0, pretend = 0, frame = 16
 6116              		@ frame_needed = 0, uses_anonymous_args = 0
 6117 0000 2DE9F041 		push	{r4, r5, r6, r7, r8, lr}
 6118 0004 84B0     		sub	sp, sp, #16
 6119              		.syntax unified
 6120              	@ 2039 "..\SEGGER\SEGGER_SYSVIEW.c" 1
 6121 0006 EFF31186 		mrs   r6, basepri  
 6122 000a 4FF02001 		mov   r1, #32       
 6123 000e 81F31188 		msr   basepri, r1  
 6124              		
 6125              	@ 0 "" 2
 6126              		.thumb
 6127              		.syntax unified
 6128 0012 514D     		ldr	r5, .L1356
 6129 0014 D5F81034 		ldr	r3, [r5, #1040]
 6130 0018 05F23444 		addw	r4, r5, #1076
 6131 001c C01A     		subs	r0, r0, r3
 6132 001e 7F28     		cmp	r0, #127
 6133 0020 06D9     		bls	.L1325
 6134              	.L1326:
 6135 0022 60F07F03 		orn	r3, r0, #127
 6136 0026 C009     		lsrs	r0, r0, #7
 6137 0028 7F28     		cmp	r0, #127
 6138 002a 04F8013B 		strb	r3, [r4], #1
 6139 002e F8D8     		bhi	.L1326
 6140              	.L1325:
 6141 0030 95F80034 		ldrb	r3, [r5, #1024]	@ zero_extendqisi2
 6142 0034 2070     		strb	r0, [r4]
 6143 0036 012B     		cmp	r3, #1
 6144 0038 474A     		ldr	r2, .L1356
 6145 003a 16D0     		beq	.L1332
 6146 003c 9BB9     		cbnz	r3, .L1352
 6147              	.L1331:
 6148 003e 95F81834 		ldrb	r3, [r5, #1048]	@ zero_extendqisi2
 6149 0042 464A     		ldr	r2, .L1356+4
 6150 0044 03EB4303 		add	r3, r3, r3, lsl #1
 6151 0048 02EBC303 		add	r3, r2, r3, lsl #3
 6152 004c DA6E     		ldr	r2, [r3, #108]
 6153 004e 1B6F     		ldr	r3, [r3, #112]
 6154 0050 414C     		ldr	r4, .L1356
 6155 0052 9A42     		cmp	r2, r3
 6156 0054 02D0     		beq	.L1342
ARM GAS  C:\Users\ali\AppData\Local\Temp\ccPL16ze.s 			page 109


 6157 0056 94F80254 		ldrb	r5, [r4, #1026]	@ zero_extendqisi2
 6158 005a 65B3     		cbz	r5, .L1353
 6159              	.L1342:
 6160              		.syntax unified
 6161              	@ 2044 "..\SEGGER\SEGGER_SYSVIEW.c" 1
 6162 005c 86F31188 		msr   basepri, r6  
 6163              		
 6164              	@ 0 "" 2
 6165              		.thumb
 6166              		.syntax unified
 6167 0060 04B0     		add	sp, sp, #16
 6168              		@ sp needed
 6169 0062 BDE8F081 		pop	{r4, r5, r6, r7, r8, pc}
 6170              	.L1352:
 6171 0066 022B     		cmp	r3, #2
 6172 0068 37D0     		beq	.L1354
 6173              	.L1332:
 6174 006a D5F81C34 		ldr	r3, [r5, #1052]
 6175 006e 3A49     		ldr	r1, .L1356
 6176 0070 1B03     		lsls	r3, r3, #12
 6177 0072 E4D4     		bmi	.L1331
 6178 0074 3A4A     		ldr	r2, .L1356+8
 6179 0076 D1F80C34 		ldr	r3, [r1, #1036]
 6180 007a 1768     		ldr	r7, [r2]
 6181 007c 1320     		movs	r0, #19
 6182 007e FB1A     		subs	r3, r7, r3
 6183 0080 7F2B     		cmp	r3, #127
 6184 0082 04F10102 		add	r2, r4, #1
 6185 0086 81F83304 		strb	r0, [r1, #1075]
 6186 008a 06D9     		bls	.L1339
 6187              	.L1340:
 6188 008c 63F07F01 		orn	r1, r3, #127
 6189 0090 DB09     		lsrs	r3, r3, #7
 6190 0092 7F2B     		cmp	r3, #127
 6191 0094 02F8011B 		strb	r1, [r2], #1
 6192 0098 F8D8     		bhi	.L1340
 6193              	.L1339:
 6194 009a 2F4C     		ldr	r4, .L1356
 6195 009c 02F8013B 		strb	r3, [r2], #1
 6196 00a0 04F23341 		addw	r1, r4, #1075
 6197 00a4 521A     		subs	r2, r2, r1
 6198 00a6 95F80104 		ldrb	r0, [r5, #1025]	@ zero_extendqisi2
 6199 00aa FFF7FEFF 		bl	SEGGER_RTT_ASM_WriteSkipNoLock
 6200 00ae 70B1     		cbz	r0, .L1341
 6201 00b0 C4F80C74 		str	r7, [r4, #1036]
 6202 00b4 C3E7     		b	.L1331
 6203              	.L1353:
 6204 00b6 0123     		movs	r3, #1
 6205 00b8 84F80234 		strb	r3, [r4, #1026]
 6206 00bc FFF7FEFF 		bl	_HandleIncomingPacket
 6207 00c0 84F80254 		strb	r5, [r4, #1026]
 6208              		.syntax unified
 6209              	@ 2044 "..\SEGGER\SEGGER_SYSVIEW.c" 1
 6210 00c4 86F31188 		msr   basepri, r6  
 6211              		
 6212              	@ 0 "" 2
 6213              		.thumb
ARM GAS  C:\Users\ali\AppData\Local\Temp\ccPL16ze.s 			page 110


 6214              		.syntax unified
 6215 00c8 04B0     		add	sp, sp, #16
 6216              		@ sp needed
 6217 00ca BDE8F081 		pop	{r4, r5, r6, r7, r8, pc}
 6218              	.L1341:
 6219 00ce 94F80034 		ldrb	r3, [r4, #1024]	@ zero_extendqisi2
 6220 00d2 0133     		adds	r3, r3, #1
 6221 00d4 84F80034 		strb	r3, [r4, #1024]
 6222 00d8 B1E7     		b	.L1331
 6223              	.L1354:
 6224 00da D2F81424 		ldr	r2, [r2, #1044]
 6225 00de 0123     		movs	r3, #1
 6226 00e0 7F2A     		cmp	r2, #127
 6227 00e2 8DF80430 		strb	r3, [sp, #4]
 6228 00e6 0DF10503 		add	r3, sp, #5
 6229 00ea 06D9     		bls	.L1333
 6230              	.L1334:
 6231 00ec 62F07F01 		orn	r1, r2, #127
 6232 00f0 D209     		lsrs	r2, r2, #7
 6233 00f2 7F2A     		cmp	r2, #127
 6234 00f4 03F8011B 		strb	r1, [r3], #1
 6235 00f8 F8D8     		bhi	.L1334
 6236              	.L1333:
 6237 00fa 1949     		ldr	r1, .L1356+8
 6238 00fc 1A70     		strb	r2, [r3]
 6239 00fe 0F68     		ldr	r7, [r1]
 6240 0100 D5F80C24 		ldr	r2, [r5, #1036]
 6241 0104 0133     		adds	r3, r3, #1
 6242 0106 BA1A     		subs	r2, r7, r2
 6243 0108 7F2A     		cmp	r2, #127
 6244 010a 06D9     		bls	.L1335
 6245              	.L1336:
 6246 010c 62F07F01 		orn	r1, r2, #127
 6247 0110 D209     		lsrs	r2, r2, #7
 6248 0112 7F2A     		cmp	r2, #127
 6249 0114 03F8011B 		strb	r1, [r3], #1
 6250 0118 F8D8     		bhi	.L1336
 6251              	.L1335:
 6252 011a 01A9     		add	r1, sp, #4
 6253 011c 03F8012B 		strb	r2, [r3], #1
 6254 0120 5A1A     		subs	r2, r3, r1
 6255 0122 95F80104 		ldrb	r0, [r5, #1025]	@ zero_extendqisi2
 6256 0126 DFF83080 		ldr	r8, .L1356
 6257 012a FFF7FEFF 		bl	SEGGER_RTT_ASM_WriteSkipNoLock
 6258 012e 50B9     		cbnz	r0, .L1355
 6259 0130 D8F81424 		ldr	r2, [r8, #1044]
 6260 0134 98F80034 		ldrb	r3, [r8, #1024]	@ zero_extendqisi2
 6261 0138 0132     		adds	r2, r2, #1
 6262 013a C8F81424 		str	r2, [r8, #1044]
 6263              	.L1338:
 6264 013e 012B     		cmp	r3, #1
 6265 0140 7FF47DAF 		bne	.L1331
 6266 0144 91E7     		b	.L1332
 6267              	.L1355:
 6268 0146 98F80034 		ldrb	r3, [r8, #1024]	@ zero_extendqisi2
 6269 014a C8F80C74 		str	r7, [r8, #1036]
 6270 014e 013B     		subs	r3, r3, #1
ARM GAS  C:\Users\ali\AppData\Local\Temp\ccPL16ze.s 			page 111


 6271 0150 DBB2     		uxtb	r3, r3
 6272 0152 88F80034 		strb	r3, [r8, #1024]
 6273 0156 F2E7     		b	.L1338
 6274              	.L1357:
 6275              		.align	2
 6276              	.L1356:
 6277 0158 00000000 		.word	.LANCHOR0
 6278 015c 00000000 		.word	_SEGGER_RTT
 6279 0160 041000E0 		.word	-536866812
 6280              		.size	SEGGER_SYSVIEW_RecordEnterTimer, .-SEGGER_SYSVIEW_RecordEnterTimer
 6281              		.section	.text.SEGGER_SYSVIEW_OnTaskStartReady,"ax",%progbits
 6282              		.align	2
 6283              		.global	SEGGER_SYSVIEW_OnTaskStartReady
 6284              		.thumb
 6285              		.thumb_func
 6286              		.type	SEGGER_SYSVIEW_OnTaskStartReady, %function
 6287              	SEGGER_SYSVIEW_OnTaskStartReady:
 6288              		@ args = 0, pretend = 0, frame = 16
 6289              		@ frame_needed = 0, uses_anonymous_args = 0
 6290 0000 2DE9F041 		push	{r4, r5, r6, r7, r8, lr}
 6291 0004 84B0     		sub	sp, sp, #16
 6292              		.syntax unified
 6293              	@ 2222 "..\SEGGER\SEGGER_SYSVIEW.c" 1
 6294 0006 EFF31186 		mrs   r6, basepri  
 6295 000a 4FF02001 		mov   r1, #32       
 6296 000e 81F31188 		msr   basepri, r1  
 6297              		
 6298              	@ 0 "" 2
 6299              		.thumb
 6300              		.syntax unified
 6301 0012 514D     		ldr	r5, .L1390
 6302 0014 D5F81034 		ldr	r3, [r5, #1040]
 6303 0018 05F23444 		addw	r4, r5, #1076
 6304 001c C01A     		subs	r0, r0, r3
 6305 001e 7F28     		cmp	r0, #127
 6306 0020 06D9     		bls	.L1359
 6307              	.L1360:
 6308 0022 60F07F03 		orn	r3, r0, #127
 6309 0026 C009     		lsrs	r0, r0, #7
 6310 0028 7F28     		cmp	r0, #127
 6311 002a 04F8013B 		strb	r3, [r4], #1
 6312 002e F8D8     		bhi	.L1360
 6313              	.L1359:
 6314 0030 95F80034 		ldrb	r3, [r5, #1024]	@ zero_extendqisi2
 6315 0034 2070     		strb	r0, [r4]
 6316 0036 012B     		cmp	r3, #1
 6317 0038 474A     		ldr	r2, .L1390
 6318 003a 16D0     		beq	.L1366
 6319 003c 9BB9     		cbnz	r3, .L1386
 6320              	.L1365:
 6321 003e 95F81834 		ldrb	r3, [r5, #1048]	@ zero_extendqisi2
 6322 0042 464A     		ldr	r2, .L1390+4
 6323 0044 03EB4303 		add	r3, r3, r3, lsl #1
 6324 0048 02EBC303 		add	r3, r2, r3, lsl #3
 6325 004c DA6E     		ldr	r2, [r3, #108]
 6326 004e 1B6F     		ldr	r3, [r3, #112]
 6327 0050 414C     		ldr	r4, .L1390
ARM GAS  C:\Users\ali\AppData\Local\Temp\ccPL16ze.s 			page 112


 6328 0052 9A42     		cmp	r2, r3
 6329 0054 02D0     		beq	.L1376
 6330 0056 94F80254 		ldrb	r5, [r4, #1026]	@ zero_extendqisi2
 6331 005a 65B3     		cbz	r5, .L1387
 6332              	.L1376:
 6333              		.syntax unified
 6334              	@ 2228 "..\SEGGER\SEGGER_SYSVIEW.c" 1
 6335 005c 86F31188 		msr   basepri, r6  
 6336              		
 6337              	@ 0 "" 2
 6338              		.thumb
 6339              		.syntax unified
 6340 0060 04B0     		add	sp, sp, #16
 6341              		@ sp needed
 6342 0062 BDE8F081 		pop	{r4, r5, r6, r7, r8, pc}
 6343              	.L1386:
 6344 0066 022B     		cmp	r3, #2
 6345 0068 37D0     		beq	.L1388
 6346              	.L1366:
 6347 006a D5F81C34 		ldr	r3, [r5, #1052]
 6348 006e 3A49     		ldr	r1, .L1390
 6349 0070 5B06     		lsls	r3, r3, #25
 6350 0072 E4D4     		bmi	.L1365
 6351 0074 3A4A     		ldr	r2, .L1390+8
 6352 0076 D1F80C34 		ldr	r3, [r1, #1036]
 6353 007a 1768     		ldr	r7, [r2]
 6354 007c 0620     		movs	r0, #6
 6355 007e FB1A     		subs	r3, r7, r3
 6356 0080 7F2B     		cmp	r3, #127
 6357 0082 04F10102 		add	r2, r4, #1
 6358 0086 81F83304 		strb	r0, [r1, #1075]
 6359 008a 06D9     		bls	.L1373
 6360              	.L1374:
 6361 008c 63F07F01 		orn	r1, r3, #127
 6362 0090 DB09     		lsrs	r3, r3, #7
 6363 0092 7F2B     		cmp	r3, #127
 6364 0094 02F8011B 		strb	r1, [r2], #1
 6365 0098 F8D8     		bhi	.L1374
 6366              	.L1373:
 6367 009a 2F4C     		ldr	r4, .L1390
 6368 009c 02F8013B 		strb	r3, [r2], #1
 6369 00a0 04F23341 		addw	r1, r4, #1075
 6370 00a4 521A     		subs	r2, r2, r1
 6371 00a6 95F80104 		ldrb	r0, [r5, #1025]	@ zero_extendqisi2
 6372 00aa FFF7FEFF 		bl	SEGGER_RTT_ASM_WriteSkipNoLock
 6373 00ae 70B1     		cbz	r0, .L1375
 6374 00b0 C4F80C74 		str	r7, [r4, #1036]
 6375 00b4 C3E7     		b	.L1365
 6376              	.L1387:
 6377 00b6 0123     		movs	r3, #1
 6378 00b8 84F80234 		strb	r3, [r4, #1026]
 6379 00bc FFF7FEFF 		bl	_HandleIncomingPacket
 6380 00c0 84F80254 		strb	r5, [r4, #1026]
 6381              		.syntax unified
 6382              	@ 2228 "..\SEGGER\SEGGER_SYSVIEW.c" 1
 6383 00c4 86F31188 		msr   basepri, r6  
 6384              		
ARM GAS  C:\Users\ali\AppData\Local\Temp\ccPL16ze.s 			page 113


 6385              	@ 0 "" 2
 6386              		.thumb
 6387              		.syntax unified
 6388 00c8 04B0     		add	sp, sp, #16
 6389              		@ sp needed
 6390 00ca BDE8F081 		pop	{r4, r5, r6, r7, r8, pc}
 6391              	.L1375:
 6392 00ce 94F80034 		ldrb	r3, [r4, #1024]	@ zero_extendqisi2
 6393 00d2 0133     		adds	r3, r3, #1
 6394 00d4 84F80034 		strb	r3, [r4, #1024]
 6395 00d8 B1E7     		b	.L1365
 6396              	.L1388:
 6397 00da D2F81424 		ldr	r2, [r2, #1044]
 6398 00de 0123     		movs	r3, #1
 6399 00e0 7F2A     		cmp	r2, #127
 6400 00e2 8DF80430 		strb	r3, [sp, #4]
 6401 00e6 0DF10503 		add	r3, sp, #5
 6402 00ea 06D9     		bls	.L1367
 6403              	.L1368:
 6404 00ec 62F07F01 		orn	r1, r2, #127
 6405 00f0 D209     		lsrs	r2, r2, #7
 6406 00f2 7F2A     		cmp	r2, #127
 6407 00f4 03F8011B 		strb	r1, [r3], #1
 6408 00f8 F8D8     		bhi	.L1368
 6409              	.L1367:
 6410 00fa 1949     		ldr	r1, .L1390+8
 6411 00fc 1A70     		strb	r2, [r3]
 6412 00fe 0F68     		ldr	r7, [r1]
 6413 0100 D5F80C24 		ldr	r2, [r5, #1036]
 6414 0104 0133     		adds	r3, r3, #1
 6415 0106 BA1A     		subs	r2, r7, r2
 6416 0108 7F2A     		cmp	r2, #127
 6417 010a 06D9     		bls	.L1369
 6418              	.L1370:
 6419 010c 62F07F01 		orn	r1, r2, #127
 6420 0110 D209     		lsrs	r2, r2, #7
 6421 0112 7F2A     		cmp	r2, #127
 6422 0114 03F8011B 		strb	r1, [r3], #1
 6423 0118 F8D8     		bhi	.L1370
