ARM GAS  C:\Users\ali\AppData\Local\Temp\ccSfimwa.s 			page 1


   1              		.syntax unified
   2              		.cpu cortex-m3
   3              		.fpu softvfp
   4              		.eabi_attribute 20, 1
   5              		.eabi_attribute 21, 1
   6              		.eabi_attribute 23, 3
   7              		.eabi_attribute 24, 1
   8              		.eabi_attribute 25, 1
   9              		.eabi_attribute 26, 1
  10              		.eabi_attribute 30, 6
  11              		.eabi_attribute 34, 1
  12              		.eabi_attribute 18, 4
  13              		.thumb
  14              		.syntax unified
  15              		.file	"defines.c"
  16              		.text
  17              	.Ltext0:
  18              		.cfi_sections	.debug_frame
  19              		.section	.text.strremove,"ax",%progbits
  20              		.align	2
  21              		.global	strremove
  22              		.thumb
  23              		.thumb_func
  24              		.type	strremove, %function
  25              	strremove:
  26              	.LFB64:
  27              		.file 1 "defines.c"
   1:defines.c     **** /* ========================================
   2:defines.c     ****  *
   3:defines.c     ****  * Copyright YOUR COMPANY, THE YEAR
   4:defines.c     ****  * All Rights Reserved
   5:defines.c     ****  * UNPUBLISHED, LICENSED SOFTWARE.
   6:defines.c     ****  *
   7:defines.c     ****  * CONFIDENTIAL AND PROPRIETARY INFORMATION
   8:defines.c     ****  * WHICH IS THE PROPERTY OF your company.
   9:defines.c     ****  *
  10:defines.c     ****  * ========================================
  11:defines.c     **** */
  12:defines.c     **** // ###################################################### Includes ################################
  13:defines.c     **** #include "defines.h"
  14:defines.c     **** // ################################################################################################
  15:defines.c     **** 
  16:defines.c     **** // ###################################################### Functions ###############################
  17:defines.c     **** char* strremove(char *str, const char *sub)
  18:defines.c     **** {
  28              		.loc 1 18 0
  29              		.cfi_startproc
  30              		@ args = 0, pretend = 0, frame = 16
  31              		@ frame_needed = 1, uses_anonymous_args = 0
  32 0000 90B5     		push	{r4, r7, lr}
  33              		.cfi_def_cfa_offset 12
  34              		.cfi_offset 4, -12
  35              		.cfi_offset 7, -8
  36              		.cfi_offset 14, -4
  37 0002 85B0     		sub	sp, sp, #20
  38              		.cfi_def_cfa_offset 32
  39 0004 00AF     		add	r7, sp, #0
ARM GAS  C:\Users\ali\AppData\Local\Temp\ccSfimwa.s 			page 2


  40              		.cfi_def_cfa_register 7
  41 0006 7860     		str	r0, [r7, #4]
  42 0008 3960     		str	r1, [r7]
  19:defines.c     ****     size_t len = strlen(sub);
  43              		.loc 1 19 0
  44 000a 3868     		ldr	r0, [r7]
  45 000c FFF7FEFF 		bl	strlen
  46 0010 B860     		str	r0, [r7, #8]
  20:defines.c     ****     if(len > 0){
  47              		.loc 1 20 0
  48 0012 BB68     		ldr	r3, [r7, #8]
  49 0014 002B     		cmp	r3, #0
  50 0016 1AD0     		beq	.L2
  51              	.LBB2:
  21:defines.c     ****         char *p = str;
  52              		.loc 1 21 0
  53 0018 7B68     		ldr	r3, [r7, #4]
  54 001a FB60     		str	r3, [r7, #12]
  22:defines.c     ****         while((p = strstr(p, sub)) != NULL){
  55              		.loc 1 22 0
  56 001c 0FE0     		b	.L3
  57              	.L4:
  23:defines.c     ****             memmove(p, p + len, strlen(p + len) + 1);
  58              		.loc 1 23 0
  59 001e FA68     		ldr	r2, [r7, #12]
  60 0020 BB68     		ldr	r3, [r7, #8]
  61 0022 D418     		adds	r4, r2, r3
  62 0024 FA68     		ldr	r2, [r7, #12]
  63 0026 BB68     		ldr	r3, [r7, #8]
  64 0028 1344     		add	r3, r3, r2
  65 002a 1846     		mov	r0, r3
  66 002c FFF7FEFF 		bl	strlen
  67 0030 0346     		mov	r3, r0
  68 0032 0133     		adds	r3, r3, #1
  69 0034 1A46     		mov	r2, r3
  70 0036 2146     		mov	r1, r4
  71 0038 F868     		ldr	r0, [r7, #12]
  72 003a FFF7FEFF 		bl	memmove
  73              	.L3:
  22:defines.c     ****         while((p = strstr(p, sub)) != NULL){
  74              		.loc 1 22 0
  75 003e 3968     		ldr	r1, [r7]
  76 0040 F868     		ldr	r0, [r7, #12]
  77 0042 FFF7FEFF 		bl	strstr
  78 0046 F860     		str	r0, [r7, #12]
  79 0048 FB68     		ldr	r3, [r7, #12]
  80 004a 002B     		cmp	r3, #0
  81 004c E7D1     		bne	.L4
  82              	.L2:
  83              	.LBE2:
  24:defines.c     ****         }
  25:defines.c     ****     }
  26:defines.c     ****     
  27:defines.c     ****     return str;
  84              		.loc 1 27 0
  85 004e 7B68     		ldr	r3, [r7, #4]
  28:defines.c     **** }
ARM GAS  C:\Users\ali\AppData\Local\Temp\ccSfimwa.s 			page 3


  86              		.loc 1 28 0
  87 0050 1846     		mov	r0, r3
  88 0052 1437     		adds	r7, r7, #20
  89              		.cfi_def_cfa_offset 12
  90 0054 BD46     		mov	sp, r7
  91              		.cfi_def_cfa_register 13
  92              		@ sp needed
  93 0056 90BD     		pop	{r4, r7, pc}
  94              		.cfi_endproc
  95              	.LFE64:
  96              		.size	strremove, .-strremove
  97              		.text
  98              	.Letext0:
  99              		.file 2 "c:\\program files (x86)\\cypress\\psoc creator\\4.4\\psoc creator\\import\\gnu\\arm\\5.4.
 100              		.file 3 "c:\\program files (x86)\\cypress\\psoc creator\\4.4\\psoc creator\\import\\gnu\\arm\\5.4.
 101              		.file 4 "c:\\program files (x86)\\cypress\\psoc creator\\4.4\\psoc creator\\import\\gnu\\arm\\5.4.
 102              		.file 5 "Generated_Source\\PSoC5/core_cm3.h"