ARM GAS  C:\Users\ali\AppData\Local\Temp\ccr9QJbk.s 			page 1


   1              		.syntax unified
   2              		.cpu cortex-m3
   3              		.fpu softvfp
   4              		.eabi_attribute 20, 1
   5              		.eabi_attribute 21, 1
   6              		.eabi_attribute 23, 3
   7              		.eabi_attribute 24, 1
   8              		.eabi_attribute 25, 1
   9              		.eabi_attribute 26, 1
  10              		.eabi_attribute 30, 6
  11              		.eabi_attribute 34, 1
  12              		.eabi_attribute 18, 4
  13              		.thumb
  14              		.syntax unified
  15              		.file	"OS_Main.c"
  16              		.text
  17              	.Ltext0:
  18              		.cfi_sections	.debug_frame
  19              		.comm	Timer_Read_Linux,20,4
  20              		.comm	Timer_RGB_LED,20,4
  21              		.comm	Timer_Read_W_Port1,20,4
  22              		.comm	Timer_Read_W_Port2,20,4
  23              		.comm	Timer_AfterRead_In1,20,4
  24              		.comm	Timer_AfterRead_Port1,20,4
  25              		.comm	Timer_AfterRead_In2,20,4
  26              		.comm	Timer_AfterRead_Port2,20,4
  27              		.comm	Timer_WD,20,4
  28              		.global	read_counter_port1
  29              		.bss
  30              		.align	2
  31              		.type	read_counter_port1, %object
  32              		.size	read_counter_port1, 4
  33              	read_counter_port1:
  34 0000 00000000 		.space	4
  35              		.global	read_counter_port2
  36              		.align	2
  37              		.type	read_counter_port2, %object
  38              		.size	read_counter_port2, 4
  39              	read_counter_port2:
  40 0004 00000000 		.space	4
  41              		.global	read_counter_total
  42              		.align	2
  43              		.type	read_counter_total, %object
  44              		.size	read_counter_total, 4
  45              	read_counter_total:
  46 0008 00000000 		.space	4
  47              		.global	read_failure_port1
  48              		.align	2
  49              		.type	read_failure_port1, %object
  50              		.size	read_failure_port1, 4
  51              	read_failure_port1:
  52 000c 00000000 		.space	4
  53              		.global	read_failure_port2
  54              		.align	2
  55              		.type	read_failure_port2, %object
  56              		.size	read_failure_port2, 4
  57              	read_failure_port2:
ARM GAS  C:\Users\ali\AppData\Local\Temp\ccr9QJbk.s 			page 2


  58 0010 00000000 		.space	4
  59              		.global	read_failure_total
  60              		.align	2
  61              		.type	read_failure_total, %object
  62              		.size	read_failure_total, 4
  63              	read_failure_total:
  64 0014 00000000 		.space	4
  65              		.global	linux_read_counter_port1
  66              		.align	2
  67              		.type	linux_read_counter_port1, %object
  68              		.size	linux_read_counter_port1, 4
  69              	linux_read_counter_port1:
  70 0018 00000000 		.space	4
  71              		.global	linux_read_counter_port2
  72              		.align	2
  73              		.type	linux_read_counter_port2, %object
  74              		.size	linux_read_counter_port2, 4
  75              	linux_read_counter_port2:
  76 001c 00000000 		.space	4
  77              		.global	linux_read_counter_total
  78              		.align	2
  79              		.type	linux_read_counter_total, %object
  80              		.size	linux_read_counter_total, 4
  81              	linux_read_counter_total:
  82 0020 00000000 		.space	4
  83              		.global	linux_read_failure_port1
  84              		.align	2
  85              		.type	linux_read_failure_port1, %object
  86              		.size	linux_read_failure_port1, 4
  87              	linux_read_failure_port1:
  88 0024 00000000 		.space	4
  89              		.global	linux_read_failure_port2
  90              		.align	2
  91              		.type	linux_read_failure_port2, %object
  92              		.size	linux_read_failure_port2, 4
  93              	linux_read_failure_port2:
  94 0028 00000000 		.space	4
  95              		.global	linux_read_failure_total
  96              		.align	2
  97              		.type	linux_read_failure_total, %object
  98              		.size	linux_read_failure_total, 4
  99              	linux_read_failure_total:
 100 002c 00000000 		.space	4
 101              		.global	read_input_port1
 102              		.align	2
 103              		.type	read_input_port1, %object
 104              		.size	read_input_port1, 4
 105              	read_input_port1:
 106 0030 00000000 		.space	4
 107              		.global	read_input_port2
 108              		.align	2
 109              		.type	read_input_port2, %object
 110              		.size	read_input_port2, 4
 111              	read_input_port2:
 112 0034 00000000 		.space	4
 113              		.global	read_input_total
 114              		.align	2
ARM GAS  C:\Users\ali\AppData\Local\Temp\ccr9QJbk.s 			page 3


 115              		.type	read_input_total, %object
 116              		.size	read_input_total, 4
 117              	read_input_total:
 118 0038 00000000 		.space	4
 119              		.global	linux_read_input_failure_port1
 120              		.align	2
 121              		.type	linux_read_input_failure_port1, %object
 122              		.size	linux_read_input_failure_port1, 4
 123              	linux_read_input_failure_port1:
 124 003c 00000000 		.space	4
 125              		.global	linux_read_input_failure_port2
 126              		.align	2
 127              		.type	linux_read_input_failure_port2, %object
 128              		.size	linux_read_input_failure_port2, 4
 129              	linux_read_input_failure_port2:
 130 0040 00000000 		.space	4
 131              		.global	linux_read_input_failure_total
 132              		.align	2
 133              		.type	linux_read_input_failure_total, %object
 134              		.size	linux_read_input_failure_total, 4
 135              	linux_read_input_failure_total:
 136 0044 00000000 		.space	4
 137              		.global	linux_uart_failure
 138              		.align	2
 139              		.type	linux_uart_failure, %object
 140              		.size	linux_uart_failure, 4
 141              	linux_uart_failure:
 142 0048 00000000 		.space	4
 143              		.global	Port1_Relay
 144              		.type	Port1_Relay, %object
 145              		.size	Port1_Relay, 1
 146              	Port1_Relay:
 147 004c 00       		.space	1
 148              		.global	Port1_Relay_Old
 149              		.type	Port1_Relay_Old, %object
 150              		.size	Port1_Relay_Old, 1
 151              	Port1_Relay_Old:
 152 004d 00       		.space	1
 153              		.global	Port1_Locked
 154              		.type	Port1_Locked, %object
 155              		.size	Port1_Locked, 1
 156              	Port1_Locked:
 157 004e 00       		.space	1
 158              		.global	Port1_Locked_Old
 159              		.type	Port1_Locked_Old, %object
 160              		.size	Port1_Locked_Old, 1
 161              	Port1_Locked_Old:
 162 004f 00       		.space	1
 163              		.global	Port1_w_Start
 164              		.type	Port1_w_Start, %object
 165              		.size	Port1_w_Start, 1
 166              	Port1_w_Start:
 167 0050 00       		.space	1
 168              		.global	Port1_w_have
 169              		.type	Port1_w_have, %object
 170              		.size	Port1_w_have, 1
 171              	Port1_w_have:
ARM GAS  C:\Users\ali\AppData\Local\Temp\ccr9QJbk.s 			page 4


 172 0051 00       		.space	1
 173              		.comm	Port1_W,129,4
 174              		.comm	In1,3,4
 175              		.global	Port1_W_Counter
 176              		.type	Port1_W_Counter, %object
 177              		.size	Port1_W_Counter, 1
 178              	Port1_W_Counter:
 179 0052 00       		.space	1
 180              		.global	Port1_W_bits
 181              		.data
 182              		.type	Port1_W_bits, %object
 183              		.size	Port1_W_bits, 1
 184              	Port1_W_bits:
 185 0000 1A       		.byte	26
 186              		.global	Port1_W_bits_Old
 187              		.type	Port1_W_bits_Old, %object
 188              		.size	Port1_W_bits_Old, 1
 189              	Port1_W_bits_Old:
 190 0001 1A       		.byte	26
 191              		.global	Port2_Relay
 192              		.bss
 193              		.type	Port2_Relay, %object
 194              		.size	Port2_Relay, 1
 195              	Port2_Relay:
 196 0053 00       		.space	1
 197              		.global	Port2_Relay_Old
 198              		.type	Port2_Relay_Old, %object
 199              		.size	Port2_Relay_Old, 1
 200              	Port2_Relay_Old:
 201 0054 00       		.space	1
 202              		.global	Port2_Locked
 203              		.type	Port2_Locked, %object
 204              		.size	Port2_Locked, 1
 205              	Port2_Locked:
 206 0055 00       		.space	1
 207              		.global	Port2_Locked_Old
 208              		.type	Port2_Locked_Old, %object
 209              		.size	Port2_Locked_Old, 1
 210              	Port2_Locked_Old:
 211 0056 00       		.space	1
 212              		.global	Port2_w_Start
 213              		.type	Port2_w_Start, %object
 214              		.size	Port2_w_Start, 1
 215              	Port2_w_Start:
 216 0057 00       		.space	1
 217              		.global	Port2_w_have
 218              		.type	Port2_w_have, %object
 219              		.size	Port2_w_have, 1
 220              	Port2_w_have:
 221 0058 00       		.space	1
 222              		.comm	Port2_W,129,4
 223              		.comm	In2,3,4
 224              		.global	Port2_W_Counter
 225              		.type	Port2_W_Counter, %object
 226              		.size	Port2_W_Counter, 1
 227              	Port2_W_Counter:
 228 0059 00       		.space	1
ARM GAS  C:\Users\ali\AppData\Local\Temp\ccr9QJbk.s 			page 5


 229              		.global	Port2_W_bits
 230              		.data
 231              		.type	Port2_W_bits, %object
 232              		.size	Port2_W_bits, 1
 233              	Port2_W_bits:
 234 0002 1A       		.byte	26
 235              		.global	Port2_W_bits_Old
 236              		.type	Port2_W_bits_Old, %object
 237              		.size	Port2_W_bits_Old, 1
 238              	Port2_W_bits_Old:
 239 0003 1A       		.byte	26
 240              		.global	UART_Linux_StartBit
 241              		.bss
 242              		.type	UART_Linux_StartBit, %object
 243              		.size	UART_Linux_StartBit, 1
 244              	UART_Linux_StartBit:
 245 005a 00       		.space	1
 246              		.comm	UART_Linux_Rx_Buffer,1024,4
 247              		.global	UART_Linux_Rx_Counter
 248 005b 00       		.align	2
 249              		.type	UART_Linux_Rx_Counter, %object
 250              		.size	UART_Linux_Rx_Counter, 4
 251              	UART_Linux_Rx_Counter:
 252 005c 00000000 		.space	4
 253              		.global	RGB_Color
 254              		.type	RGB_Color, %object
 255              		.size	RGB_Color, 1
 256              	RGB_Color:
 257 0060 00       		.space	1
 258              		.global	RGB_Color_Old
 259              		.type	RGB_Color_Old, %object
 260              		.size	RGB_Color_Old, 1
 261              	RGB_Color_Old:
 262 0061 00       		.space	1
 263              		.section	.rodata
 264              		.align	2
 265              	.LC0:
 266 0000 72656164 		.ascii	"read_input_port1 = %lu, read_input_port2 = %lu, rea"
 266      5F696E70 
 266      75745F70 
 266      6F727431 
 266      203D2025 
 267 0033 645F696E 		.ascii	"d_input_total = %lu\015\012\000"
 267      7075745F 
 267      746F7461 
 267      6C203D20 
 267      256C750D 
 268 0049 000000   		.align	2
 269              	.LC1:
 270 004c 0D0A2D2D 		.ascii	"\015\012----------------------------\015\012\000"
 270      2D2D2D2D 
 270      2D2D2D2D 
 270      2D2D2D2D 
 270      2D2D2D2D 
 271 006d 000000   		.align	2
 272              	.LC2:
 273 0070 52656164 		.ascii	"Read Input from Port 1: \000"
ARM GAS  C:\Users\ali\AppData\Local\Temp\ccr9QJbk.s 			page 6


 273      20496E70 
 273      75742066 
 273      726F6D20 
 273      506F7274 
 274 0089 000000   		.align	2
 275              	.LC3:
 276 008c 0D0A00   		.ascii	"\015\012\000"
 277 008f 00       		.align	2
 278              	.LC4:
 279 0090 72656164 		.ascii	"read_counter_port1 = %lu, read_counter_port2 = %lu,"
 279      5F636F75 
 279      6E746572 
 279      5F706F72 
 279      7431203D 
 280 00c3 20726561 		.ascii	" read_counter_total = %lu\015\012\000"
 280      645F636F 
 280      756E7465 
 280      725F746F 
 280      74616C20 
 281 00df 00       		.align	2
 282              	.LC5:
 283 00e0 52656164 		.ascii	"Read W Port 1: \000"
 283      20572050 
 283      6F727420 
 283      313A2000 
 284              		.section	.text.Port1_Job,"ax",%progbits
 285              		.align	2
 286              		.global	Port1_Job
 287              		.thumb
 288              		.thumb_func
 289              		.type	Port1_Job, %function
 290              	Port1_Job:
 291              	.LFB64:
 292              		.file 1 "..\\Application\\OS_Main.c"
   1:..\Application/OS_Main.c **** /*********************************************************************
   2:..\Application/OS_Main.c **** *                     SEGGER Microcontroller GmbH                    *
   3:..\Application/OS_Main.c **** *                        The Embedded Experts                        *
   4:..\Application/OS_Main.c **** **********************************************************************
   5:..\Application/OS_Main.c **** *                                                                    *
   6:..\Application/OS_Main.c **** *       (c) 1995 - 2022 SEGGER Microcontroller GmbH                  *
   7:..\Application/OS_Main.c **** *                                                                    *
   8:..\Application/OS_Main.c **** *       Internet: segger.com  Support: support_embos@segger.com      *
   9:..\Application/OS_Main.c **** *                                                                    *
  10:..\Application/OS_Main.c **** **********************************************************************
  11:..\Application/OS_Main.c **** *                                                                    *
  12:..\Application/OS_Main.c **** *       embOS * Real time operating system                           *
  13:..\Application/OS_Main.c **** *                                                                    *
  14:..\Application/OS_Main.c **** *       Please note:                                                 *
  15:..\Application/OS_Main.c **** *                                                                    *
  16:..\Application/OS_Main.c **** *       Knowledge of this file may under no circumstances            *
  17:..\Application/OS_Main.c **** *       be used to write a similar product or a real-time            *
  18:..\Application/OS_Main.c **** *       operating system for in-house use.                           *
  19:..\Application/OS_Main.c **** *                                                                    *
  20:..\Application/OS_Main.c **** *       Thank you for your fairness !                                *
  21:..\Application/OS_Main.c **** *                                                                    *
  22:..\Application/OS_Main.c **** **********************************************************************
  23:..\Application/OS_Main.c **** *                                                                    *
ARM GAS  C:\Users\ali\AppData\Local\Temp\ccr9QJbk.s 			page 7


  24:..\Application/OS_Main.c **** *       OS version: V5.16.1.0                                        *
  25:..\Application/OS_Main.c **** *                                                                    *
  26:..\Application/OS_Main.c **** **********************************************************************
  27:..\Application/OS_Main.c **** 
  28:..\Application/OS_Main.c **** -------------------------- END-OF-HEADER -----------------------------
  29:..\Application/OS_Main.c **** File    : OS_StartLEDBlink.c
  30:..\Application/OS_Main.c **** Purpose : embOS sample program running two simple tasks, each toggling
  31:..\Application/OS_Main.c ****           an LED of the target hardware (as configured in BSP.c).
  32:..\Application/OS_Main.c **** */
  33:..\Application/OS_Main.c ****         
  34:..\Application/OS_Main.c **** //Port 1 Weigand:
  35:..\Application/OS_Main.c **** //                  W0 -> In1 -> P2.1
  36:..\Application/OS_Main.c **** //                  W1 -> In2 -> P2.2
  37:..\Application/OS_Main.c **** //                  In -> In3 -> P2.3
  38:..\Application/OS_Main.c **** 
  39:..\Application/OS_Main.c **** 
  40:..\Application/OS_Main.c **** //Port 2 Weignad:
  41:..\Application/OS_Main.c **** //                  W0 -> In6 -> P6.4
  42:..\Application/OS_Main.c **** //                  W1 -> In7 -> P6.5
  43:..\Application/OS_Main.c **** //                  In -> In8 -> P6.6
  44:..\Application/OS_Main.c **** 
  45:..\Application/OS_Main.c **** // ###################################################### Includes ################################
  46:..\Application/OS_Main.c **** #include "OS_Main.h"
  47:..\Application/OS_Main.c **** // ################################################################################################
  48:..\Application/OS_Main.c **** 
  49:..\Application/OS_Main.c **** // ###################################################### Variables ###############################
  50:..\Application/OS_Main.c **** uint32 read_counter_port1 = 0;
  51:..\Application/OS_Main.c **** uint32 read_counter_port2 = 0;
  52:..\Application/OS_Main.c **** uint32 read_counter_total = 0;
  53:..\Application/OS_Main.c **** 
  54:..\Application/OS_Main.c **** uint32 read_failure_port1 = 0;
  55:..\Application/OS_Main.c **** uint32 read_failure_port2 = 0;
  56:..\Application/OS_Main.c **** uint32 read_failure_total = 0;
  57:..\Application/OS_Main.c **** 
  58:..\Application/OS_Main.c **** uint32 linux_read_counter_port1 = 0;
  59:..\Application/OS_Main.c **** uint32 linux_read_counter_port2 = 0;
  60:..\Application/OS_Main.c **** uint32 linux_read_counter_total = 0;
  61:..\Application/OS_Main.c **** 
  62:..\Application/OS_Main.c **** uint32 linux_read_failure_port1 = 0;
  63:..\Application/OS_Main.c **** uint32 linux_read_failure_port2 = 0;
  64:..\Application/OS_Main.c **** uint32 linux_read_failure_total = 0;
  65:..\Application/OS_Main.c **** 
  66:..\Application/OS_Main.c **** uint32 read_input_port1 = 0;
  67:..\Application/OS_Main.c **** uint32 read_input_port2 = 0;
  68:..\Application/OS_Main.c **** uint32 read_input_total = 0;
  69:..\Application/OS_Main.c **** 
  70:..\Application/OS_Main.c **** uint32 linux_read_input_failure_port1 = 0;
  71:..\Application/OS_Main.c **** uint32 linux_read_input_failure_port2 = 0;
  72:..\Application/OS_Main.c **** uint32 linux_read_input_failure_total = 0;
  73:..\Application/OS_Main.c **** 
  74:..\Application/OS_Main.c **** uint32 linux_uart_failure = 0;
  75:..\Application/OS_Main.c **** 
  76:..\Application/OS_Main.c **** uint8 Port1_Relay = 0;
  77:..\Application/OS_Main.c **** uint8 Port1_Relay_Old = 0;
  78:..\Application/OS_Main.c **** uint8 Port1_Locked = 0;
  79:..\Application/OS_Main.c **** uint8 Port1_Locked_Old = 0;
  80:..\Application/OS_Main.c **** uint8 Port1_w_Start = 0;
ARM GAS  C:\Users\ali\AppData\Local\Temp\ccr9QJbk.s 			page 8


  81:..\Application/OS_Main.c **** uint8 Port1_w_have = 0;
  82:..\Application/OS_Main.c **** char Port1_W[129];
  83:..\Application/OS_Main.c **** char In1[3];
  84:..\Application/OS_Main.c **** uint8 Port1_W_Counter = 0;
  85:..\Application/OS_Main.c **** uint8 Port1_W_bits = 26;
  86:..\Application/OS_Main.c **** uint8 Port1_W_bits_Old = 26;
  87:..\Application/OS_Main.c **** 
  88:..\Application/OS_Main.c **** uint8 Port2_Relay = 0;
  89:..\Application/OS_Main.c **** uint8 Port2_Relay_Old = 0;
  90:..\Application/OS_Main.c **** uint8 Port2_Locked = 0;
  91:..\Application/OS_Main.c **** uint8 Port2_Locked_Old = 0;
  92:..\Application/OS_Main.c **** uint8 Port2_w_Start = 0;
  93:..\Application/OS_Main.c **** uint8 Port2_w_have = 0;
  94:..\Application/OS_Main.c **** char Port2_W[129];
  95:..\Application/OS_Main.c **** char In2[3];
  96:..\Application/OS_Main.c **** uint8 Port2_W_Counter = 0;
  97:..\Application/OS_Main.c **** uint8 Port2_W_bits = 26;
  98:..\Application/OS_Main.c **** uint8 Port2_W_bits_Old = 26;
  99:..\Application/OS_Main.c **** 
 100:..\Application/OS_Main.c **** uint8 UART_Linux_StartBit = 0;
 101:..\Application/OS_Main.c **** char UART_Linux_Rx_Buffer[1024];
 102:..\Application/OS_Main.c **** int UART_Linux_Rx_Counter = 0;
 103:..\Application/OS_Main.c **** 
 104:..\Application/OS_Main.c **** uint8 RGB_Color = 0;
 105:..\Application/OS_Main.c **** uint8 RGB_Color_Old = 0;
 106:..\Application/OS_Main.c **** // ################################################################################################
 107:..\Application/OS_Main.c **** 
 108:..\Application/OS_Main.c **** // ###################################################### Functions ###############################
 109:..\Application/OS_Main.c **** // ################################################################################################
 110:..\Application/OS_Main.c **** //Job of Ports
 111:..\Application/OS_Main.c **** void Port1_Job(uint8 intr)
 112:..\Application/OS_Main.c **** {
 293              		.loc 1 112 0
 294              		.cfi_startproc
 295              		@ args = 0, pretend = 0, frame = 272
 296              		@ frame_needed = 1, uses_anonymous_args = 0
 297 0000 80B5     		push	{r7, lr}
 298              		.cfi_def_cfa_offset 8
 299              		.cfi_offset 7, -8
 300              		.cfi_offset 14, -4
 301 0002 C6B0     		sub	sp, sp, #280
 302              		.cfi_def_cfa_offset 288
 303 0004 02AF     		add	r7, sp, #8
 304              		.cfi_def_cfa 7, 280
 305 0006 0246     		mov	r2, r0
 306 0008 FB1D     		adds	r3, r7, #7
 307 000a 1A70     		strb	r2, [r3]
 113:..\Application/OS_Main.c ****     uint8 Port1_W0 = 0;
 308              		.loc 1 113 0
 309 000c 0023     		movs	r3, #0
 310 000e 87F80F31 		strb	r3, [r7, #271]
 114:..\Application/OS_Main.c ****     uint8 Port1_W1 = 0;
 311              		.loc 1 114 0
 312 0012 0023     		movs	r3, #0
 313 0014 87F80E31 		strb	r3, [r7, #270]
 115:..\Application/OS_Main.c ****     uint8 Port1_In = 0;
 314              		.loc 1 115 0
ARM GAS  C:\Users\ali\AppData\Local\Temp\ccr9QJbk.s 			page 9


 315 0018 0023     		movs	r3, #0
 316 001a 87F80D31 		strb	r3, [r7, #269]
 116:..\Application/OS_Main.c ****     
 117:..\Application/OS_Main.c ****     switch(intr){
 317              		.loc 1 117 0
 318 001e FB1D     		adds	r3, r7, #7
 319 0020 1B78     		ldrb	r3, [r3]	@ zero_extendqisi2
 320 0022 013B     		subs	r3, r3, #1
 321 0024 052B     		cmp	r3, #5
 322 0026 29D8     		bhi	.L19
 323 0028 01A2     		adr	r2, .L4
 324 002a 52F823F0 		ldr	pc, [r2, r3, lsl #2]
 325 002e 00BF     		.p2align 2
 326              	.L4:
 327 0030 49000000 		.word	.L3+1
 328 0034 51000000 		.word	.L5+1
 329 0038 7D000000 		.word	.L19+1
 330 003c 59000000 		.word	.L6+1
 331 0040 61000000 		.word	.L7+1
 332 0044 6F000000 		.word	.L8+1
 333              		.p2align 1
 334              	.L3:
 118:..\Application/OS_Main.c ****         case 1:{
 119:..\Application/OS_Main.c ****             //W1_0
 120:..\Application/OS_Main.c ****             Port1_W0 = 1;
 335              		.loc 1 120 0
 336 0048 0123     		movs	r3, #1
 337 004a 87F80F31 		strb	r3, [r7, #271]
 121:..\Application/OS_Main.c ****             break;
 338              		.loc 1 121 0
 339 004e 16E0     		b	.L9
 340              	.L5:
 122:..\Application/OS_Main.c ****         }
 123:..\Application/OS_Main.c ****         case 2:{ 
 124:..\Application/OS_Main.c ****             //W1_1
 125:..\Application/OS_Main.c ****             Port1_W1 = 1;
 341              		.loc 1 125 0
 342 0050 0123     		movs	r3, #1
 343 0052 87F80E31 		strb	r3, [r7, #270]
 126:..\Application/OS_Main.c ****             break;
 344              		.loc 1 126 0
 345 0056 12E0     		b	.L9
 346              	.L6:
 127:..\Application/OS_Main.c ****         }
 128:..\Application/OS_Main.c ****         case 4:{
 129:..\Application/OS_Main.c ****             //In1
 130:..\Application/OS_Main.c ****             Port1_In = 1;
 347              		.loc 1 130 0
 348 0058 0123     		movs	r3, #1
 349 005a 87F80D31 		strb	r3, [r7, #269]
 131:..\Application/OS_Main.c ****             break;
 350              		.loc 1 131 0
 351 005e 0EE0     		b	.L9
 352              	.L7:
 132:..\Application/OS_Main.c ****         }
 133:..\Application/OS_Main.c ****         case 5:{
 134:..\Application/OS_Main.c ****             //W1_0, In1
ARM GAS  C:\Users\ali\AppData\Local\Temp\ccr9QJbk.s 			page 10


 135:..\Application/OS_Main.c ****             Port1_W0 = 1;
 353              		.loc 1 135 0
 354 0060 0123     		movs	r3, #1
 355 0062 87F80F31 		strb	r3, [r7, #271]
 136:..\Application/OS_Main.c ****             Port1_In = 1;
 356              		.loc 1 136 0
 357 0066 0123     		movs	r3, #1
 358 0068 87F80D31 		strb	r3, [r7, #269]
 137:..\Application/OS_Main.c ****             break;
 359              		.loc 1 137 0
 360 006c 07E0     		b	.L9
 361              	.L8:
 138:..\Application/OS_Main.c ****         }
 139:..\Application/OS_Main.c ****         case 6:{
 140:..\Application/OS_Main.c ****             //W1_1, In1
 141:..\Application/OS_Main.c ****             Port1_W1 = 1;
 362              		.loc 1 141 0
 363 006e 0123     		movs	r3, #1
 364 0070 87F80E31 		strb	r3, [r7, #270]
 142:..\Application/OS_Main.c ****             Port1_In = 1;
 365              		.loc 1 142 0
 366 0074 0123     		movs	r3, #1
 367 0076 87F80D31 		strb	r3, [r7, #269]
 143:..\Application/OS_Main.c ****             break;
 368              		.loc 1 143 0
 369 007a 00E0     		b	.L9
 370              	.L19:
 144:..\Application/OS_Main.c ****         }
 145:..\Application/OS_Main.c ****         default:{
 146:..\Application/OS_Main.c ****             break;
 371              		.loc 1 146 0
 372 007c 00BF     		nop
 373              	.L9:
 147:..\Application/OS_Main.c ****         }
 148:..\Application/OS_Main.c ****     }
 149:..\Application/OS_Main.c ****     
 150:..\Application/OS_Main.c ****     if(Port1_In && !OS_TIMER_GetStatus(&Timer_AfterRead_In1)){   
 374              		.loc 1 150 0
 375 007e 97F80D31 		ldrb	r3, [r7, #269]	@ zero_extendqisi2
 376 0082 002B     		cmp	r3, #0
 377 0084 3FD0     		beq	.L10
 378              		.loc 1 150 0 is_stmt 0 discriminator 1
 379 0086 8848     		ldr	r0, .L21
 380 0088 FFF7FEFF 		bl	OS_TIMER_GetStatus
 381 008c 0346     		mov	r3, r0
 382 008e 002B     		cmp	r3, #0
 383 0090 39D1     		bne	.L10
 384              	.LBB2:
 151:..\Application/OS_Main.c ****         In1[0] = 'I';
 385              		.loc 1 151 0 is_stmt 1
 386 0092 864B     		ldr	r3, .L21+4
 387 0094 4922     		movs	r2, #73
 388 0096 1A70     		strb	r2, [r3]
 152:..\Application/OS_Main.c ****         In1[1] = '1';
 389              		.loc 1 152 0
 390 0098 844B     		ldr	r3, .L21+4
 391 009a 3122     		movs	r2, #49
ARM GAS  C:\Users\ali\AppData\Local\Temp\ccr9QJbk.s 			page 11


 392 009c 5A70     		strb	r2, [r3, #1]
 153:..\Application/OS_Main.c ****         In1[2] = '\0';
 393              		.loc 1 153 0
 394 009e 834B     		ldr	r3, .L21+4
 395 00a0 0022     		movs	r2, #0
 396 00a2 9A70     		strb	r2, [r3, #2]
 154:..\Application/OS_Main.c ****         
 155:..\Application/OS_Main.c ****         
 156:..\Application/OS_Main.c ****         read_input_port1++;
 397              		.loc 1 156 0
 398 00a4 824B     		ldr	r3, .L21+8
 399 00a6 1B68     		ldr	r3, [r3]
 400 00a8 0133     		adds	r3, r3, #1
 401 00aa 814A     		ldr	r2, .L21+8
 402 00ac 1360     		str	r3, [r2]
 157:..\Application/OS_Main.c ****         read_input_total = read_input_port1 + read_input_port2;
 403              		.loc 1 157 0
 404 00ae 804B     		ldr	r3, .L21+8
 405 00b0 1A68     		ldr	r2, [r3]
 406 00b2 804B     		ldr	r3, .L21+12
 407 00b4 1B68     		ldr	r3, [r3]
 408 00b6 1344     		add	r3, r3, r2
 409 00b8 7F4A     		ldr	r2, .L21+16
 410 00ba 1360     		str	r3, [r2]
 158:..\Application/OS_Main.c ****         char data[256];
 159:..\Application/OS_Main.c ****         sprintf(data, "read_input_port1 = %lu, read_input_port2 = %lu, read_input_total = %lu\r\n",
 411              		.loc 1 159 0
 412 00bc 7C4B     		ldr	r3, .L21+8
 413 00be 1A68     		ldr	r2, [r3]
 414 00c0 7C4B     		ldr	r3, .L21+12
 415 00c2 1968     		ldr	r1, [r3]
 416 00c4 7C4B     		ldr	r3, .L21+16
 417 00c6 1B68     		ldr	r3, [r3]
 418 00c8 07F10C00 		add	r0, r7, #12
 419 00cc 0093     		str	r3, [sp]
 420 00ce 0B46     		mov	r3, r1
 421 00d0 7A49     		ldr	r1, .L21+20
 422 00d2 FFF7FEFF 		bl	sprintf
 160:..\Application/OS_Main.c ****         
 161:..\Application/OS_Main.c ****         UART_Debug_PutString("\r\n----------------------------\r\n");
 423              		.loc 1 161 0
 424 00d6 7A48     		ldr	r0, .L21+24
 425 00d8 FFF7FEFF 		bl	UART_Debug_PutString
 162:..\Application/OS_Main.c ****         UART_Debug_PutString("Read Input from Port 1: ");
 426              		.loc 1 162 0
 427 00dc 7948     		ldr	r0, .L21+28
 428 00de FFF7FEFF 		bl	UART_Debug_PutString
 163:..\Application/OS_Main.c ****         CyWdtClear(); 
 429              		.loc 1 163 0
 430 00e2 FFF7FEFF 		bl	CyWdtClear
 164:..\Application/OS_Main.c ****         UART_Debug_PutString(In1);
 431              		.loc 1 164 0
 432 00e6 7148     		ldr	r0, .L21+4
 433 00e8 FFF7FEFF 		bl	UART_Debug_PutString
 165:..\Application/OS_Main.c ****         UART_Debug_PutString("\r\n");
 434              		.loc 1 165 0
 435 00ec 7648     		ldr	r0, .L21+32
ARM GAS  C:\Users\ali\AppData\Local\Temp\ccr9QJbk.s 			page 12


 436 00ee FFF7FEFF 		bl	UART_Debug_PutString
 166:..\Application/OS_Main.c ****         UART_Debug_PutString(data);
 437              		.loc 1 166 0
 438 00f2 07F10C03 		add	r3, r7, #12
 439 00f6 1846     		mov	r0, r3
 440 00f8 FFF7FEFF 		bl	UART_Debug_PutString
 167:..\Application/OS_Main.c ****         CyWdtClear(); 
 441              		.loc 1 167 0
 442 00fc FFF7FEFF 		bl	CyWdtClear
 168:..\Application/OS_Main.c ****         
 169:..\Application/OS_Main.c ****         OS_TIMER_Restart(&Timer_AfterRead_In1);
 443              		.loc 1 169 0
 444 0100 6948     		ldr	r0, .L21
 445 0102 FFF7FEFF 		bl	OS_TIMER_Restart
 446              	.L10:
 447              	.LBE2:
 170:..\Application/OS_Main.c ****     }
 171:..\Application/OS_Main.c ****     
 172:..\Application/OS_Main.c **** //    char sssss[100];
 173:..\Application/OS_Main.c **** //    sprintf(sssss, "OS_TIMER_GetStatus(&Timer_AfterRead_Port1) = %d\r\n", OS_TIMER_GetStatus(&Tim
 174:..\Application/OS_Main.c **** //    UART_Debug_PutString(sssss);
 175:..\Application/OS_Main.c ****     
 176:..\Application/OS_Main.c ****     if(!Port1_w_have){
 448              		.loc 1 176 0
 449 0106 714B     		ldr	r3, .L21+36
 450 0108 1B78     		ldrb	r3, [r3]	@ zero_extendqisi2
 451 010a 002B     		cmp	r3, #0
 452 010c 40F0C780 		bne	.L20
 177:..\Application/OS_Main.c ****         if((Port1_W0 || Port1_W1) && !Port1_Locked && !OS_TIMER_GetStatus(&Timer_AfterRead_Port1)){
 453              		.loc 1 177 0
 454 0110 97F80F31 		ldrb	r3, [r7, #271]	@ zero_extendqisi2
 455 0114 002B     		cmp	r3, #0
 456 0116 04D1     		bne	.L12
 457              		.loc 1 177 0 is_stmt 0 discriminator 2
 458 0118 97F80E31 		ldrb	r3, [r7, #270]	@ zero_extendqisi2
 459 011c 002B     		cmp	r3, #0
 460 011e 00F0BE80 		beq	.L20
 461              	.L12:
 462              		.loc 1 177 0 discriminator 3
 463 0122 6B4B     		ldr	r3, .L21+40
 464 0124 1B78     		ldrb	r3, [r3]	@ zero_extendqisi2
 465 0126 002B     		cmp	r3, #0
 466 0128 40F0B980 		bne	.L20
 467              		.loc 1 177 0 discriminator 4
 468 012c 6948     		ldr	r0, .L21+44
 469 012e FFF7FEFF 		bl	OS_TIMER_GetStatus
 470 0132 0346     		mov	r3, r0
 471 0134 002B     		cmp	r3, #0
 472 0136 40F0B280 		bne	.L20
 178:..\Application/OS_Main.c ****             if(Port1_w_Start){
 473              		.loc 1 178 0 is_stmt 1
 474 013a 674B     		ldr	r3, .L21+48
 475 013c 1B78     		ldrb	r3, [r3]	@ zero_extendqisi2
 476 013e 002B     		cmp	r3, #0
 477 0140 77D0     		beq	.L13
 179:..\Application/OS_Main.c ****                 OS_TIMER_Restart(&Timer_Read_W_Port1);
 478              		.loc 1 179 0
ARM GAS  C:\Users\ali\AppData\Local\Temp\ccr9QJbk.s 			page 13


 479 0142 6648     		ldr	r0, .L21+52
 480 0144 FFF7FEFF 		bl	OS_TIMER_Restart
 180:..\Application/OS_Main.c ****                 if(Port1_W0){
 481              		.loc 1 180 0
 482 0148 97F80F31 		ldrb	r3, [r7, #271]	@ zero_extendqisi2
 483 014c 002B     		cmp	r3, #0
 484 014e 0BD0     		beq	.L14
 181:..\Application/OS_Main.c ****                     Port1_W[Port1_W_Counter] = '0';
 485              		.loc 1 181 0
 486 0150 634B     		ldr	r3, .L21+56
 487 0152 1B78     		ldrb	r3, [r3]	@ zero_extendqisi2
 488 0154 1A46     		mov	r2, r3
 489 0156 634B     		ldr	r3, .L21+60
 490 0158 3021     		movs	r1, #48
 491 015a 9954     		strb	r1, [r3, r2]
 182:..\Application/OS_Main.c ****                     Port1_W_Counter = Port1_W_Counter + 1;
 492              		.loc 1 182 0
 493 015c 604B     		ldr	r3, .L21+56
 494 015e 1B78     		ldrb	r3, [r3]	@ zero_extendqisi2
 495 0160 0133     		adds	r3, r3, #1
 496 0162 DAB2     		uxtb	r2, r3
 497 0164 5E4B     		ldr	r3, .L21+56
 498 0166 1A70     		strb	r2, [r3]
 499              	.L14:
 183:..\Application/OS_Main.c ****                 }
 184:..\Application/OS_Main.c ****                 
 185:..\Application/OS_Main.c ****                 if(Port1_W1){
 500              		.loc 1 185 0
 501 0168 97F80E31 		ldrb	r3, [r7, #270]	@ zero_extendqisi2
 502 016c 002B     		cmp	r3, #0
 503 016e 0BD0     		beq	.L15
 186:..\Application/OS_Main.c ****                     Port1_W[Port1_W_Counter] = '1';
 504              		.loc 1 186 0
 505 0170 5B4B     		ldr	r3, .L21+56
 506 0172 1B78     		ldrb	r3, [r3]	@ zero_extendqisi2
 507 0174 1A46     		mov	r2, r3
 508 0176 5B4B     		ldr	r3, .L21+60
 509 0178 3121     		movs	r1, #49
 510 017a 9954     		strb	r1, [r3, r2]
 187:..\Application/OS_Main.c ****                     Port1_W_Counter = Port1_W_Counter + 1;
 511              		.loc 1 187 0
 512 017c 584B     		ldr	r3, .L21+56
 513 017e 1B78     		ldrb	r3, [r3]	@ zero_extendqisi2
 514 0180 0133     		adds	r3, r3, #1
 515 0182 DAB2     		uxtb	r2, r3
 516 0184 564B     		ldr	r3, .L21+56
 517 0186 1A70     		strb	r2, [r3]
 518              	.L15:
 188:..\Application/OS_Main.c ****                 }
 189:..\Application/OS_Main.c ****                 
 190:..\Application/OS_Main.c ****                 if(Port1_W_Counter >= (Port1_W_bits + 3)){
 519              		.loc 1 190 0
 520 0188 554B     		ldr	r3, .L21+56
 521 018a 1B78     		ldrb	r3, [r3]	@ zero_extendqisi2
 522 018c 1A46     		mov	r2, r3
 523 018e 564B     		ldr	r3, .L21+64
 524 0190 1B78     		ldrb	r3, [r3]	@ zero_extendqisi2
ARM GAS  C:\Users\ali\AppData\Local\Temp\ccr9QJbk.s 			page 14


 525 0192 0333     		adds	r3, r3, #3
 526 0194 9A42     		cmp	r2, r3
 527 0196 C0F28280 		blt	.L20
 528              	.LBB3:
 191:..\Application/OS_Main.c ****                     Port1_W[Port1_W_Counter] = '\0';
 529              		.loc 1 191 0
 530 019a 514B     		ldr	r3, .L21+56
 531 019c 1B78     		ldrb	r3, [r3]	@ zero_extendqisi2
 532 019e 1A46     		mov	r2, r3
 533 01a0 504B     		ldr	r3, .L21+60
 534 01a2 0021     		movs	r1, #0
 535 01a4 9954     		strb	r1, [r3, r2]
 192:..\Application/OS_Main.c ****                     Port1_W_Counter = Port1_W_Counter + 1;
 536              		.loc 1 192 0
 537 01a6 4E4B     		ldr	r3, .L21+56
 538 01a8 1B78     		ldrb	r3, [r3]	@ zero_extendqisi2
 539 01aa 0133     		adds	r3, r3, #1
 540 01ac DAB2     		uxtb	r2, r3
 541 01ae 4C4B     		ldr	r3, .L21+56
 542 01b0 1A70     		strb	r2, [r3]
 193:..\Application/OS_Main.c ****                     
 194:..\Application/OS_Main.c ****                     read_counter_port1++;
 543              		.loc 1 194 0
 544 01b2 4E4B     		ldr	r3, .L21+68
 545 01b4 1B68     		ldr	r3, [r3]
 546 01b6 0133     		adds	r3, r3, #1
 547 01b8 4C4A     		ldr	r2, .L21+68
 548 01ba 1360     		str	r3, [r2]
 195:..\Application/OS_Main.c ****                     read_counter_total = read_counter_port1 + read_counter_port2;
 549              		.loc 1 195 0
 550 01bc 4B4B     		ldr	r3, .L21+68
 551 01be 1A68     		ldr	r2, [r3]
 552 01c0 4B4B     		ldr	r3, .L21+72
 553 01c2 1B68     		ldr	r3, [r3]
 554 01c4 1344     		add	r3, r3, r2
 555 01c6 4B4A     		ldr	r2, .L21+76
 556 01c8 1360     		str	r3, [r2]
 196:..\Application/OS_Main.c ****                     char data[256];
 197:..\Application/OS_Main.c ****                     sprintf(data, "read_counter_port1 = %lu, read_counter_port2 = %lu, read_counter
 557              		.loc 1 197 0
 558 01ca 484B     		ldr	r3, .L21+68
 559 01cc 1A68     		ldr	r2, [r3]
 560 01ce 484B     		ldr	r3, .L21+72
 561 01d0 1968     		ldr	r1, [r3]
 562 01d2 484B     		ldr	r3, .L21+76
 563 01d4 1B68     		ldr	r3, [r3]
 564 01d6 07F10C00 		add	r0, r7, #12
 565 01da 0093     		str	r3, [sp]
 566 01dc 0B46     		mov	r3, r1
 567 01de 4649     		ldr	r1, .L21+80
 568 01e0 FFF7FEFF 		bl	sprintf
 198:..\Application/OS_Main.c ****                     
 199:..\Application/OS_Main.c ****                     UART_Debug_PutString("\r\n----------------------------\r\n");
 569              		.loc 1 199 0
 570 01e4 3648     		ldr	r0, .L21+24
 571 01e6 FFF7FEFF 		bl	UART_Debug_PutString
 200:..\Application/OS_Main.c ****                     UART_Debug_PutString("Read W Port 1: ");
ARM GAS  C:\Users\ali\AppData\Local\Temp\ccr9QJbk.s 			page 15


 572              		.loc 1 200 0
 573 01ea 4448     		ldr	r0, .L21+84
 574 01ec FFF7FEFF 		bl	UART_Debug_PutString
 201:..\Application/OS_Main.c ****                     CyWdtClear(); 
 575              		.loc 1 201 0
 576 01f0 FFF7FEFF 		bl	CyWdtClear
 202:..\Application/OS_Main.c ****                     UART_Debug_PutString(Port1_W);
 577              		.loc 1 202 0
 578 01f4 3B48     		ldr	r0, .L21+60
 579 01f6 FFF7FEFF 		bl	UART_Debug_PutString
 203:..\Application/OS_Main.c ****                     CyWdtClear(); 
 580              		.loc 1 203 0
 581 01fa FFF7FEFF 		bl	CyWdtClear
 204:..\Application/OS_Main.c ****                     UART_Debug_PutString("\r\n");
 582              		.loc 1 204 0
 583 01fe 3248     		ldr	r0, .L21+32
 584 0200 FFF7FEFF 		bl	UART_Debug_PutString
 205:..\Application/OS_Main.c ****                     
 206:..\Application/OS_Main.c ****                     UART_Debug_PutString(data);
 585              		.loc 1 206 0
 586 0204 07F10C03 		add	r3, r7, #12
 587 0208 1846     		mov	r0, r3
 588 020a FFF7FEFF 		bl	UART_Debug_PutString
 207:..\Application/OS_Main.c ****                     CyWdtClear(); 
 589              		.loc 1 207 0
 590 020e FFF7FEFF 		bl	CyWdtClear
 208:..\Application/OS_Main.c ****                     
 209:..\Application/OS_Main.c ****                     OS_TIMER_Stop(&Timer_Read_W_Port1);
 591              		.loc 1 209 0
 592 0212 3248     		ldr	r0, .L21+52
 593 0214 FFF7FEFF 		bl	OS_TIMER_Stop
 210:..\Application/OS_Main.c ****                     Port1_W_Counter = 0;
 594              		.loc 1 210 0
 595 0218 314B     		ldr	r3, .L21+56
 596 021a 0022     		movs	r2, #0
 597 021c 1A70     		strb	r2, [r3]
 211:..\Application/OS_Main.c ****                     Port1_w_Start = 0;
 598              		.loc 1 211 0
 599 021e 2E4B     		ldr	r3, .L21+48
 600 0220 0022     		movs	r2, #0
 601 0222 1A70     		strb	r2, [r3]
 212:..\Application/OS_Main.c ****                     Port1_w_have = 1;
 602              		.loc 1 212 0
 603 0224 294B     		ldr	r3, .L21+36
 604 0226 0122     		movs	r2, #1
 605 0228 1A70     		strb	r2, [r3]
 213:..\Application/OS_Main.c ****                     
 214:..\Application/OS_Main.c ****                     OS_TIMER_Restart(&Timer_AfterRead_Port1); 
 606              		.loc 1 214 0
 607 022a 2A48     		ldr	r0, .L21+44
 608 022c FFF7FEFF 		bl	OS_TIMER_Restart
 609              	.LBE3:
 215:..\Application/OS_Main.c ****                 }
 216:..\Application/OS_Main.c ****                     
 217:..\Application/OS_Main.c ****             }
 218:..\Application/OS_Main.c ****             else{
 219:..\Application/OS_Main.c ****                 Port1_w_Start = 1;
ARM GAS  C:\Users\ali\AppData\Local\Temp\ccr9QJbk.s 			page 16


 220:..\Application/OS_Main.c ****                 OS_TIMER_Restart(&Timer_Read_W_Port1);
 221:..\Application/OS_Main.c ****                 
 222:..\Application/OS_Main.c ****                 Port1_W_Counter = 0;
 223:..\Application/OS_Main.c ****                 Port1_W[0] = 'P';
 224:..\Application/OS_Main.c ****                 Port1_W[1] = '1';
 225:..\Application/OS_Main.c ****                 Port1_W[2] = 'W';
 226:..\Application/OS_Main.c ****                 Port1_W_Counter = 3;
 227:..\Application/OS_Main.c ****                 
 228:..\Application/OS_Main.c ****                 if(Port1_W0){
 229:..\Application/OS_Main.c ****                     Port1_W[Port1_W_Counter] = '0';
 230:..\Application/OS_Main.c ****                     Port1_W_Counter = Port1_W_Counter + 1;
 231:..\Application/OS_Main.c ****                 }
 232:..\Application/OS_Main.c ****                 
 233:..\Application/OS_Main.c ****                 if(Port1_W1){
 234:..\Application/OS_Main.c ****                     Port1_W[Port1_W_Counter] = '1';
 235:..\Application/OS_Main.c ****                     Port1_W_Counter = Port1_W_Counter + 1;
 236:..\Application/OS_Main.c ****                 }
 237:..\Application/OS_Main.c ****             }
 238:..\Application/OS_Main.c ****         }
 239:..\Application/OS_Main.c ****     }
 240:..\Application/OS_Main.c ****     
 241:..\Application/OS_Main.c ****     return;
 610              		.loc 1 241 0
 611 0230 35E0     		b	.L20
 612              	.L13:
 219:..\Application/OS_Main.c ****                 OS_TIMER_Restart(&Timer_Read_W_Port1);
 613              		.loc 1 219 0
 614 0232 294B     		ldr	r3, .L21+48
 615 0234 0122     		movs	r2, #1
 616 0236 1A70     		strb	r2, [r3]
 220:..\Application/OS_Main.c ****                 
 617              		.loc 1 220 0
 618 0238 2848     		ldr	r0, .L21+52
 619 023a FFF7FEFF 		bl	OS_TIMER_Restart
 222:..\Application/OS_Main.c ****                 Port1_W[0] = 'P';
 620              		.loc 1 222 0
 621 023e 284B     		ldr	r3, .L21+56
 622 0240 0022     		movs	r2, #0
 623 0242 1A70     		strb	r2, [r3]
 223:..\Application/OS_Main.c ****                 Port1_W[1] = '1';
 624              		.loc 1 223 0
 625 0244 274B     		ldr	r3, .L21+60
 626 0246 5022     		movs	r2, #80
 627 0248 1A70     		strb	r2, [r3]
 224:..\Application/OS_Main.c ****                 Port1_W[2] = 'W';
 628              		.loc 1 224 0
 629 024a 264B     		ldr	r3, .L21+60
 630 024c 3122     		movs	r2, #49
 631 024e 5A70     		strb	r2, [r3, #1]
 225:..\Application/OS_Main.c ****                 Port1_W_Counter = 3;
 632              		.loc 1 225 0
 633 0250 244B     		ldr	r3, .L21+60
 634 0252 5722     		movs	r2, #87
 635 0254 9A70     		strb	r2, [r3, #2]
 226:..\Application/OS_Main.c ****                 
 636              		.loc 1 226 0
 637 0256 224B     		ldr	r3, .L21+56
ARM GAS  C:\Users\ali\AppData\Local\Temp\ccr9QJbk.s 			page 17


 638 0258 0322     		movs	r2, #3
 639 025a 1A70     		strb	r2, [r3]
 228:..\Application/OS_Main.c ****                     Port1_W[Port1_W_Counter] = '0';
 640              		.loc 1 228 0
 641 025c 97F80F31 		ldrb	r3, [r7, #271]	@ zero_extendqisi2
 642 0260 002B     		cmp	r3, #0
 643 0262 0BD0     		beq	.L17
 229:..\Application/OS_Main.c ****                     Port1_W_Counter = Port1_W_Counter + 1;
 644              		.loc 1 229 0
 645 0264 1E4B     		ldr	r3, .L21+56
 646 0266 1B78     		ldrb	r3, [r3]	@ zero_extendqisi2
 647 0268 1A46     		mov	r2, r3
 648 026a 1E4B     		ldr	r3, .L21+60
 649 026c 3021     		movs	r1, #48
 650 026e 9954     		strb	r1, [r3, r2]
 230:..\Application/OS_Main.c ****                 }
 651              		.loc 1 230 0
 652 0270 1B4B     		ldr	r3, .L21+56
 653 0272 1B78     		ldrb	r3, [r3]	@ zero_extendqisi2
 654 0274 0133     		adds	r3, r3, #1
 655 0276 DAB2     		uxtb	r2, r3
 656 0278 194B     		ldr	r3, .L21+56
 657 027a 1A70     		strb	r2, [r3]
 658              	.L17:
 233:..\Application/OS_Main.c ****                     Port1_W[Port1_W_Counter] = '1';
 659              		.loc 1 233 0
 660 027c 97F80E31 		ldrb	r3, [r7, #270]	@ zero_extendqisi2
 661 0280 002B     		cmp	r3, #0
 662 0282 0CD0     		beq	.L20
 234:..\Application/OS_Main.c ****                     Port1_W_Counter = Port1_W_Counter + 1;
 663              		.loc 1 234 0
 664 0284 164B     		ldr	r3, .L21+56
 665 0286 1B78     		ldrb	r3, [r3]	@ zero_extendqisi2
 666 0288 1A46     		mov	r2, r3
 667 028a 164B     		ldr	r3, .L21+60
 668 028c 3121     		movs	r1, #49
 669 028e 9954     		strb	r1, [r3, r2]
 235:..\Application/OS_Main.c ****                 }
 670              		.loc 1 235 0
 671 0290 134B     		ldr	r3, .L21+56
 672 0292 1B78     		ldrb	r3, [r3]	@ zero_extendqisi2
 673 0294 0133     		adds	r3, r3, #1
 674 0296 DAB2     		uxtb	r2, r3
 675 0298 114B     		ldr	r3, .L21+56
 676 029a 1A70     		strb	r2, [r3]
 677              		.loc 1 241 0
 678 029c 00BF     		nop
 679              	.L20:
 680 029e 00BF     		nop
 242:..\Application/OS_Main.c **** }
 681              		.loc 1 242 0
 682 02a0 07F58877 		add	r7, r7, #272
 683              		.cfi_def_cfa_offset 8
 684 02a4 BD46     		mov	sp, r7
 685              		.cfi_def_cfa_register 13
 686              		@ sp needed
 687 02a6 80BD     		pop	{r7, pc}
ARM GAS  C:\Users\ali\AppData\Local\Temp\ccr9QJbk.s 			page 18


 688              	.L22:
 689              		.align	2
 690              	.L21:
 691 02a8 00000000 		.word	Timer_AfterRead_In1
 692 02ac 00000000 		.word	In1
 693 02b0 00000000 		.word	read_input_port1
 694 02b4 00000000 		.word	read_input_port2
 695 02b8 00000000 		.word	read_input_total
 696 02bc 00000000 		.word	.LC0
 697 02c0 4C000000 		.word	.LC1
 698 02c4 70000000 		.word	.LC2
 699 02c8 8C000000 		.word	.LC3
 700 02cc 00000000 		.word	Port1_w_have
 701 02d0 00000000 		.word	Port1_Locked
 702 02d4 00000000 		.word	Timer_AfterRead_Port1
 703 02d8 00000000 		.word	Port1_w_Start
 704 02dc 00000000 		.word	Timer_Read_W_Port1
 705 02e0 00000000 		.word	Port1_W_Counter
 706 02e4 00000000 		.word	Port1_W
 707 02e8 00000000 		.word	Port1_W_bits
 708 02ec 00000000 		.word	read_counter_port1
 709 02f0 00000000 		.word	read_counter_port2
 710 02f4 00000000 		.word	read_counter_total
 711 02f8 90000000 		.word	.LC4
 712 02fc E0000000 		.word	.LC5
 713              		.cfi_endproc
 714              	.LFE64:
 715              		.size	Port1_Job, .-Port1_Job
 716              		.section	.rodata
 717              		.align	2
 718              	.LC6:
 719 00f0 52656164 		.ascii	"Read Input from Port 2: \000"
 719      20496E70 
 719      75742066 
 719      726F6D20 
 719      506F7274 
 720 0109 000000   		.align	2
 721              	.LC7:
 722 010c 52656164 		.ascii	"Read W Port 2: \000"
 722      20572050 
 722      6F727420 
 722      323A2000 
 723              		.section	.text.Port2_Job,"ax",%progbits
 724              		.align	2
 725              		.global	Port2_Job
 726              		.thumb
 727              		.thumb_func
 728              		.type	Port2_Job, %function
 729              	Port2_Job:
 730              	.LFB65:
 243:..\Application/OS_Main.c **** 
 244:..\Application/OS_Main.c **** void Port2_Job(uint8 intr)
 245:..\Application/OS_Main.c **** {
 731              		.loc 1 245 0
 732              		.cfi_startproc
 733              		@ args = 0, pretend = 0, frame = 272
 734              		@ frame_needed = 1, uses_anonymous_args = 0
ARM GAS  C:\Users\ali\AppData\Local\Temp\ccr9QJbk.s 			page 19


 735 0000 80B5     		push	{r7, lr}
 736              		.cfi_def_cfa_offset 8
 737              		.cfi_offset 7, -8
 738              		.cfi_offset 14, -4
 739 0002 C6B0     		sub	sp, sp, #280
 740              		.cfi_def_cfa_offset 288
 741 0004 02AF     		add	r7, sp, #8
 742              		.cfi_def_cfa 7, 280
 743 0006 0246     		mov	r2, r0
 744 0008 FB1D     		adds	r3, r7, #7
 745 000a 1A70     		strb	r2, [r3]
 246:..\Application/OS_Main.c ****     uint8 Port2_W0 = 0;
 746              		.loc 1 246 0
 747 000c 0023     		movs	r3, #0
 748 000e 87F80F31 		strb	r3, [r7, #271]
 247:..\Application/OS_Main.c ****     uint8 Port2_W1 = 0;
 749              		.loc 1 247 0
 750 0012 0023     		movs	r3, #0
 751 0014 87F80E31 		strb	r3, [r7, #270]
 248:..\Application/OS_Main.c ****     uint8 Port2_In = 0;
 752              		.loc 1 248 0
 753 0018 0023     		movs	r3, #0
 754 001a 87F80D31 		strb	r3, [r7, #269]
 249:..\Application/OS_Main.c ****     
 250:..\Application/OS_Main.c ****     switch(intr){
 755              		.loc 1 250 0
 756 001e FB1D     		adds	r3, r7, #7
 757 0020 1B78     		ldrb	r3, [r3]	@ zero_extendqisi2
 758 0022 013B     		subs	r3, r3, #1
 759 0024 052B     		cmp	r3, #5
 760 0026 29D8     		bhi	.L41
 761 0028 01A2     		adr	r2, .L26
 762 002a 52F823F0 		ldr	pc, [r2, r3, lsl #2]
 763 002e 00BF     		.p2align 2
 764              	.L26:
 765 0030 49000000 		.word	.L25+1
 766 0034 51000000 		.word	.L27+1
 767 0038 7D000000 		.word	.L41+1
 768 003c 59000000 		.word	.L28+1
 769 0040 61000000 		.word	.L29+1
 770 0044 6F000000 		.word	.L30+1
 771              		.p2align 1
 772              	.L25:
 251:..\Application/OS_Main.c ****         case 1:{
 252:..\Application/OS_Main.c ****             //W2_0
 253:..\Application/OS_Main.c ****             Port2_W0 = 1;
 773              		.loc 1 253 0
 774 0048 0123     		movs	r3, #1
 775 004a 87F80F31 		strb	r3, [r7, #271]
 254:..\Application/OS_Main.c ****             break;
 776              		.loc 1 254 0
 777 004e 16E0     		b	.L31
 778              	.L27:
 255:..\Application/OS_Main.c ****         }
 256:..\Application/OS_Main.c ****         case 2:{ 
 257:..\Application/OS_Main.c ****             //W2_1
 258:..\Application/OS_Main.c ****             Port2_W1 = 1;
ARM GAS  C:\Users\ali\AppData\Local\Temp\ccr9QJbk.s 			page 20


 779              		.loc 1 258 0
 780 0050 0123     		movs	r3, #1
 781 0052 87F80E31 		strb	r3, [r7, #270]
 259:..\Application/OS_Main.c ****             break;
 782              		.loc 1 259 0
 783 0056 12E0     		b	.L31
 784              	.L28:
 260:..\Application/OS_Main.c ****         }
 261:..\Application/OS_Main.c ****         case 4:{
 262:..\Application/OS_Main.c ****             //In2
 263:..\Application/OS_Main.c ****             Port2_In = 1;
 785              		.loc 1 263 0
 786 0058 0123     		movs	r3, #1
 787 005a 87F80D31 		strb	r3, [r7, #269]
 264:..\Application/OS_Main.c ****             break;
 788              		.loc 1 264 0
 789 005e 0EE0     		b	.L31
 790              	.L29:
 265:..\Application/OS_Main.c ****         }
 266:..\Application/OS_Main.c ****         case 5:{
 267:..\Application/OS_Main.c ****             //W2_0, In2
 268:..\Application/OS_Main.c ****             Port2_W0 = 1;
 791              		.loc 1 268 0
 792 0060 0123     		movs	r3, #1
 793 0062 87F80F31 		strb	r3, [r7, #271]
 269:..\Application/OS_Main.c ****             Port2_In = 1;
 794              		.loc 1 269 0
 795 0066 0123     		movs	r3, #1
 796 0068 87F80D31 		strb	r3, [r7, #269]
 270:..\Application/OS_Main.c ****             break;
 797              		.loc 1 270 0
 798 006c 07E0     		b	.L31
 799              	.L30:
 271:..\Application/OS_Main.c ****         }
 272:..\Application/OS_Main.c ****         case 6:{
 273:..\Application/OS_Main.c ****             //W2_1, In2
 274:..\Application/OS_Main.c ****             Port2_W1 = 1;
 800              		.loc 1 274 0
 801 006e 0123     		movs	r3, #1
 802 0070 87F80E31 		strb	r3, [r7, #270]
 275:..\Application/OS_Main.c ****             Port2_In = 1;
 803              		.loc 1 275 0
 804 0074 0123     		movs	r3, #1
 805 0076 87F80D31 		strb	r3, [r7, #269]
 276:..\Application/OS_Main.c ****             break;
 806              		.loc 1 276 0
 807 007a 00E0     		b	.L31
 808              	.L41:
 277:..\Application/OS_Main.c ****         }
 278:..\Application/OS_Main.c ****         default:{
 279:..\Application/OS_Main.c ****             break;
 809              		.loc 1 279 0
 810 007c 00BF     		nop
 811              	.L31:
 280:..\Application/OS_Main.c ****         }
 281:..\Application/OS_Main.c ****     }
 282:..\Application/OS_Main.c ****     
ARM GAS  C:\Users\ali\AppData\Local\Temp\ccr9QJbk.s 			page 21


 283:..\Application/OS_Main.c ****     if(Port2_In && !OS_TIMER_GetStatus(&Timer_AfterRead_In2)){
 812              		.loc 1 283 0
 813 007e 97F80D31 		ldrb	r3, [r7, #269]	@ zero_extendqisi2
 814 0082 002B     		cmp	r3, #0
 815 0084 3FD0     		beq	.L32
 816              		.loc 1 283 0 is_stmt 0 discriminator 1
 817 0086 8848     		ldr	r0, .L43
 818 0088 FFF7FEFF 		bl	OS_TIMER_GetStatus
 819 008c 0346     		mov	r3, r0
 820 008e 002B     		cmp	r3, #0
 821 0090 39D1     		bne	.L32
 822              	.LBB4:
 284:..\Application/OS_Main.c ****         In2[0] = 'I';
 823              		.loc 1 284 0 is_stmt 1
 824 0092 864B     		ldr	r3, .L43+4
 825 0094 4922     		movs	r2, #73
 826 0096 1A70     		strb	r2, [r3]
 285:..\Application/OS_Main.c ****         In2[1] = '2';
 827              		.loc 1 285 0
 828 0098 844B     		ldr	r3, .L43+4
 829 009a 3222     		movs	r2, #50
 830 009c 5A70     		strb	r2, [r3, #1]
 286:..\Application/OS_Main.c ****         In2[2] = '\0';
 831              		.loc 1 286 0
 832 009e 834B     		ldr	r3, .L43+4
 833 00a0 0022     		movs	r2, #0
 834 00a2 9A70     		strb	r2, [r3, #2]
 287:..\Application/OS_Main.c ****         
 288:..\Application/OS_Main.c ****         read_input_port2++;
 835              		.loc 1 288 0
 836 00a4 824B     		ldr	r3, .L43+8
 837 00a6 1B68     		ldr	r3, [r3]
 838 00a8 0133     		adds	r3, r3, #1
 839 00aa 814A     		ldr	r2, .L43+8
 840 00ac 1360     		str	r3, [r2]
 289:..\Application/OS_Main.c ****         read_input_total = read_input_port1 + read_input_port2;
 841              		.loc 1 289 0
 842 00ae 814B     		ldr	r3, .L43+12
 843 00b0 1A68     		ldr	r2, [r3]
 844 00b2 7F4B     		ldr	r3, .L43+8
 845 00b4 1B68     		ldr	r3, [r3]
 846 00b6 1344     		add	r3, r3, r2
 847 00b8 7F4A     		ldr	r2, .L43+16
 848 00ba 1360     		str	r3, [r2]
 290:..\Application/OS_Main.c ****         char data[256];
 291:..\Application/OS_Main.c ****         sprintf(data, "read_input_port1 = %lu, read_input_port2 = %lu, read_input_total = %lu\r\n",
 849              		.loc 1 291 0
 850 00bc 7D4B     		ldr	r3, .L43+12
 851 00be 1A68     		ldr	r2, [r3]
 852 00c0 7B4B     		ldr	r3, .L43+8
 853 00c2 1968     		ldr	r1, [r3]
 854 00c4 7C4B     		ldr	r3, .L43+16
 855 00c6 1B68     		ldr	r3, [r3]
 856 00c8 07F10C00 		add	r0, r7, #12
 857 00cc 0093     		str	r3, [sp]
 858 00ce 0B46     		mov	r3, r1
 859 00d0 7A49     		ldr	r1, .L43+20
ARM GAS  C:\Users\ali\AppData\Local\Temp\ccr9QJbk.s 			page 22


 860 00d2 FFF7FEFF 		bl	sprintf
 292:..\Application/OS_Main.c ****         
 293:..\Application/OS_Main.c ****         UART_Debug_PutString("\r\n----------------------------\r\n");
 861              		.loc 1 293 0
 862 00d6 7A48     		ldr	r0, .L43+24
 863 00d8 FFF7FEFF 		bl	UART_Debug_PutString
 294:..\Application/OS_Main.c ****         UART_Debug_PutString("Read Input from Port 2: ");
 864              		.loc 1 294 0
 865 00dc 7948     		ldr	r0, .L43+28
 866 00de FFF7FEFF 		bl	UART_Debug_PutString
 295:..\Application/OS_Main.c ****         CyWdtClear(); 
 867              		.loc 1 295 0
 868 00e2 FFF7FEFF 		bl	CyWdtClear
 296:..\Application/OS_Main.c ****         UART_Debug_PutString(In2);
 869              		.loc 1 296 0
 870 00e6 7148     		ldr	r0, .L43+4
 871 00e8 FFF7FEFF 		bl	UART_Debug_PutString
 297:..\Application/OS_Main.c ****         UART_Debug_PutString("\r\n");
 872              		.loc 1 297 0
 873 00ec 7648     		ldr	r0, .L43+32
 874 00ee FFF7FEFF 		bl	UART_Debug_PutString
 298:..\Application/OS_Main.c ****         UART_Debug_PutString(data);
 875              		.loc 1 298 0
 876 00f2 07F10C03 		add	r3, r7, #12
 877 00f6 1846     		mov	r0, r3
 878 00f8 FFF7FEFF 		bl	UART_Debug_PutString
 299:..\Application/OS_Main.c ****         CyWdtClear(); 
 879              		.loc 1 299 0
 880 00fc FFF7FEFF 		bl	CyWdtClear
 300:..\Application/OS_Main.c ****         
 301:..\Application/OS_Main.c ****         OS_TIMER_Restart(&Timer_AfterRead_In2);
 881              		.loc 1 301 0
 882 0100 6948     		ldr	r0, .L43
 883 0102 FFF7FEFF 		bl	OS_TIMER_Restart
 884              	.L32:
 885              	.LBE4:
 302:..\Application/OS_Main.c ****     }
 303:..\Application/OS_Main.c ****     
 304:..\Application/OS_Main.c ****     //char sssss[100];
 305:..\Application/OS_Main.c ****     //sprintf(sssss, "OS_TIMER_GetStatus(&Timer_AfterRead_Port2) = %d\r\n", OS_TIMER_GetStatus(&Tim
 306:..\Application/OS_Main.c ****     //UART_Debug_PutString(sssss);
 307:..\Application/OS_Main.c ****     
 308:..\Application/OS_Main.c ****     if(!Port2_w_have){
 886              		.loc 1 308 0
 887 0106 714B     		ldr	r3, .L43+36
 888 0108 1B78     		ldrb	r3, [r3]	@ zero_extendqisi2
 889 010a 002B     		cmp	r3, #0
 890 010c 40F0C780 		bne	.L42
 309:..\Application/OS_Main.c ****         if((Port2_W0 || Port2_W1) && !Port2_Locked && !OS_TIMER_GetStatus(&Timer_AfterRead_Port2)){
 891              		.loc 1 309 0
 892 0110 97F80F31 		ldrb	r3, [r7, #271]	@ zero_extendqisi2
 893 0114 002B     		cmp	r3, #0
 894 0116 04D1     		bne	.L34
 895              		.loc 1 309 0 is_stmt 0 discriminator 2
 896 0118 97F80E31 		ldrb	r3, [r7, #270]	@ zero_extendqisi2
 897 011c 002B     		cmp	r3, #0
 898 011e 00F0BE80 		beq	.L42
ARM GAS  C:\Users\ali\AppData\Local\Temp\ccr9QJbk.s 			page 23


 899              	.L34:
 900              		.loc 1 309 0 discriminator 3
 901 0122 6B4B     		ldr	r3, .L43+40
 902 0124 1B78     		ldrb	r3, [r3]	@ zero_extendqisi2
 903 0126 002B     		cmp	r3, #0
 904 0128 40F0B980 		bne	.L42
 905              		.loc 1 309 0 discriminator 4
 906 012c 6948     		ldr	r0, .L43+44
 907 012e FFF7FEFF 		bl	OS_TIMER_GetStatus
 908 0132 0346     		mov	r3, r0
 909 0134 002B     		cmp	r3, #0
 910 0136 40F0B280 		bne	.L42
 310:..\Application/OS_Main.c ****             if(Port2_w_Start){
 911              		.loc 1 310 0 is_stmt 1
 912 013a 674B     		ldr	r3, .L43+48
 913 013c 1B78     		ldrb	r3, [r3]	@ zero_extendqisi2
 914 013e 002B     		cmp	r3, #0
 915 0140 77D0     		beq	.L35
 311:..\Application/OS_Main.c ****                 OS_TIMER_Restart(&Timer_Read_W_Port2);
 916              		.loc 1 311 0
 917 0142 6648     		ldr	r0, .L43+52
 918 0144 FFF7FEFF 		bl	OS_TIMER_Restart
 312:..\Application/OS_Main.c ****                 if(Port2_W0){
 919              		.loc 1 312 0
 920 0148 97F80F31 		ldrb	r3, [r7, #271]	@ zero_extendqisi2
 921 014c 002B     		cmp	r3, #0
 922 014e 0BD0     		beq	.L36
 313:..\Application/OS_Main.c ****                     Port2_W[Port2_W_Counter] = '0';
 923              		.loc 1 313 0
 924 0150 634B     		ldr	r3, .L43+56
 925 0152 1B78     		ldrb	r3, [r3]	@ zero_extendqisi2
 926 0154 1A46     		mov	r2, r3
 927 0156 634B     		ldr	r3, .L43+60
 928 0158 3021     		movs	r1, #48
 929 015a 9954     		strb	r1, [r3, r2]
 314:..\Application/OS_Main.c ****                     Port2_W_Counter = Port2_W_Counter + 1;
 930              		.loc 1 314 0
 931 015c 604B     		ldr	r3, .L43+56
 932 015e 1B78     		ldrb	r3, [r3]	@ zero_extendqisi2
 933 0160 0133     		adds	r3, r3, #1
 934 0162 DAB2     		uxtb	r2, r3
 935 0164 5E4B     		ldr	r3, .L43+56
 936 0166 1A70     		strb	r2, [r3]
 937              	.L36:
 315:..\Application/OS_Main.c ****                 }
 316:..\Application/OS_Main.c ****                 
 317:..\Application/OS_Main.c ****                 if(Port2_W1){
 938              		.loc 1 317 0
 939 0168 97F80E31 		ldrb	r3, [r7, #270]	@ zero_extendqisi2
 940 016c 002B     		cmp	r3, #0
 941 016e 0BD0     		beq	.L37
 318:..\Application/OS_Main.c ****                     Port2_W[Port2_W_Counter] = '1';
 942              		.loc 1 318 0
 943 0170 5B4B     		ldr	r3, .L43+56
 944 0172 1B78     		ldrb	r3, [r3]	@ zero_extendqisi2
 945 0174 1A46     		mov	r2, r3
 946 0176 5B4B     		ldr	r3, .L43+60
ARM GAS  C:\Users\ali\AppData\Local\Temp\ccr9QJbk.s 			page 24


 947 0178 3121     		movs	r1, #49
 948 017a 9954     		strb	r1, [r3, r2]
 319:..\Application/OS_Main.c ****                     Port2_W_Counter = Port2_W_Counter + 1;
 949              		.loc 1 319 0
 950 017c 584B     		ldr	r3, .L43+56
 951 017e 1B78     		ldrb	r3, [r3]	@ zero_extendqisi2
 952 0180 0133     		adds	r3, r3, #1
 953 0182 DAB2     		uxtb	r2, r3
 954 0184 564B     		ldr	r3, .L43+56
 955 0186 1A70     		strb	r2, [r3]
 956              	.L37:
 320:..\Application/OS_Main.c ****                 }
 321:..\Application/OS_Main.c ****                 
 322:..\Application/OS_Main.c ****                 if(Port2_W_Counter >= (Port2_W_bits + 3)){
 957              		.loc 1 322 0
 958 0188 554B     		ldr	r3, .L43+56
 959 018a 1B78     		ldrb	r3, [r3]	@ zero_extendqisi2
 960 018c 1A46     		mov	r2, r3
 961 018e 564B     		ldr	r3, .L43+64
 962 0190 1B78     		ldrb	r3, [r3]	@ zero_extendqisi2
 963 0192 0333     		adds	r3, r3, #3
 964 0194 9A42     		cmp	r2, r3
 965 0196 C0F28280 		blt	.L42
 966              	.LBB5:
 323:..\Application/OS_Main.c ****                     Port2_W[Port2_W_Counter] = '\0';
 967              		.loc 1 323 0
 968 019a 514B     		ldr	r3, .L43+56
 969 019c 1B78     		ldrb	r3, [r3]	@ zero_extendqisi2
 970 019e 1A46     		mov	r2, r3
 971 01a0 504B     		ldr	r3, .L43+60
 972 01a2 0021     		movs	r1, #0
 973 01a4 9954     		strb	r1, [r3, r2]
 324:..\Application/OS_Main.c ****                     Port2_W_Counter = Port2_W_Counter + 1;
 974              		.loc 1 324 0
 975 01a6 4E4B     		ldr	r3, .L43+56
 976 01a8 1B78     		ldrb	r3, [r3]	@ zero_extendqisi2
 977 01aa 0133     		adds	r3, r3, #1
 978 01ac DAB2     		uxtb	r2, r3
 979 01ae 4C4B     		ldr	r3, .L43+56
 980 01b0 1A70     		strb	r2, [r3]
 325:..\Application/OS_Main.c ****                     
 326:..\Application/OS_Main.c ****                     read_counter_port2++;
 981              		.loc 1 326 0
 982 01b2 4E4B     		ldr	r3, .L43+68
 983 01b4 1B68     		ldr	r3, [r3]
 984 01b6 0133     		adds	r3, r3, #1
 985 01b8 4C4A     		ldr	r2, .L43+68
 986 01ba 1360     		str	r3, [r2]
 327:..\Application/OS_Main.c ****                     read_counter_total = read_counter_port1 + read_counter_port2;
 987              		.loc 1 327 0
 988 01bc 4C4B     		ldr	r3, .L43+72
 989 01be 1A68     		ldr	r2, [r3]
 990 01c0 4A4B     		ldr	r3, .L43+68
 991 01c2 1B68     		ldr	r3, [r3]
 992 01c4 1344     		add	r3, r3, r2
 993 01c6 4B4A     		ldr	r2, .L43+76
 994 01c8 1360     		str	r3, [r2]
ARM GAS  C:\Users\ali\AppData\Local\Temp\ccr9QJbk.s 			page 25


 328:..\Application/OS_Main.c ****                     char data[256];
 329:..\Application/OS_Main.c ****                     sprintf(data, "read_counter_port1 = %lu, read_counter_port2 = %lu, read_counter
 995              		.loc 1 329 0
 996 01ca 494B     		ldr	r3, .L43+72
 997 01cc 1A68     		ldr	r2, [r3]
 998 01ce 474B     		ldr	r3, .L43+68
 999 01d0 1968     		ldr	r1, [r3]
 1000 01d2 484B     		ldr	r3, .L43+76
 1001 01d4 1B68     		ldr	r3, [r3]
 1002 01d6 07F10C00 		add	r0, r7, #12
 1003 01da 0093     		str	r3, [sp]
 1004 01dc 0B46     		mov	r3, r1
 1005 01de 4649     		ldr	r1, .L43+80
 1006 01e0 FFF7FEFF 		bl	sprintf
 330:..\Application/OS_Main.c ****                     
 331:..\Application/OS_Main.c ****                     UART_Debug_PutString("\r\n----------------------------\r\n");
 1007              		.loc 1 331 0
 1008 01e4 3648     		ldr	r0, .L43+24
 1009 01e6 FFF7FEFF 		bl	UART_Debug_PutString
 332:..\Application/OS_Main.c ****                     UART_Debug_PutString("Read W Port 2: ");
 1010              		.loc 1 332 0
 1011 01ea 4448     		ldr	r0, .L43+84
 1012 01ec FFF7FEFF 		bl	UART_Debug_PutString
 333:..\Application/OS_Main.c ****                     CyWdtClear(); 
 1013              		.loc 1 333 0
 1014 01f0 FFF7FEFF 		bl	CyWdtClear
 334:..\Application/OS_Main.c ****                     UART_Debug_PutString(Port2_W);
 1015              		.loc 1 334 0
 1016 01f4 3B48     		ldr	r0, .L43+60
 1017 01f6 FFF7FEFF 		bl	UART_Debug_PutString
 335:..\Application/OS_Main.c ****                     CyWdtClear(); 
 1018              		.loc 1 335 0
 1019 01fa FFF7FEFF 		bl	CyWdtClear
 336:..\Application/OS_Main.c ****                     UART_Debug_PutString("\r\n");
 1020              		.loc 1 336 0
 1021 01fe 3248     		ldr	r0, .L43+32
 1022 0200 FFF7FEFF 		bl	UART_Debug_PutString
 337:..\Application/OS_Main.c ****                     
 338:..\Application/OS_Main.c ****                     CyWdtClear(); 
 1023              		.loc 1 338 0
 1024 0204 FFF7FEFF 		bl	CyWdtClear
 339:..\Application/OS_Main.c ****                     UART_Debug_PutString(data);
 1025              		.loc 1 339 0
 1026 0208 07F10C03 		add	r3, r7, #12
 1027 020c 1846     		mov	r0, r3
 1028 020e FFF7FEFF 		bl	UART_Debug_PutString
 340:..\Application/OS_Main.c ****                     
 341:..\Application/OS_Main.c ****                     OS_TIMER_Stop(&Timer_Read_W_Port2);
 1029              		.loc 1 341 0
 1030 0212 3248     		ldr	r0, .L43+52
 1031 0214 FFF7FEFF 		bl	OS_TIMER_Stop
 342:..\Application/OS_Main.c ****                     Port2_W_Counter = 0;
 1032              		.loc 1 342 0
 1033 0218 314B     		ldr	r3, .L43+56
 1034 021a 0022     		movs	r2, #0
 1035 021c 1A70     		strb	r2, [r3]
 343:..\Application/OS_Main.c ****                     Port2_w_Start = 0;
ARM GAS  C:\Users\ali\AppData\Local\Temp\ccr9QJbk.s 			page 26


 1036              		.loc 1 343 0
 1037 021e 2E4B     		ldr	r3, .L43+48
 1038 0220 0022     		movs	r2, #0
 1039 0222 1A70     		strb	r2, [r3]
 344:..\Application/OS_Main.c ****                     Port2_w_have = 1;
 1040              		.loc 1 344 0
 1041 0224 294B     		ldr	r3, .L43+36
 1042 0226 0122     		movs	r2, #1
 1043 0228 1A70     		strb	r2, [r3]
 345:..\Application/OS_Main.c ****                     
 346:..\Application/OS_Main.c ****                     OS_TIMER_Restart(&Timer_AfterRead_Port2);
 1044              		.loc 1 346 0
 1045 022a 2A48     		ldr	r0, .L43+44
 1046 022c FFF7FEFF 		bl	OS_TIMER_Restart
 1047              	.LBE5:
 347:..\Application/OS_Main.c ****                 }
 348:..\Application/OS_Main.c ****                     
 349:..\Application/OS_Main.c ****             }
 350:..\Application/OS_Main.c ****             else{
 351:..\Application/OS_Main.c ****                 Port2_w_Start = 1;
 352:..\Application/OS_Main.c ****                 OS_TIMER_Restart(&Timer_Read_W_Port2);
 353:..\Application/OS_Main.c ****                 
 354:..\Application/OS_Main.c ****                 Port2_W_Counter = 0;
 355:..\Application/OS_Main.c ****                 Port2_W[0] = 'P';
 356:..\Application/OS_Main.c ****                 Port2_W[1] = '2';
 357:..\Application/OS_Main.c ****                 Port2_W[2] = 'W';
 358:..\Application/OS_Main.c ****                 Port2_W_Counter = 3;
 359:..\Application/OS_Main.c ****                 
 360:..\Application/OS_Main.c ****                 if(Port2_W0){
 361:..\Application/OS_Main.c ****                     Port2_W[Port2_W_Counter] = '0';
 362:..\Application/OS_Main.c ****                     Port2_W_Counter = Port2_W_Counter + 1;
 363:..\Application/OS_Main.c ****                 }
 364:..\Application/OS_Main.c ****                 
 365:..\Application/OS_Main.c ****                 if(Port2_W1){
 366:..\Application/OS_Main.c ****                     Port2_W[Port2_W_Counter] = '1';
 367:..\Application/OS_Main.c ****                     Port2_W_Counter = Port2_W_Counter + 1;
 368:..\Application/OS_Main.c ****                 }
 369:..\Application/OS_Main.c ****             }
 370:..\Application/OS_Main.c ****         }
 371:..\Application/OS_Main.c ****     }
 372:..\Application/OS_Main.c ****     
 373:..\Application/OS_Main.c ****     return;
 1048              		.loc 1 373 0
 1049 0230 35E0     		b	.L42
 1050              	.L35:
 351:..\Application/OS_Main.c ****                 OS_TIMER_Restart(&Timer_Read_W_Port2);
 1051              		.loc 1 351 0
 1052 0232 294B     		ldr	r3, .L43+48
 1053 0234 0122     		movs	r2, #1
 1054 0236 1A70     		strb	r2, [r3]
 352:..\Application/OS_Main.c ****                 
 1055              		.loc 1 352 0
 1056 0238 2848     		ldr	r0, .L43+52
 1057 023a FFF7FEFF 		bl	OS_TIMER_Restart
 354:..\Application/OS_Main.c ****                 Port2_W[0] = 'P';
 1058              		.loc 1 354 0
 1059 023e 284B     		ldr	r3, .L43+56
ARM GAS  C:\Users\ali\AppData\Local\Temp\ccr9QJbk.s 			page 27


 1060 0240 0022     		movs	r2, #0
 1061 0242 1A70     		strb	r2, [r3]
 355:..\Application/OS_Main.c ****                 Port2_W[1] = '2';
 1062              		.loc 1 355 0
 1063 0244 274B     		ldr	r3, .L43+60
 1064 0246 5022     		movs	r2, #80
 1065 0248 1A70     		strb	r2, [r3]
 356:..\Application/OS_Main.c ****                 Port2_W[2] = 'W';
 1066              		.loc 1 356 0
 1067 024a 264B     		ldr	r3, .L43+60
 1068 024c 3222     		movs	r2, #50
 1069 024e 5A70     		strb	r2, [r3, #1]
 357:..\Application/OS_Main.c ****                 Port2_W_Counter = 3;
 1070              		.loc 1 357 0
 1071 0250 244B     		ldr	r3, .L43+60
 1072 0252 5722     		movs	r2, #87
 1073 0254 9A70     		strb	r2, [r3, #2]
 358:..\Application/OS_Main.c ****                 
 1074              		.loc 1 358 0
 1075 0256 224B     		ldr	r3, .L43+56
 1076 0258 0322     		movs	r2, #3
 1077 025a 1A70     		strb	r2, [r3]
 360:..\Application/OS_Main.c ****                     Port2_W[Port2_W_Counter] = '0';
 1078              		.loc 1 360 0
 1079 025c 97F80F31 		ldrb	r3, [r7, #271]	@ zero_extendqisi2
 1080 0260 002B     		cmp	r3, #0
 1081 0262 0BD0     		beq	.L39
 361:..\Application/OS_Main.c ****                     Port2_W_Counter = Port2_W_Counter + 1;
 1082              		.loc 1 361 0
 1083 0264 1E4B     		ldr	r3, .L43+56
 1084 0266 1B78     		ldrb	r3, [r3]	@ zero_extendqisi2
 1085 0268 1A46     		mov	r2, r3
 1086 026a 1E4B     		ldr	r3, .L43+60
 1087 026c 3021     		movs	r1, #48
 1088 026e 9954     		strb	r1, [r3, r2]
 362:..\Application/OS_Main.c ****                 }
 1089              		.loc 1 362 0
 1090 0270 1B4B     		ldr	r3, .L43+56
 1091 0272 1B78     		ldrb	r3, [r3]	@ zero_extendqisi2
 1092 0274 0133     		adds	r3, r3, #1
 1093 0276 DAB2     		uxtb	r2, r3
 1094 0278 194B     		ldr	r3, .L43+56
 1095 027a 1A70     		strb	r2, [r3]
 1096              	.L39:
 365:..\Application/OS_Main.c ****                     Port2_W[Port2_W_Counter] = '1';
 1097              		.loc 1 365 0
 1098 027c 97F80E31 		ldrb	r3, [r7, #270]	@ zero_extendqisi2
 1099 0280 002B     		cmp	r3, #0
 1100 0282 0CD0     		beq	.L42
 366:..\Application/OS_Main.c ****                     Port2_W_Counter = Port2_W_Counter + 1;
 1101              		.loc 1 366 0
 1102 0284 164B     		ldr	r3, .L43+56
 1103 0286 1B78     		ldrb	r3, [r3]	@ zero_extendqisi2
 1104 0288 1A46     		mov	r2, r3
 1105 028a 164B     		ldr	r3, .L43+60
 1106 028c 3121     		movs	r1, #49
 1107 028e 9954     		strb	r1, [r3, r2]
ARM GAS  C:\Users\ali\AppData\Local\Temp\ccr9QJbk.s 			page 28


 367:..\Application/OS_Main.c ****                 }
 1108              		.loc 1 367 0
 1109 0290 134B     		ldr	r3, .L43+56
 1110 0292 1B78     		ldrb	r3, [r3]	@ zero_extendqisi2
 1111 0294 0133     		adds	r3, r3, #1
 1112 0296 DAB2     		uxtb	r2, r3
 1113 0298 114B     		ldr	r3, .L43+56
 1114 029a 1A70     		strb	r2, [r3]
 1115              		.loc 1 373 0
 1116 029c 00BF     		nop
 1117              	.L42:
 1118 029e 00BF     		nop
 374:..\Application/OS_Main.c **** }
 1119              		.loc 1 374 0
 1120 02a0 07F58877 		add	r7, r7, #272
 1121              		.cfi_def_cfa_offset 8
 1122 02a4 BD46     		mov	sp, r7
 1123              		.cfi_def_cfa_register 13
 1124              		@ sp needed
 1125 02a6 80BD     		pop	{r7, pc}
 1126              	.L44:
 1127              		.align	2
 1128              	.L43:
 1129 02a8 00000000 		.word	Timer_AfterRead_In2
 1130 02ac 00000000 		.word	In2
 1131 02b0 00000000 		.word	read_input_port2
 1132 02b4 00000000 		.word	read_input_port1
 1133 02b8 00000000 		.word	read_input_total
 1134 02bc 00000000 		.word	.LC0
 1135 02c0 4C000000 		.word	.LC1
 1136 02c4 F0000000 		.word	.LC6
 1137 02c8 8C000000 		.word	.LC3
 1138 02cc 00000000 		.word	Port2_w_have
 1139 02d0 00000000 		.word	Port2_Locked
 1140 02d4 00000000 		.word	Timer_AfterRead_Port2
 1141 02d8 00000000 		.word	Port2_w_Start
 1142 02dc 00000000 		.word	Timer_Read_W_Port2
 1143 02e0 00000000 		.word	Port2_W_Counter
 1144 02e4 00000000 		.word	Port2_W
 1145 02e8 00000000 		.word	Port2_W_bits
 1146 02ec 00000000 		.word	read_counter_port2
 1147 02f0 00000000 		.word	read_counter_port1
 1148 02f4 00000000 		.word	read_counter_total
 1149 02f8 90000000 		.word	.LC4
 1150 02fc 0C010000 		.word	.LC7
 1151              		.cfi_endproc
 1152              	.LFE65:
 1153              		.size	Port2_Job, .-Port2_Job
 1154              		.section	.rodata
 1155              		.align	2
 1156              	.LC8:
 1157 011c 506F7274 		.ascii	"Port 1 Read\000"
 1157      20312052 
 1157      65616400 
 1158              		.align	2
 1159              	.LC9:
 1160 0128 6C696E75 		.ascii	"linux_read_counter_port1 = %lu, linux_read_counter_"
ARM GAS  C:\Users\ali\AppData\Local\Temp\ccr9QJbk.s 			page 29


 1160      785F7265 
 1160      61645F63 
 1160      6F756E74 
 1160      65725F70 
 1161 015b 706F7274 		.ascii	"port2 = %lu, linux_read_counter_total = %lu\015\012"
 1161      32203D20 
 1161      256C752C 
 1161      206C696E 
 1161      75785F72 
 1162 0188 00       		.ascii	"\000"
 1163 0189 000000   		.align	2
 1164              	.LC10:
 1165 018c 52656164 		.ascii	"Read New W from Port 1 with linux: \000"
 1165      204E6577 
 1165      20572066 
 1165      726F6D20 
 1165      506F7274 
 1166              		.align	2
 1167              	.LC11:
 1168 01b0 2D2D2D2D 		.ascii	"----------------------------\015\012\000"
 1168      2D2D2D2D 
 1168      2D2D2D2D 
 1168      2D2D2D2D 
 1168      2D2D2D2D 
 1169 01cf 00       		.align	2
 1170              	.LC12:
 1171 01d0 506F7274 		.ascii	"Port 2 Read\000"
 1171      20322052 
 1171      65616400 
 1172              		.align	2
 1173              	.LC13:
 1174 01dc 52656164 		.ascii	"Read New W from Port 2 with linux: \000"
 1174      204E6577 
 1174      20572066 
 1174      726F6D20 
 1174      506F7274 
 1175              		.align	2
 1176              	.LC14:
 1177 0200 506F7274 		.ascii	"Port 1 Input\000"
 1177      20312049 
 1177      6E707574 
 1177      00
 1178 020d 000000   		.align	2
 1179              	.LC15:
 1180 0210 52656164 		.ascii	"Read New Input from Port 1 with linux: \000"
 1180      204E6577 
 1180      20496E70 
 1180      75742066 
 1180      726F6D20 
 1181              		.align	2
 1182              	.LC16:
 1183 0238 506F7274 		.ascii	"Port 2 Input\000"
 1183      20322049 
 1183      6E707574 
 1183      00
 1184 0245 000000   		.align	2
 1185              	.LC17:
ARM GAS  C:\Users\ali\AppData\Local\Temp\ccr9QJbk.s 			page 30


 1186 0248 52656164 		.ascii	"Read New Input from Port 2 with linux: \000"
 1186      204E6577 
 1186      20496E70 
 1186      75742066 
 1186      726F6D20 
 1187              		.align	2
 1188              	.LC18:
 1189 0270 506F7274 		.ascii	"Port 1 Open\000"
 1189      2031204F 
 1189      70656E00 
 1190              		.align	2
 1191              	.LC19:
 1192 027c 506F7274 		.ascii	"Port 1 Open\015\012\000"
 1192      2031204F 
 1192      70656E0D 
 1192      0A00
 1193 028a 0000     		.align	2
 1194              	.LC20:
 1195 028c 506F7274 		.ascii	"Port 1 Close\000"
 1195      20312043 
 1195      6C6F7365 
 1195      00
 1196 0299 000000   		.align	2
 1197              	.LC21:
 1198 029c 506F7274 		.ascii	"Port 1 Close\015\012\000"
 1198      20312043 
 1198      6C6F7365 
 1198      0D0A00
 1199 02ab 00       		.align	2
 1200              	.LC22:
 1201 02ac 506F7274 		.ascii	"Port 2 Open\000"
 1201      2032204F 
 1201      70656E00 
 1202              		.align	2
 1203              	.LC23:
 1204 02b8 506F7274 		.ascii	"Port 2 Open\015\012\000"
 1204      2032204F 
 1204      70656E0D 
 1204      0A00
 1205 02c6 0000     		.align	2
 1206              	.LC24:
 1207 02c8 506F7274 		.ascii	"Port 2 Close\000"
 1207      20322043 
 1207      6C6F7365 
 1207      00
 1208 02d5 000000   		.align	2
 1209              	.LC25:
 1210 02d8 506F7274 		.ascii	"Port 2 Close\015\012\000"
 1210      20322043 
 1210      6C6F7365 
 1210      0D0A00
 1211 02e7 00       		.align	2
 1212              	.LC26:
 1213 02e8 506F7274 		.ascii	"Port 1 Lock\000"
 1213      2031204C 
 1213      6F636B00 
 1214              		.align	2
ARM GAS  C:\Users\ali\AppData\Local\Temp\ccr9QJbk.s 			page 31


 1215              	.LC27:
 1216 02f4 506F7274 		.ascii	"Port 1 Lock\015\012\000"
 1216      2031204C 
 1216      6F636B0D 
 1216      0A00
 1217 0302 0000     		.align	2
 1218              	.LC28:
 1219 0304 506F7274 		.ascii	"Port 1 UnLock\000"
 1219      20312055 
 1219      6E4C6F63 
 1219      6B00
 1220 0312 0000     		.align	2
 1221              	.LC29:
 1222 0314 506F7274 		.ascii	"Port 1 UnLock\015\012\000"
 1222      20312055 
 1222      6E4C6F63 
 1222      6B0D0A00 
 1223              		.align	2
 1224              	.LC30:
 1225 0324 506F7274 		.ascii	"Port 2 Lock\000"
 1225      2032204C 
 1225      6F636B00 
 1226              		.align	2
 1227              	.LC31:
 1228 0330 506F7274 		.ascii	"Port 2 Lock\015\012\000"
 1228      2032204C 
 1228      6F636B0D 
 1228      0A00
 1229 033e 0000     		.align	2
 1230              	.LC32:
 1231 0340 506F7274 		.ascii	"Port 2 UnLock\000"
 1231      20322055 
 1231      6E4C6F63 
 1231      6B00
 1232 034e 0000     		.align	2
 1233              	.LC33:
 1234 0350 506F7274 		.ascii	"Port 2 UnLock\015\012\000"
 1234      20322055 
 1234      6E4C6F63 
 1234      6B0D0A00 
 1235              		.align	2
 1236              	.LC34:
 1237 0360 506F7274 		.ascii	"Port 1 Wbits:\000"
 1237      20312057 
 1237      62697473 
 1237      3A00
 1238 036e 0000     		.align	2
 1239              	.LC35:
 1240 0370 506F7274 		.ascii	"Port 1 Wbits = %d\015\012\000"
 1240      20312057 
 1240      62697473 
 1240      203D2025 
 1240      640D0A00 
 1241              		.align	2
 1242              	.LC36:
 1243 0384 506F7274 		.ascii	"Port 2 Wbits:\000"
 1243      20322057 
ARM GAS  C:\Users\ali\AppData\Local\Temp\ccr9QJbk.s 			page 32


 1243      62697473 
 1243      3A00
 1244 0392 0000     		.align	2
 1245              	.LC37:
 1246 0394 506F7274 		.ascii	"Port 2 Wbits = %d\015\012\000"
 1246      20322057 
 1246      62697473 
 1246      203D2025 
 1246      640D0A00 
 1247              		.align	2
 1248              	.LC38:
 1249 03a8 43792052 		.ascii	"Cy RGB:\000"
 1249      47423A00 
 1250              		.align	2
 1251              	.LC39:
 1252 03b0 5247425F 		.ascii	"RGB_Color = %d\015\012\000"
 1252      436F6C6F 
 1252      72203D20 
 1252      25640D0A 
 1252      00
 1253 03c1 000000   		.align	2
 1254              	.LC40:
 1255 03c4 43792052 		.ascii	"Cy Reset\000"
 1255      65736574 
 1255      00
 1256 03cd 000000   		.align	2
 1257              	.LC41:
 1258 03d0 43792043 		.ascii	"Cy Connect\000"
 1258      6F6E6E65 
 1258      637400
 1259 03db 00       		.align	2
 1260              	.LC42:
 1261 03dc 43792043 		.ascii	"Cy Connected\000"
 1261      6F6E6E65 
 1261      63746564 
 1261      00
 1262 03e9 000000   		.align	2
 1263              	.LC43:
 1264 03ec 57726F6E 		.ascii	"Wrong Msg!!!!! \015\012\000"
 1264      67204D73 
 1264      67212121 
 1264      2121200D 
 1264      0A00
 1265              		.section	.text.CmdTask,"ax",%progbits
 1266              		.align	2
 1267              		.global	CmdTask
 1268              		.thumb
 1269              		.thumb_func
 1270              		.type	CmdTask, %function
 1271              	CmdTask:
 1272              	.LFB66:
 375:..\Application/OS_Main.c **** 
 376:..\Application/OS_Main.c **** 
 377:..\Application/OS_Main.c **** //Main Job
 378:..\Application/OS_Main.c **** void CmdTask(char* msg)
 379:..\Application/OS_Main.c **** {
 1273              		.loc 1 379 0
ARM GAS  C:\Users\ali\AppData\Local\Temp\ccr9QJbk.s 			page 33


 1274              		.cfi_startproc
 1275              		@ args = 0, pretend = 0, frame = 280
 1276              		@ frame_needed = 1, uses_anonymous_args = 0
 1277 0000 80B5     		push	{r7, lr}
 1278              		.cfi_def_cfa_offset 8
 1279              		.cfi_offset 7, -8
 1280              		.cfi_offset 14, -4
 1281 0002 C8B0     		sub	sp, sp, #288
 1282              		.cfi_def_cfa_offset 296
 1283 0004 02AF     		add	r7, sp, #8
 1284              		.cfi_def_cfa 7, 288
 1285 0006 3B1D     		adds	r3, r7, #4
 1286 0008 1860     		str	r0, [r3]
 380:..\Application/OS_Main.c ****     //read ports
 381:..\Application/OS_Main.c ****     if(memcmp((char*)msg, "Port 1 Read", 11) == 0){
 1287              		.loc 1 381 0
 1288 000a 3B1D     		adds	r3, r7, #4
 1289 000c 0B22     		movs	r2, #11
 1290 000e B549     		ldr	r1, .L82
 1291 0010 1868     		ldr	r0, [r3]
 1292 0012 FFF7FEFF 		bl	memcmp
 1293 0016 0346     		mov	r3, r0
 1294 0018 002B     		cmp	r3, #0
 1295 001a 54D1     		bne	.L46
 382:..\Application/OS_Main.c ****         if(Port1_W[0] != '\0' && Port1_w_have){
 1296              		.loc 1 382 0
 1297 001c B24B     		ldr	r3, .L82+4
 1298 001e 1B78     		ldrb	r3, [r3]	@ zero_extendqisi2
 1299 0020 002B     		cmp	r3, #0
 1300 0022 00F07B83 		beq	.L81
 1301              		.loc 1 382 0 is_stmt 0 discriminator 1
 1302 0026 B14B     		ldr	r3, .L82+8
 1303 0028 1B78     		ldrb	r3, [r3]	@ zero_extendqisi2
 1304 002a 002B     		cmp	r3, #0
 1305 002c 00F07683 		beq	.L81
 1306              	.LBB6:
 383:..\Application/OS_Main.c ****             UART_Linux_PutArray((uint8*)Port1_W, strlen(Port1_W) + 1);
 1307              		.loc 1 383 0 is_stmt 1
 1308 0030 AD48     		ldr	r0, .L82+4
 1309 0032 FFF7FEFF 		bl	strlen
 1310 0036 0346     		mov	r3, r0
 1311 0038 9BB2     		uxth	r3, r3
 1312 003a 0133     		adds	r3, r3, #1
 1313 003c 9BB2     		uxth	r3, r3
 1314 003e 1946     		mov	r1, r3
 1315 0040 A948     		ldr	r0, .L82+4
 1316 0042 FFF7FEFF 		bl	UART_Linux_PutArray
 384:..\Application/OS_Main.c **** //            UART_Linux_PutChar('\0');
 385:..\Application/OS_Main.c ****             
 386:..\Application/OS_Main.c ****             linux_read_counter_port1++;
 1317              		.loc 1 386 0
 1318 0046 AA4B     		ldr	r3, .L82+12
 1319 0048 1B68     		ldr	r3, [r3]
 1320 004a 0133     		adds	r3, r3, #1
 1321 004c A84A     		ldr	r2, .L82+12
 1322 004e 1360     		str	r3, [r2]
 387:..\Application/OS_Main.c ****             linux_read_counter_total = linux_read_counter_port1 + linux_read_counter_port2;
ARM GAS  C:\Users\ali\AppData\Local\Temp\ccr9QJbk.s 			page 34


 1323              		.loc 1 387 0
 1324 0050 A74B     		ldr	r3, .L82+12
 1325 0052 1A68     		ldr	r2, [r3]
 1326 0054 A74B     		ldr	r3, .L82+16
 1327 0056 1B68     		ldr	r3, [r3]
 1328 0058 1344     		add	r3, r3, r2
 1329 005a A74A     		ldr	r2, .L82+20
 1330 005c 1360     		str	r3, [r2]
 388:..\Application/OS_Main.c ****             char data[256];
 389:..\Application/OS_Main.c ****             sprintf(data, "linux_read_counter_port1 = %lu, linux_read_counter_port2 = %lu, linux_re
 1331              		.loc 1 389 0
 1332 005e A44B     		ldr	r3, .L82+12
 1333 0060 1A68     		ldr	r2, [r3]
 1334 0062 A44B     		ldr	r3, .L82+16
 1335 0064 1968     		ldr	r1, [r3]
 1336 0066 A44B     		ldr	r3, .L82+20
 1337 0068 1B68     		ldr	r3, [r3]
 1338 006a 07F10800 		add	r0, r7, #8
 1339 006e 0093     		str	r3, [sp]
 1340 0070 0B46     		mov	r3, r1
 1341 0072 A249     		ldr	r1, .L82+24
 1342 0074 FFF7FEFF 		bl	sprintf
 390:..\Application/OS_Main.c ****             
 391:..\Application/OS_Main.c ****             UART_Debug_PutString("Read New W from Port 1 with linux: ");
 1343              		.loc 1 391 0
 1344 0078 A148     		ldr	r0, .L82+28
 1345 007a FFF7FEFF 		bl	UART_Debug_PutString
 392:..\Application/OS_Main.c ****             UART_Debug_PutString(Port1_W);
 1346              		.loc 1 392 0
 1347 007e 9A48     		ldr	r0, .L82+4
 1348 0080 FFF7FEFF 		bl	UART_Debug_PutString
 393:..\Application/OS_Main.c ****             CyWdtClear(); 
 1349              		.loc 1 393 0
 1350 0084 FFF7FEFF 		bl	CyWdtClear
 394:..\Application/OS_Main.c ****             UART_Debug_PutString("\r\n");
 1351              		.loc 1 394 0
 1352 0088 9E48     		ldr	r0, .L82+32
 1353 008a FFF7FEFF 		bl	UART_Debug_PutString
 395:..\Application/OS_Main.c ****             
 396:..\Application/OS_Main.c ****             UART_Debug_PutString(data);
 1354              		.loc 1 396 0
 1355 008e 07F10803 		add	r3, r7, #8
 1356 0092 1846     		mov	r0, r3
 1357 0094 FFF7FEFF 		bl	UART_Debug_PutString
 397:..\Application/OS_Main.c ****             CyWdtClear(); 
 1358              		.loc 1 397 0
 1359 0098 FFF7FEFF 		bl	CyWdtClear
 398:..\Application/OS_Main.c ****             
 399:..\Application/OS_Main.c ****             OS_TIMER_Stop(&Timer_AfterRead_Port1);
 1360              		.loc 1 399 0
 1361 009c 9A48     		ldr	r0, .L82+36
 1362 009e FFF7FEFF 		bl	OS_TIMER_Stop
 400:..\Application/OS_Main.c ****             Port1_W_Counter = 0;
 1363              		.loc 1 400 0
 1364 00a2 9A4B     		ldr	r3, .L82+40
 1365 00a4 0022     		movs	r2, #0
 1366 00a6 1A70     		strb	r2, [r3]
ARM GAS  C:\Users\ali\AppData\Local\Temp\ccr9QJbk.s 			page 35


 401:..\Application/OS_Main.c ****             Port1_w_Start = 0;
 1367              		.loc 1 401 0
 1368 00a8 994B     		ldr	r3, .L82+44
 1369 00aa 0022     		movs	r2, #0
 1370 00ac 1A70     		strb	r2, [r3]
 402:..\Application/OS_Main.c ****             Port1_W[0] = '\0';
 1371              		.loc 1 402 0
 1372 00ae 8E4B     		ldr	r3, .L82+4
 1373 00b0 0022     		movs	r2, #0
 1374 00b2 1A70     		strb	r2, [r3]
 403:..\Application/OS_Main.c ****             Port1_w_have = 0;
 1375              		.loc 1 403 0
 1376 00b4 8D4B     		ldr	r3, .L82+8
 1377 00b6 0022     		movs	r2, #0
 1378 00b8 1A70     		strb	r2, [r3]
 404:..\Application/OS_Main.c ****             UART_Debug_PutString("----------------------------\r\n");
 1379              		.loc 1 404 0
 1380 00ba 9648     		ldr	r0, .L82+48
 1381 00bc FFF7FEFF 		bl	UART_Debug_PutString
 405:..\Application/OS_Main.c ****             CyWdtClear(); 
 1382              		.loc 1 405 0
 1383 00c0 FFF7FEFF 		bl	CyWdtClear
 1384              	.LBE6:
 406:..\Application/OS_Main.c ****         }
 407:..\Application/OS_Main.c ****         
 408:..\Application/OS_Main.c ****     }
 409:..\Application/OS_Main.c ****     else if(memcmp((char*)msg, "Port 2 Read", 11) == 0){
 410:..\Application/OS_Main.c ****         if(Port2_W[0] != '\0' && Port2_w_have){
 411:..\Application/OS_Main.c ****             UART_Linux_PutArray((uint8*)Port2_W, strlen(Port2_W) + 1); 
 412:..\Application/OS_Main.c ****             //UART_Linux_PutChar('\0');
 413:..\Application/OS_Main.c ****             
 414:..\Application/OS_Main.c ****             
 415:..\Application/OS_Main.c ****             linux_read_counter_port2++;
 416:..\Application/OS_Main.c ****             linux_read_counter_total = linux_read_counter_port1 + linux_read_counter_port2;
 417:..\Application/OS_Main.c ****             char data[256];
 418:..\Application/OS_Main.c ****             sprintf(data, "linux_read_counter_port1 = %lu, linux_read_counter_port2 = %lu, linux_re
 419:..\Application/OS_Main.c ****             
 420:..\Application/OS_Main.c ****             UART_Debug_PutString("Read New W from Port 2 with linux: ");
 421:..\Application/OS_Main.c ****             UART_Debug_PutString(Port2_W);
 422:..\Application/OS_Main.c ****             CyWdtClear(); 
 423:..\Application/OS_Main.c ****             UART_Debug_PutString("\r\n");
 424:..\Application/OS_Main.c ****             
 425:..\Application/OS_Main.c ****             UART_Debug_PutString(data);
 426:..\Application/OS_Main.c ****             CyWdtClear(); 
 427:..\Application/OS_Main.c ****             
 428:..\Application/OS_Main.c ****             OS_TIMER_Stop(&Timer_AfterRead_Port2);
 429:..\Application/OS_Main.c ****             Port2_W_Counter = 0;
 430:..\Application/OS_Main.c ****             Port2_w_Start = 0;
 431:..\Application/OS_Main.c ****             Port2_W[0] = '\0';
 432:..\Application/OS_Main.c ****             Port2_w_have = 0;
 433:..\Application/OS_Main.c ****             UART_Debug_PutString("----------------------------\r\n");
 434:..\Application/OS_Main.c ****             CyWdtClear(); 
 435:..\Application/OS_Main.c ****         }    
 436:..\Application/OS_Main.c ****     }
 437:..\Application/OS_Main.c ****     //read iputs
 438:..\Application/OS_Main.c ****     else if(memcmp((char*)msg, "Port 1 Input", 12) == 0){
 439:..\Application/OS_Main.c ****         if(In1[0] != '\0'){
ARM GAS  C:\Users\ali\AppData\Local\Temp\ccr9QJbk.s 			page 36


 440:..\Application/OS_Main.c ****             UART_Linux_PutArray((uint8*)In1, strlen(In1) + 1); 
 441:..\Application/OS_Main.c **** //            UART_Linux_PutChar('\0');
 442:..\Application/OS_Main.c ****             
 443:..\Application/OS_Main.c ****             OS_TIMER_Stop(&Timer_AfterRead_In1);
 444:..\Application/OS_Main.c ****             
 445:..\Application/OS_Main.c ****             UART_Debug_PutString("Read New Input from Port 1 with linux: ");
 446:..\Application/OS_Main.c ****             UART_Debug_PutString(In1);
 447:..\Application/OS_Main.c ****             CyWdtClear(); 
 448:..\Application/OS_Main.c ****             UART_Debug_PutString("\r\n");
 449:..\Application/OS_Main.c ****             
 450:..\Application/OS_Main.c ****             OS_TIMER_Stop(&Timer_AfterRead_In1);
 451:..\Application/OS_Main.c ****             In1[0] = '\0';
 452:..\Application/OS_Main.c ****             In1[1] = '\0';
 453:..\Application/OS_Main.c ****             In1[2] = '\0';
 454:..\Application/OS_Main.c ****             UART_Debug_PutString("----------------------------\r\n");
 455:..\Application/OS_Main.c ****         }    
 456:..\Application/OS_Main.c ****     }
 457:..\Application/OS_Main.c ****     else if(memcmp((char*)msg, "Port 2 Input", 12) == 0){
 458:..\Application/OS_Main.c ****         if(In2[0] != '\0'){
 459:..\Application/OS_Main.c ****             UART_Linux_PutArray((uint8*)In2, strlen(In2) + 1); 
 460:..\Application/OS_Main.c **** //            UART_Linux_PutChar('\0');
 461:..\Application/OS_Main.c ****             
 462:..\Application/OS_Main.c ****             UART_Debug_PutString("Read New Input from Port 2 with linux: ");
 463:..\Application/OS_Main.c ****             UART_Debug_PutString(In2);
 464:..\Application/OS_Main.c ****             CyWdtClear(); 
 465:..\Application/OS_Main.c ****             UART_Debug_PutString("\r\n");
 466:..\Application/OS_Main.c ****             
 467:..\Application/OS_Main.c ****             OS_TIMER_Stop(&Timer_AfterRead_In2);
 468:..\Application/OS_Main.c ****             In2[0] = '\0';
 469:..\Application/OS_Main.c ****             In2[1] = '\0';
 470:..\Application/OS_Main.c ****             In2[2] = '\0';
 471:..\Application/OS_Main.c ****             UART_Debug_PutString("----------------------------\r\n");
 472:..\Application/OS_Main.c ****             CyWdtClear(); 
 473:..\Application/OS_Main.c ****         }        
 474:..\Application/OS_Main.c ****     }
 475:..\Application/OS_Main.c ****     //relay open close
 476:..\Application/OS_Main.c ****     else if(memcmp((char*)msg, "Port 1 Open", 11) == 0){
 477:..\Application/OS_Main.c ****         Port1_Relay = 1;   
 478:..\Application/OS_Main.c ****         if(Port1_Relay != Port1_Relay_Old){
 479:..\Application/OS_Main.c ****             Port1_Relay_Old = Port1_Relay;
 480:..\Application/OS_Main.c ****             Relay_Port1_Write(Port1_Relay);
 481:..\Application/OS_Main.c ****             UART_Debug_PutString("Port 1 Open\r\n");
 482:..\Application/OS_Main.c ****             CyWdtClear(); 
 483:..\Application/OS_Main.c ****         }
 484:..\Application/OS_Main.c ****     }
 485:..\Application/OS_Main.c ****     else if(memcmp((char*)msg, "Port 1 Close", 12) == 0){
 486:..\Application/OS_Main.c ****         Port1_Relay = 0;  
 487:..\Application/OS_Main.c ****         if(Port1_Relay != Port1_Relay_Old){
 488:..\Application/OS_Main.c ****             Port1_Relay_Old = Port1_Relay;
 489:..\Application/OS_Main.c ****             Relay_Port1_Write(Port1_Relay);
 490:..\Application/OS_Main.c ****             UART_Debug_PutString("Port 1 Close\r\n");
 491:..\Application/OS_Main.c ****             CyWdtClear(); 
 492:..\Application/OS_Main.c ****         }
 493:..\Application/OS_Main.c ****     }
 494:..\Application/OS_Main.c ****     else if(memcmp((char*)msg, "Port 2 Open", 11) == 0){
 495:..\Application/OS_Main.c ****         Port2_Relay = 1; 
 496:..\Application/OS_Main.c ****         if(Port2_Relay != Port2_Relay_Old){
ARM GAS  C:\Users\ali\AppData\Local\Temp\ccr9QJbk.s 			page 37


 497:..\Application/OS_Main.c ****             Port2_Relay_Old = Port2_Relay;
 498:..\Application/OS_Main.c ****             Relay_Port2_Write(Port2_Relay);
 499:..\Application/OS_Main.c ****             UART_Debug_PutString("Port 2 Open\r\n");
 500:..\Application/OS_Main.c ****             CyWdtClear(); 
 501:..\Application/OS_Main.c ****         }
 502:..\Application/OS_Main.c ****     }
 503:..\Application/OS_Main.c ****     else if(memcmp((char*)msg, "Port 2 Close", 12) == 0){
 504:..\Application/OS_Main.c ****         Port2_Relay = 0; 
 505:..\Application/OS_Main.c ****         if(Port2_Relay != Port2_Relay_Old){
 506:..\Application/OS_Main.c ****             Port2_Relay_Old = Port2_Relay;
 507:..\Application/OS_Main.c ****             Relay_Port2_Write(Port2_Relay);
 508:..\Application/OS_Main.c ****             UART_Debug_PutString("Port 2 Close\r\n");
 509:..\Application/OS_Main.c ****             CyWdtClear(); 
 510:..\Application/OS_Main.c ****         }
 511:..\Application/OS_Main.c ****     }
 512:..\Application/OS_Main.c ****     //port locks
 513:..\Application/OS_Main.c ****     else if(memcmp((char*)msg, "Port 1 Lock", 11) == 0){
 514:..\Application/OS_Main.c ****         Port1_Locked = 1; 
 515:..\Application/OS_Main.c ****         if(Port1_Locked != Port1_Locked_Old){
 516:..\Application/OS_Main.c ****             Port1_Locked_Old = Port1_Locked;
 517:..\Application/OS_Main.c ****             UART_Debug_PutString("Port 1 Lock\r\n");
 518:..\Application/OS_Main.c ****             CyWdtClear(); 
 519:..\Application/OS_Main.c ****         }
 520:..\Application/OS_Main.c ****     }
 521:..\Application/OS_Main.c ****     else if(memcmp((char*)msg, "Port 1 UnLock", 13) == 0){
 522:..\Application/OS_Main.c ****         Port1_Locked = 0;
 523:..\Application/OS_Main.c ****         if(Port1_Locked != Port1_Locked_Old){
 524:..\Application/OS_Main.c ****             Port1_Locked_Old = Port1_Locked;
 525:..\Application/OS_Main.c ****             UART_Debug_PutString("Port 1 UnLock\r\n");
 526:..\Application/OS_Main.c ****             CyWdtClear(); 
 527:..\Application/OS_Main.c ****         }
 528:..\Application/OS_Main.c ****     }
 529:..\Application/OS_Main.c ****     else if(memcmp((char*)msg, "Port 2 Lock", 11) == 0){
 530:..\Application/OS_Main.c ****         Port2_Locked = 1;
 531:..\Application/OS_Main.c ****         if(Port2_Locked != Port2_Locked_Old){
 532:..\Application/OS_Main.c ****             Port2_Locked_Old = Port2_Locked;
 533:..\Application/OS_Main.c ****             UART_Debug_PutString("Port 2 Lock\r\n");
 534:..\Application/OS_Main.c ****             CyWdtClear(); 
 535:..\Application/OS_Main.c ****         }
 536:..\Application/OS_Main.c ****     }
 537:..\Application/OS_Main.c ****     else if(memcmp((char*)msg, "Port 2 UnLock", 13) == 0){
 538:..\Application/OS_Main.c ****         Port2_Locked = 0;   
 539:..\Application/OS_Main.c ****         if(Port2_Locked != Port2_Locked_Old){
 540:..\Application/OS_Main.c ****             Port2_Locked_Old = Port2_Locked;
 541:..\Application/OS_Main.c ****             UART_Debug_PutString("Port 2 UnLock\r\n");
 542:..\Application/OS_Main.c ****             CyWdtClear(); 
 543:..\Application/OS_Main.c ****         }
 544:..\Application/OS_Main.c ****     }
 545:..\Application/OS_Main.c ****     //port w config bits
 546:..\Application/OS_Main.c ****     else if(memcmp((char*)msg, "Port 1 Wbits:", 13) == 0){
 547:..\Application/OS_Main.c ****         //Port1_W_bits
 548:..\Application/OS_Main.c ****         char* ret = NULL;
 549:..\Application/OS_Main.c ****         ret = strremove((char*)msg, "Port 1 Wbits:");
 550:..\Application/OS_Main.c ****         CyWdtClear(); 
 551:..\Application/OS_Main.c ****         
 552:..\Application/OS_Main.c ****         Port1_W_bits = atoi(ret);
 553:..\Application/OS_Main.c ****         CyWdtClear(); 
ARM GAS  C:\Users\ali\AppData\Local\Temp\ccr9QJbk.s 			page 38


 554:..\Application/OS_Main.c ****         if(Port1_W_bits != Port1_W_bits_Old){
 555:..\Application/OS_Main.c ****             Port1_W_bits_Old = Port1_W_bits;
 556:..\Application/OS_Main.c ****             char ss[100];
 557:..\Application/OS_Main.c ****             sprintf(ss, "Port 1 Wbits = %d\r\n", Port1_W_bits);
 558:..\Application/OS_Main.c ****             UART_Debug_PutString(ss);
 559:..\Application/OS_Main.c ****             CyWdtClear(); 
 560:..\Application/OS_Main.c ****         }
 561:..\Application/OS_Main.c ****     }
 562:..\Application/OS_Main.c ****     else if(memcmp((char*)msg, "Port 2 Wbits:", 13) == 0){
 563:..\Application/OS_Main.c ****         //Port2_W_bits
 564:..\Application/OS_Main.c ****         char* ret = NULL;
 565:..\Application/OS_Main.c ****         ret = strremove((char*)msg, "Port 2 Wbits:");
 566:..\Application/OS_Main.c ****         CyWdtClear(); 
 567:..\Application/OS_Main.c ****         Port2_W_bits = atoi(ret);
 568:..\Application/OS_Main.c ****         CyWdtClear(); 
 569:..\Application/OS_Main.c ****         if(Port2_W_bits != Port2_W_bits_Old){
 570:..\Application/OS_Main.c ****             Port2_W_bits_Old = Port2_W_bits;
 571:..\Application/OS_Main.c ****             char ss[100];
 572:..\Application/OS_Main.c ****             sprintf(ss, "Port 2 Wbits = %d\r\n", Port2_W_bits);
 573:..\Application/OS_Main.c ****             UART_Debug_PutString(ss);
 574:..\Application/OS_Main.c ****             CyWdtClear(); 
 575:..\Application/OS_Main.c ****         }
 576:..\Application/OS_Main.c ****     }
 577:..\Application/OS_Main.c ****     //Cy RGB mode
 578:..\Application/OS_Main.c ****     else if(memcmp((char*)msg, "Cy RGB:", 7) == 0){
 579:..\Application/OS_Main.c ****         //RGB
 580:..\Application/OS_Main.c ****         OS_TIMER_Restart(&Timer_RGB_LED);
 581:..\Application/OS_Main.c ****         char* ret = NULL;
 582:..\Application/OS_Main.c ****         ret = strremove((char*)msg, "Cy RGB:");
 583:..\Application/OS_Main.c ****         CyWdtClear(); 
 584:..\Application/OS_Main.c ****         uint32 color = strtol(ret, NULL, 10);
 585:..\Application/OS_Main.c ****         CyWdtClear(); 
 586:..\Application/OS_Main.c ****         RGB_Color = (uint8)color;
 587:..\Application/OS_Main.c ****         if(RGB_Color != RGB_Color_Old){
 588:..\Application/OS_Main.c ****             RGB_Color_Old = RGB_Color;
 589:..\Application/OS_Main.c ****             if(RGB_Color > 6 || RGB_Color < 0){
 590:..\Application/OS_Main.c ****                 RGB_Color = 1;
 591:..\Application/OS_Main.c ****                 RGB_Color_Old = 1;
 592:..\Application/OS_Main.c ****             }
 593:..\Application/OS_Main.c ****             RGB(RGB_Color);
 594:..\Application/OS_Main.c ****             char ss[100];
 595:..\Application/OS_Main.c ****             sprintf(ss, "RGB_Color = %d\r\n", RGB_Color);
 596:..\Application/OS_Main.c ****             UART_Debug_PutString(ss);
 597:..\Application/OS_Main.c ****             CyWdtClear(); 
 598:..\Application/OS_Main.c ****         }
 599:..\Application/OS_Main.c ****         
 600:..\Application/OS_Main.c ****     }
 601:..\Application/OS_Main.c ****     //Cy reset
 602:..\Application/OS_Main.c ****     else if(memcmp((char*)msg, "Cy Reset", 8) == 0){
 603:..\Application/OS_Main.c ****         CyWdtClear(); 
 604:..\Application/OS_Main.c ****         CySoftwareReset();
 605:..\Application/OS_Main.c ****     }
 606:..\Application/OS_Main.c ****     else if(memcmp((char*)msg, "Cy Connect", 10) == 0){
 607:..\Application/OS_Main.c ****         UART_Linux_PutArray((uint8*)"Cy Connected", strlen("Cy Connected") + 1); 
 608:..\Application/OS_Main.c **** //        UART_Linux_PutChar('\0');
 609:..\Application/OS_Main.c ****         CyWdtClear(); 
 610:..\Application/OS_Main.c ****     }
ARM GAS  C:\Users\ali\AppData\Local\Temp\ccr9QJbk.s 			page 39


 611:..\Application/OS_Main.c ****     else{
 612:..\Application/OS_Main.c ****         UART_Debug_PutString("Wrong Msg!!!!! \r\n");
 613:..\Application/OS_Main.c ****         CyWdtClear(); 
 614:..\Application/OS_Main.c ****     }
 615:..\Application/OS_Main.c ****     return;
 1385              		.loc 1 615 0
 1386 00c4 2AE3     		b	.L81
 1387              	.L46:
 409:..\Application/OS_Main.c ****         if(Port2_W[0] != '\0' && Port2_w_have){
 1388              		.loc 1 409 0
 1389 00c6 3B1D     		adds	r3, r7, #4
 1390 00c8 0B22     		movs	r2, #11
 1391 00ca 9349     		ldr	r1, .L82+52
 1392 00cc 1868     		ldr	r0, [r3]
 1393 00ce FFF7FEFF 		bl	memcmp
 1394 00d2 0346     		mov	r3, r0
 1395 00d4 002B     		cmp	r3, #0
 1396 00d6 54D1     		bne	.L49
 410:..\Application/OS_Main.c ****             UART_Linux_PutArray((uint8*)Port2_W, strlen(Port2_W) + 1); 
 1397              		.loc 1 410 0
 1398 00d8 904B     		ldr	r3, .L82+56
 1399 00da 1B78     		ldrb	r3, [r3]	@ zero_extendqisi2
 1400 00dc 002B     		cmp	r3, #0
 1401 00de 00F01D83 		beq	.L81
 410:..\Application/OS_Main.c ****             UART_Linux_PutArray((uint8*)Port2_W, strlen(Port2_W) + 1); 
 1402              		.loc 1 410 0 is_stmt 0 discriminator 1
 1403 00e2 8F4B     		ldr	r3, .L82+60
 1404 00e4 1B78     		ldrb	r3, [r3]	@ zero_extendqisi2
 1405 00e6 002B     		cmp	r3, #0
 1406 00e8 00F01883 		beq	.L81
 1407              	.LBB7:
 411:..\Application/OS_Main.c ****             //UART_Linux_PutChar('\0');
 1408              		.loc 1 411 0 is_stmt 1
 1409 00ec 8B48     		ldr	r0, .L82+56
 1410 00ee FFF7FEFF 		bl	strlen
 1411 00f2 0346     		mov	r3, r0
 1412 00f4 9BB2     		uxth	r3, r3
 1413 00f6 0133     		adds	r3, r3, #1
 1414 00f8 9BB2     		uxth	r3, r3
 1415 00fa 1946     		mov	r1, r3
 1416 00fc 8748     		ldr	r0, .L82+56
 1417 00fe FFF7FEFF 		bl	UART_Linux_PutArray
 415:..\Application/OS_Main.c ****             linux_read_counter_total = linux_read_counter_port1 + linux_read_counter_port2;
 1418              		.loc 1 415 0
 1419 0102 7C4B     		ldr	r3, .L82+16
 1420 0104 1B68     		ldr	r3, [r3]
 1421 0106 0133     		adds	r3, r3, #1
 1422 0108 7A4A     		ldr	r2, .L82+16
 1423 010a 1360     		str	r3, [r2]
 416:..\Application/OS_Main.c ****             char data[256];
 1424              		.loc 1 416 0
 1425 010c 784B     		ldr	r3, .L82+12
 1426 010e 1A68     		ldr	r2, [r3]
 1427 0110 784B     		ldr	r3, .L82+16
 1428 0112 1B68     		ldr	r3, [r3]
 1429 0114 1344     		add	r3, r3, r2
 1430 0116 784A     		ldr	r2, .L82+20
ARM GAS  C:\Users\ali\AppData\Local\Temp\ccr9QJbk.s 			page 40


 1431 0118 1360     		str	r3, [r2]
 418:..\Application/OS_Main.c ****             
 1432              		.loc 1 418 0
 1433 011a 754B     		ldr	r3, .L82+12
 1434 011c 1A68     		ldr	r2, [r3]
 1435 011e 754B     		ldr	r3, .L82+16
 1436 0120 1968     		ldr	r1, [r3]
 1437 0122 754B     		ldr	r3, .L82+20
 1438 0124 1B68     		ldr	r3, [r3]
 1439 0126 07F10800 		add	r0, r7, #8
 1440 012a 0093     		str	r3, [sp]
 1441 012c 0B46     		mov	r3, r1
 1442 012e 7349     		ldr	r1, .L82+24
 1443 0130 FFF7FEFF 		bl	sprintf
 420:..\Application/OS_Main.c ****             UART_Debug_PutString(Port2_W);
 1444              		.loc 1 420 0
 1445 0134 7B48     		ldr	r0, .L82+64
 1446 0136 FFF7FEFF 		bl	UART_Debug_PutString
 421:..\Application/OS_Main.c ****             CyWdtClear(); 
 1447              		.loc 1 421 0
 1448 013a 7848     		ldr	r0, .L82+56
 1449 013c FFF7FEFF 		bl	UART_Debug_PutString
 422:..\Application/OS_Main.c ****             UART_Debug_PutString("\r\n");
 1450              		.loc 1 422 0
 1451 0140 FFF7FEFF 		bl	CyWdtClear
 423:..\Application/OS_Main.c ****             
 1452              		.loc 1 423 0
 1453 0144 6F48     		ldr	r0, .L82+32
 1454 0146 FFF7FEFF 		bl	UART_Debug_PutString
 425:..\Application/OS_Main.c ****             CyWdtClear(); 
 1455              		.loc 1 425 0
 1456 014a 07F10803 		add	r3, r7, #8
 1457 014e 1846     		mov	r0, r3
 1458 0150 FFF7FEFF 		bl	UART_Debug_PutString
 426:..\Application/OS_Main.c ****             
 1459              		.loc 1 426 0
 1460 0154 FFF7FEFF 		bl	CyWdtClear
 428:..\Application/OS_Main.c ****             Port2_W_Counter = 0;
 1461              		.loc 1 428 0
 1462 0158 7348     		ldr	r0, .L82+68
 1463 015a FFF7FEFF 		bl	OS_TIMER_Stop
 429:..\Application/OS_Main.c ****             Port2_w_Start = 0;
 1464              		.loc 1 429 0
 1465 015e 734B     		ldr	r3, .L82+72
 1466 0160 0022     		movs	r2, #0
 1467 0162 1A70     		strb	r2, [r3]
 430:..\Application/OS_Main.c ****             Port2_W[0] = '\0';
 1468              		.loc 1 430 0
 1469 0164 724B     		ldr	r3, .L82+76
 1470 0166 0022     		movs	r2, #0
 1471 0168 1A70     		strb	r2, [r3]
 431:..\Application/OS_Main.c ****             Port2_w_have = 0;
 1472              		.loc 1 431 0
 1473 016a 6C4B     		ldr	r3, .L82+56
 1474 016c 0022     		movs	r2, #0
 1475 016e 1A70     		strb	r2, [r3]
 432:..\Application/OS_Main.c ****             UART_Debug_PutString("----------------------------\r\n");
ARM GAS  C:\Users\ali\AppData\Local\Temp\ccr9QJbk.s 			page 41


 1476              		.loc 1 432 0
 1477 0170 6B4B     		ldr	r3, .L82+60
 1478 0172 0022     		movs	r2, #0
 1479 0174 1A70     		strb	r2, [r3]
 433:..\Application/OS_Main.c ****             CyWdtClear(); 
 1480              		.loc 1 433 0
 1481 0176 6748     		ldr	r0, .L82+48
 1482 0178 FFF7FEFF 		bl	UART_Debug_PutString
 434:..\Application/OS_Main.c ****         }    
 1483              		.loc 1 434 0
 1484 017c FFF7FEFF 		bl	CyWdtClear
 1485              	.LBE7:
 1486              		.loc 1 615 0
 1487 0180 CCE2     		b	.L81
 1488              	.L49:
 438:..\Application/OS_Main.c ****         if(In1[0] != '\0'){
 1489              		.loc 1 438 0
 1490 0182 3B1D     		adds	r3, r7, #4
 1491 0184 0C22     		movs	r2, #12
 1492 0186 6B49     		ldr	r1, .L82+80
 1493 0188 1868     		ldr	r0, [r3]
 1494 018a FFF7FEFF 		bl	memcmp
 1495 018e 0346     		mov	r3, r0
 1496 0190 002B     		cmp	r3, #0
 1497 0192 2DD1     		bne	.L51
 439:..\Application/OS_Main.c ****             UART_Linux_PutArray((uint8*)In1, strlen(In1) + 1); 
 1498              		.loc 1 439 0
 1499 0194 684B     		ldr	r3, .L82+84
 1500 0196 1B78     		ldrb	r3, [r3]	@ zero_extendqisi2
 1501 0198 002B     		cmp	r3, #0
 1502 019a 00F0BF82 		beq	.L81
 440:..\Application/OS_Main.c **** //            UART_Linux_PutChar('\0');
 1503              		.loc 1 440 0
 1504 019e 6648     		ldr	r0, .L82+84
 1505 01a0 FFF7FEFF 		bl	strlen
 1506 01a4 0346     		mov	r3, r0
 1507 01a6 9BB2     		uxth	r3, r3
 1508 01a8 0133     		adds	r3, r3, #1
 1509 01aa 9BB2     		uxth	r3, r3
 1510 01ac 1946     		mov	r1, r3
 1511 01ae 6248     		ldr	r0, .L82+84
 1512 01b0 FFF7FEFF 		bl	UART_Linux_PutArray
 443:..\Application/OS_Main.c ****             
 1513              		.loc 1 443 0
 1514 01b4 6148     		ldr	r0, .L82+88
 1515 01b6 FFF7FEFF 		bl	OS_TIMER_Stop
 445:..\Application/OS_Main.c ****             UART_Debug_PutString(In1);
 1516              		.loc 1 445 0
 1517 01ba 6148     		ldr	r0, .L82+92
 1518 01bc FFF7FEFF 		bl	UART_Debug_PutString
 446:..\Application/OS_Main.c ****             CyWdtClear(); 
 1519              		.loc 1 446 0
 1520 01c0 5D48     		ldr	r0, .L82+84
 1521 01c2 FFF7FEFF 		bl	UART_Debug_PutString
 447:..\Application/OS_Main.c ****             UART_Debug_PutString("\r\n");
 1522              		.loc 1 447 0
 1523 01c6 FFF7FEFF 		bl	CyWdtClear
ARM GAS  C:\Users\ali\AppData\Local\Temp\ccr9QJbk.s 			page 42


 448:..\Application/OS_Main.c ****             
 1524              		.loc 1 448 0
 1525 01ca 4E48     		ldr	r0, .L82+32
 1526 01cc FFF7FEFF 		bl	UART_Debug_PutString
 450:..\Application/OS_Main.c ****             In1[0] = '\0';
 1527              		.loc 1 450 0
 1528 01d0 5A48     		ldr	r0, .L82+88
 1529 01d2 FFF7FEFF 		bl	OS_TIMER_Stop
 451:..\Application/OS_Main.c ****             In1[1] = '\0';
 1530              		.loc 1 451 0
 1531 01d6 584B     		ldr	r3, .L82+84
 1532 01d8 0022     		movs	r2, #0
 1533 01da 1A70     		strb	r2, [r3]
 452:..\Application/OS_Main.c ****             In1[2] = '\0';
 1534              		.loc 1 452 0
 1535 01dc 564B     		ldr	r3, .L82+84
 1536 01de 0022     		movs	r2, #0
 1537 01e0 5A70     		strb	r2, [r3, #1]
 453:..\Application/OS_Main.c ****             UART_Debug_PutString("----------------------------\r\n");
 1538              		.loc 1 453 0
 1539 01e2 554B     		ldr	r3, .L82+84
 1540 01e4 0022     		movs	r2, #0
 1541 01e6 9A70     		strb	r2, [r3, #2]
 454:..\Application/OS_Main.c ****         }    
 1542              		.loc 1 454 0
 1543 01e8 4A48     		ldr	r0, .L82+48
 1544 01ea FFF7FEFF 		bl	UART_Debug_PutString
 1545              		.loc 1 615 0
 1546 01ee 95E2     		b	.L81
 1547              	.L51:
 457:..\Application/OS_Main.c ****         if(In2[0] != '\0'){
 1548              		.loc 1 457 0
 1549 01f0 3B1D     		adds	r3, r7, #4
 1550 01f2 0C22     		movs	r2, #12
 1551 01f4 5349     		ldr	r1, .L82+96
 1552 01f6 1868     		ldr	r0, [r3]
 1553 01f8 FFF7FEFF 		bl	memcmp
 1554 01fc 0346     		mov	r3, r0
 1555 01fe 002B     		cmp	r3, #0
 1556 0200 2CD1     		bne	.L53
 458:..\Application/OS_Main.c ****             UART_Linux_PutArray((uint8*)In2, strlen(In2) + 1); 
 1557              		.loc 1 458 0
 1558 0202 514B     		ldr	r3, .L82+100
 1559 0204 1B78     		ldrb	r3, [r3]	@ zero_extendqisi2
 1560 0206 002B     		cmp	r3, #0
 1561 0208 00F08882 		beq	.L81
 459:..\Application/OS_Main.c **** //            UART_Linux_PutChar('\0');
 1562              		.loc 1 459 0
 1563 020c 4E48     		ldr	r0, .L82+100
 1564 020e FFF7FEFF 		bl	strlen
 1565 0212 0346     		mov	r3, r0
 1566 0214 9BB2     		uxth	r3, r3
 1567 0216 0133     		adds	r3, r3, #1
 1568 0218 9BB2     		uxth	r3, r3
 1569 021a 1946     		mov	r1, r3
 1570 021c 4A48     		ldr	r0, .L82+100
 1571 021e FFF7FEFF 		bl	UART_Linux_PutArray
ARM GAS  C:\Users\ali\AppData\Local\Temp\ccr9QJbk.s 			page 43


 462:..\Application/OS_Main.c ****             UART_Debug_PutString(In2);
 1572              		.loc 1 462 0
 1573 0222 4A48     		ldr	r0, .L82+104
 1574 0224 FFF7FEFF 		bl	UART_Debug_PutString
 463:..\Application/OS_Main.c ****             CyWdtClear(); 
 1575              		.loc 1 463 0
 1576 0228 4748     		ldr	r0, .L82+100
 1577 022a FFF7FEFF 		bl	UART_Debug_PutString
 464:..\Application/OS_Main.c ****             UART_Debug_PutString("\r\n");
 1578              		.loc 1 464 0
 1579 022e FFF7FEFF 		bl	CyWdtClear
 465:..\Application/OS_Main.c ****             
 1580              		.loc 1 465 0
 1581 0232 3448     		ldr	r0, .L82+32
 1582 0234 FFF7FEFF 		bl	UART_Debug_PutString
 467:..\Application/OS_Main.c ****             In2[0] = '\0';
 1583              		.loc 1 467 0
 1584 0238 4548     		ldr	r0, .L82+108
 1585 023a FFF7FEFF 		bl	OS_TIMER_Stop
 468:..\Application/OS_Main.c ****             In2[1] = '\0';
 1586              		.loc 1 468 0
 1587 023e 424B     		ldr	r3, .L82+100
 1588 0240 0022     		movs	r2, #0
 1589 0242 1A70     		strb	r2, [r3]
 469:..\Application/OS_Main.c ****             In2[2] = '\0';
 1590              		.loc 1 469 0
 1591 0244 404B     		ldr	r3, .L82+100
 1592 0246 0022     		movs	r2, #0
 1593 0248 5A70     		strb	r2, [r3, #1]
 470:..\Application/OS_Main.c ****             UART_Debug_PutString("----------------------------\r\n");
 1594              		.loc 1 470 0
 1595 024a 3F4B     		ldr	r3, .L82+100
 1596 024c 0022     		movs	r2, #0
 1597 024e 9A70     		strb	r2, [r3, #2]
 471:..\Application/OS_Main.c ****             CyWdtClear(); 
 1598              		.loc 1 471 0
 1599 0250 3048     		ldr	r0, .L82+48
 1600 0252 FFF7FEFF 		bl	UART_Debug_PutString
 472:..\Application/OS_Main.c ****         }        
 1601              		.loc 1 472 0
 1602 0256 FFF7FEFF 		bl	CyWdtClear
 1603              		.loc 1 615 0
 1604 025a 5FE2     		b	.L81
 1605              	.L53:
 476:..\Application/OS_Main.c ****         Port1_Relay = 1;   
 1606              		.loc 1 476 0
 1607 025c 3B1D     		adds	r3, r7, #4
 1608 025e 0B22     		movs	r2, #11
 1609 0260 3C49     		ldr	r1, .L82+112
 1610 0262 1868     		ldr	r0, [r3]
 1611 0264 FFF7FEFF 		bl	memcmp
 1612 0268 0346     		mov	r3, r0
 1613 026a 002B     		cmp	r3, #0
 1614 026c 18D1     		bne	.L55
 477:..\Application/OS_Main.c ****         if(Port1_Relay != Port1_Relay_Old){
 1615              		.loc 1 477 0
 1616 026e 3A4B     		ldr	r3, .L82+116
ARM GAS  C:\Users\ali\AppData\Local\Temp\ccr9QJbk.s 			page 44


 1617 0270 0122     		movs	r2, #1
 1618 0272 1A70     		strb	r2, [r3]
 478:..\Application/OS_Main.c ****             Port1_Relay_Old = Port1_Relay;
 1619              		.loc 1 478 0
 1620 0274 384B     		ldr	r3, .L82+116
 1621 0276 1A78     		ldrb	r2, [r3]	@ zero_extendqisi2
 1622 0278 384B     		ldr	r3, .L82+120
 1623 027a 1B78     		ldrb	r3, [r3]	@ zero_extendqisi2
 1624 027c 9A42     		cmp	r2, r3
 1625 027e 00F04D82 		beq	.L81
 479:..\Application/OS_Main.c ****             Relay_Port1_Write(Port1_Relay);
 1626              		.loc 1 479 0
 1627 0282 354B     		ldr	r3, .L82+116
 1628 0284 1A78     		ldrb	r2, [r3]	@ zero_extendqisi2
 1629 0286 354B     		ldr	r3, .L82+120
 1630 0288 1A70     		strb	r2, [r3]
 480:..\Application/OS_Main.c ****             UART_Debug_PutString("Port 1 Open\r\n");
 1631              		.loc 1 480 0
 1632 028a 334B     		ldr	r3, .L82+116
 1633 028c 1B78     		ldrb	r3, [r3]	@ zero_extendqisi2
 1634 028e 1846     		mov	r0, r3
 1635 0290 FFF7FEFF 		bl	Relay_Port1_Write
 481:..\Application/OS_Main.c ****             CyWdtClear(); 
 1636              		.loc 1 481 0
 1637 0294 3248     		ldr	r0, .L82+124
 1638 0296 FFF7FEFF 		bl	UART_Debug_PutString
 482:..\Application/OS_Main.c ****         }
 1639              		.loc 1 482 0
 1640 029a FFF7FEFF 		bl	CyWdtClear
 1641              		.loc 1 615 0
 1642 029e 3DE2     		b	.L81
 1643              	.L55:
 485:..\Application/OS_Main.c ****         Port1_Relay = 0;  
 1644              		.loc 1 485 0
 1645 02a0 3B1D     		adds	r3, r7, #4
 1646 02a2 0C22     		movs	r2, #12
 1647 02a4 2F49     		ldr	r1, .L82+128
 1648 02a6 1868     		ldr	r0, [r3]
 1649 02a8 FFF7FEFF 		bl	memcmp
 1650 02ac 0346     		mov	r3, r0
 1651 02ae 002B     		cmp	r3, #0
 1652 02b0 5CD1     		bne	.L57
 486:..\Application/OS_Main.c ****         if(Port1_Relay != Port1_Relay_Old){
 1653              		.loc 1 486 0
 1654 02b2 294B     		ldr	r3, .L82+116
 1655 02b4 0022     		movs	r2, #0
 1656 02b6 1A70     		strb	r2, [r3]
 487:..\Application/OS_Main.c ****             Port1_Relay_Old = Port1_Relay;
 1657              		.loc 1 487 0
 1658 02b8 274B     		ldr	r3, .L82+116
 1659 02ba 1A78     		ldrb	r2, [r3]	@ zero_extendqisi2
 1660 02bc 274B     		ldr	r3, .L82+120
 1661 02be 1B78     		ldrb	r3, [r3]	@ zero_extendqisi2
 1662 02c0 9A42     		cmp	r2, r3
 1663 02c2 00F02B82 		beq	.L81
 488:..\Application/OS_Main.c ****             Relay_Port1_Write(Port1_Relay);
 1664              		.loc 1 488 0
ARM GAS  C:\Users\ali\AppData\Local\Temp\ccr9QJbk.s 			page 45


 1665 02c6 244B     		ldr	r3, .L82+116
 1666 02c8 1A78     		ldrb	r2, [r3]	@ zero_extendqisi2
 1667 02ca 244B     		ldr	r3, .L82+120
 1668 02cc 1A70     		strb	r2, [r3]
 489:..\Application/OS_Main.c ****             UART_Debug_PutString("Port 1 Close\r\n");
 1669              		.loc 1 489 0
 1670 02ce 224B     		ldr	r3, .L82+116
 1671 02d0 1B78     		ldrb	r3, [r3]	@ zero_extendqisi2
 1672 02d2 1846     		mov	r0, r3
 1673 02d4 FFF7FEFF 		bl	Relay_Port1_Write
 490:..\Application/OS_Main.c ****             CyWdtClear(); 
 1674              		.loc 1 490 0
 1675 02d8 2348     		ldr	r0, .L82+132
 1676 02da FFF7FEFF 		bl	UART_Debug_PutString
 491:..\Application/OS_Main.c ****         }
 1677              		.loc 1 491 0
 1678 02de FFF7FEFF 		bl	CyWdtClear
 1679              		.loc 1 615 0
 1680 02e2 1BE2     		b	.L81
 1681              	.L83:
 1682              		.align	2
 1683              	.L82:
 1684 02e4 1C010000 		.word	.LC8
 1685 02e8 00000000 		.word	Port1_W
 1686 02ec 00000000 		.word	Port1_w_have
 1687 02f0 00000000 		.word	linux_read_counter_port1
 1688 02f4 00000000 		.word	linux_read_counter_port2
 1689 02f8 00000000 		.word	linux_read_counter_total
 1690 02fc 28010000 		.word	.LC9
 1691 0300 8C010000 		.word	.LC10
 1692 0304 8C000000 		.word	.LC3
 1693 0308 00000000 		.word	Timer_AfterRead_Port1
 1694 030c 00000000 		.word	Port1_W_Counter
 1695 0310 00000000 		.word	Port1_w_Start
 1696 0314 B0010000 		.word	.LC11
 1697 0318 D0010000 		.word	.LC12
 1698 031c 00000000 		.word	Port2_W
 1699 0320 00000000 		.word	Port2_w_have
 1700 0324 DC010000 		.word	.LC13
 1701 0328 00000000 		.word	Timer_AfterRead_Port2
 1702 032c 00000000 		.word	Port2_W_Counter
 1703 0330 00000000 		.word	Port2_w_Start
 1704 0334 00020000 		.word	.LC14
 1705 0338 00000000 		.word	In1
 1706 033c 00000000 		.word	Timer_AfterRead_In1
 1707 0340 10020000 		.word	.LC15
 1708 0344 38020000 		.word	.LC16
 1709 0348 00000000 		.word	In2
 1710 034c 48020000 		.word	.LC17
 1711 0350 00000000 		.word	Timer_AfterRead_In2
 1712 0354 70020000 		.word	.LC18
 1713 0358 00000000 		.word	Port1_Relay
 1714 035c 00000000 		.word	Port1_Relay_Old
 1715 0360 7C020000 		.word	.LC19
 1716 0364 8C020000 		.word	.LC20
 1717 0368 9C020000 		.word	.LC21
 1718              	.L57:
ARM GAS  C:\Users\ali\AppData\Local\Temp\ccr9QJbk.s 			page 46


 494:..\Application/OS_Main.c ****         Port2_Relay = 1; 
 1719              		.loc 1 494 0
 1720 036c 3B1D     		adds	r3, r7, #4
 1721 036e 0B22     		movs	r2, #11
 1722 0370 9549     		ldr	r1, .L84
 1723 0372 1868     		ldr	r0, [r3]
 1724 0374 FFF7FEFF 		bl	memcmp
 1725 0378 0346     		mov	r3, r0
 1726 037a 002B     		cmp	r3, #0
 1727 037c 18D1     		bne	.L59
 495:..\Application/OS_Main.c ****         if(Port2_Relay != Port2_Relay_Old){
 1728              		.loc 1 495 0
 1729 037e 934B     		ldr	r3, .L84+4
 1730 0380 0122     		movs	r2, #1
 1731 0382 1A70     		strb	r2, [r3]
 496:..\Application/OS_Main.c ****             Port2_Relay_Old = Port2_Relay;
 1732              		.loc 1 496 0
 1733 0384 914B     		ldr	r3, .L84+4
 1734 0386 1A78     		ldrb	r2, [r3]	@ zero_extendqisi2
 1735 0388 914B     		ldr	r3, .L84+8
 1736 038a 1B78     		ldrb	r3, [r3]	@ zero_extendqisi2
 1737 038c 9A42     		cmp	r2, r3
 1738 038e 00F0C581 		beq	.L81
 497:..\Application/OS_Main.c ****             Relay_Port2_Write(Port2_Relay);
 1739              		.loc 1 497 0
 1740 0392 8E4B     		ldr	r3, .L84+4
 1741 0394 1A78     		ldrb	r2, [r3]	@ zero_extendqisi2
 1742 0396 8E4B     		ldr	r3, .L84+8
 1743 0398 1A70     		strb	r2, [r3]
 498:..\Application/OS_Main.c ****             UART_Debug_PutString("Port 2 Open\r\n");
 1744              		.loc 1 498 0
 1745 039a 8C4B     		ldr	r3, .L84+4
 1746 039c 1B78     		ldrb	r3, [r3]	@ zero_extendqisi2
 1747 039e 1846     		mov	r0, r3
 1748 03a0 FFF7FEFF 		bl	Relay_Port2_Write
 499:..\Application/OS_Main.c ****             CyWdtClear(); 
 1749              		.loc 1 499 0
 1750 03a4 8B48     		ldr	r0, .L84+12
 1751 03a6 FFF7FEFF 		bl	UART_Debug_PutString
 500:..\Application/OS_Main.c ****         }
 1752              		.loc 1 500 0
 1753 03aa FFF7FEFF 		bl	CyWdtClear
 1754              		.loc 1 615 0
 1755 03ae B5E1     		b	.L81
 1756              	.L59:
 503:..\Application/OS_Main.c ****         Port2_Relay = 0; 
 1757              		.loc 1 503 0
 1758 03b0 3B1D     		adds	r3, r7, #4
 1759 03b2 0C22     		movs	r2, #12
 1760 03b4 8849     		ldr	r1, .L84+16
 1761 03b6 1868     		ldr	r0, [r3]
 1762 03b8 FFF7FEFF 		bl	memcmp
 1763 03bc 0346     		mov	r3, r0
 1764 03be 002B     		cmp	r3, #0
 1765 03c0 18D1     		bne	.L61
 504:..\Application/OS_Main.c ****         if(Port2_Relay != Port2_Relay_Old){
 1766              		.loc 1 504 0
ARM GAS  C:\Users\ali\AppData\Local\Temp\ccr9QJbk.s 			page 47


 1767 03c2 824B     		ldr	r3, .L84+4
 1768 03c4 0022     		movs	r2, #0
 1769 03c6 1A70     		strb	r2, [r3]
 505:..\Application/OS_Main.c ****             Port2_Relay_Old = Port2_Relay;
 1770              		.loc 1 505 0
 1771 03c8 804B     		ldr	r3, .L84+4
 1772 03ca 1A78     		ldrb	r2, [r3]	@ zero_extendqisi2
 1773 03cc 804B     		ldr	r3, .L84+8
 1774 03ce 1B78     		ldrb	r3, [r3]	@ zero_extendqisi2
 1775 03d0 9A42     		cmp	r2, r3
 1776 03d2 00F0A381 		beq	.L81
 506:..\Application/OS_Main.c ****             Relay_Port2_Write(Port2_Relay);
 1777              		.loc 1 506 0
 1778 03d6 7D4B     		ldr	r3, .L84+4
 1779 03d8 1A78     		ldrb	r2, [r3]	@ zero_extendqisi2
 1780 03da 7D4B     		ldr	r3, .L84+8
 1781 03dc 1A70     		strb	r2, [r3]
 507:..\Application/OS_Main.c ****             UART_Debug_PutString("Port 2 Close\r\n");
 1782              		.loc 1 507 0
 1783 03de 7B4B     		ldr	r3, .L84+4
 1784 03e0 1B78     		ldrb	r3, [r3]	@ zero_extendqisi2
 1785 03e2 1846     		mov	r0, r3
 1786 03e4 FFF7FEFF 		bl	Relay_Port2_Write
 508:..\Application/OS_Main.c ****             CyWdtClear(); 
 1787              		.loc 1 508 0
 1788 03e8 7C48     		ldr	r0, .L84+20
 1789 03ea FFF7FEFF 		bl	UART_Debug_PutString
 509:..\Application/OS_Main.c ****         }
 1790              		.loc 1 509 0
 1791 03ee FFF7FEFF 		bl	CyWdtClear
 1792              		.loc 1 615 0
 1793 03f2 93E1     		b	.L81
 1794              	.L61:
 513:..\Application/OS_Main.c ****         Port1_Locked = 1; 
 1795              		.loc 1 513 0
 1796 03f4 3B1D     		adds	r3, r7, #4
 1797 03f6 0B22     		movs	r2, #11
 1798 03f8 7949     		ldr	r1, .L84+24
 1799 03fa 1868     		ldr	r0, [r3]
 1800 03fc FFF7FEFF 		bl	memcmp
 1801 0400 0346     		mov	r3, r0
 1802 0402 002B     		cmp	r3, #0
 1803 0404 13D1     		bne	.L63
 514:..\Application/OS_Main.c ****         if(Port1_Locked != Port1_Locked_Old){
 1804              		.loc 1 514 0
 1805 0406 774B     		ldr	r3, .L84+28
 1806 0408 0122     		movs	r2, #1
 1807 040a 1A70     		strb	r2, [r3]
 515:..\Application/OS_Main.c ****             Port1_Locked_Old = Port1_Locked;
 1808              		.loc 1 515 0
 1809 040c 754B     		ldr	r3, .L84+28
 1810 040e 1A78     		ldrb	r2, [r3]	@ zero_extendqisi2
 1811 0410 754B     		ldr	r3, .L84+32
 1812 0412 1B78     		ldrb	r3, [r3]	@ zero_extendqisi2
 1813 0414 9A42     		cmp	r2, r3
 1814 0416 00F08181 		beq	.L81
 516:..\Application/OS_Main.c ****             UART_Debug_PutString("Port 1 Lock\r\n");
ARM GAS  C:\Users\ali\AppData\Local\Temp\ccr9QJbk.s 			page 48


 1815              		.loc 1 516 0
 1816 041a 724B     		ldr	r3, .L84+28
 1817 041c 1A78     		ldrb	r2, [r3]	@ zero_extendqisi2
 1818 041e 724B     		ldr	r3, .L84+32
 1819 0420 1A70     		strb	r2, [r3]
 517:..\Application/OS_Main.c ****             CyWdtClear(); 
 1820              		.loc 1 517 0
 1821 0422 7248     		ldr	r0, .L84+36
 1822 0424 FFF7FEFF 		bl	UART_Debug_PutString
 518:..\Application/OS_Main.c ****         }
 1823              		.loc 1 518 0
 1824 0428 FFF7FEFF 		bl	CyWdtClear
 1825              		.loc 1 615 0
 1826 042c 76E1     		b	.L81
 1827              	.L63:
 521:..\Application/OS_Main.c ****         Port1_Locked = 0;
 1828              		.loc 1 521 0
 1829 042e 3B1D     		adds	r3, r7, #4
 1830 0430 0D22     		movs	r2, #13
 1831 0432 6F49     		ldr	r1, .L84+40
 1832 0434 1868     		ldr	r0, [r3]
 1833 0436 FFF7FEFF 		bl	memcmp
 1834 043a 0346     		mov	r3, r0
 1835 043c 002B     		cmp	r3, #0
 1836 043e 13D1     		bne	.L65
 522:..\Application/OS_Main.c ****         if(Port1_Locked != Port1_Locked_Old){
 1837              		.loc 1 522 0
 1838 0440 684B     		ldr	r3, .L84+28
 1839 0442 0022     		movs	r2, #0
 1840 0444 1A70     		strb	r2, [r3]
 523:..\Application/OS_Main.c ****             Port1_Locked_Old = Port1_Locked;
 1841              		.loc 1 523 0
 1842 0446 674B     		ldr	r3, .L84+28
 1843 0448 1A78     		ldrb	r2, [r3]	@ zero_extendqisi2
 1844 044a 674B     		ldr	r3, .L84+32
 1845 044c 1B78     		ldrb	r3, [r3]	@ zero_extendqisi2
 1846 044e 9A42     		cmp	r2, r3
 1847 0450 00F06481 		beq	.L81
 524:..\Application/OS_Main.c ****             UART_Debug_PutString("Port 1 UnLock\r\n");
 1848              		.loc 1 524 0
 1849 0454 634B     		ldr	r3, .L84+28
 1850 0456 1A78     		ldrb	r2, [r3]	@ zero_extendqisi2
 1851 0458 634B     		ldr	r3, .L84+32
 1852 045a 1A70     		strb	r2, [r3]
 525:..\Application/OS_Main.c ****             CyWdtClear(); 
 1853              		.loc 1 525 0
 1854 045c 6548     		ldr	r0, .L84+44
 1855 045e FFF7FEFF 		bl	UART_Debug_PutString
 526:..\Application/OS_Main.c ****         }
 1856              		.loc 1 526 0
 1857 0462 FFF7FEFF 		bl	CyWdtClear
 1858              		.loc 1 615 0
 1859 0466 59E1     		b	.L81
 1860              	.L65:
 529:..\Application/OS_Main.c ****         Port2_Locked = 1;
 1861              		.loc 1 529 0
 1862 0468 3B1D     		adds	r3, r7, #4
ARM GAS  C:\Users\ali\AppData\Local\Temp\ccr9QJbk.s 			page 49


 1863 046a 0B22     		movs	r2, #11
 1864 046c 6249     		ldr	r1, .L84+48
 1865 046e 1868     		ldr	r0, [r3]
 1866 0470 FFF7FEFF 		bl	memcmp
 1867 0474 0346     		mov	r3, r0
 1868 0476 002B     		cmp	r3, #0
 1869 0478 13D1     		bne	.L67
 530:..\Application/OS_Main.c ****         if(Port2_Locked != Port2_Locked_Old){
 1870              		.loc 1 530 0
 1871 047a 604B     		ldr	r3, .L84+52
 1872 047c 0122     		movs	r2, #1
 1873 047e 1A70     		strb	r2, [r3]
 531:..\Application/OS_Main.c ****             Port2_Locked_Old = Port2_Locked;
 1874              		.loc 1 531 0
 1875 0480 5E4B     		ldr	r3, .L84+52
 1876 0482 1A78     		ldrb	r2, [r3]	@ zero_extendqisi2
 1877 0484 5E4B     		ldr	r3, .L84+56
 1878 0486 1B78     		ldrb	r3, [r3]	@ zero_extendqisi2
 1879 0488 9A42     		cmp	r2, r3
 1880 048a 00F04781 		beq	.L81
 532:..\Application/OS_Main.c ****             UART_Debug_PutString("Port 2 Lock\r\n");
 1881              		.loc 1 532 0
 1882 048e 5B4B     		ldr	r3, .L84+52
 1883 0490 1A78     		ldrb	r2, [r3]	@ zero_extendqisi2
 1884 0492 5B4B     		ldr	r3, .L84+56
 1885 0494 1A70     		strb	r2, [r3]
 533:..\Application/OS_Main.c ****             CyWdtClear(); 
 1886              		.loc 1 533 0
 1887 0496 5B48     		ldr	r0, .L84+60
 1888 0498 FFF7FEFF 		bl	UART_Debug_PutString
 534:..\Application/OS_Main.c ****         }
 1889              		.loc 1 534 0
 1890 049c FFF7FEFF 		bl	CyWdtClear
 1891              		.loc 1 615 0
 1892 04a0 3CE1     		b	.L81
 1893              	.L67:
 537:..\Application/OS_Main.c ****         Port2_Locked = 0;   
 1894              		.loc 1 537 0
 1895 04a2 3B1D     		adds	r3, r7, #4
 1896 04a4 0D22     		movs	r2, #13
 1897 04a6 5849     		ldr	r1, .L84+64
 1898 04a8 1868     		ldr	r0, [r3]
 1899 04aa FFF7FEFF 		bl	memcmp
 1900 04ae 0346     		mov	r3, r0
 1901 04b0 002B     		cmp	r3, #0
 1902 04b2 13D1     		bne	.L69
 538:..\Application/OS_Main.c ****         if(Port2_Locked != Port2_Locked_Old){
 1903              		.loc 1 538 0
 1904 04b4 514B     		ldr	r3, .L84+52
 1905 04b6 0022     		movs	r2, #0
 1906 04b8 1A70     		strb	r2, [r3]
 539:..\Application/OS_Main.c ****             Port2_Locked_Old = Port2_Locked;
 1907              		.loc 1 539 0
 1908 04ba 504B     		ldr	r3, .L84+52
 1909 04bc 1A78     		ldrb	r2, [r3]	@ zero_extendqisi2
 1910 04be 504B     		ldr	r3, .L84+56
 1911 04c0 1B78     		ldrb	r3, [r3]	@ zero_extendqisi2
ARM GAS  C:\Users\ali\AppData\Local\Temp\ccr9QJbk.s 			page 50


 1912 04c2 9A42     		cmp	r2, r3
 1913 04c4 00F02A81 		beq	.L81
 540:..\Application/OS_Main.c ****             UART_Debug_PutString("Port 2 UnLock\r\n");
 1914              		.loc 1 540 0
 1915 04c8 4C4B     		ldr	r3, .L84+52
 1916 04ca 1A78     		ldrb	r2, [r3]	@ zero_extendqisi2
 1917 04cc 4C4B     		ldr	r3, .L84+56
 1918 04ce 1A70     		strb	r2, [r3]
 541:..\Application/OS_Main.c ****             CyWdtClear(); 
 1919              		.loc 1 541 0
 1920 04d0 4E48     		ldr	r0, .L84+68
 1921 04d2 FFF7FEFF 		bl	UART_Debug_PutString
 542:..\Application/OS_Main.c ****         }
 1922              		.loc 1 542 0
 1923 04d6 FFF7FEFF 		bl	CyWdtClear
 1924              		.loc 1 615 0
 1925 04da 1FE1     		b	.L81
 1926              	.L69:
 546:..\Application/OS_Main.c ****         //Port1_W_bits
 1927              		.loc 1 546 0
 1928 04dc 3B1D     		adds	r3, r7, #4
 1929 04de 0D22     		movs	r2, #13
 1930 04e0 4B49     		ldr	r1, .L84+72
 1931 04e2 1868     		ldr	r0, [r3]
 1932 04e4 FFF7FEFF 		bl	memcmp
 1933 04e8 0346     		mov	r3, r0
 1934 04ea 002B     		cmp	r3, #0
 1935 04ec 31D1     		bne	.L71
 1936              	.LBB8:
 548:..\Application/OS_Main.c ****         ret = strremove((char*)msg, "Port 1 Wbits:");
 1937              		.loc 1 548 0
 1938 04ee 0023     		movs	r3, #0
 1939 04f0 C7F81431 		str	r3, [r7, #276]
 549:..\Application/OS_Main.c ****         CyWdtClear(); 
 1940              		.loc 1 549 0
 1941 04f4 3B1D     		adds	r3, r7, #4
 1942 04f6 4649     		ldr	r1, .L84+72
 1943 04f8 1868     		ldr	r0, [r3]
 1944 04fa FFF7FEFF 		bl	strremove
 1945 04fe C7F81401 		str	r0, [r7, #276]
 550:..\Application/OS_Main.c ****         
 1946              		.loc 1 550 0
 1947 0502 FFF7FEFF 		bl	CyWdtClear
 552:..\Application/OS_Main.c ****         CyWdtClear(); 
 1948              		.loc 1 552 0
 1949 0506 D7F81401 		ldr	r0, [r7, #276]
 1950 050a FFF7FEFF 		bl	atoi
 1951 050e 0346     		mov	r3, r0
 1952 0510 DAB2     		uxtb	r2, r3
 1953 0512 404B     		ldr	r3, .L84+76
 1954 0514 1A70     		strb	r2, [r3]
 553:..\Application/OS_Main.c ****         if(Port1_W_bits != Port1_W_bits_Old){
 1955              		.loc 1 553 0
 1956 0516 FFF7FEFF 		bl	CyWdtClear
 554:..\Application/OS_Main.c ****             Port1_W_bits_Old = Port1_W_bits;
 1957              		.loc 1 554 0
 1958 051a 3E4B     		ldr	r3, .L84+76
ARM GAS  C:\Users\ali\AppData\Local\Temp\ccr9QJbk.s 			page 51


 1959 051c 1A78     		ldrb	r2, [r3]	@ zero_extendqisi2
 1960 051e 3E4B     		ldr	r3, .L84+80
 1961 0520 1B78     		ldrb	r3, [r3]	@ zero_extendqisi2
 1962 0522 9A42     		cmp	r2, r3
 1963 0524 00F0FA80 		beq	.L81
 1964              	.LBB9:
 555:..\Application/OS_Main.c ****             char ss[100];
 1965              		.loc 1 555 0
 1966 0528 3A4B     		ldr	r3, .L84+76
 1967 052a 1A78     		ldrb	r2, [r3]	@ zero_extendqisi2
 1968 052c 3A4B     		ldr	r3, .L84+80
 1969 052e 1A70     		strb	r2, [r3]
 557:..\Application/OS_Main.c ****             UART_Debug_PutString(ss);
 1970              		.loc 1 557 0
 1971 0530 384B     		ldr	r3, .L84+76
 1972 0532 1B78     		ldrb	r3, [r3]	@ zero_extendqisi2
 1973 0534 1A46     		mov	r2, r3
 1974 0536 07F10803 		add	r3, r7, #8
 1975 053a 3849     		ldr	r1, .L84+84
 1976 053c 1846     		mov	r0, r3
 1977 053e FFF7FEFF 		bl	sprintf
 558:..\Application/OS_Main.c ****             CyWdtClear(); 
 1978              		.loc 1 558 0
 1979 0542 07F10803 		add	r3, r7, #8
 1980 0546 1846     		mov	r0, r3
 1981 0548 FFF7FEFF 		bl	UART_Debug_PutString
 559:..\Application/OS_Main.c ****         }
 1982              		.loc 1 559 0
 1983 054c FFF7FEFF 		bl	CyWdtClear
 1984              	.LBE9:
 1985              	.LBE8:
 1986              		.loc 1 615 0
 1987 0550 E4E0     		b	.L81
 1988              	.L71:
 562:..\Application/OS_Main.c ****         //Port2_W_bits
 1989              		.loc 1 562 0
 1990 0552 3B1D     		adds	r3, r7, #4
 1991 0554 0D22     		movs	r2, #13
 1992 0556 3249     		ldr	r1, .L84+88
 1993 0558 1868     		ldr	r0, [r3]
 1994 055a FFF7FEFF 		bl	memcmp
 1995 055e 0346     		mov	r3, r0
 1996 0560 002B     		cmp	r3, #0
 1997 0562 65D1     		bne	.L73
 1998              	.LBB10:
 564:..\Application/OS_Main.c ****         ret = strremove((char*)msg, "Port 2 Wbits:");
 1999              		.loc 1 564 0
 2000 0564 0023     		movs	r3, #0
 2001 0566 C7F81031 		str	r3, [r7, #272]
 565:..\Application/OS_Main.c ****         CyWdtClear(); 
 2002              		.loc 1 565 0
 2003 056a 3B1D     		adds	r3, r7, #4
 2004 056c 2C49     		ldr	r1, .L84+88
 2005 056e 1868     		ldr	r0, [r3]
 2006 0570 FFF7FEFF 		bl	strremove
 2007 0574 C7F81001 		str	r0, [r7, #272]
 566:..\Application/OS_Main.c ****         Port2_W_bits = atoi(ret);
ARM GAS  C:\Users\ali\AppData\Local\Temp\ccr9QJbk.s 			page 52


 2008              		.loc 1 566 0
 2009 0578 FFF7FEFF 		bl	CyWdtClear
 567:..\Application/OS_Main.c ****         CyWdtClear(); 
 2010              		.loc 1 567 0
 2011 057c D7F81001 		ldr	r0, [r7, #272]
 2012 0580 FFF7FEFF 		bl	atoi
 2013 0584 0346     		mov	r3, r0
 2014 0586 DAB2     		uxtb	r2, r3
 2015 0588 264B     		ldr	r3, .L84+92
 2016 058a 1A70     		strb	r2, [r3]
 568:..\Application/OS_Main.c ****         if(Port2_W_bits != Port2_W_bits_Old){
 2017              		.loc 1 568 0
 2018 058c FFF7FEFF 		bl	CyWdtClear
 569:..\Application/OS_Main.c ****             Port2_W_bits_Old = Port2_W_bits;
 2019              		.loc 1 569 0
 2020 0590 244B     		ldr	r3, .L84+92
 2021 0592 1A78     		ldrb	r2, [r3]	@ zero_extendqisi2
 2022 0594 244B     		ldr	r3, .L84+96
 2023 0596 1B78     		ldrb	r3, [r3]	@ zero_extendqisi2
 2024 0598 9A42     		cmp	r2, r3
 2025 059a 00F0BF80 		beq	.L81
 2026              	.LBB11:
 570:..\Application/OS_Main.c ****             char ss[100];
 2027              		.loc 1 570 0
 2028 059e 214B     		ldr	r3, .L84+92
 2029 05a0 1A78     		ldrb	r2, [r3]	@ zero_extendqisi2
 2030 05a2 214B     		ldr	r3, .L84+96
 2031 05a4 1A70     		strb	r2, [r3]
 572:..\Application/OS_Main.c ****             UART_Debug_PutString(ss);
 2032              		.loc 1 572 0
 2033 05a6 1F4B     		ldr	r3, .L84+92
 2034 05a8 1B78     		ldrb	r3, [r3]	@ zero_extendqisi2
 2035 05aa 1A46     		mov	r2, r3
 2036 05ac 07F10803 		add	r3, r7, #8
 2037 05b0 1E49     		ldr	r1, .L84+100
 2038 05b2 1846     		mov	r0, r3
 2039 05b4 FFF7FEFF 		bl	sprintf
 573:..\Application/OS_Main.c ****             CyWdtClear(); 
 2040              		.loc 1 573 0
 2041 05b8 07F10803 		add	r3, r7, #8
 2042 05bc 1846     		mov	r0, r3
 2043 05be FFF7FEFF 		bl	UART_Debug_PutString
 574:..\Application/OS_Main.c ****         }
 2044              		.loc 1 574 0
 2045 05c2 FFF7FEFF 		bl	CyWdtClear
 2046              	.LBE11:
 2047              	.LBE10:
 2048              		.loc 1 615 0
 2049 05c6 A9E0     		b	.L81
 2050              	.L85:
 2051              		.align	2
 2052              	.L84:
 2053 05c8 AC020000 		.word	.LC22
 2054 05cc 00000000 		.word	Port2_Relay
 2055 05d0 00000000 		.word	Port2_Relay_Old
 2056 05d4 B8020000 		.word	.LC23
 2057 05d8 C8020000 		.word	.LC24
ARM GAS  C:\Users\ali\AppData\Local\Temp\ccr9QJbk.s 			page 53


 2058 05dc D8020000 		.word	.LC25
 2059 05e0 E8020000 		.word	.LC26
 2060 05e4 00000000 		.word	Port1_Locked
 2061 05e8 00000000 		.word	Port1_Locked_Old
 2062 05ec F4020000 		.word	.LC27
 2063 05f0 04030000 		.word	.LC28
 2064 05f4 14030000 		.word	.LC29
 2065 05f8 24030000 		.word	.LC30
 2066 05fc 00000000 		.word	Port2_Locked
 2067 0600 00000000 		.word	Port2_Locked_Old
 2068 0604 30030000 		.word	.LC31
 2069 0608 40030000 		.word	.LC32
 2070 060c 50030000 		.word	.LC33
 2071 0610 60030000 		.word	.LC34
 2072 0614 00000000 		.word	Port1_W_bits
 2073 0618 00000000 		.word	Port1_W_bits_Old
 2074 061c 70030000 		.word	.LC35
 2075 0620 84030000 		.word	.LC36
 2076 0624 00000000 		.word	Port2_W_bits
 2077 0628 00000000 		.word	Port2_W_bits_Old
 2078 062c 94030000 		.word	.LC37
 2079              	.L73:
 578:..\Application/OS_Main.c ****         //RGB
 2080              		.loc 1 578 0
 2081 0630 3B1D     		adds	r3, r7, #4
 2082 0632 0722     		movs	r2, #7
 2083 0634 3C49     		ldr	r1, .L86
 2084 0636 1868     		ldr	r0, [r3]
 2085 0638 FFF7FEFF 		bl	memcmp
 2086 063c 0346     		mov	r3, r0
 2087 063e 002B     		cmp	r3, #0
 2088 0640 48D1     		bne	.L75
 2089              	.LBB12:
 580:..\Application/OS_Main.c ****         char* ret = NULL;
 2090              		.loc 1 580 0
 2091 0642 3A48     		ldr	r0, .L86+4
 2092 0644 FFF7FEFF 		bl	OS_TIMER_Restart
 581:..\Application/OS_Main.c ****         ret = strremove((char*)msg, "Cy RGB:");
 2093              		.loc 1 581 0
 2094 0648 0023     		movs	r3, #0
 2095 064a C7F80C31 		str	r3, [r7, #268]
 582:..\Application/OS_Main.c ****         CyWdtClear(); 
 2096              		.loc 1 582 0
 2097 064e 3B1D     		adds	r3, r7, #4
 2098 0650 3549     		ldr	r1, .L86
 2099 0652 1868     		ldr	r0, [r3]
 2100 0654 FFF7FEFF 		bl	strremove
 2101 0658 C7F80C01 		str	r0, [r7, #268]
 583:..\Application/OS_Main.c ****         uint32 color = strtol(ret, NULL, 10);
 2102              		.loc 1 583 0
 2103 065c FFF7FEFF 		bl	CyWdtClear
 584:..\Application/OS_Main.c ****         CyWdtClear(); 
 2104              		.loc 1 584 0
 2105 0660 0A22     		movs	r2, #10
 2106 0662 0021     		movs	r1, #0
 2107 0664 D7F80C01 		ldr	r0, [r7, #268]
 2108 0668 FFF7FEFF 		bl	strtol
ARM GAS  C:\Users\ali\AppData\Local\Temp\ccr9QJbk.s 			page 54


 2109 066c 0346     		mov	r3, r0
 2110 066e C7F80831 		str	r3, [r7, #264]
 585:..\Application/OS_Main.c ****         RGB_Color = (uint8)color;
 2111              		.loc 1 585 0
 2112 0672 FFF7FEFF 		bl	CyWdtClear
 586:..\Application/OS_Main.c ****         if(RGB_Color != RGB_Color_Old){
 2113              		.loc 1 586 0
 2114 0676 D7F80831 		ldr	r3, [r7, #264]
 2115 067a DAB2     		uxtb	r2, r3
 2116 067c 2C4B     		ldr	r3, .L86+8
 2117 067e 1A70     		strb	r2, [r3]
 587:..\Application/OS_Main.c ****             RGB_Color_Old = RGB_Color;
 2118              		.loc 1 587 0
 2119 0680 2B4B     		ldr	r3, .L86+8
 2120 0682 1A78     		ldrb	r2, [r3]	@ zero_extendqisi2
 2121 0684 2B4B     		ldr	r3, .L86+12
 2122 0686 1B78     		ldrb	r3, [r3]	@ zero_extendqisi2
 2123 0688 9A42     		cmp	r2, r3
 2124 068a 47D0     		beq	.L81
 2125              	.LBB13:
 588:..\Application/OS_Main.c ****             if(RGB_Color > 6 || RGB_Color < 0){
 2126              		.loc 1 588 0
 2127 068c 284B     		ldr	r3, .L86+8
 2128 068e 1A78     		ldrb	r2, [r3]	@ zero_extendqisi2
 2129 0690 284B     		ldr	r3, .L86+12
 2130 0692 1A70     		strb	r2, [r3]
 589:..\Application/OS_Main.c ****                 RGB_Color = 1;
 2131              		.loc 1 589 0
 2132 0694 264B     		ldr	r3, .L86+8
 2133 0696 1B78     		ldrb	r3, [r3]	@ zero_extendqisi2
 2134 0698 062B     		cmp	r3, #6
 2135 069a 05D9     		bls	.L77
 590:..\Application/OS_Main.c ****                 RGB_Color_Old = 1;
 2136              		.loc 1 590 0
 2137 069c 244B     		ldr	r3, .L86+8
 2138 069e 0122     		movs	r2, #1
 2139 06a0 1A70     		strb	r2, [r3]
 591:..\Application/OS_Main.c ****             }
 2140              		.loc 1 591 0
 2141 06a2 244B     		ldr	r3, .L86+12
 2142 06a4 0122     		movs	r2, #1
 2143 06a6 1A70     		strb	r2, [r3]
 2144              	.L77:
 593:..\Application/OS_Main.c ****             char ss[100];
 2145              		.loc 1 593 0
 2146 06a8 214B     		ldr	r3, .L86+8
 2147 06aa 1B78     		ldrb	r3, [r3]	@ zero_extendqisi2
 2148 06ac 1846     		mov	r0, r3
 2149 06ae FFF7FEFF 		bl	RGB
 595:..\Application/OS_Main.c ****             UART_Debug_PutString(ss);
 2150              		.loc 1 595 0
 2151 06b2 1F4B     		ldr	r3, .L86+8
 2152 06b4 1B78     		ldrb	r3, [r3]	@ zero_extendqisi2
 2153 06b6 1A46     		mov	r2, r3
 2154 06b8 07F10803 		add	r3, r7, #8
 2155 06bc 1E49     		ldr	r1, .L86+16
 2156 06be 1846     		mov	r0, r3
ARM GAS  C:\Users\ali\AppData\Local\Temp\ccr9QJbk.s 			page 55


 2157 06c0 FFF7FEFF 		bl	sprintf
 596:..\Application/OS_Main.c ****             CyWdtClear(); 
 2158              		.loc 1 596 0
 2159 06c4 07F10803 		add	r3, r7, #8
 2160 06c8 1846     		mov	r0, r3
 2161 06ca FFF7FEFF 		bl	UART_Debug_PutString
 597:..\Application/OS_Main.c ****         }
 2162              		.loc 1 597 0
 2163 06ce FFF7FEFF 		bl	CyWdtClear
 2164              	.LBE13:
 2165              	.LBE12:
 2166              		.loc 1 615 0
 2167 06d2 23E0     		b	.L81
 2168              	.L75:
 602:..\Application/OS_Main.c ****         CyWdtClear(); 
 2169              		.loc 1 602 0
 2170 06d4 3B1D     		adds	r3, r7, #4
 2171 06d6 0822     		movs	r2, #8
 2172 06d8 1849     		ldr	r1, .L86+20
 2173 06da 1868     		ldr	r0, [r3]
 2174 06dc FFF7FEFF 		bl	memcmp
 2175 06e0 0346     		mov	r3, r0
 2176 06e2 002B     		cmp	r3, #0
 2177 06e4 04D1     		bne	.L78
 603:..\Application/OS_Main.c ****         CySoftwareReset();
 2178              		.loc 1 603 0
 2179 06e6 FFF7FEFF 		bl	CyWdtClear
 604:..\Application/OS_Main.c ****     }
 2180              		.loc 1 604 0
 2181 06ea FFF7FEFF 		bl	CySoftwareReset
 2182              		.loc 1 615 0
 2183 06ee 15E0     		b	.L81
 2184              	.L78:
 606:..\Application/OS_Main.c ****         UART_Linux_PutArray((uint8*)"Cy Connected", strlen("Cy Connected") + 1); 
 2185              		.loc 1 606 0
 2186 06f0 3B1D     		adds	r3, r7, #4
 2187 06f2 0A22     		movs	r2, #10
 2188 06f4 1249     		ldr	r1, .L86+24
 2189 06f6 1868     		ldr	r0, [r3]
 2190 06f8 FFF7FEFF 		bl	memcmp
 2191 06fc 0346     		mov	r3, r0
 2192 06fe 002B     		cmp	r3, #0
 2193 0700 06D1     		bne	.L79
 607:..\Application/OS_Main.c **** //        UART_Linux_PutChar('\0');
 2194              		.loc 1 607 0
 2195 0702 0D21     		movs	r1, #13
 2196 0704 0F48     		ldr	r0, .L86+28
 2197 0706 FFF7FEFF 		bl	UART_Linux_PutArray
 609:..\Application/OS_Main.c ****     }
 2198              		.loc 1 609 0
 2199 070a FFF7FEFF 		bl	CyWdtClear
 2200              		.loc 1 615 0
 2201 070e 05E0     		b	.L81
 2202              	.L79:
 612:..\Application/OS_Main.c ****         CyWdtClear(); 
 2203              		.loc 1 612 0
 2204 0710 0D48     		ldr	r0, .L86+32
ARM GAS  C:\Users\ali\AppData\Local\Temp\ccr9QJbk.s 			page 56


 2205 0712 FFF7FEFF 		bl	UART_Debug_PutString
 613:..\Application/OS_Main.c ****     }
 2206              		.loc 1 613 0
 2207 0716 FFF7FEFF 		bl	CyWdtClear
 2208              		.loc 1 615 0
 2209 071a 00BF     		nop
 2210              	.L81:
 2211 071c 00BF     		nop
 616:..\Application/OS_Main.c **** }
 2212              		.loc 1 616 0
 2213 071e 07F58C77 		add	r7, r7, #280
 2214              		.cfi_def_cfa_offset 8
 2215 0722 BD46     		mov	sp, r7
 2216              		.cfi_def_cfa_register 13
 2217              		@ sp needed
 2218 0724 80BD     		pop	{r7, pc}
 2219              	.L87:
 2220 0726 00BF     		.align	2
 2221              	.L86:
 2222 0728 A8030000 		.word	.LC38
 2223 072c 00000000 		.word	Timer_RGB_LED
 2224 0730 00000000 		.word	RGB_Color
 2225 0734 00000000 		.word	RGB_Color_Old
 2226 0738 B0030000 		.word	.LC39
 2227 073c C4030000 		.word	.LC40
 2228 0740 D0030000 		.word	.LC41
 2229 0744 DC030000 		.word	.LC42
 2230 0748 EC030000 		.word	.LC43
 2231              		.cfi_endproc
 2232              	.LFE66:
 2233              		.size	CmdTask, .-CmdTask
 2234              		.section	.text.UART_Linux_Rx_ISR,"ax",%progbits
 2235              		.align	2
 2236              		.global	UART_Linux_Rx_ISR
 2237              		.thumb
 2238              		.thumb_func
 2239              		.type	UART_Linux_Rx_ISR, %function
 2240              	UART_Linux_Rx_ISR:
 2241              	.LFB67:
 617:..\Application/OS_Main.c **** 
 618:..\Application/OS_Main.c **** //Interrupt Service Routine
 619:..\Application/OS_Main.c **** CY_ISR(UART_Linux_Rx_ISR) 
 620:..\Application/OS_Main.c **** {   
 2242              		.loc 1 620 0
 2243              		.cfi_startproc
 2244              		@ args = 0, pretend = 0, frame = 8
 2245              		@ frame_needed = 1, uses_anonymous_args = 0
 2246 0000 80B5     		push	{r7, lr}
 2247              		.cfi_def_cfa_offset 8
 2248              		.cfi_offset 7, -8
 2249              		.cfi_offset 14, -4
 2250 0002 82B0     		sub	sp, sp, #8
 2251              		.cfi_def_cfa_offset 16
 2252 0004 00AF     		add	r7, sp, #0
 2253              		.cfi_def_cfa_register 7
 621:..\Application/OS_Main.c ****     OS_INT_Enter();
 2254              		.loc 1 621 0
ARM GAS  C:\Users\ali\AppData\Local\Temp\ccr9QJbk.s 			page 57


 2255 0006 5D4B     		ldr	r3, .L101
 2256 0008 93F87830 		ldrb	r3, [r3, #120]	@ zero_extendqisi2
 2257 000c 002B     		cmp	r3, #0
 2258 000e 02D1     		bne	.L89
 2259              		.loc 1 621 0 is_stmt 0 discriminator 1
 2260 0010 A520     		movs	r0, #165
 2261 0012 FFF7FEFF 		bl	OS_Error
 2262              	.L89:
 2263              		.loc 1 621 0 discriminator 3
 2264 0016 594B     		ldr	r3, .L101
 2265 0018 93F87730 		ldrb	r3, [r3, #119]	@ zero_extendqisi2
 2266 001c 0133     		adds	r3, r3, #1
 2267 001e DAB2     		uxtb	r2, r3
 2268 0020 564B     		ldr	r3, .L101
 2269 0022 83F87720 		strb	r2, [r3, #119]
 2270 0026 FFF7FEFF 		bl	OS_AssertCPUInISRMode
 2271              		.syntax unified
 2272              	@ 621 "..\Application\OS_Main.c" 1
 2273 002a 4FF08000 		mov  r0, #128    
 2274 002e 80F31188 		msr  basepri, r0 
 2275 0032 00BF     		nop              
 2276 0034 00BF     		nop              
 2277              		
 2278              	@ 0 "" 2
 2279              		.thumb
 2280              		.syntax unified
 2281 0036 514B     		ldr	r3, .L101
 2282 0038 1B78     		ldrb	r3, [r3]
 2283 003a DBB2     		uxtb	r3, r3
 2284 003c 0133     		adds	r3, r3, #1
 2285 003e DAB2     		uxtb	r2, r3
 2286 0040 4E4B     		ldr	r3, .L101
 2287 0042 1A70     		strb	r2, [r3]
 2288 0044 4D4B     		ldr	r3, .L101
 2289 0046 5B78     		ldrb	r3, [r3, #1]
 2290 0048 DBB2     		uxtb	r3, r3
 2291 004a 0133     		adds	r3, r3, #1
 2292 004c DAB2     		uxtb	r2, r3
 2293 004e 4B4B     		ldr	r3, .L101
 2294 0050 5A70     		strb	r2, [r3, #1]
 2295 0052 4A4B     		ldr	r3, .L101
 2296 0054 DB6B     		ldr	r3, [r3, #60]
 2297 0056 002B     		cmp	r3, #0
 2298 0058 03D0     		beq	.L90
 2299              		.loc 1 621 0 discriminator 4
 2300 005a 484B     		ldr	r3, .L101
 2301 005c DB6B     		ldr	r3, [r3, #60]
 2302 005e 1B68     		ldr	r3, [r3]
 2303 0060 9847     		blx	r3
 2304              	.L90:
 622:..\Application/OS_Main.c ****     
 623:..\Application/OS_Main.c ****     OS_TIMER_Restart(&Timer_Read_Linux);
 2305              		.loc 1 623 0 is_stmt 1
 2306 0062 4748     		ldr	r0, .L101+4
 2307 0064 FFF7FEFF 		bl	OS_TIMER_Restart
 624:..\Application/OS_Main.c ****     char c = UART_Linux_GetChar();
 2308              		.loc 1 624 0
ARM GAS  C:\Users\ali\AppData\Local\Temp\ccr9QJbk.s 			page 58


 2309 0068 FFF7FEFF 		bl	UART_Linux_GetChar
 2310 006c 0346     		mov	r3, r0
 2311 006e FB71     		strb	r3, [r7, #7]
 625:..\Application/OS_Main.c ****     
 626:..\Application/OS_Main.c ****     if(c == '\0'){  
 2312              		.loc 1 626 0
 2313 0070 FB79     		ldrb	r3, [r7, #7]	@ zero_extendqisi2
 2314 0072 002B     		cmp	r3, #0
 2315 0074 1CD1     		bne	.L91
 627:..\Application/OS_Main.c ****         UART_Linux_Rx_Buffer[UART_Linux_Rx_Counter] = c;
 2316              		.loc 1 627 0
 2317 0076 434B     		ldr	r3, .L101+8
 2318 0078 1B68     		ldr	r3, [r3]
 2319 007a 4349     		ldr	r1, .L101+12
 2320 007c FA79     		ldrb	r2, [r7, #7]
 2321 007e CA54     		strb	r2, [r1, r3]
 628:..\Application/OS_Main.c ****         UART_Linux_Rx_Counter++;
 2322              		.loc 1 628 0
 2323 0080 404B     		ldr	r3, .L101+8
 2324 0082 1B68     		ldr	r3, [r3]
 2325 0084 0133     		adds	r3, r3, #1
 2326 0086 3F4A     		ldr	r2, .L101+8
 2327 0088 1360     		str	r3, [r2]
 629:..\Application/OS_Main.c **** 
 630:..\Application/OS_Main.c ****         CmdTask(UART_Linux_Rx_Buffer);
 2328              		.loc 1 630 0
 2329 008a 3F48     		ldr	r0, .L101+12
 2330 008c FFF7FEFF 		bl	CmdTask
 631:..\Application/OS_Main.c ****         OS_TIMER_Stop(&Timer_Read_Linux);
 2331              		.loc 1 631 0
 2332 0090 3B48     		ldr	r0, .L101+4
 2333 0092 FFF7FEFF 		bl	OS_TIMER_Stop
 632:..\Application/OS_Main.c ****         
 633:..\Application/OS_Main.c ****         memset(UART_Linux_Rx_Buffer, '\0', UART_Linux_Rx_Counter);
 2334              		.loc 1 633 0
 2335 0096 3B4B     		ldr	r3, .L101+8
 2336 0098 1B68     		ldr	r3, [r3]
 2337 009a 1A46     		mov	r2, r3
 2338 009c 0021     		movs	r1, #0
 2339 009e 3A48     		ldr	r0, .L101+12
 2340 00a0 FFF7FEFF 		bl	memset
 634:..\Application/OS_Main.c ****         CyWdtClear(); 
 2341              		.loc 1 634 0
 2342 00a4 FFF7FEFF 		bl	CyWdtClear
 635:..\Application/OS_Main.c ****         UART_Linux_Rx_Counter = 0;
 2343              		.loc 1 635 0
 2344 00a8 364B     		ldr	r3, .L101+8
 2345 00aa 0022     		movs	r2, #0
 2346 00ac 1A60     		str	r2, [r3]
 2347 00ae 09E0     		b	.L92
 2348              	.L91:
 636:..\Application/OS_Main.c ****     }
 637:..\Application/OS_Main.c ****     else{
 638:..\Application/OS_Main.c ****         UART_Linux_Rx_Buffer[UART_Linux_Rx_Counter] = c;
 2349              		.loc 1 638 0
 2350 00b0 344B     		ldr	r3, .L101+8
 2351 00b2 1B68     		ldr	r3, [r3]
ARM GAS  C:\Users\ali\AppData\Local\Temp\ccr9QJbk.s 			page 59


 2352 00b4 3449     		ldr	r1, .L101+12
 2353 00b6 FA79     		ldrb	r2, [r7, #7]
 2354 00b8 CA54     		strb	r2, [r1, r3]
 639:..\Application/OS_Main.c ****         UART_Linux_Rx_Counter++;
 2355              		.loc 1 639 0
 2356 00ba 324B     		ldr	r3, .L101+8
 2357 00bc 1B68     		ldr	r3, [r3]
 2358 00be 0133     		adds	r3, r3, #1
 2359 00c0 304A     		ldr	r2, .L101+8
 2360 00c2 1360     		str	r3, [r2]
 2361              	.L92:
 640:..\Application/OS_Main.c ****     }
 641:..\Application/OS_Main.c ****     
 642:..\Application/OS_Main.c ****     OS_INT_Leave();
 2362              		.loc 1 642 0
 2363 00c4 2D4B     		ldr	r3, .L101
 2364 00c6 1B78     		ldrb	r3, [r3]
 2365 00c8 DBB2     		uxtb	r3, r3
 2366 00ca 012B     		cmp	r3, #1
 2367 00cc 0CD1     		bne	.L93
 2368              		.loc 1 642 0 is_stmt 0 discriminator 1
 2369 00ce 2B4B     		ldr	r3, .L101
 2370 00d0 5B68     		ldr	r3, [r3, #4]
 2371 00d2 002B     		cmp	r3, #0
 2372 00d4 08D0     		beq	.L93
 2373              		.loc 1 642 0 discriminator 3
 2374 00d6 294B     		ldr	r3, .L101
 2375 00d8 DB6B     		ldr	r3, [r3, #60]
 2376 00da 002B     		cmp	r3, #0
 2377 00dc 0CD0     		beq	.L95
 2378              		.loc 1 642 0 discriminator 5
 2379 00de 274B     		ldr	r3, .L101
 2380 00e0 DB6B     		ldr	r3, [r3, #60]
 2381 00e2 9B68     		ldr	r3, [r3, #8]
 2382 00e4 9847     		blx	r3
 2383 00e6 07E0     		b	.L95
 2384              	.L93:
 2385              		.loc 1 642 0 discriminator 4
 2386 00e8 244B     		ldr	r3, .L101
 2387 00ea DB6B     		ldr	r3, [r3, #60]
 2388 00ec 002B     		cmp	r3, #0
 2389 00ee 03D0     		beq	.L95
 2390              		.loc 1 642 0 discriminator 6
 2391 00f0 224B     		ldr	r3, .L101
 2392 00f2 DB6B     		ldr	r3, [r3, #60]
 2393 00f4 5B68     		ldr	r3, [r3, #4]
 2394 00f6 9847     		blx	r3
 2395              	.L95:
 2396              		.loc 1 642 0 discriminator 8
 2397 00f8 204B     		ldr	r3, .L101
 2398 00fa 5B78     		ldrb	r3, [r3, #1]
 2399 00fc DBB2     		uxtb	r3, r3
 2400 00fe 013B     		subs	r3, r3, #1
 2401 0100 DAB2     		uxtb	r2, r3
 2402 0102 1E4B     		ldr	r3, .L101
 2403 0104 5A70     		strb	r2, [r3, #1]
 2404 0106 1D4B     		ldr	r3, .L101
ARM GAS  C:\Users\ali\AppData\Local\Temp\ccr9QJbk.s 			page 60


 2405 0108 1B78     		ldrb	r3, [r3]
 2406 010a DBB2     		uxtb	r3, r3
 2407 010c 012B     		cmp	r3, #1
 2408 010e 16D1     		bne	.L96
 2409              		.loc 1 642 0 discriminator 9
 2410 0110 1A4B     		ldr	r3, .L101
 2411 0112 5B68     		ldr	r3, [r3, #4]
 2412 0114 002B     		cmp	r3, #0
 2413 0116 12D0     		beq	.L96
 2414              		.loc 1 642 0 discriminator 11
 2415 0118 184B     		ldr	r3, .L101
 2416 011a 93F87730 		ldrb	r3, [r3, #119]	@ zero_extendqisi2
 2417 011e 002B     		cmp	r3, #0
 2418 0120 02D1     		bne	.L97
 2419              		.loc 1 642 0 discriminator 13
 2420 0122 9820     		movs	r0, #152
 2421 0124 FFF7FEFF 		bl	OS_Error
 2422              	.L97:
 2423              		.loc 1 642 0 discriminator 15
 2424 0128 144B     		ldr	r3, .L101
 2425 012a 93F87730 		ldrb	r3, [r3, #119]	@ zero_extendqisi2
 2426 012e 013B     		subs	r3, r3, #1
 2427 0130 DAB2     		uxtb	r2, r3
 2428 0132 124B     		ldr	r3, .L101
 2429 0134 83F87720 		strb	r2, [r3, #119]
 2430 0138 FFF7FEFF 		bl	OS_SwitchFromInt
 2431 013c 0FE0     		b	.L98
 2432              	.L96:
 2433              		.loc 1 642 0 discriminator 12
 2434 013e 0F4B     		ldr	r3, .L101
 2435 0140 93F87730 		ldrb	r3, [r3, #119]	@ zero_extendqisi2
 2436 0144 002B     		cmp	r3, #0
 2437 0146 02D1     		bne	.L99
 2438              		.loc 1 642 0 discriminator 17
 2439 0148 9820     		movs	r0, #152
 2440 014a FFF7FEFF 		bl	OS_Error
 2441              	.L99:
 2442              		.loc 1 642 0 discriminator 19
 2443 014e 0B4B     		ldr	r3, .L101
 2444 0150 93F87730 		ldrb	r3, [r3, #119]	@ zero_extendqisi2
 2445 0154 013B     		subs	r3, r3, #1
 2446 0156 DAB2     		uxtb	r2, r3
 2447 0158 084B     		ldr	r3, .L101
 2448 015a 83F87720 		strb	r2, [r3, #119]
 2449              	.L98:
 2450              		.loc 1 642 0 discriminator 20
 2451 015e 074B     		ldr	r3, .L101
 2452 0160 1B78     		ldrb	r3, [r3]
 2453 0162 DBB2     		uxtb	r3, r3
 2454 0164 013B     		subs	r3, r3, #1
 2455 0166 DAB2     		uxtb	r2, r3
 2456 0168 044B     		ldr	r3, .L101
 2457 016a 1A70     		strb	r2, [r3]
 2458              		.syntax unified
 2459              	@ 642 "..\Application\OS_Main.c" 1
 2460 016c 4FF00000 		mov  r0, #0      
 2461 0170 80F31188 		msr  basepri, r0 
ARM GAS  C:\Users\ali\AppData\Local\Temp\ccr9QJbk.s 			page 61


 2462              		
 2463              	@ 0 "" 2
 643:..\Application/OS_Main.c ****     return;
 2464              		.loc 1 643 0 is_stmt 1 discriminator 20
 2465              		.thumb
 2466              		.syntax unified
 2467 0174 00BF     		nop
 644:..\Application/OS_Main.c ****     
 645:..\Application/OS_Main.c **** }
 2468              		.loc 1 645 0 discriminator 20
 2469 0176 0837     		adds	r7, r7, #8
 2470              		.cfi_def_cfa_offset 8
 2471 0178 BD46     		mov	sp, r7
 2472              		.cfi_def_cfa_register 13
 2473              		@ sp needed
 2474 017a 80BD     		pop	{r7, pc}
 2475              	.L102:
 2476              		.align	2
 2477              	.L101:
 2478 017c 00000000 		.word	OS_Global
 2479 0180 00000000 		.word	Timer_Read_Linux
 2480 0184 00000000 		.word	UART_Linux_Rx_Counter
 2481 0188 00000000 		.word	UART_Linux_Rx_Buffer
 2482              		.cfi_endproc
 2483              	.LFE67:
 2484              		.size	UART_Linux_Rx_ISR, .-UART_Linux_Rx_ISR
 2485              		.section	.text.Port1_ISR,"ax",%progbits
 2486              		.align	2
 2487              		.global	Port1_ISR
 2488              		.thumb
 2489              		.thumb_func
 2490              		.type	Port1_ISR, %function
 2491              	Port1_ISR:
 2492              	.LFB68:
 646:..\Application/OS_Main.c **** 
 647:..\Application/OS_Main.c **** CY_ISR(Port1_ISR)
 648:..\Application/OS_Main.c **** {
 2493              		.loc 1 648 0
 2494              		.cfi_startproc
 2495              		@ args = 0, pretend = 0, frame = 8
 2496              		@ frame_needed = 1, uses_anonymous_args = 0
 2497 0000 80B5     		push	{r7, lr}
 2498              		.cfi_def_cfa_offset 8
 2499              		.cfi_offset 7, -8
 2500              		.cfi_offset 14, -4
 2501 0002 82B0     		sub	sp, sp, #8
 2502              		.cfi_def_cfa_offset 16
 2503 0004 00AF     		add	r7, sp, #0
 2504              		.cfi_def_cfa_register 7
 649:..\Application/OS_Main.c **** //    CyGlobalIntDisable;
 650:..\Application/OS_Main.c ****     OS_INT_Enter();
 2505              		.loc 1 650 0
 2506 0006 494B     		ldr	r3, .L114
 2507 0008 93F87830 		ldrb	r3, [r3, #120]	@ zero_extendqisi2
 2508 000c 002B     		cmp	r3, #0
 2509 000e 02D1     		bne	.L104
 2510              		.loc 1 650 0 is_stmt 0 discriminator 1
ARM GAS  C:\Users\ali\AppData\Local\Temp\ccr9QJbk.s 			page 62


 2511 0010 A520     		movs	r0, #165
 2512 0012 FFF7FEFF 		bl	OS_Error
 2513              	.L104:
 2514              		.loc 1 650 0 discriminator 3
 2515 0016 454B     		ldr	r3, .L114
 2516 0018 93F87730 		ldrb	r3, [r3, #119]	@ zero_extendqisi2
 2517 001c 0133     		adds	r3, r3, #1
 2518 001e DAB2     		uxtb	r2, r3
 2519 0020 424B     		ldr	r3, .L114
 2520 0022 83F87720 		strb	r2, [r3, #119]
 2521 0026 FFF7FEFF 		bl	OS_AssertCPUInISRMode
 2522              		.syntax unified
 2523              	@ 650 "..\Application\OS_Main.c" 1
 2524 002a 4FF08000 		mov  r0, #128    
 2525 002e 80F31188 		msr  basepri, r0 
 2526 0032 00BF     		nop              
 2527 0034 00BF     		nop              
 2528              		
 2529              	@ 0 "" 2
 2530              		.thumb
 2531              		.syntax unified
 2532 0036 3D4B     		ldr	r3, .L114
 2533 0038 1B78     		ldrb	r3, [r3]
 2534 003a DBB2     		uxtb	r3, r3
 2535 003c 0133     		adds	r3, r3, #1
 2536 003e DAB2     		uxtb	r2, r3
 2537 0040 3A4B     		ldr	r3, .L114
 2538 0042 1A70     		strb	r2, [r3]
 2539 0044 394B     		ldr	r3, .L114
 2540 0046 5B78     		ldrb	r3, [r3, #1]
 2541 0048 DBB2     		uxtb	r3, r3
 2542 004a 0133     		adds	r3, r3, #1
 2543 004c DAB2     		uxtb	r2, r3
 2544 004e 374B     		ldr	r3, .L114
 2545 0050 5A70     		strb	r2, [r3, #1]
 2546 0052 364B     		ldr	r3, .L114
 2547 0054 DB6B     		ldr	r3, [r3, #60]
 2548 0056 002B     		cmp	r3, #0
 2549 0058 03D0     		beq	.L105
 2550              		.loc 1 650 0 discriminator 4
 2551 005a 344B     		ldr	r3, .L114
 2552 005c DB6B     		ldr	r3, [r3, #60]
 2553 005e 1B68     		ldr	r3, [r3]
 2554 0060 9847     		blx	r3
 2555              	.L105:
 651:..\Application/OS_Main.c **** 
 652:..\Application/OS_Main.c ****     uint8 intr = Pins_Port1_ClearInterrupt();
 2556              		.loc 1 652 0 is_stmt 1
 2557 0062 FFF7FEFF 		bl	Pins_Port1_ClearInterrupt
 2558 0066 0346     		mov	r3, r0
 2559 0068 FB71     		strb	r3, [r7, #7]
 653:..\Application/OS_Main.c ****     
 654:..\Application/OS_Main.c ****     Port1_Job(intr);
 2560              		.loc 1 654 0
 2561 006a FB79     		ldrb	r3, [r7, #7]	@ zero_extendqisi2
 2562 006c 1846     		mov	r0, r3
 2563 006e FFF7FEFF 		bl	Port1_Job
ARM GAS  C:\Users\ali\AppData\Local\Temp\ccr9QJbk.s 			page 63


 655:..\Application/OS_Main.c ****     
 656:..\Application/OS_Main.c ****     OS_INT_Leave();
 2564              		.loc 1 656 0
 2565 0072 2E4B     		ldr	r3, .L114
 2566 0074 1B78     		ldrb	r3, [r3]
 2567 0076 DBB2     		uxtb	r3, r3
 2568 0078 012B     		cmp	r3, #1
 2569 007a 0CD1     		bne	.L106
 2570              		.loc 1 656 0 is_stmt 0 discriminator 1
 2571 007c 2B4B     		ldr	r3, .L114
 2572 007e 5B68     		ldr	r3, [r3, #4]
 2573 0080 002B     		cmp	r3, #0
 2574 0082 08D0     		beq	.L106
 2575              		.loc 1 656 0 discriminator 3
 2576 0084 294B     		ldr	r3, .L114
 2577 0086 DB6B     		ldr	r3, [r3, #60]
 2578 0088 002B     		cmp	r3, #0
 2579 008a 0CD0     		beq	.L108
 2580              		.loc 1 656 0 discriminator 5
 2581 008c 274B     		ldr	r3, .L114
 2582 008e DB6B     		ldr	r3, [r3, #60]
 2583 0090 9B68     		ldr	r3, [r3, #8]
 2584 0092 9847     		blx	r3
 2585 0094 07E0     		b	.L108
 2586              	.L106:
 2587              		.loc 1 656 0 discriminator 4
 2588 0096 254B     		ldr	r3, .L114
 2589 0098 DB6B     		ldr	r3, [r3, #60]
 2590 009a 002B     		cmp	r3, #0
 2591 009c 03D0     		beq	.L108
 2592              		.loc 1 656 0 discriminator 6
 2593 009e 234B     		ldr	r3, .L114
 2594 00a0 DB6B     		ldr	r3, [r3, #60]
 2595 00a2 5B68     		ldr	r3, [r3, #4]
 2596 00a4 9847     		blx	r3
 2597              	.L108:
 2598              		.loc 1 656 0 discriminator 8
 2599 00a6 214B     		ldr	r3, .L114
 2600 00a8 5B78     		ldrb	r3, [r3, #1]
 2601 00aa DBB2     		uxtb	r3, r3
 2602 00ac 013B     		subs	r3, r3, #1
 2603 00ae DAB2     		uxtb	r2, r3
 2604 00b0 1E4B     		ldr	r3, .L114
 2605 00b2 5A70     		strb	r2, [r3, #1]
 2606 00b4 1D4B     		ldr	r3, .L114
 2607 00b6 1B78     		ldrb	r3, [r3]
 2608 00b8 DBB2     		uxtb	r3, r3
 2609 00ba 012B     		cmp	r3, #1
 2610 00bc 16D1     		bne	.L109
 2611              		.loc 1 656 0 discriminator 9
 2612 00be 1B4B     		ldr	r3, .L114
 2613 00c0 5B68     		ldr	r3, [r3, #4]
 2614 00c2 002B     		cmp	r3, #0
 2615 00c4 12D0     		beq	.L109
 2616              		.loc 1 656 0 discriminator 11
 2617 00c6 194B     		ldr	r3, .L114
 2618 00c8 93F87730 		ldrb	r3, [r3, #119]	@ zero_extendqisi2
ARM GAS  C:\Users\ali\AppData\Local\Temp\ccr9QJbk.s 			page 64


 2619 00cc 002B     		cmp	r3, #0
 2620 00ce 02D1     		bne	.L110
 2621              		.loc 1 656 0 discriminator 13
 2622 00d0 9820     		movs	r0, #152
 2623 00d2 FFF7FEFF 		bl	OS_Error
 2624              	.L110:
 2625              		.loc 1 656 0 discriminator 15
 2626 00d6 154B     		ldr	r3, .L114
 2627 00d8 93F87730 		ldrb	r3, [r3, #119]	@ zero_extendqisi2
 2628 00dc 013B     		subs	r3, r3, #1
 2629 00de DAB2     		uxtb	r2, r3
 2630 00e0 124B     		ldr	r3, .L114
 2631 00e2 83F87720 		strb	r2, [r3, #119]
 2632 00e6 FFF7FEFF 		bl	OS_SwitchFromInt
 2633 00ea 0FE0     		b	.L111
 2634              	.L109:
 2635              		.loc 1 656 0 discriminator 12
 2636 00ec 0F4B     		ldr	r3, .L114
 2637 00ee 93F87730 		ldrb	r3, [r3, #119]	@ zero_extendqisi2
 2638 00f2 002B     		cmp	r3, #0
 2639 00f4 02D1     		bne	.L112
 2640              		.loc 1 656 0 discriminator 17
 2641 00f6 9820     		movs	r0, #152
 2642 00f8 FFF7FEFF 		bl	OS_Error
 2643              	.L112:
 2644              		.loc 1 656 0 discriminator 19
 2645 00fc 0B4B     		ldr	r3, .L114
 2646 00fe 93F87730 		ldrb	r3, [r3, #119]	@ zero_extendqisi2
 2647 0102 013B     		subs	r3, r3, #1
 2648 0104 DAB2     		uxtb	r2, r3
 2649 0106 094B     		ldr	r3, .L114
 2650 0108 83F87720 		strb	r2, [r3, #119]
 2651              	.L111:
 2652              		.loc 1 656 0 discriminator 20
 2653 010c 074B     		ldr	r3, .L114
 2654 010e 1B78     		ldrb	r3, [r3]
 2655 0110 DBB2     		uxtb	r3, r3
 2656 0112 013B     		subs	r3, r3, #1
 2657 0114 DAB2     		uxtb	r2, r3
 2658 0116 054B     		ldr	r3, .L114
 2659 0118 1A70     		strb	r2, [r3]
 2660              		.syntax unified
 2661              	@ 656 "..\Application\OS_Main.c" 1
 2662 011a 4FF00000 		mov  r0, #0      
 2663 011e 80F31188 		msr  basepri, r0 
 2664              		
 2665              	@ 0 "" 2
 657:..\Application/OS_Main.c **** //     CyGlobalIntEnable;
 658:..\Application/OS_Main.c ****     return;
 2666              		.loc 1 658 0 is_stmt 1 discriminator 20
 2667              		.thumb
 2668              		.syntax unified
 2669 0122 00BF     		nop
 659:..\Application/OS_Main.c **** }
 2670              		.loc 1 659 0 discriminator 20
 2671 0124 0837     		adds	r7, r7, #8
 2672              		.cfi_def_cfa_offset 8
ARM GAS  C:\Users\ali\AppData\Local\Temp\ccr9QJbk.s 			page 65


 2673 0126 BD46     		mov	sp, r7
 2674              		.cfi_def_cfa_register 13
 2675              		@ sp needed
 2676 0128 80BD     		pop	{r7, pc}
 2677              	.L115:
 2678 012a 00BF     		.align	2
 2679              	.L114:
 2680 012c 00000000 		.word	OS_Global
 2681              		.cfi_endproc
 2682              	.LFE68:
 2683              		.size	Port1_ISR, .-Port1_ISR
 2684              		.section	.text.Port2_ISR,"ax",%progbits
 2685              		.align	2
 2686              		.global	Port2_ISR
 2687              		.thumb
 2688              		.thumb_func
 2689              		.type	Port2_ISR, %function
 2690              	Port2_ISR:
 2691              	.LFB69:
 660:..\Application/OS_Main.c **** 
 661:..\Application/OS_Main.c **** CY_ISR(Port2_ISR)
 662:..\Application/OS_Main.c **** {
 2692              		.loc 1 662 0
 2693              		.cfi_startproc
 2694              		@ args = 0, pretend = 0, frame = 8
 2695              		@ frame_needed = 1, uses_anonymous_args = 0
 2696 0000 80B5     		push	{r7, lr}
 2697              		.cfi_def_cfa_offset 8
 2698              		.cfi_offset 7, -8
 2699              		.cfi_offset 14, -4
 2700 0002 82B0     		sub	sp, sp, #8
 2701              		.cfi_def_cfa_offset 16
 2702 0004 00AF     		add	r7, sp, #0
 2703              		.cfi_def_cfa_register 7
 663:..\Application/OS_Main.c **** //    CyGlobalIntDisable;
 664:..\Application/OS_Main.c ****     OS_INT_Enter();
 2704              		.loc 1 664 0
 2705 0006 494B     		ldr	r3, .L127
 2706 0008 93F87830 		ldrb	r3, [r3, #120]	@ zero_extendqisi2
 2707 000c 002B     		cmp	r3, #0
 2708 000e 02D1     		bne	.L117
 2709              		.loc 1 664 0 is_stmt 0 discriminator 1
 2710 0010 A520     		movs	r0, #165
 2711 0012 FFF7FEFF 		bl	OS_Error
 2712              	.L117:
 2713              		.loc 1 664 0 discriminator 3
 2714 0016 454B     		ldr	r3, .L127
 2715 0018 93F87730 		ldrb	r3, [r3, #119]	@ zero_extendqisi2
 2716 001c 0133     		adds	r3, r3, #1
 2717 001e DAB2     		uxtb	r2, r3
 2718 0020 424B     		ldr	r3, .L127
 2719 0022 83F87720 		strb	r2, [r3, #119]
 2720 0026 FFF7FEFF 		bl	OS_AssertCPUInISRMode
 2721              		.syntax unified
 2722              	@ 664 "..\Application\OS_Main.c" 1
 2723 002a 4FF08000 		mov  r0, #128    
 2724 002e 80F31188 		msr  basepri, r0 
ARM GAS  C:\Users\ali\AppData\Local\Temp\ccr9QJbk.s 			page 66


 2725 0032 00BF     		nop              
 2726 0034 00BF     		nop              
 2727              		
 2728              	@ 0 "" 2
 2729              		.thumb
 2730              		.syntax unified
 2731 0036 3D4B     		ldr	r3, .L127
 2732 0038 1B78     		ldrb	r3, [r3]
 2733 003a DBB2     		uxtb	r3, r3
 2734 003c 0133     		adds	r3, r3, #1
 2735 003e DAB2     		uxtb	r2, r3
 2736 0040 3A4B     		ldr	r3, .L127
 2737 0042 1A70     		strb	r2, [r3]
 2738 0044 394B     		ldr	r3, .L127
 2739 0046 5B78     		ldrb	r3, [r3, #1]
 2740 0048 DBB2     		uxtb	r3, r3
 2741 004a 0133     		adds	r3, r3, #1
 2742 004c DAB2     		uxtb	r2, r3
 2743 004e 374B     		ldr	r3, .L127
 2744 0050 5A70     		strb	r2, [r3, #1]
 2745 0052 364B     		ldr	r3, .L127
 2746 0054 DB6B     		ldr	r3, [r3, #60]
 2747 0056 002B     		cmp	r3, #0
 2748 0058 03D0     		beq	.L118
 2749              		.loc 1 664 0 discriminator 4
 2750 005a 344B     		ldr	r3, .L127
 2751 005c DB6B     		ldr	r3, [r3, #60]
 2752 005e 1B68     		ldr	r3, [r3]
 2753 0060 9847     		blx	r3
 2754              	.L118:
 665:..\Application/OS_Main.c ****     
 666:..\Application/OS_Main.c ****     uint8 intr = Pins_Port2_ClearInterrupt();
 2755              		.loc 1 666 0 is_stmt 1
 2756 0062 FFF7FEFF 		bl	Pins_Port2_ClearInterrupt
 2757 0066 0346     		mov	r3, r0
 2758 0068 FB71     		strb	r3, [r7, #7]
 667:..\Application/OS_Main.c ****     
 668:..\Application/OS_Main.c ****     Port2_Job(intr);
 2759              		.loc 1 668 0
 2760 006a FB79     		ldrb	r3, [r7, #7]	@ zero_extendqisi2
 2761 006c 1846     		mov	r0, r3
 2762 006e FFF7FEFF 		bl	Port2_Job
 669:..\Application/OS_Main.c ****     
 670:..\Application/OS_Main.c ****     OS_INT_Leave();
 2763              		.loc 1 670 0
 2764 0072 2E4B     		ldr	r3, .L127
 2765 0074 1B78     		ldrb	r3, [r3]
 2766 0076 DBB2     		uxtb	r3, r3
 2767 0078 012B     		cmp	r3, #1
 2768 007a 0CD1     		bne	.L119
 2769              		.loc 1 670 0 is_stmt 0 discriminator 1
 2770 007c 2B4B     		ldr	r3, .L127
 2771 007e 5B68     		ldr	r3, [r3, #4]
 2772 0080 002B     		cmp	r3, #0
 2773 0082 08D0     		beq	.L119
 2774              		.loc 1 670 0 discriminator 3
 2775 0084 294B     		ldr	r3, .L127
ARM GAS  C:\Users\ali\AppData\Local\Temp\ccr9QJbk.s 			page 67


 2776 0086 DB6B     		ldr	r3, [r3, #60]
 2777 0088 002B     		cmp	r3, #0
 2778 008a 0CD0     		beq	.L121
 2779              		.loc 1 670 0 discriminator 5
 2780 008c 274B     		ldr	r3, .L127
 2781 008e DB6B     		ldr	r3, [r3, #60]
 2782 0090 9B68     		ldr	r3, [r3, #8]
 2783 0092 9847     		blx	r3
 2784 0094 07E0     		b	.L121
 2785              	.L119:
 2786              		.loc 1 670 0 discriminator 4
 2787 0096 254B     		ldr	r3, .L127
 2788 0098 DB6B     		ldr	r3, [r3, #60]
 2789 009a 002B     		cmp	r3, #0
 2790 009c 03D0     		beq	.L121
 2791              		.loc 1 670 0 discriminator 6
 2792 009e 234B     		ldr	r3, .L127
 2793 00a0 DB6B     		ldr	r3, [r3, #60]
 2794 00a2 5B68     		ldr	r3, [r3, #4]
 2795 00a4 9847     		blx	r3
 2796              	.L121:
 2797              		.loc 1 670 0 discriminator 8
 2798 00a6 214B     		ldr	r3, .L127
 2799 00a8 5B78     		ldrb	r3, [r3, #1]
 2800 00aa DBB2     		uxtb	r3, r3
 2801 00ac 013B     		subs	r3, r3, #1
 2802 00ae DAB2     		uxtb	r2, r3
 2803 00b0 1E4B     		ldr	r3, .L127
 2804 00b2 5A70     		strb	r2, [r3, #1]
 2805 00b4 1D4B     		ldr	r3, .L127
 2806 00b6 1B78     		ldrb	r3, [r3]
 2807 00b8 DBB2     		uxtb	r3, r3
 2808 00ba 012B     		cmp	r3, #1
 2809 00bc 16D1     		bne	.L122
 2810              		.loc 1 670 0 discriminator 9
 2811 00be 1B4B     		ldr	r3, .L127
 2812 00c0 5B68     		ldr	r3, [r3, #4]
 2813 00c2 002B     		cmp	r3, #0
 2814 00c4 12D0     		beq	.L122
 2815              		.loc 1 670 0 discriminator 11
 2816 00c6 194B     		ldr	r3, .L127
 2817 00c8 93F87730 		ldrb	r3, [r3, #119]	@ zero_extendqisi2
 2818 00cc 002B     		cmp	r3, #0
 2819 00ce 02D1     		bne	.L123
 2820              		.loc 1 670 0 discriminator 13
 2821 00d0 9820     		movs	r0, #152
 2822 00d2 FFF7FEFF 		bl	OS_Error
 2823              	.L123:
 2824              		.loc 1 670 0 discriminator 15
 2825 00d6 154B     		ldr	r3, .L127
 2826 00d8 93F87730 		ldrb	r3, [r3, #119]	@ zero_extendqisi2
 2827 00dc 013B     		subs	r3, r3, #1
 2828 00de DAB2     		uxtb	r2, r3
 2829 00e0 124B     		ldr	r3, .L127
 2830 00e2 83F87720 		strb	r2, [r3, #119]
 2831 00e6 FFF7FEFF 		bl	OS_SwitchFromInt
 2832 00ea 0FE0     		b	.L124
ARM GAS  C:\Users\ali\AppData\Local\Temp\ccr9QJbk.s 			page 68


 2833              	.L122:
 2834              		.loc 1 670 0 discriminator 12
 2835 00ec 0F4B     		ldr	r3, .L127
 2836 00ee 93F87730 		ldrb	r3, [r3, #119]	@ zero_extendqisi2
 2837 00f2 002B     		cmp	r3, #0
 2838 00f4 02D1     		bne	.L125
 2839              		.loc 1 670 0 discriminator 17
 2840 00f6 9820     		movs	r0, #152
 2841 00f8 FFF7FEFF 		bl	OS_Error
 2842              	.L125:
 2843              		.loc 1 670 0 discriminator 19
 2844 00fc 0B4B     		ldr	r3, .L127
 2845 00fe 93F87730 		ldrb	r3, [r3, #119]	@ zero_extendqisi2
 2846 0102 013B     		subs	r3, r3, #1
 2847 0104 DAB2     		uxtb	r2, r3
 2848 0106 094B     		ldr	r3, .L127
 2849 0108 83F87720 		strb	r2, [r3, #119]
 2850              	.L124:
 2851              		.loc 1 670 0 discriminator 20
 2852 010c 074B     		ldr	r3, .L127
 2853 010e 1B78     		ldrb	r3, [r3]
 2854 0110 DBB2     		uxtb	r3, r3
 2855 0112 013B     		subs	r3, r3, #1
 2856 0114 DAB2     		uxtb	r2, r3
 2857 0116 054B     		ldr	r3, .L127
 2858 0118 1A70     		strb	r2, [r3]
 2859              		.syntax unified
 2860              	@ 670 "..\Application\OS_Main.c" 1
 2861 011a 4FF00000 		mov  r0, #0      
 2862 011e 80F31188 		msr  basepri, r0 
 2863              		
 2864              	@ 0 "" 2
 671:..\Application/OS_Main.c **** //    CyGlobalIntEnable;
 672:..\Application/OS_Main.c ****     return;
 2865              		.loc 1 672 0 is_stmt 1 discriminator 20
 2866              		.thumb
 2867              		.syntax unified
 2868 0122 00BF     		nop
 673:..\Application/OS_Main.c **** }
 2869              		.loc 1 673 0 discriminator 20
 2870 0124 0837     		adds	r7, r7, #8
 2871              		.cfi_def_cfa_offset 8
 2872 0126 BD46     		mov	sp, r7
 2873              		.cfi_def_cfa_register 13
 2874              		@ sp needed
 2875 0128 80BD     		pop	{r7, pc}
 2876              	.L128:
 2877 012a 00BF     		.align	2
 2878              	.L127:
 2879 012c 00000000 		.word	OS_Global
 2880              		.cfi_endproc
 2881              	.LFE69:
 2882              		.size	Port2_ISR, .-Port2_ISR
 2883              		.section	.rodata
 2884 03fe 0000     		.align	2
 2885              	.LC44:
 2886 0400 6C696E75 		.ascii	"linux_uart_failure = %lu\015\012\000"
ARM GAS  C:\Users\ali\AppData\Local\Temp\ccr9QJbk.s 			page 69


 2886      785F7561 
 2886      72745F66 
 2886      61696C75 
 2886      7265203D 
 2887 041b 00       		.align	2
 2888              	.LC45:
 2889 041c 2A2A2A2A 		.ascii	"****************************\015\012\000"
 2889      2A2A2A2A 
 2889      2A2A2A2A 
 2889      2A2A2A2A 
 2889      2A2A2A2A 
 2890 043b 00       		.align	2
 2891              	.LC46:
 2892 043c 54696D65 		.ascii	"Timer_Read_Linux_Callback\015\012\000"
 2892      725F5265 
 2892      61645F4C 
 2892      696E7578 
 2892      5F43616C 
 2893              		.section	.text.Timer_Read_Linux_Callback,"ax",%progbits
 2894              		.align	2
 2895              		.global	Timer_Read_Linux_Callback
 2896              		.thumb
 2897              		.thumb_func
 2898              		.type	Timer_Read_Linux_Callback, %function
 2899              	Timer_Read_Linux_Callback:
 2900              	.LFB70:
 674:..\Application/OS_Main.c **** 
 675:..\Application/OS_Main.c **** 
 676:..\Application/OS_Main.c **** //Callbacks
 677:..\Application/OS_Main.c **** void Timer_Read_Linux_Callback()
 678:..\Application/OS_Main.c **** {
 2901              		.loc 1 678 0
 2902              		.cfi_startproc
 2903              		@ args = 0, pretend = 0, frame = 128
 2904              		@ frame_needed = 1, uses_anonymous_args = 0
 2905 0000 80B5     		push	{r7, lr}
 2906              		.cfi_def_cfa_offset 8
 2907              		.cfi_offset 7, -8
 2908              		.cfi_offset 14, -4
 2909 0002 A0B0     		sub	sp, sp, #128
 2910              		.cfi_def_cfa_offset 136
 2911 0004 00AF     		add	r7, sp, #0
 2912              		.cfi_def_cfa_register 7
 679:..\Application/OS_Main.c ****     OS_TIMER_Stop(&Timer_Read_Linux);
 2913              		.loc 1 679 0
 2914 0006 1848     		ldr	r0, .L131
 2915 0008 FFF7FEFF 		bl	OS_TIMER_Stop
 680:..\Application/OS_Main.c ****     
 681:..\Application/OS_Main.c ****     linux_uart_failure++;
 2916              		.loc 1 681 0
 2917 000c 174B     		ldr	r3, .L131+4
 2918 000e 1B68     		ldr	r3, [r3]
 2919 0010 0133     		adds	r3, r3, #1
 2920 0012 164A     		ldr	r2, .L131+4
 2921 0014 1360     		str	r3, [r2]
 682:..\Application/OS_Main.c ****     char data[128];
 683:..\Application/OS_Main.c ****     sprintf(data, "linux_uart_failure = %lu\r\n", linux_uart_failure);
ARM GAS  C:\Users\ali\AppData\Local\Temp\ccr9QJbk.s 			page 70


 2922              		.loc 1 683 0
 2923 0016 154B     		ldr	r3, .L131+4
 2924 0018 1A68     		ldr	r2, [r3]
 2925 001a 3B46     		mov	r3, r7
 2926 001c 1449     		ldr	r1, .L131+8
 2927 001e 1846     		mov	r0, r3
 2928 0020 FFF7FEFF 		bl	sprintf
 684:..\Application/OS_Main.c ****     
 685:..\Application/OS_Main.c ****     UART_Debug_PutString("****************************\r\n");
 2929              		.loc 1 685 0
 2930 0024 1348     		ldr	r0, .L131+12
 2931 0026 FFF7FEFF 		bl	UART_Debug_PutString
 686:..\Application/OS_Main.c ****     UART_Debug_PutString("Timer_Read_Linux_Callback\r\n");
 2932              		.loc 1 686 0
 2933 002a 1348     		ldr	r0, .L131+16
 2934 002c FFF7FEFF 		bl	UART_Debug_PutString
 687:..\Application/OS_Main.c ****     CyWdtClear(); 
 2935              		.loc 1 687 0
 2936 0030 FFF7FEFF 		bl	CyWdtClear
 688:..\Application/OS_Main.c ****     UART_Debug_PutString(data);
 2937              		.loc 1 688 0
 2938 0034 3B46     		mov	r3, r7
 2939 0036 1846     		mov	r0, r3
 2940 0038 FFF7FEFF 		bl	UART_Debug_PutString
 689:..\Application/OS_Main.c ****     UART_Debug_PutString("****************************\r\n");
 2941              		.loc 1 689 0
 2942 003c 0D48     		ldr	r0, .L131+12
 2943 003e FFF7FEFF 		bl	UART_Debug_PutString
 690:..\Application/OS_Main.c ****     CyWdtClear(); 
 2944              		.loc 1 690 0
 2945 0042 FFF7FEFF 		bl	CyWdtClear
 691:..\Application/OS_Main.c ****     
 692:..\Application/OS_Main.c ****     memset(UART_Linux_Rx_Buffer, '\0', UART_Linux_Rx_Counter);
 2946              		.loc 1 692 0
 2947 0046 0D4B     		ldr	r3, .L131+20
 2948 0048 1B68     		ldr	r3, [r3]
 2949 004a 1A46     		mov	r2, r3
 2950 004c 0021     		movs	r1, #0
 2951 004e 0C48     		ldr	r0, .L131+24
 2952 0050 FFF7FEFF 		bl	memset
 693:..\Application/OS_Main.c ****     CyWdtClear(); 
 2953              		.loc 1 693 0
 2954 0054 FFF7FEFF 		bl	CyWdtClear
 694:..\Application/OS_Main.c ****     UART_Linux_Rx_Counter = 0;
 2955              		.loc 1 694 0
 2956 0058 084B     		ldr	r3, .L131+20
 2957 005a 0022     		movs	r2, #0
 2958 005c 1A60     		str	r2, [r3]
 695:..\Application/OS_Main.c ****     
 696:..\Application/OS_Main.c ****     return;
 2959              		.loc 1 696 0
 2960 005e 00BF     		nop
 697:..\Application/OS_Main.c **** }
 2961              		.loc 1 697 0
 2962 0060 8037     		adds	r7, r7, #128
 2963              		.cfi_def_cfa_offset 8
 2964 0062 BD46     		mov	sp, r7
ARM GAS  C:\Users\ali\AppData\Local\Temp\ccr9QJbk.s 			page 71


 2965              		.cfi_def_cfa_register 13
 2966              		@ sp needed
 2967 0064 80BD     		pop	{r7, pc}
 2968              	.L132:
 2969 0066 00BF     		.align	2
 2970              	.L131:
 2971 0068 00000000 		.word	Timer_Read_Linux
 2972 006c 00000000 		.word	linux_uart_failure
 2973 0070 00040000 		.word	.LC44
 2974 0074 1C040000 		.word	.LC45
 2975 0078 3C040000 		.word	.LC46
 2976 007c 00000000 		.word	UART_Linux_Rx_Counter
 2977 0080 00000000 		.word	UART_Linux_Rx_Buffer
 2978              		.cfi_endproc
 2979              	.LFE70:
 2980              		.size	Timer_Read_Linux_Callback, .-Timer_Read_Linux_Callback
 2981              		.section	.rodata
 2982              		.align	2
 2983              	.LC47:
 2984 0458 54696D65 		.ascii	"Timer_RGB_LED_Callback --> RGB_Color = %d\015\012\000"
 2984      725F5247 
 2984      425F4C45 
 2984      445F4361 
 2984      6C6C6261 
 2985              		.section	.text.Timer_RGB_LED_Callback,"ax",%progbits
 2986              		.align	2
 2987              		.global	Timer_RGB_LED_Callback
 2988              		.thumb
 2989              		.thumb_func
 2990              		.type	Timer_RGB_LED_Callback, %function
 2991              	Timer_RGB_LED_Callback:
 2992              	.LFB71:
 698:..\Application/OS_Main.c **** 
 699:..\Application/OS_Main.c **** void Timer_RGB_LED_Callback()
 700:..\Application/OS_Main.c **** {
 2993              		.loc 1 700 0
 2994              		.cfi_startproc
 2995              		@ args = 0, pretend = 0, frame = 256
 2996              		@ frame_needed = 1, uses_anonymous_args = 0
 2997 0000 80B5     		push	{r7, lr}
 2998              		.cfi_def_cfa_offset 8
 2999              		.cfi_offset 7, -8
 3000              		.cfi_offset 14, -4
 3001 0002 C0B0     		sub	sp, sp, #256
 3002              		.cfi_def_cfa_offset 264
 3003 0004 00AF     		add	r7, sp, #0
 3004              		.cfi_def_cfa_register 7
 701:..\Application/OS_Main.c ****     OS_TIMER_Stop(&Timer_RGB_LED);
 3005              		.loc 1 701 0
 3006 0006 1648     		ldr	r0, .L136
 3007 0008 FFF7FEFF 		bl	OS_TIMER_Stop
 702:..\Application/OS_Main.c ****     
 703:..\Application/OS_Main.c ****     RGB_Color = 1;
 3008              		.loc 1 703 0
 3009 000c 154B     		ldr	r3, .L136+4
 3010 000e 0122     		movs	r2, #1
 3011 0010 1A70     		strb	r2, [r3]
ARM GAS  C:\Users\ali\AppData\Local\Temp\ccr9QJbk.s 			page 72


 704:..\Application/OS_Main.c ****     if(RGB_Color != RGB_Color_Old){
 3012              		.loc 1 704 0
 3013 0012 144B     		ldr	r3, .L136+4
 3014 0014 1A78     		ldrb	r2, [r3]	@ zero_extendqisi2
 3015 0016 144B     		ldr	r3, .L136+8
 3016 0018 1B78     		ldrb	r3, [r3]	@ zero_extendqisi2
 3017 001a 9A42     		cmp	r2, r3
 3018 001c 18D0     		beq	.L134
 3019              	.LBB14:
 705:..\Application/OS_Main.c ****         RGB_Color_Old = RGB_Color;
 3020              		.loc 1 705 0
 3021 001e 114B     		ldr	r3, .L136+4
 3022 0020 1A78     		ldrb	r2, [r3]	@ zero_extendqisi2
 3023 0022 114B     		ldr	r3, .L136+8
 3024 0024 1A70     		strb	r2, [r3]
 706:..\Application/OS_Main.c ****         RGB(RGB_Color);
 3025              		.loc 1 706 0
 3026 0026 0F4B     		ldr	r3, .L136+4
 3027 0028 1B78     		ldrb	r3, [r3]	@ zero_extendqisi2
 3028 002a 1846     		mov	r0, r3
 3029 002c FFF7FEFF 		bl	RGB
 707:..\Application/OS_Main.c ****         
 708:..\Application/OS_Main.c ****         char ss[256];
 709:..\Application/OS_Main.c ****         sprintf(ss, "Timer_RGB_LED_Callback --> RGB_Color = %d\r\n", RGB_Color);
 3030              		.loc 1 709 0
 3031 0030 0C4B     		ldr	r3, .L136+4
 3032 0032 1B78     		ldrb	r3, [r3]	@ zero_extendqisi2
 3033 0034 1A46     		mov	r2, r3
 3034 0036 3B46     		mov	r3, r7
 3035 0038 0C49     		ldr	r1, .L136+12
 3036 003a 1846     		mov	r0, r3
 3037 003c FFF7FEFF 		bl	sprintf
 710:..\Application/OS_Main.c ****         CyWdtClear(); 
 3038              		.loc 1 710 0
 3039 0040 FFF7FEFF 		bl	CyWdtClear
 711:..\Application/OS_Main.c ****         UART_Debug_PutString(ss);
 3040              		.loc 1 711 0
 3041 0044 3B46     		mov	r3, r7
 3042 0046 1846     		mov	r0, r3
 3043 0048 FFF7FEFF 		bl	UART_Debug_PutString
 712:..\Application/OS_Main.c ****         CyWdtClear(); 
 3044              		.loc 1 712 0
 3045 004c FFF7FEFF 		bl	CyWdtClear
 3046              	.L134:
 3047              	.LBE14:
 713:..\Application/OS_Main.c ****     }
 714:..\Application/OS_Main.c ****     
 715:..\Application/OS_Main.c ****     OS_TIMER_Restart(&Timer_RGB_LED);
 3048              		.loc 1 715 0
 3049 0050 0348     		ldr	r0, .L136
 3050 0052 FFF7FEFF 		bl	OS_TIMER_Restart
 716:..\Application/OS_Main.c ****     
 717:..\Application/OS_Main.c ****     return;
 3051              		.loc 1 717 0
 3052 0056 00BF     		nop
 718:..\Application/OS_Main.c **** }
 3053              		.loc 1 718 0
ARM GAS  C:\Users\ali\AppData\Local\Temp\ccr9QJbk.s 			page 73


 3054 0058 07F58077 		add	r7, r7, #256
 3055              		.cfi_def_cfa_offset 8
 3056 005c BD46     		mov	sp, r7
 3057              		.cfi_def_cfa_register 13
 3058              		@ sp needed
 3059 005e 80BD     		pop	{r7, pc}
 3060              	.L137:
 3061              		.align	2
 3062              	.L136:
 3063 0060 00000000 		.word	Timer_RGB_LED
 3064 0064 00000000 		.word	RGB_Color
 3065 0068 00000000 		.word	RGB_Color_Old
 3066 006c 58040000 		.word	.LC47
 3067              		.cfi_endproc
 3068              	.LFE71:
 3069              		.size	Timer_RGB_LED_Callback, .-Timer_RGB_LED_Callback
 3070              		.section	.rodata
 3071              		.align	2
 3072              	.LC48:
 3073 0484 72656164 		.ascii	"read_failure_port1 = %lu, read_failure_port2 = %lu,"
 3073      5F666169 
 3073      6C757265 
 3073      5F706F72 
 3073      7431203D 
 3074 04b7 20726561 		.ascii	" read_failure_total = %lu\015\012\000"
 3074      645F6661 
 3074      696C7572 
 3074      655F746F 
 3074      74616C20 
 3075 04d3 00       		.align	2
 3076              	.LC49:
 3077 04d4 54696D65 		.ascii	"Timer_Read_W_Port1_Callback\015\012\000"
 3077      725F5265 
 3077      61645F57 
 3077      5F506F72 
 3077      74315F43 
 3078              		.section	.text.Timer_Read_W_Port1_Callback,"ax",%progbits
 3079              		.align	2
 3080              		.global	Timer_Read_W_Port1_Callback
 3081              		.thumb
 3082              		.thumb_func
 3083              		.type	Timer_Read_W_Port1_Callback, %function
 3084              	Timer_Read_W_Port1_Callback:
 3085              	.LFB72:
 719:..\Application/OS_Main.c **** 
 720:..\Application/OS_Main.c **** void Timer_Read_W_Port1_Callback()
 721:..\Application/OS_Main.c **** {
 3086              		.loc 1 721 0
 3087              		.cfi_startproc
 3088              		@ args = 0, pretend = 0, frame = 256
 3089              		@ frame_needed = 1, uses_anonymous_args = 0
 3090 0000 80B5     		push	{r7, lr}
 3091              		.cfi_def_cfa_offset 8
 3092              		.cfi_offset 7, -8
 3093              		.cfi_offset 14, -4
 3094 0002 C2B0     		sub	sp, sp, #264
 3095              		.cfi_def_cfa_offset 272
ARM GAS  C:\Users\ali\AppData\Local\Temp\ccr9QJbk.s 			page 74


 3096 0004 02AF     		add	r7, sp, #8
 3097              		.cfi_def_cfa 7, 264
 722:..\Application/OS_Main.c ****     OS_TIMER_Stop(&Timer_Read_W_Port1);
 3098              		.loc 1 722 0
 3099 0006 1E48     		ldr	r0, .L140
 3100 0008 FFF7FEFF 		bl	OS_TIMER_Stop
 723:..\Application/OS_Main.c ****     
 724:..\Application/OS_Main.c ****     read_failure_port1++;
 3101              		.loc 1 724 0
 3102 000c 1D4B     		ldr	r3, .L140+4
 3103 000e 1B68     		ldr	r3, [r3]
 3104 0010 0133     		adds	r3, r3, #1
 3105 0012 1C4A     		ldr	r2, .L140+4
 3106 0014 1360     		str	r3, [r2]
 725:..\Application/OS_Main.c ****     read_failure_total = read_failure_port1 + read_failure_port2;
 3107              		.loc 1 725 0
 3108 0016 1B4B     		ldr	r3, .L140+4
 3109 0018 1A68     		ldr	r2, [r3]
 3110 001a 1B4B     		ldr	r3, .L140+8
 3111 001c 1B68     		ldr	r3, [r3]
 3112 001e 1344     		add	r3, r3, r2
 3113 0020 1A4A     		ldr	r2, .L140+12
 3114 0022 1360     		str	r3, [r2]
 726:..\Application/OS_Main.c ****     char data[256];
 727:..\Application/OS_Main.c ****     sprintf(data, "read_failure_port1 = %lu, read_failure_port2 = %lu, read_failure_total = %lu\r\n
 3115              		.loc 1 727 0
 3116 0024 174B     		ldr	r3, .L140+4
 3117 0026 1A68     		ldr	r2, [r3]
 3118 0028 174B     		ldr	r3, .L140+8
 3119 002a 1968     		ldr	r1, [r3]
 3120 002c 174B     		ldr	r3, .L140+12
 3121 002e 1B68     		ldr	r3, [r3]
 3122 0030 3846     		mov	r0, r7
 3123 0032 0093     		str	r3, [sp]
 3124 0034 0B46     		mov	r3, r1
 3125 0036 1649     		ldr	r1, .L140+16
 3126 0038 FFF7FEFF 		bl	sprintf
 728:..\Application/OS_Main.c ****     UART_Debug_PutString("****************************\r\n");
 3127              		.loc 1 728 0
 3128 003c 1548     		ldr	r0, .L140+20
 3129 003e FFF7FEFF 		bl	UART_Debug_PutString
 729:..\Application/OS_Main.c ****     UART_Debug_PutString("Timer_Read_W_Port1_Callback\r\n");
 3130              		.loc 1 729 0
 3131 0042 1548     		ldr	r0, .L140+24
 3132 0044 FFF7FEFF 		bl	UART_Debug_PutString
 730:..\Application/OS_Main.c ****     CyWdtClear(); 
 3133              		.loc 1 730 0
 3134 0048 FFF7FEFF 		bl	CyWdtClear
 731:..\Application/OS_Main.c ****     UART_Debug_PutString(data);
 3135              		.loc 1 731 0
 3136 004c 3B46     		mov	r3, r7
 3137 004e 1846     		mov	r0, r3
 3138 0050 FFF7FEFF 		bl	UART_Debug_PutString
 732:..\Application/OS_Main.c ****     UART_Debug_PutString("****************************\r\n");
 3139              		.loc 1 732 0
 3140 0054 0F48     		ldr	r0, .L140+20
 3141 0056 FFF7FEFF 		bl	UART_Debug_PutString
ARM GAS  C:\Users\ali\AppData\Local\Temp\ccr9QJbk.s 			page 75


 733:..\Application/OS_Main.c ****     CyWdtClear(); 
 3142              		.loc 1 733 0
 3143 005a FFF7FEFF 		bl	CyWdtClear
 734:..\Application/OS_Main.c ****     
 735:..\Application/OS_Main.c ****     Port1_W_Counter = 0;
 3144              		.loc 1 735 0
 3145 005e 0F4B     		ldr	r3, .L140+28
 3146 0060 0022     		movs	r2, #0
 3147 0062 1A70     		strb	r2, [r3]
 736:..\Application/OS_Main.c ****     Port1_w_Start = 0;
 3148              		.loc 1 736 0
 3149 0064 0E4B     		ldr	r3, .L140+32
 3150 0066 0022     		movs	r2, #0
 3151 0068 1A70     		strb	r2, [r3]
 737:..\Application/OS_Main.c ****     Port1_W[0] = '\0';
 3152              		.loc 1 737 0
 3153 006a 0E4B     		ldr	r3, .L140+36
 3154 006c 0022     		movs	r2, #0
 3155 006e 1A70     		strb	r2, [r3]
 738:..\Application/OS_Main.c ****     Port1_w_have = 0;
 3156              		.loc 1 738 0
 3157 0070 0D4B     		ldr	r3, .L140+40
 3158 0072 0022     		movs	r2, #0
 3159 0074 1A70     		strb	r2, [r3]
 739:..\Application/OS_Main.c ****     
 740:..\Application/OS_Main.c ****     return;
 3160              		.loc 1 740 0
 3161 0076 00BF     		nop
 741:..\Application/OS_Main.c **** }
 3162              		.loc 1 741 0
 3163 0078 07F58077 		add	r7, r7, #256
 3164              		.cfi_def_cfa_offset 8
 3165 007c BD46     		mov	sp, r7
 3166              		.cfi_def_cfa_register 13
 3167              		@ sp needed
 3168 007e 80BD     		pop	{r7, pc}
 3169              	.L141:
 3170              		.align	2
 3171              	.L140:
 3172 0080 00000000 		.word	Timer_Read_W_Port1
 3173 0084 00000000 		.word	read_failure_port1
 3174 0088 00000000 		.word	read_failure_port2
 3175 008c 00000000 		.word	read_failure_total
 3176 0090 84040000 		.word	.LC48
 3177 0094 1C040000 		.word	.LC45
 3178 0098 D4040000 		.word	.LC49
 3179 009c 00000000 		.word	Port1_W_Counter
 3180 00a0 00000000 		.word	Port1_w_Start
 3181 00a4 00000000 		.word	Port1_W
 3182 00a8 00000000 		.word	Port1_w_have
 3183              		.cfi_endproc
 3184              	.LFE72:
 3185              		.size	Timer_Read_W_Port1_Callback, .-Timer_Read_W_Port1_Callback
 3186              		.section	.rodata
 3187 04f2 0000     		.align	2
 3188              	.LC50:
 3189 04f4 54696D65 		.ascii	"Timer_Read_W_Port2_Callback\015\012\000"
ARM GAS  C:\Users\ali\AppData\Local\Temp\ccr9QJbk.s 			page 76


 3189      725F5265 
 3189      61645F57 
 3189      5F506F72 
 3189      74325F43 
 3190              		.section	.text.Timer_Read_W_Port2_Callback,"ax",%progbits
 3191              		.align	2
 3192              		.global	Timer_Read_W_Port2_Callback
 3193              		.thumb
 3194              		.thumb_func
 3195              		.type	Timer_Read_W_Port2_Callback, %function
 3196              	Timer_Read_W_Port2_Callback:
 3197              	.LFB73:
 742:..\Application/OS_Main.c **** 
 743:..\Application/OS_Main.c **** void Timer_Read_W_Port2_Callback()
 744:..\Application/OS_Main.c **** {
 3198              		.loc 1 744 0
 3199              		.cfi_startproc
 3200              		@ args = 0, pretend = 0, frame = 256
 3201              		@ frame_needed = 1, uses_anonymous_args = 0
 3202 0000 80B5     		push	{r7, lr}
 3203              		.cfi_def_cfa_offset 8
 3204              		.cfi_offset 7, -8
 3205              		.cfi_offset 14, -4
 3206 0002 C2B0     		sub	sp, sp, #264
 3207              		.cfi_def_cfa_offset 272
 3208 0004 02AF     		add	r7, sp, #8
 3209              		.cfi_def_cfa 7, 264
 745:..\Application/OS_Main.c ****     OS_TIMER_Stop(&Timer_Read_W_Port2);
 3210              		.loc 1 745 0
 3211 0006 1E48     		ldr	r0, .L144
 3212 0008 FFF7FEFF 		bl	OS_TIMER_Stop
 746:..\Application/OS_Main.c ****     
 747:..\Application/OS_Main.c ****     read_failure_port2++;
 3213              		.loc 1 747 0
 3214 000c 1D4B     		ldr	r3, .L144+4
 3215 000e 1B68     		ldr	r3, [r3]
 3216 0010 0133     		adds	r3, r3, #1
 3217 0012 1C4A     		ldr	r2, .L144+4
 3218 0014 1360     		str	r3, [r2]
 748:..\Application/OS_Main.c ****     read_failure_total = read_failure_port1 + read_failure_port2;
 3219              		.loc 1 748 0
 3220 0016 1C4B     		ldr	r3, .L144+8
 3221 0018 1A68     		ldr	r2, [r3]
 3222 001a 1A4B     		ldr	r3, .L144+4
 3223 001c 1B68     		ldr	r3, [r3]
 3224 001e 1344     		add	r3, r3, r2
 3225 0020 1A4A     		ldr	r2, .L144+12
 3226 0022 1360     		str	r3, [r2]
 749:..\Application/OS_Main.c ****     char data[256];
 750:..\Application/OS_Main.c ****     sprintf(data, "read_failure_port1 = %lu, read_failure_port2 = %lu, read_failure_total = %lu\r\n
 3227              		.loc 1 750 0
 3228 0024 184B     		ldr	r3, .L144+8
 3229 0026 1A68     		ldr	r2, [r3]
 3230 0028 164B     		ldr	r3, .L144+4
 3231 002a 1968     		ldr	r1, [r3]
 3232 002c 174B     		ldr	r3, .L144+12
 3233 002e 1B68     		ldr	r3, [r3]
ARM GAS  C:\Users\ali\AppData\Local\Temp\ccr9QJbk.s 			page 77


 3234 0030 3846     		mov	r0, r7
 3235 0032 0093     		str	r3, [sp]
 3236 0034 0B46     		mov	r3, r1
 3237 0036 1649     		ldr	r1, .L144+16
 3238 0038 FFF7FEFF 		bl	sprintf
 751:..\Application/OS_Main.c ****     UART_Debug_PutString("****************************\r\n");
 3239              		.loc 1 751 0
 3240 003c 1548     		ldr	r0, .L144+20
 3241 003e FFF7FEFF 		bl	UART_Debug_PutString
 752:..\Application/OS_Main.c ****     UART_Debug_PutString("Timer_Read_W_Port2_Callback\r\n");
 3242              		.loc 1 752 0
 3243 0042 1548     		ldr	r0, .L144+24
 3244 0044 FFF7FEFF 		bl	UART_Debug_PutString
 753:..\Application/OS_Main.c ****     CyWdtClear(); 
 3245              		.loc 1 753 0
 3246 0048 FFF7FEFF 		bl	CyWdtClear
 754:..\Application/OS_Main.c ****     UART_Debug_PutString(data);
 3247              		.loc 1 754 0
 3248 004c 3B46     		mov	r3, r7
 3249 004e 1846     		mov	r0, r3
 3250 0050 FFF7FEFF 		bl	UART_Debug_PutString
 755:..\Application/OS_Main.c ****     UART_Debug_PutString("****************************\r\n");
 3251              		.loc 1 755 0
 3252 0054 0F48     		ldr	r0, .L144+20
 3253 0056 FFF7FEFF 		bl	UART_Debug_PutString
 756:..\Application/OS_Main.c ****     CyWdtClear(); 
 3254              		.loc 1 756 0
 3255 005a FFF7FEFF 		bl	CyWdtClear
 757:..\Application/OS_Main.c ****     
 758:..\Application/OS_Main.c ****     Port2_W_Counter = 0;
 3256              		.loc 1 758 0
 3257 005e 0F4B     		ldr	r3, .L144+28
 3258 0060 0022     		movs	r2, #0
 3259 0062 1A70     		strb	r2, [r3]
 759:..\Application/OS_Main.c ****     Port2_w_Start = 0;
 3260              		.loc 1 759 0
 3261 0064 0E4B     		ldr	r3, .L144+32
 3262 0066 0022     		movs	r2, #0
 3263 0068 1A70     		strb	r2, [r3]
 760:..\Application/OS_Main.c ****     Port2_W[0] = '\0';
 3264              		.loc 1 760 0
 3265 006a 0E4B     		ldr	r3, .L144+36
 3266 006c 0022     		movs	r2, #0
 3267 006e 1A70     		strb	r2, [r3]
 761:..\Application/OS_Main.c ****     Port2_w_have = 0;
 3268              		.loc 1 761 0
 3269 0070 0D4B     		ldr	r3, .L144+40
 3270 0072 0022     		movs	r2, #0
 3271 0074 1A70     		strb	r2, [r3]
 762:..\Application/OS_Main.c ****     
 763:..\Application/OS_Main.c ****     return;
 3272              		.loc 1 763 0
 3273 0076 00BF     		nop
 764:..\Application/OS_Main.c **** }
 3274              		.loc 1 764 0
 3275 0078 07F58077 		add	r7, r7, #256
 3276              		.cfi_def_cfa_offset 8
ARM GAS  C:\Users\ali\AppData\Local\Temp\ccr9QJbk.s 			page 78


 3277 007c BD46     		mov	sp, r7
 3278              		.cfi_def_cfa_register 13
 3279              		@ sp needed
 3280 007e 80BD     		pop	{r7, pc}
 3281              	.L145:
 3282              		.align	2
 3283              	.L144:
 3284 0080 00000000 		.word	Timer_Read_W_Port2
 3285 0084 00000000 		.word	read_failure_port2
 3286 0088 00000000 		.word	read_failure_port1
 3287 008c 00000000 		.word	read_failure_total
 3288 0090 84040000 		.word	.LC48
 3289 0094 1C040000 		.word	.LC45
 3290 0098 F4040000 		.word	.LC50
 3291 009c 00000000 		.word	Port2_W_Counter
 3292 00a0 00000000 		.word	Port2_w_Start
 3293 00a4 00000000 		.word	Port2_W
 3294 00a8 00000000 		.word	Port2_w_have
 3295              		.cfi_endproc
 3296              	.LFE73:
 3297              		.size	Timer_Read_W_Port2_Callback, .-Timer_Read_W_Port2_Callback
 3298              		.section	.rodata
 3299 0512 0000     		.align	2
 3300              	.LC51:
 3301 0514 6C696E75 		.ascii	"linux_read_input_failure_port1 = %lu, linux_read_in"
 3301      785F7265 
 3301      61645F69 
 3301      6E707574 
 3301      5F666169 
 3302 0547 7075745F 		.ascii	"put_failure_port2 = %lu, linux_read_input_failure_t"
 3302      6661696C 
 3302      7572655F 
 3302      706F7274 
 3302      32203D20 
 3303 057a 6F74616C 		.ascii	"otal = %lu\015\012\000"
 3303      203D2025 
 3303      6C750D0A 
 3303      00
 3304 0587 00       		.align	2
 3305              	.LC52:
 3306 0588 54696D65 		.ascii	"Timer_AfterRead_Input1_Callback\015\012\000"
 3306      725F4166 
 3306      74657252 
 3306      6561645F 
 3306      496E7075 
 3307              		.section	.text.Timer_AfterRead_Input1_Callback,"ax",%progbits
 3308              		.align	2
 3309              		.global	Timer_AfterRead_Input1_Callback
 3310              		.thumb
 3311              		.thumb_func
 3312              		.type	Timer_AfterRead_Input1_Callback, %function
 3313              	Timer_AfterRead_Input1_Callback:
 3314              	.LFB74:
 765:..\Application/OS_Main.c **** 
 766:..\Application/OS_Main.c **** void Timer_AfterRead_Input1_Callback()
 767:..\Application/OS_Main.c **** {
 3315              		.loc 1 767 0
ARM GAS  C:\Users\ali\AppData\Local\Temp\ccr9QJbk.s 			page 79


 3316              		.cfi_startproc
 3317              		@ args = 0, pretend = 0, frame = 256
 3318              		@ frame_needed = 1, uses_anonymous_args = 0
 3319 0000 80B5     		push	{r7, lr}
 3320              		.cfi_def_cfa_offset 8
 3321              		.cfi_offset 7, -8
 3322              		.cfi_offset 14, -4
 3323 0002 C2B0     		sub	sp, sp, #264
 3324              		.cfi_def_cfa_offset 272
 3325 0004 02AF     		add	r7, sp, #8
 3326              		.cfi_def_cfa 7, 264
 768:..\Application/OS_Main.c ****     OS_TIMER_Stop(&Timer_AfterRead_In1);
 3327              		.loc 1 768 0
 3328 0006 1D48     		ldr	r0, .L148
 3329 0008 FFF7FEFF 		bl	OS_TIMER_Stop
 769:..\Application/OS_Main.c ****     
 770:..\Application/OS_Main.c ****     linux_read_input_failure_port1++;
 3330              		.loc 1 770 0
 3331 000c 1C4B     		ldr	r3, .L148+4
 3332 000e 1B68     		ldr	r3, [r3]
 3333 0010 0133     		adds	r3, r3, #1
 3334 0012 1B4A     		ldr	r2, .L148+4
 3335 0014 1360     		str	r3, [r2]
 771:..\Application/OS_Main.c ****     linux_read_input_failure_total = linux_read_input_failure_port1 + linux_read_input_failure_port
 3336              		.loc 1 771 0
 3337 0016 1A4B     		ldr	r3, .L148+4
 3338 0018 1A68     		ldr	r2, [r3]
 3339 001a 1A4B     		ldr	r3, .L148+8
 3340 001c 1B68     		ldr	r3, [r3]
 3341 001e 1344     		add	r3, r3, r2
 3342 0020 194A     		ldr	r2, .L148+12
 3343 0022 1360     		str	r3, [r2]
 772:..\Application/OS_Main.c ****     char data[256];
 773:..\Application/OS_Main.c ****     sprintf(data, "linux_read_input_failure_port1 = %lu, linux_read_input_failure_port2 = %lu, linu
 3344              		.loc 1 773 0
 3345 0024 164B     		ldr	r3, .L148+4
 3346 0026 1A68     		ldr	r2, [r3]
 3347 0028 164B     		ldr	r3, .L148+8
 3348 002a 1968     		ldr	r1, [r3]
 3349 002c 164B     		ldr	r3, .L148+12
 3350 002e 1B68     		ldr	r3, [r3]
 3351 0030 3846     		mov	r0, r7
 3352 0032 0093     		str	r3, [sp]
 3353 0034 0B46     		mov	r3, r1
 3354 0036 1549     		ldr	r1, .L148+16
 3355 0038 FFF7FEFF 		bl	sprintf
 774:..\Application/OS_Main.c ****     
 775:..\Application/OS_Main.c ****     UART_Debug_PutString("****************************\r\n");
 3356              		.loc 1 775 0
 3357 003c 1448     		ldr	r0, .L148+20
 3358 003e FFF7FEFF 		bl	UART_Debug_PutString
 776:..\Application/OS_Main.c ****     UART_Debug_PutString("Timer_AfterRead_Input1_Callback\r\n");
 3359              		.loc 1 776 0
 3360 0042 1448     		ldr	r0, .L148+24
 3361 0044 FFF7FEFF 		bl	UART_Debug_PutString
 777:..\Application/OS_Main.c ****     CyWdtClear(); 
 3362              		.loc 1 777 0
ARM GAS  C:\Users\ali\AppData\Local\Temp\ccr9QJbk.s 			page 80


 3363 0048 FFF7FEFF 		bl	CyWdtClear
 778:..\Application/OS_Main.c ****     UART_Debug_PutString(data);
 3364              		.loc 1 778 0
 3365 004c 3B46     		mov	r3, r7
 3366 004e 1846     		mov	r0, r3
 3367 0050 FFF7FEFF 		bl	UART_Debug_PutString
 779:..\Application/OS_Main.c ****     UART_Debug_PutString("****************************\r\n");
 3368              		.loc 1 779 0
 3369 0054 0E48     		ldr	r0, .L148+20
 3370 0056 FFF7FEFF 		bl	UART_Debug_PutString
 780:..\Application/OS_Main.c ****     CyWdtClear(); 
 3371              		.loc 1 780 0
 3372 005a FFF7FEFF 		bl	CyWdtClear
 781:..\Application/OS_Main.c ****     
 782:..\Application/OS_Main.c ****     In1[0] = '\0';
 3373              		.loc 1 782 0
 3374 005e 0E4B     		ldr	r3, .L148+28
 3375 0060 0022     		movs	r2, #0
 3376 0062 1A70     		strb	r2, [r3]
 783:..\Application/OS_Main.c ****     In1[1] = '\0';
 3377              		.loc 1 783 0
 3378 0064 0C4B     		ldr	r3, .L148+28
 3379 0066 0022     		movs	r2, #0
 3380 0068 5A70     		strb	r2, [r3, #1]
 784:..\Application/OS_Main.c ****     In1[2] = '\0';
 3381              		.loc 1 784 0
 3382 006a 0B4B     		ldr	r3, .L148+28
 3383 006c 0022     		movs	r2, #0
 3384 006e 9A70     		strb	r2, [r3, #2]
 785:..\Application/OS_Main.c ****     
 786:..\Application/OS_Main.c ****     return;
 3385              		.loc 1 786 0
 3386 0070 00BF     		nop
 787:..\Application/OS_Main.c **** }
 3387              		.loc 1 787 0
 3388 0072 07F58077 		add	r7, r7, #256
 3389              		.cfi_def_cfa_offset 8
 3390 0076 BD46     		mov	sp, r7
 3391              		.cfi_def_cfa_register 13
 3392              		@ sp needed
 3393 0078 80BD     		pop	{r7, pc}
 3394              	.L149:
 3395 007a 00BF     		.align	2
 3396              	.L148:
 3397 007c 00000000 		.word	Timer_AfterRead_In1
 3398 0080 00000000 		.word	linux_read_input_failure_port1
 3399 0084 00000000 		.word	linux_read_input_failure_port2
 3400 0088 00000000 		.word	linux_read_input_failure_total
 3401 008c 14050000 		.word	.LC51
 3402 0090 1C040000 		.word	.LC45
 3403 0094 88050000 		.word	.LC52
 3404 0098 00000000 		.word	In1
 3405              		.cfi_endproc
 3406              	.LFE74:
 3407              		.size	Timer_AfterRead_Input1_Callback, .-Timer_AfterRead_Input1_Callback
 3408              		.section	.rodata
 3409 05aa 0000     		.align	2
ARM GAS  C:\Users\ali\AppData\Local\Temp\ccr9QJbk.s 			page 81


 3410              	.LC53:
 3411 05ac 6C696E75 		.ascii	"linux_read_failure_port1 = %lu, linux_read_failure_"
 3411      785F7265 
 3411      61645F66 
 3411      61696C75 
 3411      72655F70 
 3412 05df 706F7274 		.ascii	"port2 = %lu, linux_read_failure_total = %lu\015\012"
 3412      32203D20 
 3412      256C752C 
 3412      206C696E 
 3412      75785F72 
 3413 060c 00       		.ascii	"\000"
 3414 060d 000000   		.align	2
 3415              	.LC54:
 3416 0610 54696D65 		.ascii	"Timer_AfterRead_Port1_Callback\015\012\000"
 3416      725F4166 
 3416      74657252 
 3416      6561645F 
 3416      506F7274 
 3417              		.section	.text.Timer_AfterRead_Port1_Callback,"ax",%progbits
 3418              		.align	2
 3419              		.global	Timer_AfterRead_Port1_Callback
 3420              		.thumb
 3421              		.thumb_func
 3422              		.type	Timer_AfterRead_Port1_Callback, %function
 3423              	Timer_AfterRead_Port1_Callback:
 3424              	.LFB75:
 788:..\Application/OS_Main.c **** 
 789:..\Application/OS_Main.c **** void Timer_AfterRead_Port1_Callback()
 790:..\Application/OS_Main.c **** {
 3425              		.loc 1 790 0
 3426              		.cfi_startproc
 3427              		@ args = 0, pretend = 0, frame = 256
 3428              		@ frame_needed = 1, uses_anonymous_args = 0
 3429 0000 80B5     		push	{r7, lr}
 3430              		.cfi_def_cfa_offset 8
 3431              		.cfi_offset 7, -8
 3432              		.cfi_offset 14, -4
 3433 0002 C2B0     		sub	sp, sp, #264
 3434              		.cfi_def_cfa_offset 272
 3435 0004 02AF     		add	r7, sp, #8
 3436              		.cfi_def_cfa 7, 264
 791:..\Application/OS_Main.c ****     OS_TIMER_Stop(&Timer_AfterRead_Port1);
 3437              		.loc 1 791 0
 3438 0006 1E48     		ldr	r0, .L152
 3439 0008 FFF7FEFF 		bl	OS_TIMER_Stop
 792:..\Application/OS_Main.c ****     
 793:..\Application/OS_Main.c ****     linux_read_failure_port1++;
 3440              		.loc 1 793 0
 3441 000c 1D4B     		ldr	r3, .L152+4
 3442 000e 1B68     		ldr	r3, [r3]
 3443 0010 0133     		adds	r3, r3, #1
 3444 0012 1C4A     		ldr	r2, .L152+4
 3445 0014 1360     		str	r3, [r2]
 794:..\Application/OS_Main.c ****     linux_read_failure_total = linux_read_failure_port1 + linux_read_failure_port2;
 3446              		.loc 1 794 0
 3447 0016 1B4B     		ldr	r3, .L152+4
ARM GAS  C:\Users\ali\AppData\Local\Temp\ccr9QJbk.s 			page 82


 3448 0018 1A68     		ldr	r2, [r3]
 3449 001a 1B4B     		ldr	r3, .L152+8
 3450 001c 1B68     		ldr	r3, [r3]
 3451 001e 1344     		add	r3, r3, r2
 3452 0020 1A4A     		ldr	r2, .L152+12
 3453 0022 1360     		str	r3, [r2]
 795:..\Application/OS_Main.c ****     char data[256];
 796:..\Application/OS_Main.c ****     sprintf(data, "linux_read_failure_port1 = %lu, linux_read_failure_port2 = %lu, linux_read_failu
 3454              		.loc 1 796 0
 3455 0024 174B     		ldr	r3, .L152+4
 3456 0026 1A68     		ldr	r2, [r3]
 3457 0028 174B     		ldr	r3, .L152+8
 3458 002a 1968     		ldr	r1, [r3]
 3459 002c 174B     		ldr	r3, .L152+12
 3460 002e 1B68     		ldr	r3, [r3]
 3461 0030 3846     		mov	r0, r7
 3462 0032 0093     		str	r3, [sp]
 3463 0034 0B46     		mov	r3, r1
 3464 0036 1649     		ldr	r1, .L152+16
 3465 0038 FFF7FEFF 		bl	sprintf
 797:..\Application/OS_Main.c ****     
 798:..\Application/OS_Main.c ****     UART_Debug_PutString("****************************\r\n");
 3466              		.loc 1 798 0
 3467 003c 1548     		ldr	r0, .L152+20
 3468 003e FFF7FEFF 		bl	UART_Debug_PutString
 799:..\Application/OS_Main.c ****     UART_Debug_PutString("Timer_AfterRead_Port1_Callback\r\n");
 3469              		.loc 1 799 0
 3470 0042 1548     		ldr	r0, .L152+24
 3471 0044 FFF7FEFF 		bl	UART_Debug_PutString
 800:..\Application/OS_Main.c ****     CyWdtClear(); 
 3472              		.loc 1 800 0
 3473 0048 FFF7FEFF 		bl	CyWdtClear
 801:..\Application/OS_Main.c ****     UART_Debug_PutString(data);
 3474              		.loc 1 801 0
 3475 004c 3B46     		mov	r3, r7
 3476 004e 1846     		mov	r0, r3
 3477 0050 FFF7FEFF 		bl	UART_Debug_PutString
 802:..\Application/OS_Main.c ****     UART_Debug_PutString("****************************\r\n");
 3478              		.loc 1 802 0
 3479 0054 0F48     		ldr	r0, .L152+20
 3480 0056 FFF7FEFF 		bl	UART_Debug_PutString
 803:..\Application/OS_Main.c ****     CyWdtClear(); 
 3481              		.loc 1 803 0
 3482 005a FFF7FEFF 		bl	CyWdtClear
 804:..\Application/OS_Main.c ****     
 805:..\Application/OS_Main.c ****     Port1_W_Counter = 0;
 3483              		.loc 1 805 0
 3484 005e 0F4B     		ldr	r3, .L152+28
 3485 0060 0022     		movs	r2, #0
 3486 0062 1A70     		strb	r2, [r3]
 806:..\Application/OS_Main.c ****     Port1_w_Start = 0;
 3487              		.loc 1 806 0
 3488 0064 0E4B     		ldr	r3, .L152+32
 3489 0066 0022     		movs	r2, #0
 3490 0068 1A70     		strb	r2, [r3]
 807:..\Application/OS_Main.c ****     Port1_W[0] = '\0';
 3491              		.loc 1 807 0
ARM GAS  C:\Users\ali\AppData\Local\Temp\ccr9QJbk.s 			page 83


 3492 006a 0E4B     		ldr	r3, .L152+36
 3493 006c 0022     		movs	r2, #0
 3494 006e 1A70     		strb	r2, [r3]
 808:..\Application/OS_Main.c ****     Port1_w_have = 0;
 3495              		.loc 1 808 0
 3496 0070 0D4B     		ldr	r3, .L152+40
 3497 0072 0022     		movs	r2, #0
 3498 0074 1A70     		strb	r2, [r3]
 809:..\Application/OS_Main.c **** 
 810:..\Application/OS_Main.c ****     return;
 3499              		.loc 1 810 0
 3500 0076 00BF     		nop
 811:..\Application/OS_Main.c **** }
 3501              		.loc 1 811 0
 3502 0078 07F58077 		add	r7, r7, #256
 3503              		.cfi_def_cfa_offset 8
 3504 007c BD46     		mov	sp, r7
 3505              		.cfi_def_cfa_register 13
 3506              		@ sp needed
 3507 007e 80BD     		pop	{r7, pc}
 3508              	.L153:
 3509              		.align	2
 3510              	.L152:
 3511 0080 00000000 		.word	Timer_AfterRead_Port1
 3512 0084 00000000 		.word	linux_read_failure_port1
 3513 0088 00000000 		.word	linux_read_failure_port2
 3514 008c 00000000 		.word	linux_read_failure_total
 3515 0090 AC050000 		.word	.LC53
 3516 0094 1C040000 		.word	.LC45
 3517 0098 10060000 		.word	.LC54
 3518 009c 00000000 		.word	Port1_W_Counter
 3519 00a0 00000000 		.word	Port1_w_Start
 3520 00a4 00000000 		.word	Port1_W
 3521 00a8 00000000 		.word	Port1_w_have
 3522              		.cfi_endproc
 3523              	.LFE75:
 3524              		.size	Timer_AfterRead_Port1_Callback, .-Timer_AfterRead_Port1_Callback
 3525              		.section	.rodata
 3526 0631 000000   		.align	2
 3527              	.LC55:
 3528 0634 54696D65 		.ascii	"Timer_AfterRead_Input2_Callback\015\012\000"
 3528      725F4166 
 3528      74657252 
 3528      6561645F 
 3528      496E7075 
 3529              		.section	.text.Timer_AfterRead_Input2_Callback,"ax",%progbits
 3530              		.align	2
 3531              		.global	Timer_AfterRead_Input2_Callback
 3532              		.thumb
 3533              		.thumb_func
 3534              		.type	Timer_AfterRead_Input2_Callback, %function
 3535              	Timer_AfterRead_Input2_Callback:
 3536              	.LFB76:
 812:..\Application/OS_Main.c **** 
 813:..\Application/OS_Main.c **** void Timer_AfterRead_Input2_Callback()
 814:..\Application/OS_Main.c **** {
 3537              		.loc 1 814 0
ARM GAS  C:\Users\ali\AppData\Local\Temp\ccr9QJbk.s 			page 84


 3538              		.cfi_startproc
 3539              		@ args = 0, pretend = 0, frame = 256
 3540              		@ frame_needed = 1, uses_anonymous_args = 0
 3541 0000 80B5     		push	{r7, lr}
 3542              		.cfi_def_cfa_offset 8
 3543              		.cfi_offset 7, -8
 3544              		.cfi_offset 14, -4
 3545 0002 C2B0     		sub	sp, sp, #264
 3546              		.cfi_def_cfa_offset 272
 3547 0004 02AF     		add	r7, sp, #8
 3548              		.cfi_def_cfa 7, 264
 815:..\Application/OS_Main.c ****     OS_TIMER_Stop(&Timer_AfterRead_In2);
 3549              		.loc 1 815 0
 3550 0006 1D48     		ldr	r0, .L156
 3551 0008 FFF7FEFF 		bl	OS_TIMER_Stop
 816:..\Application/OS_Main.c ****     
 817:..\Application/OS_Main.c ****     linux_read_input_failure_port2++;
 3552              		.loc 1 817 0
 3553 000c 1C4B     		ldr	r3, .L156+4
 3554 000e 1B68     		ldr	r3, [r3]
 3555 0010 0133     		adds	r3, r3, #1
 3556 0012 1B4A     		ldr	r2, .L156+4
 3557 0014 1360     		str	r3, [r2]
 818:..\Application/OS_Main.c ****     linux_read_input_failure_total = linux_read_input_failure_port1 + linux_read_input_failure_port
 3558              		.loc 1 818 0
 3559 0016 1B4B     		ldr	r3, .L156+8
 3560 0018 1A68     		ldr	r2, [r3]
 3561 001a 194B     		ldr	r3, .L156+4
 3562 001c 1B68     		ldr	r3, [r3]
 3563 001e 1344     		add	r3, r3, r2
 3564 0020 194A     		ldr	r2, .L156+12
 3565 0022 1360     		str	r3, [r2]
 819:..\Application/OS_Main.c ****     char data[256];
 820:..\Application/OS_Main.c ****     sprintf(data, "linux_read_input_failure_port1 = %lu, linux_read_input_failure_port2 = %lu, linu
 3566              		.loc 1 820 0
 3567 0024 174B     		ldr	r3, .L156+8
 3568 0026 1A68     		ldr	r2, [r3]
 3569 0028 154B     		ldr	r3, .L156+4
 3570 002a 1968     		ldr	r1, [r3]
 3571 002c 164B     		ldr	r3, .L156+12
 3572 002e 1B68     		ldr	r3, [r3]
 3573 0030 3846     		mov	r0, r7
 3574 0032 0093     		str	r3, [sp]
 3575 0034 0B46     		mov	r3, r1
 3576 0036 1549     		ldr	r1, .L156+16
 3577 0038 FFF7FEFF 		bl	sprintf
 821:..\Application/OS_Main.c ****     
 822:..\Application/OS_Main.c ****     UART_Debug_PutString("****************************\r\n");
 3578              		.loc 1 822 0
 3579 003c 1448     		ldr	r0, .L156+20
 3580 003e FFF7FEFF 		bl	UART_Debug_PutString
 823:..\Application/OS_Main.c ****     UART_Debug_PutString("Timer_AfterRead_Input2_Callback\r\n");
 3581              		.loc 1 823 0
 3582 0042 1448     		ldr	r0, .L156+24
 3583 0044 FFF7FEFF 		bl	UART_Debug_PutString
 824:..\Application/OS_Main.c ****     CyWdtClear(); 
 3584              		.loc 1 824 0
ARM GAS  C:\Users\ali\AppData\Local\Temp\ccr9QJbk.s 			page 85


 3585 0048 FFF7FEFF 		bl	CyWdtClear
 825:..\Application/OS_Main.c ****     UART_Debug_PutString(data);
 3586              		.loc 1 825 0
 3587 004c 3B46     		mov	r3, r7
 3588 004e 1846     		mov	r0, r3
 3589 0050 FFF7FEFF 		bl	UART_Debug_PutString
 826:..\Application/OS_Main.c ****     UART_Debug_PutString("****************************\r\n");
 3590              		.loc 1 826 0
 3591 0054 0E48     		ldr	r0, .L156+20
 3592 0056 FFF7FEFF 		bl	UART_Debug_PutString
 827:..\Application/OS_Main.c ****     CyWdtClear(); 
 3593              		.loc 1 827 0
 3594 005a FFF7FEFF 		bl	CyWdtClear
 828:..\Application/OS_Main.c ****     
 829:..\Application/OS_Main.c ****     In2[0] = '\0';
 3595              		.loc 1 829 0
 3596 005e 0E4B     		ldr	r3, .L156+28
 3597 0060 0022     		movs	r2, #0
 3598 0062 1A70     		strb	r2, [r3]
 830:..\Application/OS_Main.c ****     In2[1] = '\0';
 3599              		.loc 1 830 0
 3600 0064 0C4B     		ldr	r3, .L156+28
 3601 0066 0022     		movs	r2, #0
 3602 0068 5A70     		strb	r2, [r3, #1]
 831:..\Application/OS_Main.c ****     In2[2] = '\0';
 3603              		.loc 1 831 0
 3604 006a 0B4B     		ldr	r3, .L156+28
 3605 006c 0022     		movs	r2, #0
 3606 006e 9A70     		strb	r2, [r3, #2]
 832:..\Application/OS_Main.c ****     
 833:..\Application/OS_Main.c ****     return;
 3607              		.loc 1 833 0
 3608 0070 00BF     		nop
 834:..\Application/OS_Main.c **** }
 3609              		.loc 1 834 0
 3610 0072 07F58077 		add	r7, r7, #256
 3611              		.cfi_def_cfa_offset 8
 3612 0076 BD46     		mov	sp, r7
 3613              		.cfi_def_cfa_register 13
 3614              		@ sp needed
 3615 0078 80BD     		pop	{r7, pc}
 3616              	.L157:
 3617 007a 00BF     		.align	2
 3618              	.L156:
 3619 007c 00000000 		.word	Timer_AfterRead_In2
 3620 0080 00000000 		.word	linux_read_input_failure_port2
 3621 0084 00000000 		.word	linux_read_input_failure_port1
 3622 0088 00000000 		.word	linux_read_input_failure_total
 3623 008c 14050000 		.word	.LC51
 3624 0090 1C040000 		.word	.LC45
 3625 0094 34060000 		.word	.LC55
 3626 0098 00000000 		.word	In2
 3627              		.cfi_endproc
 3628              	.LFE76:
 3629              		.size	Timer_AfterRead_Input2_Callback, .-Timer_AfterRead_Input2_Callback
 3630              		.section	.rodata
 3631 0656 0000     		.align	2
ARM GAS  C:\Users\ali\AppData\Local\Temp\ccr9QJbk.s 			page 86


 3632              	.LC56:
 3633 0658 54696D65 		.ascii	"Timer_AfterRead_Port2_Callback\015\012\000"
 3633      725F4166 
 3633      74657252 
 3633      6561645F 
 3633      506F7274 
 3634              		.section	.text.Timer_AfterRead_Port2_Callback,"ax",%progbits
 3635              		.align	2
 3636              		.global	Timer_AfterRead_Port2_Callback
 3637              		.thumb
 3638              		.thumb_func
 3639              		.type	Timer_AfterRead_Port2_Callback, %function
 3640              	Timer_AfterRead_Port2_Callback:
 3641              	.LFB77:
 835:..\Application/OS_Main.c **** 
 836:..\Application/OS_Main.c **** void Timer_AfterRead_Port2_Callback()
 837:..\Application/OS_Main.c **** {
 3642              		.loc 1 837 0
 3643              		.cfi_startproc
 3644              		@ args = 0, pretend = 0, frame = 256
 3645              		@ frame_needed = 1, uses_anonymous_args = 0
 3646 0000 80B5     		push	{r7, lr}
 3647              		.cfi_def_cfa_offset 8
 3648              		.cfi_offset 7, -8
 3649              		.cfi_offset 14, -4
 3650 0002 C2B0     		sub	sp, sp, #264
 3651              		.cfi_def_cfa_offset 272
 3652 0004 02AF     		add	r7, sp, #8
 3653              		.cfi_def_cfa 7, 264
 838:..\Application/OS_Main.c ****     OS_TIMER_Stop(&Timer_AfterRead_Port2);
 3654              		.loc 1 838 0
 3655 0006 1E48     		ldr	r0, .L160
 3656 0008 FFF7FEFF 		bl	OS_TIMER_Stop
 839:..\Application/OS_Main.c ****     
 840:..\Application/OS_Main.c ****     linux_read_failure_port2++;
 3657              		.loc 1 840 0
 3658 000c 1D4B     		ldr	r3, .L160+4
 3659 000e 1B68     		ldr	r3, [r3]
 3660 0010 0133     		adds	r3, r3, #1
 3661 0012 1C4A     		ldr	r2, .L160+4
 3662 0014 1360     		str	r3, [r2]
 841:..\Application/OS_Main.c ****     linux_read_failure_total = linux_read_failure_port1 + linux_read_failure_port2;
 3663              		.loc 1 841 0
 3664 0016 1C4B     		ldr	r3, .L160+8
 3665 0018 1A68     		ldr	r2, [r3]
 3666 001a 1A4B     		ldr	r3, .L160+4
 3667 001c 1B68     		ldr	r3, [r3]
 3668 001e 1344     		add	r3, r3, r2
 3669 0020 1A4A     		ldr	r2, .L160+12
 3670 0022 1360     		str	r3, [r2]
 842:..\Application/OS_Main.c ****     char data[256];
 843:..\Application/OS_Main.c ****     sprintf(data, "linux_read_failure_port1 = %lu, linux_read_failure_port2 = %lu, linux_read_failu
 3671              		.loc 1 843 0
 3672 0024 184B     		ldr	r3, .L160+8
 3673 0026 1A68     		ldr	r2, [r3]
 3674 0028 164B     		ldr	r3, .L160+4
 3675 002a 1968     		ldr	r1, [r3]
ARM GAS  C:\Users\ali\AppData\Local\Temp\ccr9QJbk.s 			page 87


 3676 002c 174B     		ldr	r3, .L160+12
 3677 002e 1B68     		ldr	r3, [r3]
 3678 0030 3846     		mov	r0, r7
 3679 0032 0093     		str	r3, [sp]
 3680 0034 0B46     		mov	r3, r1
 3681 0036 1649     		ldr	r1, .L160+16
 3682 0038 FFF7FEFF 		bl	sprintf
 844:..\Application/OS_Main.c ****     
 845:..\Application/OS_Main.c ****     UART_Debug_PutString("****************************\r\n");
 3683              		.loc 1 845 0
 3684 003c 1548     		ldr	r0, .L160+20
 3685 003e FFF7FEFF 		bl	UART_Debug_PutString
 846:..\Application/OS_Main.c ****     UART_Debug_PutString("Timer_AfterRead_Port2_Callback\r\n");
 3686              		.loc 1 846 0
 3687 0042 1548     		ldr	r0, .L160+24
 3688 0044 FFF7FEFF 		bl	UART_Debug_PutString
 847:..\Application/OS_Main.c ****     CyWdtClear(); 
 3689              		.loc 1 847 0
 3690 0048 FFF7FEFF 		bl	CyWdtClear
 848:..\Application/OS_Main.c ****     UART_Debug_PutString(data);
 3691              		.loc 1 848 0
 3692 004c 3B46     		mov	r3, r7
 3693 004e 1846     		mov	r0, r3
 3694 0050 FFF7FEFF 		bl	UART_Debug_PutString
 849:..\Application/OS_Main.c ****     UART_Debug_PutString("****************************\r\n");
 3695              		.loc 1 849 0
 3696 0054 0F48     		ldr	r0, .L160+20
 3697 0056 FFF7FEFF 		bl	UART_Debug_PutString
 850:..\Application/OS_Main.c ****     CyWdtClear(); 
 3698              		.loc 1 850 0
 3699 005a FFF7FEFF 		bl	CyWdtClear
 851:..\Application/OS_Main.c ****    
 852:..\Application/OS_Main.c ****     Port2_W_Counter = 0;
 3700              		.loc 1 852 0
 3701 005e 0F4B     		ldr	r3, .L160+28
 3702 0060 0022     		movs	r2, #0
 3703 0062 1A70     		strb	r2, [r3]
 853:..\Application/OS_Main.c ****     Port2_w_Start = 0;
 3704              		.loc 1 853 0
 3705 0064 0E4B     		ldr	r3, .L160+32
 3706 0066 0022     		movs	r2, #0
 3707 0068 1A70     		strb	r2, [r3]
 854:..\Application/OS_Main.c ****     Port2_W[0] = '\0';
 3708              		.loc 1 854 0
 3709 006a 0E4B     		ldr	r3, .L160+36
 3710 006c 0022     		movs	r2, #0
 3711 006e 1A70     		strb	r2, [r3]
 855:..\Application/OS_Main.c ****     Port2_w_have = 0;
 3712              		.loc 1 855 0
 3713 0070 0D4B     		ldr	r3, .L160+40
 3714 0072 0022     		movs	r2, #0
 3715 0074 1A70     		strb	r2, [r3]
 856:..\Application/OS_Main.c ****     
 857:..\Application/OS_Main.c ****     return;
 3716              		.loc 1 857 0
 3717 0076 00BF     		nop
 858:..\Application/OS_Main.c **** }
ARM GAS  C:\Users\ali\AppData\Local\Temp\ccr9QJbk.s 			page 88


 3718              		.loc 1 858 0
 3719 0078 07F58077 		add	r7, r7, #256
 3720              		.cfi_def_cfa_offset 8
 3721 007c BD46     		mov	sp, r7
 3722              		.cfi_def_cfa_register 13
 3723              		@ sp needed
 3724 007e 80BD     		pop	{r7, pc}
 3725              	.L161:
 3726              		.align	2
 3727              	.L160:
 3728 0080 00000000 		.word	Timer_AfterRead_Port2
 3729 0084 00000000 		.word	linux_read_failure_port2
 3730 0088 00000000 		.word	linux_read_failure_port1
 3731 008c 00000000 		.word	linux_read_failure_total
 3732 0090 AC050000 		.word	.LC53
 3733 0094 1C040000 		.word	.LC45
 3734 0098 58060000 		.word	.LC56
 3735 009c 00000000 		.word	Port2_W_Counter
 3736 00a0 00000000 		.word	Port2_w_Start
 3737 00a4 00000000 		.word	Port2_W
 3738 00a8 00000000 		.word	Port2_w_have
 3739              		.cfi_endproc
 3740              	.LFE77:
 3741              		.size	Timer_AfterRead_Port2_Callback, .-Timer_AfterRead_Port2_Callback
 3742              		.section	.text.Timer_WD_Callback,"ax",%progbits
 3743              		.align	2
 3744              		.global	Timer_WD_Callback
 3745              		.thumb
 3746              		.thumb_func
 3747              		.type	Timer_WD_Callback, %function
 3748              	Timer_WD_Callback:
 3749              	.LFB78:
 859:..\Application/OS_Main.c **** 
 860:..\Application/OS_Main.c **** void Timer_WD_Callback()
 861:..\Application/OS_Main.c **** {
 3750              		.loc 1 861 0
 3751              		.cfi_startproc
 3752              		@ args = 0, pretend = 0, frame = 0
 3753              		@ frame_needed = 1, uses_anonymous_args = 0
 3754 0000 80B5     		push	{r7, lr}
 3755              		.cfi_def_cfa_offset 8
 3756              		.cfi_offset 7, -8
 3757              		.cfi_offset 14, -4
 3758 0002 00AF     		add	r7, sp, #0
 3759              		.cfi_def_cfa_register 7
 862:..\Application/OS_Main.c ****     OS_TIMER_Stop(&Timer_WD);
 3760              		.loc 1 862 0
 3761 0004 0448     		ldr	r0, .L164
 3762 0006 FFF7FEFF 		bl	OS_TIMER_Stop
 863:..\Application/OS_Main.c ****     CyWdtClear();
 3763              		.loc 1 863 0
 3764 000a FFF7FEFF 		bl	CyWdtClear
 864:..\Application/OS_Main.c ****     OS_TIMER_Restart(&Timer_WD);
 3765              		.loc 1 864 0
 3766 000e 0248     		ldr	r0, .L164
 3767 0010 FFF7FEFF 		bl	OS_TIMER_Restart
 865:..\Application/OS_Main.c ****     
ARM GAS  C:\Users\ali\AppData\Local\Temp\ccr9QJbk.s 			page 89


 866:..\Application/OS_Main.c ****     return;
 3768              		.loc 1 866 0
 3769 0014 00BF     		nop
 867:..\Application/OS_Main.c **** }
 3770              		.loc 1 867 0
 3771 0016 80BD     		pop	{r7, pc}
 3772              	.L165:
 3773              		.align	2
 3774              	.L164:
 3775 0018 00000000 		.word	Timer_WD
 3776              		.cfi_endproc
 3777              	.LFE78:
 3778              		.size	Timer_WD_Callback, .-Timer_WD_Callback
 3779              		.section	.text.intrrupt_init,"ax",%progbits
 3780              		.align	2
 3781              		.global	intrrupt_init
 3782              		.thumb
 3783              		.thumb_func
 3784              		.type	intrrupt_init, %function
 3785              	intrrupt_init:
 3786              	.LFB79:
 868:..\Application/OS_Main.c **** 
 869:..\Application/OS_Main.c **** 
 870:..\Application/OS_Main.c **** //Init Functions
 871:..\Application/OS_Main.c **** void intrrupt_init()
 872:..\Application/OS_Main.c **** {
 3787              		.loc 1 872 0
 3788              		.cfi_startproc
 3789              		@ args = 0, pretend = 0, frame = 0
 3790              		@ frame_needed = 1, uses_anonymous_args = 0
 3791 0000 80B5     		push	{r7, lr}
 3792              		.cfi_def_cfa_offset 8
 3793              		.cfi_offset 7, -8
 3794              		.cfi_offset 14, -4
 3795 0002 00AF     		add	r7, sp, #0
 3796              		.cfi_def_cfa_register 7
 873:..\Application/OS_Main.c ****     intr_UART_Linux_Rx_StartEx(UART_Linux_Rx_ISR);
 3797              		.loc 1 873 0
 3798 0004 0648     		ldr	r0, .L168
 3799 0006 FFF7FEFF 		bl	intr_UART_Linux_Rx_StartEx
 874:..\Application/OS_Main.c ****     UART_Linux_EnableRxInt();
 3800              		.loc 1 874 0
 3801 000a 064B     		ldr	r3, .L168+4
 3802 000c 0422     		movs	r2, #4
 3803 000e 1A60     		str	r2, [r3]
 875:..\Application/OS_Main.c ****     
 876:..\Application/OS_Main.c ****     intr_Port1_StartEx(Port1_ISR);
 3804              		.loc 1 876 0
 3805 0010 0548     		ldr	r0, .L168+8
 3806 0012 FFF7FEFF 		bl	intr_Port1_StartEx
 877:..\Application/OS_Main.c ****     intr_Port2_StartEx(Port2_ISR);
 3807              		.loc 1 877 0
 3808 0016 0548     		ldr	r0, .L168+12
 3809 0018 FFF7FEFF 		bl	intr_Port2_StartEx
 878:..\Application/OS_Main.c ****     
 879:..\Application/OS_Main.c ****     return;
 3810              		.loc 1 879 0
ARM GAS  C:\Users\ali\AppData\Local\Temp\ccr9QJbk.s 			page 90


 3811 001c 00BF     		nop
 880:..\Application/OS_Main.c **** }
 3812              		.loc 1 880 0
 3813 001e 80BD     		pop	{r7, pc}
 3814              	.L169:
 3815              		.align	2
 3816              	.L168:
 3817 0020 00000000 		.word	UART_Linux_Rx_ISR
 3818 0024 00E100E0 		.word	-536813312
 3819 0028 00000000 		.word	Port1_ISR
 3820 002c 00000000 		.word	Port2_ISR
 3821              		.cfi_endproc
 3822              	.LFE79:
 3823              		.size	intrrupt_init, .-intrrupt_init
 3824              		.section	.text.init_vars,"ax",%progbits
 3825              		.align	2
 3826              		.global	init_vars
 3827              		.thumb
 3828              		.thumb_func
 3829              		.type	init_vars, %function
 3830              	init_vars:
 3831              	.LFB80:
 881:..\Application/OS_Main.c **** 
 882:..\Application/OS_Main.c **** void init_vars()
 883:..\Application/OS_Main.c **** {
 3832              		.loc 1 883 0
 3833              		.cfi_startproc
 3834              		@ args = 0, pretend = 0, frame = 0
 3835              		@ frame_needed = 1, uses_anonymous_args = 0
 3836              		@ link register save eliminated.
 3837 0000 80B4     		push	{r7}
 3838              		.cfi_def_cfa_offset 4
 3839              		.cfi_offset 7, -4
 3840 0002 00AF     		add	r7, sp, #0
 3841              		.cfi_def_cfa_register 7
 884:..\Application/OS_Main.c ****     Port1_W[0] = '\0';
 3842              		.loc 1 884 0
 3843 0004 074B     		ldr	r3, .L172
 3844 0006 0022     		movs	r2, #0
 3845 0008 1A70     		strb	r2, [r3]
 885:..\Application/OS_Main.c ****     In1[0] = '\0';
 3846              		.loc 1 885 0
 3847 000a 074B     		ldr	r3, .L172+4
 3848 000c 0022     		movs	r2, #0
 3849 000e 1A70     		strb	r2, [r3]
 886:..\Application/OS_Main.c ****     
 887:..\Application/OS_Main.c ****     Port2_W[0] = '\0';
 3850              		.loc 1 887 0
 3851 0010 064B     		ldr	r3, .L172+8
 3852 0012 0022     		movs	r2, #0
 3853 0014 1A70     		strb	r2, [r3]
 888:..\Application/OS_Main.c ****     In2[0] = '\0';
 3854              		.loc 1 888 0
 3855 0016 064B     		ldr	r3, .L172+12
 3856 0018 0022     		movs	r2, #0
 3857 001a 1A70     		strb	r2, [r3]
 889:..\Application/OS_Main.c ****     
ARM GAS  C:\Users\ali\AppData\Local\Temp\ccr9QJbk.s 			page 91


 890:..\Application/OS_Main.c ****     return;
 3858              		.loc 1 890 0
 3859 001c 00BF     		nop
 891:..\Application/OS_Main.c **** }
 3860              		.loc 1 891 0
 3861 001e BD46     		mov	sp, r7
 3862              		.cfi_def_cfa_register 13
 3863              		@ sp needed
 3864 0020 80BC     		pop	{r7}
 3865              		.cfi_restore 7
 3866              		.cfi_def_cfa_offset 0
 3867 0022 7047     		bx	lr
 3868              	.L173:
 3869              		.align	2
 3870              	.L172:
 3871 0024 00000000 		.word	Port1_W
 3872 0028 00000000 		.word	In1
 3873 002c 00000000 		.word	Port2_W
 3874 0030 00000000 		.word	In2
 3875              		.cfi_endproc
 3876              	.LFE80:
 3877              		.size	init_vars, .-init_vars
 3878              		.section	.text.timers_create,"ax",%progbits
 3879              		.align	2
 3880              		.global	timers_create
 3881              		.thumb
 3882              		.thumb_func
 3883              		.type	timers_create, %function
 3884              	timers_create:
 3885              	.LFB81:
 892:..\Application/OS_Main.c **** 
 893:..\Application/OS_Main.c **** void timers_create()
 894:..\Application/OS_Main.c **** {
 3886              		.loc 1 894 0
 3887              		.cfi_startproc
 3888              		@ args = 0, pretend = 0, frame = 0
 3889              		@ frame_needed = 1, uses_anonymous_args = 0
 3890 0000 80B5     		push	{r7, lr}
 3891              		.cfi_def_cfa_offset 8
 3892              		.cfi_offset 7, -8
 3893              		.cfi_offset 14, -4
 3894 0002 00AF     		add	r7, sp, #0
 3895              		.cfi_def_cfa_register 7
 895:..\Application/OS_Main.c ****     // Create without start.
 896:..\Application/OS_Main.c ****     OS_TIMER_Create(&Timer_Read_Linux, Timer_Read_Linux_Callback, 75);
 3896              		.loc 1 896 0
 3897 0004 4B22     		movs	r2, #75
 3898 0006 1949     		ldr	r1, .L176
 3899 0008 1948     		ldr	r0, .L176+4
 3900 000a FFF7FEFF 		bl	OS_TIMER_Create
 897:..\Application/OS_Main.c ****     
 898:..\Application/OS_Main.c ****     OS_TIMER_Create(&Timer_RGB_LED, Timer_RGB_LED_Callback, 1000);
 3901              		.loc 1 898 0
 3902 000e 4FF47A72 		mov	r2, #1000
 3903 0012 1849     		ldr	r1, .L176+8
 3904 0014 1848     		ldr	r0, .L176+12
 3905 0016 FFF7FEFF 		bl	OS_TIMER_Create
ARM GAS  C:\Users\ali\AppData\Local\Temp\ccr9QJbk.s 			page 92


 899:..\Application/OS_Main.c ****     
 900:..\Application/OS_Main.c ****     OS_TIMER_Create(&Timer_Read_W_Port1, Timer_Read_W_Port1_Callback, 75);
 3906              		.loc 1 900 0
 3907 001a 4B22     		movs	r2, #75
 3908 001c 1749     		ldr	r1, .L176+16
 3909 001e 1848     		ldr	r0, .L176+20
 3910 0020 FFF7FEFF 		bl	OS_TIMER_Create
 901:..\Application/OS_Main.c ****     OS_TIMER_Create(&Timer_Read_W_Port2, Timer_Read_W_Port2_Callback, 75);  
 3911              		.loc 1 901 0
 3912 0024 4B22     		movs	r2, #75
 3913 0026 1749     		ldr	r1, .L176+24
 3914 0028 1748     		ldr	r0, .L176+28
 3915 002a FFF7FEFF 		bl	OS_TIMER_Create
 902:..\Application/OS_Main.c ****     
 903:..\Application/OS_Main.c ****     OS_TIMER_Create(&Timer_AfterRead_In1, Timer_AfterRead_Input1_Callback, 500);
 3916              		.loc 1 903 0
 3917 002e 4FF4FA72 		mov	r2, #500
 3918 0032 1649     		ldr	r1, .L176+32
 3919 0034 1648     		ldr	r0, .L176+36
 3920 0036 FFF7FEFF 		bl	OS_TIMER_Create
 904:..\Application/OS_Main.c ****     OS_TIMER_Create(&Timer_AfterRead_Port1, Timer_AfterRead_Port1_Callback, 500);  
 3921              		.loc 1 904 0
 3922 003a 4FF4FA72 		mov	r2, #500
 3923 003e 1549     		ldr	r1, .L176+40
 3924 0040 1548     		ldr	r0, .L176+44
 3925 0042 FFF7FEFF 		bl	OS_TIMER_Create
 905:..\Application/OS_Main.c ****     
 906:..\Application/OS_Main.c ****     OS_TIMER_Create(&Timer_AfterRead_In2, Timer_AfterRead_Input2_Callback, 500);
 3926              		.loc 1 906 0
 3927 0046 4FF4FA72 		mov	r2, #500
 3928 004a 1449     		ldr	r1, .L176+48
 3929 004c 1448     		ldr	r0, .L176+52
 3930 004e FFF7FEFF 		bl	OS_TIMER_Create
 907:..\Application/OS_Main.c ****     OS_TIMER_Create(&Timer_AfterRead_Port2, Timer_AfterRead_Port2_Callback, 500);
 3931              		.loc 1 907 0
 3932 0052 4FF4FA72 		mov	r2, #500
 3933 0056 1349     		ldr	r1, .L176+56
 3934 0058 1348     		ldr	r0, .L176+60
 3935 005a FFF7FEFF 		bl	OS_TIMER_Create
 908:..\Application/OS_Main.c ****     
 909:..\Application/OS_Main.c ****     OS_TIMER_Create(&Timer_WD, Timer_WD_Callback, 100);
 3936              		.loc 1 909 0
 3937 005e 6422     		movs	r2, #100
 3938 0060 1249     		ldr	r1, .L176+64
 3939 0062 1348     		ldr	r0, .L176+68
 3940 0064 FFF7FEFF 		bl	OS_TIMER_Create
 910:..\Application/OS_Main.c ****     
 911:..\Application/OS_Main.c ****     return;
 3941              		.loc 1 911 0
 3942 0068 00BF     		nop
 912:..\Application/OS_Main.c **** }
 3943              		.loc 1 912 0
 3944 006a 80BD     		pop	{r7, pc}
 3945              	.L177:
 3946              		.align	2
 3947              	.L176:
 3948 006c 00000000 		.word	Timer_Read_Linux_Callback
ARM GAS  C:\Users\ali\AppData\Local\Temp\ccr9QJbk.s 			page 93


 3949 0070 00000000 		.word	Timer_Read_Linux
 3950 0074 00000000 		.word	Timer_RGB_LED_Callback
 3951 0078 00000000 		.word	Timer_RGB_LED
 3952 007c 00000000 		.word	Timer_Read_W_Port1_Callback
 3953 0080 00000000 		.word	Timer_Read_W_Port1
 3954 0084 00000000 		.word	Timer_Read_W_Port2_Callback
 3955 0088 00000000 		.word	Timer_Read_W_Port2
 3956 008c 00000000 		.word	Timer_AfterRead_Input1_Callback
 3957 0090 00000000 		.word	Timer_AfterRead_In1
 3958 0094 00000000 		.word	Timer_AfterRead_Port1_Callback
 3959 0098 00000000 		.word	Timer_AfterRead_Port1
 3960 009c 00000000 		.word	Timer_AfterRead_Input2_Callback
 3961 00a0 00000000 		.word	Timer_AfterRead_In2
 3962 00a4 00000000 		.word	Timer_AfterRead_Port2_Callback
 3963 00a8 00000000 		.word	Timer_AfterRead_Port2
 3964 00ac 00000000 		.word	Timer_WD_Callback
 3965 00b0 00000000 		.word	Timer_WD
 3966              		.cfi_endproc
 3967              	.LFE81:
 3968              		.size	timers_create, .-timers_create
 3969              		.section	.rodata
 3970 0679 000000   		.align	2
 3971              	.LC57:
 3972 067c 2A2A2A2A 		.ascii	"********************************* Start Cy IO *****"
 3972      2A2A2A2A 
 3972      2A2A2A2A 
 3972      2A2A2A2A 
 3972      2A2A2A2A 
 3973 06af 2A2A2A2A 		.ascii	"****************************\015\012\000"
 3973      2A2A2A2A 
 3973      2A2A2A2A 
 3973      2A2A2A2A 
 3973      2A2A2A2A 
 3974              		.section	.text.main,"ax",%progbits
 3975              		.align	2
 3976              		.global	main
 3977              		.thumb
 3978              		.thumb_func
 3979              		.type	main, %function
 3980              	main:
 3981              	.LFB82:
 913:..\Application/OS_Main.c **** 
 914:..\Application/OS_Main.c **** /*********************************************************************
 915:..\Application/OS_Main.c **** *
 916:..\Application/OS_Main.c **** *       main()
 917:..\Application/OS_Main.c **** */
 918:..\Application/OS_Main.c **** int main()
 919:..\Application/OS_Main.c **** {
 3982              		.loc 1 919 0
 3983              		.cfi_startproc
 3984              		@ args = 0, pretend = 0, frame = 0
 3985              		@ frame_needed = 1, uses_anonymous_args = 0
 3986 0000 80B5     		push	{r7, lr}
 3987              		.cfi_def_cfa_offset 8
 3988              		.cfi_offset 7, -8
 3989              		.cfi_offset 14, -4
 3990 0002 00AF     		add	r7, sp, #0
ARM GAS  C:\Users\ali\AppData\Local\Temp\ccr9QJbk.s 			page 94


 3991              		.cfi_def_cfa_register 7
 920:..\Application/OS_Main.c ****     CyGlobalIntEnable; /* Enable global interrupts. */
 3992              		.loc 1 920 0
 3993              		.syntax unified
 3994              	@ 920 "..\Application\OS_Main.c" 1
 3995 0004 62B6     		CPSIE   i
 3996              	@ 0 "" 2
 921:..\Application/OS_Main.c **** 
 922:..\Application/OS_Main.c ****     CyWdtStart(CYWDT_1024_TICKS, CYWDT_LPMODE_NOCHANGE); 
 3997              		.loc 1 922 0
 3998              		.thumb
 3999              		.syntax unified
 4000 0006 0021     		movs	r1, #0
 4001 0008 0320     		movs	r0, #3
 4002 000a FFF7FEFF 		bl	CyWdtStart
 923:..\Application/OS_Main.c ****     CyWdtClear(); 
 4003              		.loc 1 923 0
 4004 000e FFF7FEFF 		bl	CyWdtClear
 924:..\Application/OS_Main.c ****     
 925:..\Application/OS_Main.c ****     OS_Init();    // Initialize embOS
 4005              		.loc 1 925 0
 4006 0012 FFF7FEFF 		bl	OS_Init_STD
 926:..\Application/OS_Main.c ****     OS_InitHW();  // Initialize required hardware
 4007              		.loc 1 926 0
 4008 0016 FFF7FEFF 		bl	OS_InitHW
 927:..\Application/OS_Main.c ****     BSP_Init();   // Initialize LED ports
 4009              		.loc 1 927 0
 4010 001a FFF7FEFF 		bl	BSP_Init
 928:..\Application/OS_Main.c ****     
 929:..\Application/OS_Main.c ****     RGB_Color = 0;
 4011              		.loc 1 929 0
 4012 001e 1E4B     		ldr	r3, .L181
 4013 0020 0022     		movs	r2, #0
 4014 0022 1A70     		strb	r2, [r3]
 930:..\Application/OS_Main.c ****     RGB_Color_Old = 0;
 4015              		.loc 1 930 0
 4016 0024 1D4B     		ldr	r3, .L181+4
 4017 0026 0022     		movs	r2, #0
 4018 0028 1A70     		strb	r2, [r3]
 931:..\Application/OS_Main.c ****     RGB(RGB_Color); //Cypress run
 4019              		.loc 1 931 0
 4020 002a 1B4B     		ldr	r3, .L181
 4021 002c 1B78     		ldrb	r3, [r3]	@ zero_extendqisi2
 4022 002e 1846     		mov	r0, r3
 4023 0030 FFF7FEFF 		bl	RGB
 932:..\Application/OS_Main.c ****     
 933:..\Application/OS_Main.c ****     //CyDelay(1000);
 934:..\Application/OS_Main.c ****     
 935:..\Application/OS_Main.c ****     intrrupt_init();
 4024              		.loc 1 935 0
 4025 0034 FFF7FEFF 		bl	intrrupt_init
 936:..\Application/OS_Main.c ****     CyWdtClear(); 
 4026              		.loc 1 936 0
 4027 0038 FFF7FEFF 		bl	CyWdtClear
 937:..\Application/OS_Main.c ****     timers_create();
 4028              		.loc 1 937 0
 4029 003c FFF7FEFF 		bl	timers_create
ARM GAS  C:\Users\ali\AppData\Local\Temp\ccr9QJbk.s 			page 95


 938:..\Application/OS_Main.c ****     CyWdtClear(); 
 4030              		.loc 1 938 0
 4031 0040 FFF7FEFF 		bl	CyWdtClear
 939:..\Application/OS_Main.c ****     init_vars();
 4032              		.loc 1 939 0
 4033 0044 FFF7FEFF 		bl	init_vars
 940:..\Application/OS_Main.c ****     CyWdtClear(); 
 4034              		.loc 1 940 0
 4035 0048 FFF7FEFF 		bl	CyWdtClear
 941:..\Application/OS_Main.c ****     
 942:..\Application/OS_Main.c ****     UART_Debug_PutString("********************************* Start Cy IO ***************************
 4036              		.loc 1 942 0
 4037 004c 1448     		ldr	r0, .L181+8
 4038 004e FFF7FEFF 		bl	UART_Debug_PutString
 943:..\Application/OS_Main.c ****     CyWdtClear(); 
 4039              		.loc 1 943 0
 4040 0052 FFF7FEFF 		bl	CyWdtClear
 944:..\Application/OS_Main.c ****     cymonitoring_get_lastWtd();
 4041              		.loc 1 944 0
 4042 0056 FFF7FEFF 		bl	cymonitoring_get_lastWtd
 945:..\Application/OS_Main.c ****     CyWdtClear(); 
 4043              		.loc 1 945 0
 4044 005a FFF7FEFF 		bl	CyWdtClear
 946:..\Application/OS_Main.c ****     
 947:..\Application/OS_Main.c ****     RGB_Color = 1;
 4045              		.loc 1 947 0
 4046 005e 0E4B     		ldr	r3, .L181
 4047 0060 0122     		movs	r2, #1
 4048 0062 1A70     		strb	r2, [r3]
 948:..\Application/OS_Main.c ****     RGB_Color_Old = 1;
 4049              		.loc 1 948 0
 4050 0064 0D4B     		ldr	r3, .L181+4
 4051 0066 0122     		movs	r2, #1
 4052 0068 1A70     		strb	r2, [r3]
 949:..\Application/OS_Main.c ****     RGB(RGB_Color); //Cypress run
 4053              		.loc 1 949 0
 4054 006a 0B4B     		ldr	r3, .L181
 4055 006c 1B78     		ldrb	r3, [r3]	@ zero_extendqisi2
 4056 006e 1846     		mov	r0, r3
 4057 0070 FFF7FEFF 		bl	RGB
 950:..\Application/OS_Main.c ****     
 951:..\Application/OS_Main.c ****     Timer_WD_Callback();
 4058              		.loc 1 951 0
 4059 0074 FFF7FEFF 		bl	Timer_WD_Callback
 952:..\Application/OS_Main.c ****     
 953:..\Application/OS_Main.c ****     OS_Start();   // Start embOS
 4060              		.loc 1 953 0
 4061 0078 FFF7FEFF 		bl	OS_INFO_GetVersion
 4062 007c 0246     		mov	r2, r0
 4063 007e 4CF69113 		movw	r3, #51601
 4064 0082 9A42     		cmp	r2, r3
 4065 0084 02D0     		beq	.L179
 4066              		.loc 1 953 0 is_stmt 0 discriminator 1
 4067 0086 FD20     		movs	r0, #253
 4068 0088 FFF7FEFF 		bl	OS_Error
 4069              	.L179:
 4070              		.loc 1 953 0 discriminator 3
ARM GAS  C:\Users\ali\AppData\Local\Temp\ccr9QJbk.s 			page 96


 4071 008c FFF7FEFF 		bl	OS__Start
 954:..\Application/OS_Main.c ****     
 955:..\Application/OS_Main.c ****     return 0;
 4072              		.loc 1 955 0 is_stmt 1 discriminator 3
 4073 0090 0023     		movs	r3, #0
 956:..\Application/OS_Main.c **** }
 4074              		.loc 1 956 0 discriminator 3
 4075 0092 1846     		mov	r0, r3
 4076 0094 80BD     		pop	{r7, pc}
 4077              	.L182:
 4078 0096 00BF     		.align	2
 4079              	.L181:
 4080 0098 00000000 		.word	RGB_Color
 4081 009c 00000000 		.word	RGB_Color_Old
 4082 00a0 7C060000 		.word	.LC57
 4083              		.cfi_endproc
 4084              	.LFE82:
 4085              		.size	main, .-main
 4086              		.text
 4087              	.Letext0:
 4088              		.file 2 "..\\..\\..\\..\\Inc/RTOS.h"
 4089              		.file 3 "c:\\program files (x86)\\cypress\\psoc creator\\4.4\\psoc creator\\import\\gnu\\arm\\5.4.
 4090              		.file 4 "c:\\program files (x86)\\cypress\\psoc creator\\4.4\\psoc creator\\import\\gnu\\arm\\5.4.
 4091              		.file 5 "Generated_Source\\PSoC5/cytypes.h"
 4092              		.file 6 "Generated_Source\\PSoC5/core_cm3.h"
 4093              		.file 7 "./OS_Main.h"