ARM GAS  C:\Users\ali\AppData\Local\Temp\ccr9QJbk.s 			page 1


   1              		.syntax unified
   2              		.cpu cortex-m3
   3              		.fpu softvfp
   4              		.eabi_attribute 20, 1
   5              		.eabi_attribute 21, 1
   6              		.eabi_attribute 23, 3
   7              		.eabi_attribute 24, 1
   8              		.eabi_attribute 25, 1
   9              		.eabi_attribute 26, 1
  10              		.eabi_attribute 30, 6
  11              		.eabi_attribute 34, 1
  12              		.eabi_attribute 18, 4
  13              		.thumb
  14              		.syntax unified
  15              		.file	"OS_Main.c"
  16              		.text
  17              	.Ltext0:
  18              		.cfi_sections	.debug_frame
  19              		.comm	Timer_Read_Linux,20,4
  20              		.comm	Timer_RGB_LED,20,4
  21              		.comm	Timer_Read_W_Port1,20,4
  22              		.comm	Timer_Read_W_Port2,20,4
  23              		.comm	Timer_AfterRead_In1,20,4
  24              		.comm	Timer_AfterRead_Port1,20,4
  25              		.comm	Timer_AfterRead_In2,20,4
  26              		.comm	Timer_AfterRead_Port2,20,4
  27              		.comm	Timer_WD,20,4
  28              		.global	read_counter_port1
  29              		.bss
  30              		.align	2
  31              		.type	read_counter_port1, %object
  32              		.size	read_counter_port1, 4
  33              	read_counter_port1:
  34 0000 00000000 		.space	4
  35              		.global	read_counter_port2
  36              		.align	2
  37              		.type	read_counter_port2, %object
  38              		.size	read_counter_port2, 4
  39              	read_counter_port2:
  40 0004 00000000 		.space	4
  41              		.global	read_counter_total
  42              		.align	2
  43              		.type	read_counter_total, %object
  44              		.size	read_counter_total, 4
  45              	read_counter_total:
  46 0008 00000000 		.space	4
  47              		.global	read_failure_port1
  48              		.align	2
  49              		.type	read_failure_port1, %object
  50              		.size	read_failure_port1, 4
  51              	read_failure_port1:
  52 000c 00000000 		.space	4
  53              		.global	read_failure_port2
  54              		.align	2
  55              		.type	read_failure_port2, %object
  56              		.size	read_failure_port2, 4
  57              	read_failure_port2:
ARM GAS  C:\Users\ali\AppData\Local\Temp\ccr9QJbk.s 			page 2


  58 0010 00000000 		.space	4
  59              		.global	read_failure_total
  60              		.align	2
  61              		.type	read_failure_total, %object
  62              		.size	read_failure_total, 4
  63              	read_failure_total:
  64 0014 00000000 		.space	4
  65              		.global	linux_read_counter_port1
  66              		.align	2
  67              		.type	linux_read_counter_port1, %object
  68              		.size	linux_read_counter_port1, 4
  69              	linux_read_counter_port1:
  70 0018 00000000 		.space	4
  71              		.global	linux_read_counter_port2
  72              		.align	2
  73              		.type	linux_read_counter_port2, %object
  74              		.size	linux_read_counter_port2, 4
  75              	linux_read_counter_port2:
  76 001c 00000000 		.space	4
  77              		.global	linux_read_counter_total
  78              		.align	2
  79              		.type	linux_read_counter_total, %object
  80              		.size	linux_read_counter_total, 4
  81              	linux_read_counter_total:
  82 0020 00000000 		.space	4
  83              		.global	linux_read_failure_port1
  84              		.align	2
  85              		.type	linux_read_failure_port1, %object
  86              		.size	linux_read_failure_port1, 4
  87              	linux_read_failure_port1:
  88 0024 00000000 		.space	4
  89              		.global	linux_read_failure_port2
  90              		.align	2
  91              		.type	linux_read_failure_port2, %object
  92              		.size	linux_read_failure_port2, 4
  93              	linux_read_failure_port2:
  94 0028 00000000 		.space	4
  95              		.global	linux_read_failure_total
  96              		.align	2
  97              		.type	linux_read_failure_total, %object
  98              		.size	linux_read_failure_total, 4
  99              	linux_read_failure_total:
 100 002c 00000000 		.space	4
 101              		.global	read_input_port1
 102              		.align	2
 103              		.type	read_input_port1, %object
 104              		.size	read_input_port1, 4
 105              	read_input_port1:
 106 0030 00000000 		.space	4
 107              		.global	read_input_port2
 108              		.align	2
 109              		.type	read_input_port2, %object
 110              		.size	read_input_port2, 4
 111              	read_input_port2:
 112 0034 00000000 		.space	4
 113              		.global	read_input_total
 114              		.align	2
ARM GAS  C:\Users\ali\AppData\Local\Temp\ccr9QJbk.s 			page 3


 115              		.type	read_input_total, %object
 116              		.size	read_input_total, 4
 117              	read_input_total:
 118 0038 00000000 		.space	4
 119              		.global	linux_read_input_failure_port1
 120              		.align	2
 121              		.type	linux_read_input_failure_port1, %object
 122              		.size	linux_read_input_failure_port1, 4
 123              	linux_read_input_failure_port1:
 124 003c 00000000 		.space	4
 125              		.global	linux_read_input_failure_port2
 126              		.align	2
 127              		.type	linux_read_input_failure_port2, %object
 128              		.size	linux_read_input_failure_port2, 4
 129              	linux_read_input_failure_port2:
 130 0040 00000000 		.space	4
 131              		.global	linux_read_input_failure_total
 132              		.align	2
 133              		.type	linux_read_input_failure_total, %object
 134              		.size	linux_read_input_failure_total, 4
 135              	linux_read_input_failure_total:
 136 0044 00000000 		.space	4
 137              		.global	linux_uart_failure
 138              		.align	2
 139              		.type	linux_uart_failure, %object
 140              		.size	linux_uart_failure, 4
 141              	linux_uart_failure:
 142 0048 00000000 		.space	4
 143              		.global	Port1_Relay
 144              		.type	Port1_Relay, %object
 145              		.size	Port1_Relay, 1
 146              	Port1_Relay:
 147 004c 00       		.space	1
 148              		.global	Port1_Relay_Old
 149              		.type	Port1_Relay_Old, %object
 150              		.size	Port1_Relay_Old, 1
 151              	Port1_Relay_Old:
 152 004d 00       		.space	1
 153              		.global	Port1_Locked
 154              		.type	Port1_Locked, %object
 155              		.size	Port1_Locked, 1
 156              	Port1_Locked:
 157 004e 00       		.space	1
 158              		.global	Port1_Locked_Old
 159              		.type	Port1_Locked_Old, %object
 160              		.size	Port1_Locked_Old, 1
 161              	Port1_Locked_Old:
 162 004f 00       		.space	1
 163              		.global	Port1_w_Start
 164              		.type	Port1_w_Start, %object
 165              		.size	Port1_w_Start, 1
 166              	Port1_w_Start:
 167 0050 00       		.space	1
 168              		.global	Port1_w_have
 169              		.type	Port1_w_have, %object
 170              		.size	Port1_w_have, 1
 171              	Port1_w_have:
ARM GAS  C:\Users\ali\AppData\Local\Temp\ccr9QJbk.s 			page 4


 172 0051 00       		.space	1
 173              		.comm	Port1_W,129,4
 174              		.comm	In1,3,4
 175              		.global	Port1_W_Counter
 176              		.type	Port1_W_Counter, %object
 177              		.size	Port1_W_Counter, 1
 178              	Port1_W_Counter:
 179 0052 00       		.space	1
 180              		.global	Port1_W_bits
 181              		.data
 182              		.type	Port1_W_bits, %object
 183              		.size	Port1_W_bits, 1
 184              	Port1_W_bits:
 185 0000 1A       		.byte	26
 186              		.global	Port1_W_bits_Old
 187              		.type	Port1_W_bits_Old, %object
 188              		.size	Port1_W_bits_Old, 1
 189              	Port1_W_bits_Old:
 190 0001 1A       		.byte	26
 191              		.global	Port2_Relay
 192              		.bss
 193              		.type	Port2_Relay, %object
 194              		.size	Port2_Relay, 1
 195              	Port2_Relay:
 196 0053 00       		.space	1
 197              		.global	Port2_Relay_Old
 198              		.type	Port2_Relay_Old, %object
 199              		.size	Port2_Relay_Old, 1
 200              	Port2_Relay_Old:
 201 0054 00       		.space	1
 202              		.global	Port2_Locked
 203              		.type	Port2_Locked, %object
 204              		.size	Port2_Locked, 1
 205              	Port2_Locked:
 206 0055 00       		.space	1
 207              		.global	Port2_Locked_Old
 208              		.type	Port2_Locked_Old, %object
 209              		.size	Port2_Locked_Old, 1
 210              	Port2_Locked_Old:
 211 0056 00       		.space	1
 212              		.global	Port2_w_Start
 213              		.type	Port2_w_Start, %object
 214              		.size	Port2_w_Start, 1
 215              	Port2_w_Start:
 216 0057 00       		.space	1
 217              		.global	Port2_w_have
 218              		.type	Port2_w_have, %object
 219              		.size	Port2_w_have, 1
 220              	Port2_w_have:
 221 0058 00       		.space	1
 222              		.comm	Port2_W,129,4
 223              		.comm	In2,3,4
 224              		.global	Port2_W_Counter
 225              		.type	Port2_W_Counter, %object
 226              		.size	Port2_W_Counter, 1
 227              	Port2_W_Counter:
 228 0059 00       		.space	1
ARM GAS  C:\Users\ali\AppData\Local\Temp\ccr9QJbk.s 			page 5


 229              		.global	Port2_W_bits
 230              		.data
 231              		.type	Port2_W_bits, %object
 232              		.size	Port2_W_bits, 1
 233              	Port2_W_bits:
 234 0002 1A       		.byte	26
 235              		.global	Port2_W_bits_Old
 236              		.type	Port2_W_bits_Old, %object
 237              		.size	Port2_W_bits_Old, 1
 238              	Port2_W_bits_Old:
 239 0003 1A       		.byte	26
 240              		.global	UART_Linux_StartBit
 241              		.bss
 242              		.type	UART_Linux_StartBit, %object
 243              		.size	UART_Linux_StartBit, 1
 244              	UART_Linux_StartBit:
 245 005a 00       		.space	1
 246              		.comm	UART_Linux_Rx_Buffer,1024,4
 247              		.global	UART_Linux_Rx_Counter
 248 005b 00       		.align	2
 249              		.type	UART_Linux_Rx_Counter, %object
 250              		.size	UART_Linux_Rx_Counter, 4
 251              	UART_Linux_Rx_Counter:
 252 005c 00000000 		.space	4
 253              		.global	RGB_Color
 254              		.type	RGB_Color, %object
 255              		.size	RGB_Color, 1
 256              	RGB_Color:
 257 0060 00       		.space	1
 258              		.global	RGB_Color_Old
 259              		.type	RGB_Color_Old, %object
 260              		.size	RGB_Color_Old, 1
 261              	RGB_Color_Old:
 262 0061 00       		.space	1
 263              		.section	.rodata
 264              		.align	2
 265              	.LC0:
 266 0000 72656164 		.ascii	"read_input_port1 = %lu, read_input_port2 = %lu, rea"
 266      5F696E70 
 266      75745F70 
 266      6F727431 
 266      203D2025 
 267 0033 645F696E 		.ascii	"d_input_total = %lu\015\012\000"
 267      7075745F 
 267      746F7461 
 267      6C203D20 
 267      256C750D 
 268 0049 000000   		.align	2
 269              	.LC1:
 270 004c 0D0A2D2D 		.ascii	"\015\012----------------------------\015\012\000"
 270      2D2D2D2D 
 270      2D2D2D2D 
 270      2D2D2D2D 
 270      2D2D2D2D 
 271 006d 000000   		.align	2
 272              	.LC2:
 273 0070 52656164 		.ascii	"Read Input from Port 1: \000"
ARM GAS  C:\Users\ali\AppData\Local\Temp\ccr9QJbk.s 			page 6


 273      20496E70 
 273      75742066 
 273      726F6D20 
 273      506F7274 
 274 0089 000000   		.align	2
 275              	.LC3:
 276 008c 0D0A00   		.ascii	"\015\012\000"
 277 008f 00       		.align	2
 278              	.LC4:
 279 0090 72656164 		.ascii	"read_counter_port1 = %lu, read_counter_port2 = %lu,"
 279      5F636F75 
 279      6E746572 
 279      5F706F72 
 279      7431203D 
 280 00c3 20726561 		.ascii	" read_counter_total = %lu\015\012\000"
 280      645F636F 
 280      756E7465 
 280      725F746F 
 280      74616C20 
 281 00df 00       		.align	2
 282              	.LC5:
 283 00e0 52656164 		.ascii	"Read W Port 1: \000"
 283      20572050 
 283      6F727420 
 283      313A2000 
 284              		.section	.text.Port1_Job,"ax",%progbits
 285              		.align	2
 286              		.global	Port1_Job
 287              		.thumb
 288              		.thumb_func
 289              		.type	Port1_Job, %function
 290              	Port1_Job:
 291              	.LFB64:
 292              		.file 1 "..\\Application\\OS_Main.c"
   1:..\Application/OS_Main.c **** /*********************************************************************
   2:..\Application/OS_Main.c **** *                     SEGGER Microcontroller GmbH                    *
   3:..\Application/OS_Main.c **** *                        The Embedded Experts                        *
   4:..\Application/OS_Main.c **** **********************************************************************
   5:..\Application/OS_Main.c **** *                                                                    *
   6:..\Application/OS_Main.c **** *       (c) 1995 - 2022 SEGGER Microcontroller GmbH                  *
   7:..\Application/OS_Main.c **** *                                                                    *
   8:..\Application/OS_Main.c **** *       Internet: segger.com  Support: support_embos@segger.com      *
   9:..\Application/OS_Main.c **** *                                                                    *
  10:..\Application/OS_Main.c **** **********************************************************************
  11:..\Application/OS_Main.c **** *                                                                    *
  12:..\Application/OS_Main.c **** *       embOS * Real time operating system                           *
  13:..\Application/OS_Main.c **** *                                                                    *
  14:..\Application/OS_Main.c **** *       Please note:                                                 *
  15:..\Application/OS_Main.c **** *                                                                    *
  16:..\Application/OS_Main.c **** *       Knowledge of this file may under no circumstances            *
  17:..\Application/OS_Main.c **** *       be used to write a similar product or a real-time            *
  18:..\Application/OS_Main.c **** *       operating system for in-house use.                           *
  19:..\Application/OS_Main.c **** *                                                                    *
  20:..\Application/OS_Main.c **** *       Thank you for your fairness !                                *
  21:..\Application/OS_Main.c **** *                                                                    *
  22:..\Application/OS_Main.c **** **********************************************************************
  23:..\Application/OS_Main.c **** *                                                                    *
ARM GAS  C:\Users\ali\AppData\Local\Temp\ccr9QJbk.s 			page 7


  24:..\Application/OS_Main.c **** *       OS version: V5.16.1.0                                        *
  25:..\Application/OS_Main.c **** *                                                                    *
  26:..\Application/OS_Main.c **** **********************************************************************
  27:..\Application/OS_Main.c **** 
  28:..\Application/OS_Main.c **** -------------------------- END-OF-HEADER -----------------------------
  29:..\Application/OS_Main.c **** File    : OS_StartLEDBlink.c
  30:..\Application/OS_Main.c **** Purpose : embOS sample program running two simple tasks, each toggling
  31:..\Application/OS_Main.c ****           an LED of the target hardware (as configured in BSP.c).
  32:..\Application/OS_Main.c **** */
  33:..\Application/OS_Main.c ****         
  34:..\Application/OS_Main.c **** //Port 1 Weigand:
  35:..\Application/OS_Main.c **** //                  W0 -> In1 -> P2.1
  36:..\Application/OS_Main.c **** //                  W1 -> In2 -> P2.2
  37:..\Application/OS_Main.c **** //                  In -> In3 -> P2.3
  38:..\Application/OS_Main.c **** 
  39:..\Application/OS_Main.c **** 
  40:..\Application/OS_Main.c **** //Port 2 Weignad:
  41:..\Application/OS_Main.c **** //                  W0 -> In6 -> P6.4
  42:..\Application/OS_Main.c **** //                  W1 -> In7 -> P6.5
  43:..\Application/OS_Main.c **** //                  In -> In8 -> P6.6
  44:..\Application/OS_Main.c **** 
  45:..\Application/OS_Main.c **** // ###################################################### Includes ################################
  46:..\Application/OS_Main.c **** #include "OS_Main.h"
  47:..\Application/OS_Main.c **** // ################################################################################################
  48:..\Application/OS_Main.c **** 
  49:..\Application/OS_Main.c **** // ###################################################### Variables ###############################
  50:..\Application/OS_Main.c **** uint32 read_counter_port1 = 0;
  51:..\Application/OS_Main.c **** uint32 read_counter_port2 = 0;
  52:..\Application/OS_Main.c **** uint32 read_counter_total = 0;
  53:..\Application/OS_Main.c **** 
  54:..\Application/OS_Main.c **** uint32 read_failure_port1 = 0;
  55:..\Application/OS_Main.c **** uint32 read_failure_port2 = 0;
  56:..\Application/OS_Main.c **** uint32 read_failure_total = 0;
  57:..\Application/OS_Main.c **** 
  58:..\Application/OS_Main.c **** uint32 linux_read_counter_port1 = 0;
  59:..\Application/OS_Main.c **** uint32 linux_read_counter_port2 = 0;
  60:..\Application/OS_Main.c **** uint32 linux_read_counter_total = 0;
  61:..\Application/OS_Main.c **** 
  62:..\Application/OS_Main.c **** uint32 linux_read_failure_port1 = 0;
  63:..\Application/OS_Main.c **** uint32 linux_read_failure_port2 = 0;
  64:..\Application/OS_Main.c **** uint32 linux_read_failure_total = 0;
  65:..\Application/OS_Main.c **** 
  66:..\Application/OS_Main.c **** uint32 read_input_port1 = 0;
  67:..\Application/OS_Main.c **** uint32 read_input_port2 = 0;
  68:..\Application/OS_Main.c **** uint32 read_input_total = 0;
  69:..\Application/OS_Main.c **** 
  70:..\Application/OS_Main.c **** uint32 linux_read_input_failure_port1 = 0;
  71:..\Application/OS_Main.c **** uint32 linux_read_input_failure_port2 = 0;
  72:..\Application/OS_Main.c **** uint32 linux_read_input_failure_total = 0;
  73:..\Application/OS_Main.c **** 
  74:..\Application/OS_Main.c **** uint32 linux_uart_failure = 0;
  75:..\Application/OS_Main.c **** 
  76:..\Application/OS_Main.c **** uint8 Port1_Relay = 0;
  77:..\Application/OS_Main.c **** uint8 Port1_Relay_Old = 0;
  78:..\Application/OS_Main.c **** uint8 Port1_Locked = 0;
  79:..\Application/OS_Main.c **** uint8 Port1_Locked_Old = 0;
  80:..\Application/OS_Main.c **** uint8 Port1_w_Start = 0;
ARM GAS  C:\Users\ali\AppData\Local\Temp\ccr9QJbk.s 			page 8


  81:..\Application/OS_Main.c **** uint8 Port1_w_have = 0;
  82:..\Application/OS_Main.c **** char Port1_W[129];
  83:..\Application/OS_Main.c **** char In1[3];
  84:..\Application/OS_Main.c **** uint8 Port1_W_Counter = 0;
  85:..\Application/OS_Main.c **** uint8 Port1_W_bits = 26;
  86:..\Application/OS_Main.c **** uint8 Port1_W_bits_Old = 26;
  87:..\Application/OS_Main.c **** 
  88:..\Application/OS_Main.c **** uint8 Port2_Relay = 0;
  89:..\Application/OS_Main.c **** uint8 Port2_Relay_Old = 0;
  90:..\Application/OS_Main.c **** uint8 Port2_Locked = 0;
  91:..\Application/OS_Main.c **** uint8 Port2_Locked_Old = 0;
  92:..\Application/OS_Main.c **** uint8 Port2_w_Start = 0;
  93:..\Application/OS_Main.c **** uint8 Port2_w_have = 0;
  94:..\Application/OS_Main.c **** char Port2_W[129];
  95:..\Application/OS_Main.c **** char In2[3];
  96:..\Application/OS_Main.c **** uint8 Port2_W_Counter = 0;
  97:..\Application/OS_Main.c **** uint8 Port2_W_bits = 26;
  98:..\Application/OS_Main.c **** uint8 Port2_W_bits_Old = 26;
  99:..\Application/OS_Main.c **** 
 100:..\Application/OS_Main.c **** uint8 UART_Linux_StartBit = 0;
 101:..\Application/OS_Main.c **** char UART_Linux_Rx_Buffer[1024];
 102:..\Application/OS_Main.c **** int UART_Linux_Rx_Counter = 0;
 103:..\Application/OS_Main.c **** 
 104:..\Application/OS_Main.c **** uint8 RGB_Color = 0;
 105:..\Application/OS_Main.c **** uint8 RGB_Color_Old = 0;
 106:..\Application/OS_Main.c **** // ################################################################################################
 107:..\Application/OS_Main.c **** 
 108:..\Application/OS_Main.c **** // ###################################################### Functions ###############################
 109:..\Application/OS_Main.c **** // ################################################################################################
 110:..\Application/OS_Main.c **** //Job of Ports
 111:..\Application/OS_Main.c **** void Port1_Job(uint8 intr)
 112:..\Application/OS_Main.c **** {
 293              		.loc 1 112 0
 294              		.cfi_startproc
 295              		@ args = 0, pretend = 0, frame = 272
 296              		@ frame_needed = 1, uses_anonymous_args = 0
 297 0000 80B5     		push	{r7, lr}
 298              		.cfi_def_cfa_offset 8
 299              		.cfi_offset 7, -8
 300              		.cfi_offset 14, -4
 301 0002 C6B0     		sub	sp, sp, #280
 302              		.cfi_def_cfa_offset 288
 303 0004 02AF     		add	r7, sp, #8
 304              		.cfi_def_cfa 7, 280
 305 0006 0246     		mov	r2, r0
 306 0008 FB1D     		adds	r3, r7, #7
 307 000a 1A70     		strb	r2, [r3]
 113:..\Application/OS_Main.c ****     uint8 Port1_W0 = 0;
 308              		.loc 1 113 0
 309 000c 0023     		movs	r3, #0
 310 000e 87F80F31 		strb	r3, [r7, #271]
 114:..\Application/OS_Main.c ****     uint8 Port1_W1 = 0;
 311              		.loc 1 114 0
 312 0012 0023     		movs	r3, #0
 313 0014 87F80E31 		strb	r3, [r7, #270]
 115:..\Application/OS_Main.c ****     uint8 Port1_In = 0;
 314              		.loc 1 115 0
ARM GAS  C:\Users\ali\AppData\Local\Temp\ccr9QJbk.s 			page 9


 315 0018 0023     		movs	r3, #0
 316 001a 87F80D31 		strb	r3, [r7, #269]
 116:..\Application/OS_Main.c ****     
 117:..\Application/OS_Main.c ****     switch(intr){
 317              		.loc 1 117 0
 318 001e FB1D     		adds	r3, r7, #7
 319 0020 1B78     		ldrb	r3, [r3]	@ zero_extendqisi2
 320 0022 013B     		subs	r3, r3, #1
 321 0024 052B     		cmp	r3, #5
 322 0026 29D8     		bhi	.L19
 323 0028 01A2     		adr	r2, .L4
 324 002a 52F823F0 		ldr	pc, [r2, r3, lsl #2]
 325 002e 00BF     		.p2align 2
 326              	.L4:
 327 0030 49000000 		.word	.L3+1
 328 0034 51000000 		.word	.L5+1
 329 0038 7D000000 		.word	.L19+1
 330 003c 59000000 		.word	.L6+1
 331 0040 61000000 		.word	.L7+1
 332 0044 6F000000 		.word	.L8+1
 333              		.p2align 1
 334              	.L3:
 118:..\Application/OS_Main.c ****         case 1:{
 119:..\Application/OS_Main.c ****             //W1_0
 120:..\Application/OS_Main.c ****             Port1_W0 = 1;
 335              		.loc 1 120 0
 336 0048 0123     		movs	r3, #1
 337 004a 87F80F31 		strb	r3, [r7, #271]
 121:..\Application/OS_Main.c ****             break;
 338              		.loc 1 121 0
 339 004e 16E0     		b	.L9
 340              	.L5:
 122:..\Application/OS_Main.c ****         }
 123:..\Application/OS_Main.c ****         case 2:{ 
 124:..\Application/OS_Main.c ****             //W1_1
 125:..\Application/OS_Main.c ****             Port1_W1 = 1;
 341              		.loc 1 125 0
 342 0050 0123     		movs	r3, #1
 343 0052 87F80E31 		strb	r3, [r7, #270]
 126:..\Application/OS_Main.c ****             break;
 344              		.loc 1 126 0
 345 0056 12E0     		b	.L9
 346              	.L6:
 127:..\Application/OS_Main.c ****         }
 128:..\Application/OS_Main.c ****         case 4:{
 129:..\Application/OS_Main.c ****             //In1
 130:..\Application/OS_Main.c ****             Port1_In = 1;
 347              		.loc 1 130 0
 348 0058 0123     		movs	r3, #1
 349 005a 87F80D31 		strb	r3, [r7, #269]
 131:..\Application/OS_Main.c ****             break;
 350              		.loc 1 131 0
 351 005e 0EE0     		b	.L9
 352              	.L7:
 132:..\Application/OS_Main.c ****         }
 133:..\Application/OS_Main.c ****         case 5:{
 134:..\Application/OS_Main.c ****             //W1_0, In1
ARM GAS  C:\Users\ali\AppData\Local\Temp\ccr9QJbk.s 			page 10


 135:..\Application/OS_Main.c ****             Port1_W0 = 1;
 353              		.loc 1 135 0
 354 0060 0123     		movs	r3, #1
 355 0062 87F80F31 		strb	r3, [r7, #271]
 136:..\Application/OS_Main.c ****             Port1_In = 1;
 356              		.loc 1 136 0
 357 0066 0123     		movs	r3, #1
 358 0068 87F80D31 		strb	r3, [r7, #269]
 137:..\Application/OS_Main.c ****             break;
 359              		.loc 1 137 0
 360 006c 07E0     		b	.L9
 361              	.L8:
 138:..\Application/OS_Main.c ****         }
 139:..\Application/OS_Main.c ****         case 6:{
 140:..\Application/OS_Main.c ****             //W1_1, In1
 141:..\Application/OS_Main.c ****             Port1_W1 = 1;
 362              		.loc 1 141 0
 363 006e 0123     		movs	r3, #1
 364 0070 87F80E31 		strb	r3, [r7, #270]
 142:..\Application/OS_Main.c ****             Port1_In = 1;
 365              		.loc 1 142 0
 366 0074 0123     		movs	r3, #1
 367 0076 87F80D31 		strb	r3, [r7, #269]
 143:..\Application/OS_Main.c ****             break;
 368              		.loc 1 143 0
 369 007a 00E0     		b	.L9
 370              	.L19:
 144:..\Application/OS_Main.c ****         }
 145:..\Application/OS_Main.c ****         default:{
 146:..\Application/OS_Main.c ****             break;
 371              		.loc 1 146 0
 372 007c 00BF     		nop
 373              	.L9:
 147:..\Application/OS_Main.c ****         }
 148:..\Application/OS_Main.c ****     }
 149:..\Application/OS_Main.c ****     
 150:..\Application/OS_Main.c ****     if(Port1_In && !OS_TIMER_GetStatus(&Timer_AfterRead_In1)){   
 374              		.loc 1 150 0
 375 007e 97F80D31 		ldrb	r3, [r7, #269]	@ zero_extendqisi2
 376 0082 002B     		cmp	r3, #0
 377 0084 3FD0     		beq	.L10
 378              		.loc 1 150 0 is_stmt 0 discriminator 1
 379 0086 8848     		ldr	r0, .L21
 380 0088 FFF7FEFF 		bl	OS_TIMER_GetStatus
 381 008c 0346     		mov	r3, r0
 382 008e 002B     		cmp	r3, #0
 383 0090 39D1     		bne	.L10
 384              	.LBB2:
 151:..\Application/OS_Main.c ****         In1[0] = 'I';
 385              		.loc 1 151 0 is_stmt 1
 386 0092 864B     		ldr	r3, .L21+4
 387 0094 4922     		movs	r2, #73
 388 0096 1A70     		strb	r2, [r3]
 152:..\Application/OS_Main.c ****         In1[1] = '1';
 389              		.loc 1 152 0
 390 0098 844B     		ldr	r3, .L21+4
 391 009a 3122     		movs	r2, #49
ARM GAS  C:\Users\ali\AppData\Local\Temp\ccr9QJbk.s 			page 11


 392 009c 5A70     		strb	r2, [r3, #1]
 153:..\Application/OS_Main.c ****         In1[2] = '\0';
 393              		.loc 1 153 0
 394 009e 834B     		ldr	r3, .L21+4
 395 00a0 0022     		movs	r2, #0
 396 00a2 9A70     		strb	r2, [r3, #2]
 154:..\Application/OS_Main.c ****         
 155:..\Application/OS_Main.c ****         
 156:..\Application/OS_Main.c ****         read_input_port1++;
 397              		.loc 1 156 0
 398 00a4 824B     		ldr	r3, .L21+8
 399 00a6 1B68     		ldr	r3, [r3]
 400 00a8 0133     		adds	r3, r3, #1
 401 00aa 814A     		ldr	r2, .L21+8
 402 00ac 1360     		str	r3, [r2]
 157:..\Application/OS_Main.c ****         read_input_total = read_input_port1 + read_input_port2;
 403              		.loc 1 157 0
 404 00ae 804B     		ldr	r3, .L21+8
 405 00b0 1A68     		ldr	r2, [r3]
 406 00b2 804B     		ldr	r3, .L21+12
 407 00b4 1B68     		ldr	r3, [r3]
 408 00b6 1344     		add	r3, r3, r2
 409 00b8 7F4A     		ldr	r2, .L21+16
 410 00ba 1360     		str	r3, [r2]
 158:..\Application/OS_Main.c ****         char data[256];
 159:..\Application/OS_Main.c ****         sprintf(data, "read_input_port1 = %lu, read_input_port2 = %lu, read_input_total = %lu\r\n",
 411              		.loc 1 159 0
 412 00bc 7C4B     		ldr	r3, .L21+8
 413 00be 1A68     		ldr	r2, [r3]
 414 00c0 7C4B     		ldr	r3, .L21+12
 415 00c2 1968     		ldr	r1, [r3]
 416 00c4 7C4B     		ldr	r3, .L21+16
 417 00c6 1B68     		ldr	r3, [r3]
 418 00c8 07F10C00 		add	r0, r7, #12
 419 00cc 0093     		str	r3, [sp]
 420 00ce 0B46     		mov	r3, r1
 421 00d0 7A49     		ldr	r1, .L21+20
 422 00d2 FFF7FEFF 		bl	sprintf
 160:..\Application/OS_Main.c ****         
 161:..\Application/OS_Main.c ****         UART_Debug_PutString("\r\n----------------------------\r\n");
 423              		.loc 1 161 0
 424 00d6 7A48     		ldr	r0, .L21+24
 425 00d8 FFF7FEFF 		bl	UART_Debug_PutString
 162:..\Application/OS_Main.c ****         UART_Debug_PutString("Read Input from Port 1: ");
 426              		.loc 1 162 0
 427 00dc 7948     		ldr	r0, .L21+28
 428 00de FFF7FEFF 		bl	UART_Debug_PutString
 163:..\Application/OS_Main.c ****         CyWdtClear(); 
 429              		.loc 1 163 0
 430 00e2 FFF7FEFF 		bl	CyWdtClear
 164:..\Application/OS_Main.c ****         UART_Debug_PutString(In1);
 431              		.loc 1 164 0
 432 00e6 7148     		ldr	r0, .L21+4
 433 00e8 FFF7FEFF 		bl	UART_Debug_PutString
 165:..\Application/OS_Main.c ****         UART_Debug_PutString("\r\n");
 434              		.loc 1 165 0
 435 00ec 7648     		ldr	r0, .L21+32
ARM GAS  C:\Users\ali\AppData\Local\Temp\ccr9QJbk.s 			page 12


 436 00ee FFF7FEFF 		bl	UART_Debug_PutString
 166:..\Application/OS_Main.c ****         UART_Debug_PutString(data);
 437              		.loc 1 166 0
 438 00f2 07F10C03 		add	r3, r7, #12
 439 00f6 1846     		mov	r0, r3
 440 00f8 FFF7FEFF 		bl	UART_Debug_PutString
 167:..\Application/OS_Main.c ****         CyWdtClear(); 
 441              		.loc 1 167 0
 442 00fc FFF7FEFF 		bl	CyWdtClear
 168:..\Application/OS_Main.c ****         
 169:..\Application/OS_Main.c ****         OS_TIMER_Restart(&Timer_AfterRead_In1);
 443              		.loc 1 169 0
 444 0100 6948     		ldr	r0, .L21
 445 0102 FFF7FEFF 		bl	OS_TIMER_Restart
 446              	.L10:
 447              	.LBE2:
 170:..\Application/OS_Main.c ****     }
 171:..\Application/OS_Main.c ****     
 172:..\Application/OS_Main.c **** //    char sssss[100];
 173:..\Application/OS_Main.c **** //    sprintf(sssss, "OS_TIMER_GetStatus(&Timer_AfterRead_Port1) = %d\r\n", OS_TIMER_GetStatus(&Tim
 174:..\Application/OS_Main.c **** //    UART_Debug_PutString(sssss);
 175:..\Application/OS_Main.c ****     
 176:..\Application/OS_Main.c ****     if(!Port1_w_have){
 448              		.loc 1 176 0
 449 0106 714B     		ldr	r3, .L21+36
 450 0108 1B78     		ldrb	r3, [r3]	@ zero_extendqisi2
 451 010a 002B     		cmp	r3, #0
 452 010c 40F0C780 		bne	.L20
 177:..\Application/OS_Main.c ****         if((Port1_W0 || Port1_W1) && !Port1_Locked && !OS_TIMER_GetStatus(&Timer_AfterRead_Port1)){
 453              		.loc 1 177 0
 454 0110 97F80F31 		ldrb	r3, [r7, #271]	@ zero_extendqisi2
 455 0114 002B     		cmp	r3, #0
 456 0116 04D1     		bne	.L12
 457              		.loc 1 177 0 is_stmt 0 discriminator 2
 458 0118 97F80E31 		ldrb	r3, [r7, #270]	@ zero_extendqisi2
 459 011c 002B     		cmp	r3, #0
 460 011e 00F0BE80 		beq	.L20
 461              	.L12:
 462              		.loc 1 177 0 discriminator 3
 463 0122 6B4B     		ldr	r3, .L21+40
 464 0124 1B78     		ldrb	r3, [r3]	@ zero_extendqisi2
 465 0126 002B     		cmp	r3, #0
 466 0128 40F0B980 		bne	.L20
 467              		.loc 1 177 0 discriminator 4
 468 012c 6948     		ldr	r0, .L21+44
 469 012e FFF7FEFF 		bl	OS_TIMER_GetStatus
 470 0132 0346     		mov	r3, r0
 471 0134 002B     		cmp	r3, #0
 472 0136 40F0B280 		bne	.L20
 178:..\Application/OS_Main.c ****             if(Port1_w_Start){
 473              		.loc 1 178 0 is_stmt 1
 474 013a 674B     		ldr	r3, .L21+48
 475 013c 1B78     		ldrb	r3, [r3]	@ zero_extendqisi2
 476 013e 002B     		cmp	r3, #0
 477 0140 77D0     		beq	.L13
 179:..\Application/OS_Main.c ****                 OS_TIMER_Restart(&Timer_Read_W_Port1);
 478              		.loc 1 179 0
ARM GAS  C:\Users\ali\AppData\Local\Temp\ccr9QJbk.s 			page 13


 479 0142 6648     		ldr	r0, .L21+52
 480 0144 FFF7FEFF 		bl	OS_TIMER_Restart
 180:..\Application/OS_Main.c ****                 if(Port1_W0){
 481              		.loc 1 180 0
 482 0148 97F80F31 		ldrb	r3, [r7, #271]	@ zero_extendqisi2
 483 014c 002B     		cmp	r3, #0
 484 014e 0BD0     		beq	.L14
 181:..\Application/OS_Main.c ****                     Port1_W[Port1_W_Counter] = '0';
 485              		.loc 1 181 0
 486 0150 634B     		ldr	r3, .L21+56
 487 0152 1B78     		ldrb	r3, [r3]	@ zero_extendqisi2
 488 0154 1A46     		mov	r2, r3
 489 0156 634B     		ldr	r3, .L21+60
 490 0158 3021     		movs	r1, #48
 491 015a 9954     		strb	r1, [r3, r2]
 182:..\Application/OS_Main.c ****                     Port1_W_Counter = Port1_W_Counter + 1;
 492              		.loc 1 182 0
 493 015c 604B     		ldr	r3, .L21+56
 494 015e 1B78     		ldrb	r3, [r3]	@ zero_extendqisi2
 495 0160 0133     		adds	r3, r3, #1
 496 0162 DAB2     		uxtb	r2, r3
 497 0164 5E4B     		ldr	r3, .L21+56
 498 0166 1A70     		strb	r2, [r3]
 499              	.L14:
 183:..\Application/OS_Main.c ****                 }
 184:..\Application/OS_Main.c ****                 
 185:..\Application/OS_Main.c ****                 if(Port1_W1){
 500              		.loc 1 185 0
 501 0168 97F80E31 		ldrb	r3, [r7, #270]	@ zero_extendqisi2
 502 016c 002B     		cmp	r3, #0
 503 016e 0BD0     		beq	.L15
 186:..\Application/OS_Main.c ****                     Port1_W[Port1_W_Counter] = '1';
 504              		.loc 1 186 0
 505 0170 5B4B     		ldr	r3, .L21+56
 506 0172 1B78     		ldrb	r3, [r3]	@ zero_extendqisi2
 507 0174 1A46     		mov	r2, r3
 508 0176 5B4B     		ldr	r3, .L21+60
 509 0178 3121     		movs	r1, #49
 510 017a 9954     		strb	r1, [r3, r2]
 187:..\Application/OS_Main.c ****                     Port1_W_Counter = Port1_W_Counter + 1;
 511              		.loc 1 187 0
 512 017c 584B     		ldr	r3, .L21+56
 513 017e 1B78     		ldrb	r3, [r3]	@ zero_extendqisi2
 514 0180 0133     		adds	r3, r3, #1
 515 0182 DAB2     		uxtb	r2, r3
 516 0184 564B     		ldr	r3, .L21+56
 517 0186 1A70     		strb	r2, [r3]
 518              	.L15:
 188:..\Application/OS_Main.c ****                 }
 189:..\Application/OS_Main.c ****                 
 190:..\Application/OS_Main.c ****                 if(Port1_W_Counter >= (Port1_W_bits + 3)){
 519              		.loc 1 190 0
 520 0188 554B     		ldr	r3, .L21+56
 521 018a 1B78     		ldrb	r3, [r3]	@ zero_extendqisi2
 522 018c 1A46     		mov	r2, r3
 523 018e 564B     		ldr	r3, .L21+64
 524 0190 1B78     		ldrb	r3, [r3]	@ zero_extendqisi2
ARM GAS  C:\Users\ali\AppData\Local\Temp\ccr9QJbk.s 			page 14


 525 0192 0333     		adds	r3, r3, #3
 526 0194 9A42     		cmp	r2, r3
 527 0196 C0F28280 		blt	.L20
 528              	.LBB3:
 191:..\Application/OS_Main.c ****                     Port1_W[Port1_W_Counter] = '\0';
 529              		.loc 1 191 0
 530 019a 514B     		ldr	r3, .L21+56
 531 019c 1B78     		ldrb	r3, [r3]	@ zero_extendqisi2
 532 019e 1A46     		mov	r2, r3
 533 01a0 504B     		ldr	r3, .L21+60
 534 01a2 0021     		movs	r1, #0
 535 01a4 9954     		strb	r1, [r3, r2]
 192:..\Application/OS_Main.c ****                     Port1_W_Counter = Port1_W_Counter + 1;
 536              		.loc 1 192 0
 537 01a6 4E4B     		ldr	r3, .L21+56
 538 01a8 1B78     		ldrb	r3, [r3]	@ zero_extendqisi2
 539 01aa 0133     		adds	r3, r3, #1
 540 01ac DAB2     		uxtb	r2, r3
 541 01ae 4C4B     		ldr	r3, .L21+56
 542 01b0 1A70     		strb	r2, [r3]
 193:..\Application/OS_Main.c ****                     
 194:..\Application/OS_Main.c ****                     read_counter_port1++;
 543              		.loc 1 194 0
 544 01b2 4E4B     		ldr	r3, .L21+68
 545 01b4 1B68     		ldr	r3, [r3]
 546 01b6 0133     		adds	r3, r3, #1
 547 01b8 4C4A     		ldr	r2, .L21+68
 548 01ba 1360     		str	r3, [r2]
 195:..\Application/OS_Main.c ****                     read_counter_total = read_counter_port1 + read_counter_port2;
 549              		.loc 1 195 0
 550 01bc 4B4B     		ldr	r3, .L21+68
 551 01be 1A68     		ldr	r2, [r3]
 552 01c0 4B4B     		ldr	r3, .L21+72
 553 01c2 1B68     		ldr	r3, [r3]
 554 01c4 1344     		add	r3, r3, r2
 555 01c6 4B4A     		ldr	r2, .L21+76
 556 01c8 1360     		str	r3, [r2]
 196:..\Application/OS_Main.c ****                     char data[256];
 197:..\Application/OS_Main.c ****                     sprintf(data, "read_counter_port1 = %lu, read_counter_port2 = %lu, read_counter
 557              		.loc 1 197 0
 558 01ca 484B     		ldr	r3, .L21+68
 559 01cc 1A68     		ldr	r2, [r3]
 560 01ce 484B     		ldr	r3, .L21+72
 561 01d0 1968     		ldr	r1, [r3]
 562 01d2 484B     		ldr	r3, .L21+76
 563 01d4 1B68     		ldr	r3, [r3]
 564 01d6 07F10C00 		add	r0, r7, #12
 565 01da 0093     		str	r3, [sp]
 566 01dc 0B46     		mov	r3, r1
 567 01de 4649     		ldr	r1, .L21+80
 568 01e0 FFF7FEFF 		bl	sprintf
 198:..\Application/OS_Main.c ****                     
 199:..\Application/OS_Main.c ****                     UART_Debug_PutString("\r\n----------------------------\r\n");
 569              		.loc 1 199 0
 570 01e4 3648     		ldr	r0, .L21+24
 571 01e6 FFF7FEFF 		bl	UART_Debug_PutString
 200:..\Application/OS_Main.c ****                     UART_Debug_PutString("Read W Port 1: ");
ARM GAS  C:\Users\ali\AppData\Local\Temp\ccr9QJbk.s 			page 15


 572              		.loc 1 200 0
 573 01ea 4448     		ldr	r0, .L21+84
 574 01ec FFF7FEFF 		bl	UART_Debug_PutString
 201:..\Application/OS_Main.c ****                     CyWdtClear(); 
 575              		.loc 1 201 0
 576 01f0 FFF7FEFF 		bl	CyWdtClear
 202:..\Application/OS_Main.c ****                     UART_Debug_PutString(Port1_W);
 577              		.loc 1 202 0
 578 01f4 3B48     		ldr	r0, .L21+60
 579 01f6 FFF7FEFF 		bl	UART_Debug_PutString
 203:..\Application/OS_Main.c ****                     CyWdtClear(); 
 580              		.loc 1 203 0
 581 01fa FFF7FEFF 		bl	CyWdtClear
 204:..\Application/OS_Main.c ****                     UART_Debug_PutString("\r\n");
 582              		.loc 1 204 0
 583 01fe 3248     		ldr	r0, .L21+32
 584 0200 FFF7FEFF 		bl	UART_Debug_PutString
 205:..\Application/OS_Main.c ****                     
 206:..\Application/OS_Main.c ****                     UART_Debug_PutString(data);
 585              		.loc 1 206 0
 586 0204 07F10C03 		add	r3, r7, #12
 587 0208 1846     		mov	r0, r3
 588 020a FFF7FEFF 		bl	UART_Debug_PutString
 207:..\Application/OS_Main.c ****                     CyWdtClear(); 
 589              		.loc 1 207 0
 590 020e FFF7FEFF 		bl	CyWdtClear
 208:..\Application/OS_Main.c ****                     
 209:..\Application/OS_Main.c ****                     OS_TIMER_Stop(&Timer_Read_W_Port1);
 591              		.loc 1 209 0
 592 0212 3248     		ldr	r0, .L21+52
 593 0214 FFF7FEFF 		bl	OS_TIMER_Stop
 210:..\Application/OS_Main.c ****                     Port1_W_Counter = 0;
 594              		.loc 1 210 0
 595 0218 314B     		ldr	r3, .L21+56
 596 021a 0022     		movs	r2, #0
 597 021c 1A70     		strb	r2, [r3]
 211:..\Application/OS_Main.c ****                     Port1_w_Start = 0;
 598              		.loc 1 211 0
 599 021e 2E4B     		ldr	r3, .L21+48
 600 0220 0022     		movs	r2, #0
 601 0222 1A70     		strb	r2, [r3]
 212:..\Application/OS_Main.c ****                     Port1_w_have = 1;
 602              		.loc 1 212 0
 603 0224 294B     		ldr	r3, .L21+36
 604 0226 0122     		movs	r2, #1
 605 0228 1A70     		strb	r2, [r3]
 213:..\Application/OS_Main.c ****                     
 214:..\Application/OS_Main.c ****                     OS_TIMER_Restart(&Timer_AfterRead_Port1); 
 606              		.loc 1 214 0
 607 022a 2A48     		ldr	r0, .L21+44
 608 022c FFF7FEFF 		bl	OS_TIMER_Restart
 609              	.LBE3:
 215:..\Application/OS_Main.c ****                 }
 216:..\Application/OS_Main.c ****                     
 217:..\Application/OS_Main.c ****             }
 218:..\Application/OS_Main.c ****             else{
 219:..\Application/OS_Main.c ****                 Port1_w_Start = 1;
ARM GAS  C:\Users\ali\AppData\Local\Temp\ccr9QJbk.s 			page 16


 220:..\Application/OS_Main.c ****                 OS_TIMER_Restart(&Timer_Read_W_Port1);
 221:..\Application/OS_Main.c ****                 
 222:..\Application/OS_Main.c ****                 Port1_W_Counter = 0;
 223:..\Application/OS_Main.c ****                 Port1_W[0] = 'P';
 224:..\Application/OS_Main.c ****                 Port1_W[1] = '1';
 225:..\Application/OS_Main.c ****                 Port1_W[2] = 'W';
 226:..\Application/OS_Main.c ****                 Port1_W_Counter = 3;
 227:..\Application/OS_Main.c ****                 
 228:..\Application/OS_Main.c ****                 if(Port1_W0){
 229:..\Application/OS_Main.c ****                     Port1_W[Port1_W_Counter] = '0';
 230:..\Application/OS_Main.c ****                     Port1_W_Counter = Port1_W_Counter + 1;
 231:..\Application/OS_Main.c ****                 }
 232:..\Application/OS_Main.c ****                 
 233:..\Application/OS_Main.c ****                 if(Port1_W1){
 234:..\Application/OS_Main.c ****                     Port1_W[Port1_W_Counter] = '1';
 235:..\Application/OS_Main.c ****                     Port1_W_Counter = Port1_W_Counter + 1;
 236:..\Application/OS_Main.c ****                 }
 237:..\Application/OS_Main.c ****             }
 238:..\Application/OS_Main.c ****         }
 239:..\Application/OS_Main.c ****     }
 240:..\Application/OS_Main.c ****     
 241:..\Application/OS_Main.c ****     return;
 610              		.loc 1 241 0
 611 0230 35E0     		b	.L20
 612              	.L13:
 219:..\Application/OS_Main.c ****                 OS_TIMER_Restart(&Timer_Read_W_Port1);
 613              		.loc 1 219 0
 614 0232 294B     		ldr	r3, .L21+48
 615 0234 0122     		movs	r2, #1
 616 0236 1A70     		strb	r2, [r3]
 220:..\Application/OS_Main.c ****                 
 617              		.loc 1 220 0
 618 0238 2848     		ldr	r0, .L21+52
 619 023a FFF7FEFF 		bl	OS_TIMER_Restart
 222:..\Application/OS_Main.c ****                 Port1_W[0] = 'P';
 620              		.loc 1 222 0
 621 023e 284B     		ldr	r3, .L21+56
 622 0240 0022     		movs	r2, #0
 623 0242 1A70     		strb	r2, [r3]
 223:..\Application/OS_Main.c ****                 Port1_W[1] = '1';
 624              		.loc 1 223 0
 625 0244 274B     		ldr	r3, .L21+60
 626 0246 5022     		movs	r2, #80
 627 0248 1A70     		strb	r2, [r3]
 224:..\Application/OS_Main.c ****                 Port1_W[2] = 'W';
 628              		.loc 1 224 0
 629 024a 264B     		ldr	r3, .L21+60
 630 024c 3122     		movs	r2, #49
 631 024e 5A70     		strb	r2, [r3, #1]
 225:..\Application/OS_Main.c ****                 Port1_W_Counter = 3;
 632              		.loc 1 225 0
 633 0250 244B     		ldr	r3, .L21+60
 634 0252 5722     		movs	r2, #87
 635 0254 9A70     		strb	r2, [r3, #2]
 226:..\Application/OS_Main.c ****                 
 636              		.loc 1 226 0
 637 0256 224B     		ldr	r3, .L21+56
ARM GAS  C:\Users\ali\AppData\Local\Temp\ccr9QJbk.s 			page 17


 638 0258 0322     		movs	r2, #3
 639 025a 1A70     		strb	r2, [r3]
 228:..\Application/OS_Main.c ****                     Port1_W[Port1_W_Counter] = '0';
 640              		.loc 1 228 0
 641 025c 97F80F31 		ldrb	r3, [r7, #271]	@ zero_extendqisi2
 642 0260 002B     		cmp	r3, #0
 643 0262 0BD0     		beq	.L17
 229:..\Application/OS_Main.c ****                     Port1_W_Counter = Port1_W_Counter + 1;
 644              		.loc 1 229 0
 645 0264 1E4B     		ldr	r3, .L21+56
 646 0266 1B78     		ldrb	r3, [r3]	@ zero_extendqisi2
 647 0268 1A46     		mov	r2, r3
 648 026a 1E4B     		ldr	r3, .L21+60
 649 026c 3021     		movs	r1, #48
 650 026e 9954     		strb	r1, [r3, r2]
 230:..\Application/OS_Main.c ****                 }
 651              		.loc 1 230 0
 652 0270 1B4B     		ldr	r3, .L21+56
 653 0272 1B78     		ldrb	r3, [r3]	@ zero_extendqisi2
 654 0274 0133     		adds	r3, r3, #1
 655 0276 DAB2     		uxtb	r2, r3
 656 0278 194B     		ldr	r3, .L21+56
 657 027a 1A70     		strb	r2, [r3]
 658              	.L17:
 233:..\Application/OS_Main.c ****                     Port1_W[Port1_W_Counter] = '1';
 659              		.loc 1 233 0
 660 027c 97F80E31 		ldrb	r3, [r7, #270]	@ zero_extendqisi2
 661 0280 002B     		cmp	r3, #0
 662 0282 0CD0     		beq	.L20
 234:..\Application/OS_Main.c ****                     Port1_W_Counter = Port1_W_Counter + 1;
 663              		.loc 1 234 0
 664 0284 164B     		ldr	r3, .L21+56
 665 0286 1B78     		ldrb	r3, [r3]	@ zero_extendqisi2
 666 0288 1A46     		mov	r2, r3
 667 028a 164B     		ldr	r3, .L21+60
 668 028c 3121     		movs	r1, #49
 669 028e 9954     		strb	r1, [r3, r2]
 235:..\Application/OS_Main.c ****                 }
 670              		.loc 1 235 0
 671 0290 134B     		ldr	r3, .L21+56
 672 0292 1B78     		ldrb	r3, [r3]	@ zero_extendqisi2
 673 0294 0133     		adds	r3, r3, #1
 674 0296 DAB2     		uxtb	r2, r3
 675 0298 114B     		ldr	r3, .L21+56
 676 029a 1A70     		strb	r2, [r3]
 677              		.loc 1 241 0
 678 029c 00BF     		nop
 679              	.L20:
 680 029e 00BF     		nop
 242:..\Application/OS_Main.c **** }
 681              		.loc 1 242 0
 682 02a0 07F58877 		add	r7, r7, #272
 683              		.cfi_def_cfa_offset 8
 684 02a4 BD46     		mov	sp, r7
 685              		.cfi_def_cfa_register 13
 686              		@ sp needed
 687 02a6 80BD     		pop	{r7, pc}
ARM GAS  C:\Users\ali\AppData\Local\Temp\ccr9QJbk.s 			page 18


 688              	.L22:
 689              		.align	2
 690              	.L21:
 691 02a8 00000000 		.word	Timer_AfterRead_In1
 692 02ac 00000000 		.word	In1
 693 02b0 00000000 		.word	read_input_port1
 694 02b4 00000000 		.word	read_input_port2
 695 02b8 00000000 		.word	read_input_total
 696 02bc 00000000 		.word	.LC0
 697 02c0 4C000000 		.word	.LC1
 698 02c4 70000000 		.word	.LC2
 699 02c8 8C000000 		.word	.LC3
 700 02cc 00000000 		.word	Port1_w_have
 701 02d0 00000000 		.word	Port1_Locked
 702 02d4 00000000 		.word	Timer_AfterRead_Port1
 703 02d8 00000000 		.word	Port1_w_Start
 704 02dc 00000000 		.word	Timer_Read_W_Port1
 705 02e0 00000000 		.word	Port1_W_Counter
 706 02e4 00000000 		.word	Port1_W
 707 02e8 00000000 		.word	Port1_W_bits
 708 02ec 00000000 		.word	read_counter_port1
 709 02f0 00000000 		.word	read_counter_port2
 710 02f4 00000000 		.word	read_counter_total
 711 02f8 90000000 		.word	.LC4
 712 02fc E0000000 		.word	.LC5
 713              		.cfi_endproc
 714              	.LFE64:
 715              		.size	Port1_Job, .-Port1_Job
 716              		.section	.rodata
 717              		.align	2
 718              	.LC6:
 719 00f0 52656164 		.ascii	"Read Input from Port 2: \000"
 719      20496E70 
 719      75742066 
 719      726F6D20 
 719      506F7274 
 720 0109 000000   		.align	2
 721              	.LC7:
 722 010c 52656164 		.ascii	"Read W Port 2: \000"
 722      20572050 
 722      6F727420 
 722      323A2000 
 723              		.section	.text.Port2_Job,"ax",%progbits
 724              		.align	2
 725              		.global	Port2_Job
 726              		.thumb
 727              		.thumb_func
 728              		.type	Port2_Job, %function
 729              	Port2_Job:
 730              	.LFB65:
 243:..\Application/OS_Main.c **** 
 244:..\Application/OS_Main.c **** void Port2_Job(uint8 intr)
 245:..\Application/OS_Main.c **** {
 731              		.loc 1 245 0
 732              		.cfi_startproc
 733              		@ args = 0, pretend = 0, frame = 272
 734              		@ frame_needed = 1, uses_anonymous_args = 0
ARM GAS  C:\Users\ali\AppData\Local\Temp\ccr9QJbk.s 			page 19


 735 0000 80B5     		push	{r7, lr}
 736              		.cfi_def_cfa_offset 8
 737              		.cfi_offset 7, -8
 738              		.cfi_offset 14, -4
 739 0002 C6B0     		sub	sp, sp, #280
 740              		.cfi_def_cfa_offset 288
 741 0004 02AF     		add	r7, sp, #8
 742              		.cfi_def_cfa 7, 280
 743 0006 0246     		mov	r2, r0
 744 0008 FB1D     		adds	r3, r7, #7
 745 000a 1A70     		strb	r2, [r3]
 246:..\Application/OS_Main.c ****     uint8 Port2_W0 = 0;
 746              		.loc 1 246 0
 747 000c 0023     		movs	r3, #0
 748 000e 87F80F31 		strb	r3, [r7, #271]
 247:..\Application/OS_Main.c ****     uint8 Port2_W1 = 0;
 749              		.loc 1 247 0
 750 0012 0023     		movs	r3, #0
 751 0014 87F80E31 		strb	r3, [r7, #270]
 248:..\Application/OS_Main.c ****     uint8 Port2_In = 0;
 752              		.loc 1 248 0
 753 0018 0023     		movs	r3, #0
 754 001a 87F80D31 		strb	r3, [r7, #269]
 249:..\Application/OS_Main.c ****     
 250:..\Application/OS_Main.c ****     switch(intr){
 755              		.loc 1 250 0
 756 001e FB1D     		adds	r3, r7, #7
 757 0020 1B78     		ldrb	r3, [r3]	@ zero_extendqisi2
 758 0022 013B     		subs	r3, r3, #1
 759 0024 052B     		cmp	r3, #5
 760 0026 29D8     		bhi	.L41
 761 0028 01A2     		adr	r2, .L26
 762 002a 52F823F0 		ldr	pc, [r2, r3, lsl #2]
 763 002e 00BF     		.p2align 2
 764              	.L26:
 765 0030 49000000 		.word	.L25+1
 766 0034 51000000 		.word	.L27+1
 767 0038 7D000000 		.word	.L41+1
 768 003c 59000000 		.word	.L28+1
 769 0040 61000000 		.word	.L29+1
 770 0044 6F000000 		.word	.L30+1
 771              		.p2align 1
 772              	.L25:
 251:..\Application/OS_Main.c ****         case 1:{
 252:..\Application/OS_Main.c ****             //W2_0
 253:..\Application/OS_Main.c ****             Port2_W0 = 1;
 773              		.loc 1 253 0
 774 0048 0123     		movs	r3, #1
 775 004a 87F80F31 		strb	r3, [r7, #271]
 254:..\Application/OS_Main.c ****             break;
 776              		.loc 1 254 0
 777 004e 16E0     		b	.L31
 778              	.L27:
 255:..\Application/OS_Main.c ****         }
 256:..\Application/OS_Main.c ****         case 2:{ 
 257:..\Application/OS_Main.c ****             //W2_1
 258:..\Application/OS_Main.c ****             Port2_W1 = 1;
ARM GAS  C:\Users\ali\AppData\Local\Temp\ccr9QJbk.s 			page 20


 779              		.loc 1 258 0
 780 0050 0123     		movs	r3, #1
 781 0052 87F80E31 		strb	r3, [r7, #270]
 259:..\Application/OS_Main.c ****             break;
 782              		.loc 1 259 0
 783 0056 12E0     		b	.L31
 784              	.L28:
 260:..\Application/OS_Main.c ****         }
 261:..\Application/OS_Main.c ****         case 4:{
 262:..\Application/OS_Main.c ****             //In2
 263:..\Application/OS_Main.c ****             Port2_In = 1;
 785              		.loc 1 263 0
 786 0058 0123     		movs	r3, #1
 787 005a 87F80D31 		strb	r3, [r7, #269]
 264:..\Application/OS_Main.c ****             break;
 788              		.loc 1 264 0
 789 005e 0EE0     		b	.L31
 790              	.L29:
 265:..\Application/OS_Main.c ****         }
 266:..\Application/OS_Main.c ****         case 5:{
 267:..\Application/OS_Main.c ****             //W2_0, In2
 268:..\Application/OS_Main.c ****             Port2_W0 = 1;
 791              		.loc 1 268 0
 792 0060 0123     		movs	r3, #1
 793 0062 87F80F31 		strb	r3, [r7, #271]
 269:..\Application/OS_Main.c ****             Port2_In = 1;
 794              		.loc 1 269 0
 795 0066 0123     		movs	r3, #1
 796 0068 87F80D31 		strb	r3, [r7, #269]
 270:..\Application/OS_Main.c ****             break;
 797              		.loc 1 270 0
 798 006c 07E0     		b	.L31
 799              	.L30:
 271:..\Application/OS_Main.c ****         }
 272:..\Application/OS_Main.c ****         case 6:{
 273:..\Application/OS_Main.c ****             //W2_1, In2
 274:..\Application/OS_Main.c ****             Port2_W1 = 1;
 800              		.loc 1 274 0
 801 006e 0123     		movs	r3, #1
 802 0070 87F80E31 		strb	r3, [r7, #270]
 275:..\Application/OS_Main.c ****             Port2_In = 1;
 803              		.loc 1 275 0
 804 0074 0123     		movs	r3, #1
 805 0076 87F80D31 		strb	r3, [r7, #269]
 276:..\Application/OS_Main.c ****             break;
 806              		.loc 1 276 0
 807 007a 00E0     		b	.L31
 808              	.L41:
 277:..\Application/OS_Main.c ****         }
 278:..\Application/OS_Main.c ****         default:{
 279:..\Application/OS_Main.c ****             break;
 809              		.loc 1 279 0
 810 007c 00BF     		nop
 811              	.L31:
 280:..\Application/OS_Main.c ****         }
 281:..\Application/OS_Main.c ****     }
 282:..\Application/OS_Main.c ****     
ARM GAS  C:\Users\ali\AppData\Local\Temp\ccr9QJbk.s 			page 21


 283:..\Application/OS_Main.c ****     if(Port2_In && !OS_TIMER_GetStatus(&Timer_AfterRead_In2)){
 812              		.loc 1 283 0
 813 007e 97F80D31 		ldrb	r3, [r7, #269]	@ zero_extendqisi2
 814 0082 002B     		cmp	r3, #0
 815 0084 3FD0     		beq	.L32
 816              		.loc 1 283 0 is_stmt 0 discriminator 1
 817 0086 8848     		ldr	r0, .L43
 818 0088 FFF7FEFF 		bl	OS_TIMER_GetStatus
 819 008c 0346     		mov	r3, r0
 820 008e 002B     		cmp	r3, #0
 821 0090 39D1     		bne	.L32
 822              	.LBB4:
 284:..\Application/OS_Main.c ****         In2[0] = 'I';
 823              		.loc 1 284 0 is_stmt 1
 824 0092 864B     		ldr	r3, .L43+4
 825 0094 4922     		movs	r2, #73
 826 0096 1A70     		strb	r2, [r3]
 285:..\Application/OS_Main.c ****         In2[1] = '2';
 827              		.loc 1 285 0
 828 0098 844B     		ldr	r3, .L43+4
 829 009a 3222     		movs	r2, #50
 830 009c 5A70     		strb	r2, [r3, #1]
 286:..\Application/OS_Main.c ****         In2[2] = '\0';
 831              		.loc 1 286 0
 832 009e 834B     		ldr	r3, .L43+4
 833 00a0 0022     		movs	r2, #0
 834 00a2 9A70     		strb	r2, [r3, #2]
 287:..\Application/OS_Main.c ****         
 288:..\Application/OS_Main.c ****         read_input_port2++;
 835              		.loc 1 288 0
 836 00a4 824B     		ldr	r3, .L43+8
 837 00a6 1B68     		ldr	r3, [r3]
 838 00a8 0133     		adds	r3, r3, #1
 839 00aa 814A     		ldr	r2, .L43+8
 840 00ac 1360     		str	r3, [r2]
 289:..\Application/OS_Main.c ****         read_input_total = read_input_port1 + read_input_port2;
 841              		.loc 1 289 0
 842 00ae 814B     		ldr	r3, .L43+12
 843 00b0 1A68     		ldr	r2, [r3]
 844 00b2 7F4B     		ldr	r3, .L43+8
 845 00b4 1B68     		ldr	r3, [r3]
 846 00b6 1344     		add	r3, r3, r2
 847 00b8 7F4A     		ldr	r2, .L43+16
 848 00ba 1360     		str	r3, [r2]
 290:..\Application/OS_Main.c ****         char data[256];
 291:..\Application/OS_Main.c ****         sprintf(data, "read_input_port1 = %lu, read_input_port2 = %lu, read_input_total = %lu\r\n",
 849              		.loc 1 291 0
 850 00bc 7D4B     		ldr	r3, .L43+12
 851 00be 1A68     		ldr	r2, [r3]
 852 00c0 7B4B     		ldr	r3, .L43+8
 853 00c2 1968     		ldr	r1, [r3]
 854 00c4 7C4B     		ldr	r3, .L43+16
 855 00c6 1B68     		ldr	r3, [r3]
 856 00c8 07F10C00 		add	r0, r7, #12
 857 00cc 0093     		str	r3, [sp]
 858 00ce 0B46     		mov	r3, r1
 859 00d0 7A49     		ldr	r1, .L43+20
ARM GAS  C:\Users\ali\AppData\Local\Temp\ccr9QJbk.s 			page 22


 860 00d2 FFF7FEFF 		bl	sprintf
 292:..\Application/OS_Main.c ****         
 293:..\Application/OS_Main.c ****         UART_Debug_PutString("\r\n----------------------------\r\n");
 861              		.loc 1 293 0
 862 00d6 7A48     		ldr	r0, .L43+24
 863 00d8 FFF7FEFF 		bl	UART_Debug_PutString
 294:..\Application/OS_Main.c ****         UART_Debug_PutString("Read Input from Port 2: ");
 864              		.loc 1 294 0
 865 00dc 7948     		ldr	r0, .L43+28
 866 00de FFF7FEFF 		bl	UART_Debug_PutString
 295:..\Application/OS_Main.c ****         CyWdtClear(); 
 867              		.loc 1 295 0
 868 00e2 FFF7FEFF 		bl	CyWdtClear
 296:..\Application/OS_Main.c ****         UART_Debug_PutString(In2);
 869              		.loc 1 296 0
 870 00e6 7148     		ldr	r0, .L43+4
 871 00e8 FFF7FEFF 		bl	UART_Debug_PutString
 297:..\Application/OS_Main.c ****         UART_Debug_PutString("\r\n");
 872              		.loc 1 297 0
 873 00ec 7648     		ldr	r0, .L43+32
 874 00ee FFF7FEFF 		bl	UART_Debug_PutString
 298:..\Application/OS_Main.c ****         UART_Debug_PutString(data);
 875              		.loc 1 298 0
 876 00f2 07F10C03 		add	r3, r7, #12
 877 00f6 1846     		mov	r0, r3
 878 00f8 FFF7FEFF 		bl	UART_Debug_PutString
 299:..\Application/OS_Main.c ****         CyWdtClear(); 
 879              		.loc 1 299 0
 880 00fc FFF7FEFF 		bl	CyWdtClear
 300:..\Application/OS_Main.c ****         
 301:..\Application/OS_Main.c ****         OS_TIMER_Restart(&Timer_AfterRead_In2);
 881              		.loc 1 301 0
 882 0100 6948     		ldr	r0, .L43
 883 0102 FFF7FEFF 		bl	OS_TIMER_Restart
 884              	.L32:
 885              	.LBE4:
 302:..\Application/OS_Main.c ****     }
 303:..\Application/OS_Main.c ****     
 304:..\Application/OS_Main.c ****     //char sssss[100];
 305:..\Application/OS_Main.c ****     //sprintf(sssss, "OS_TIMER_GetStatus(&Timer_AfterRead_Port2) = %d\r\n", OS_TIMER_GetStatus(&Tim
 306:..\Application/OS_Main.c ****     //UART_Debug_PutString(sssss);
 307:..\Application/OS_Main.c ****     
 308:..\Application/OS_Main.c ****     if(!Port2_w_have){
 886              		.loc 1 308 0
 887 0106 714B     		ldr	r3, .L43+36
 888 0108 1B78     		ldrb	r3, [r3]	@ zero_extendqisi2
 889 010a 002B     		cmp	r3, #0
 890 010c 40F0C780 		bne	.L42
 309:..\Application/OS_Main.c ****         if((Port2_W0 || Port2_W1) && !Port2_Locked && !OS_TIMER_GetStatus(&Timer_AfterRead_Port2)){
 891              		.loc 1 309 0
 892 0110 97F80F31 		ldrb	r3, [r7, #271]	@ zero_extendqisi2
 893 0114 002B     		cmp	r3, #0
 894 0116 04D1     		bne	.L34
 895              		.loc 1 309 0 is_stmt 0 discriminator 2
 896 0118 97F80E31 		ldrb	r3, [r7, #270]	@ zero_extendqisi2
 897 011c 002B     		cmp	r3, #0
 898 011e 00F0BE80 		beq	.L42
ARM GAS  C:\Users\ali\AppData\Local\Temp\ccr9QJbk.s 			page 23


 899              	.L34:
 900              		.loc 1 309 0 discriminator 3
 901 0122 6B4B     		ldr	r3, .L43+40
 902 0124 1B78     		ldrb	r3, [r3]	@ zero_extendqisi2
 903 0126 002B     		cmp	r3, #0
 904 0128 40F0B980 		bne	.L42
 905              		.loc 1 309 0 discriminator 4
 906 012c 6948     		ldr	r0, .L43+44
 907 012e FFF7FEFF 		bl	OS_TIMER_GetStatus
 908 0132 0346     		mov	r3, r0
 909 0134 002B     		cmp	r3, #0
 910 0136 40F0B280 		bne	.L42
 310:..\Application/OS_Main.c ****             if(Port2_w_Start){
 911              		.loc 1 310 0 is_stmt 1
 912 013a 674B     		ldr	r3, .L43+48
 913 013c 1B78     		ldrb	r3, [r3]	@ zero_extendqisi2
 914 013e 002B     		cmp	r3, #0
 915 0140 77D0     		beq	.L35
 311:..\Application/OS_Main.c ****                 OS_TIMER_Restart(&Timer_Read_W_Port2);
 916              		.loc 1 311 0
 917 0142 6648     		ldr	r0, .L43+52
 918 0144 FFF7FEFF 		bl	OS_TIMER_Restart
 312:..\Application/OS_Main.c ****                 if(Port2_W0){
 919              		.loc 1 312 0
 920 0148 97F80F31 		ldrb	r3, [r7, #271]	@ zero_extendqisi2
 921 014c 002B     		cmp	r3, #0
 922 014e 0BD0     		beq	.L36
 313:..\Application/OS_Main.c ****                     Port2_W[Port2_W_Counter] = '0';
 923              		.loc 1 313 0
 924 0150 634B     		ldr	r3, .L43+56
 925 0152 1B78     		ldrb	r3, [r3]	@ zero_extendqisi2
 926 0154 1A46     		mov	r2, r3
 927 0156 634B     		ldr	r3, .L43+60
 928 0158 3021     		movs	r1, #48
 929 015a 9954     		strb	r1, [r3, r2]
 314:..\Application/OS_Main.c ****                     Port2_W_Counter = Port2_W_Counter + 1;
 930              		.loc 1 314 0
 931 015c 604B     		ldr	r3, .L43+56
 932 015e 1B78     		ldrb	r3, [r3]	@ zero_extendqisi2
 933 0160 0133     		adds	r3, r3, #1
 934 0162 DAB2     		uxtb	r2, r3
 935 0164 5E4B     		ldr	r3, .L43+56
 936 0166 1A70     		strb	r2, [r3]
 937              	.L36:
 315:..\Application/OS_Main.c ****                 }
 316:..\Application/OS_Main.c ****                 
 317:..\Application/OS_Main.c ****                 if(Port2_W1){
 938              		.loc 1 317 0
 939 0168 97F80E31 		ldrb	r3, [r7, #270]	@ zero_extendqisi2
 940 016c 002B     		cmp	r3, #0
 941 016e 0BD0     		beq	.L37
 318:..\Application/OS_Main.c ****                     Port2_W[Port2_W_Counter] = '1';
 942              		.loc 1 318 0
 943 0170 5B4B     		ldr	r3, .L43+56
 944 0172 1B78     		ldrb	r3, [r3]	@ zero_extendqisi2
 945 0174 1A46     		mov	r2, r3
 946 0176 5B4B     		ldr	r3, .L43+60
ARM GAS  C:\Users\ali\AppData\Local\Temp\ccr9QJbk.s 			page 24


 947 0178 3121     		movs	r1, #49
 948 017a 9954     		strb	r1, [r3, r2]
 319:..\Application/OS_Main.c ****                     Port2_W_Counter = Port2_W_Counter + 1;
 949              		.loc 1 319 0
 950 017c 584B     		ldr	r3, .L43+56
 951 017e 1B78     		ldrb	r3, [r3]	@ zero_extendqisi2
 952 0180 0133     		adds	r3, r3, #1
 953 0182 DAB2     		uxtb	r2, r3
 954 0184 564B     		ldr	r3, .L43+56
 955 0186 1A70     		strb	r2, [r3]
 956              	.L37:
 320:..\Application/OS_Main.c ****                 }
 321:..\Application/OS_Main.c ****                 
 322:..\Application/OS_Main.c ****                 if(Port2_W_Counter >= (Port2_W_bits + 3)){
 957              		.loc 1 322 0
 958 0188 554B     		ldr	r3, .L43+56
 959 018a 1B78     		ldrb	r3, [r3]	@ zero_extendqisi2
 960 018c 1A46     		mov	r2, r3
 961 018e 564B     		ldr	r3, .L43+64
 962 0190 1B78     		ldrb	r3, [r3]	@ zero_extendqisi2
 963 0192 0333     		adds	r3, r3, #3
 964 0194 9A42     		cmp	r2, r3
 965 0196 C0F28280 		blt	.L42
 966              	.LBB5:
 323:..\Application/OS_Main.c ****                     Port2_W[Port2_W_Counter] = '\0';
 967              		.loc 1 323 0
 968 019a 514B     		ldr	r3, .L43+56
 969 019c 1B78     		ldrb	r3, [r3]	@ zero_extendqisi2
 970 019e 1A46     		mov	r2, r3
 971 01a0 504B     		ldr	r3, .L43+60
 972 01a2 0021     		movs	r1, #0
 973 01a4 9954     		strb	r1, [r3, r2]
 324:..\Application/OS_Main.c ****                     Port2_W_Counter = Port2_W_Counter + 1;
 974              		.loc 1 324 0
 975 01a6 4E4B     		ldr	r3, .L43+56
 976 01a8 1B78     		ldrb	r3, [r3]	@ zero_extendqisi2
 977 01aa 0133     		adds	r3, r3, #1
 978 01ac DAB2     		uxtb	r2, r3
 979 01ae 4C4B     		ldr	r3, .L43+56
 980 01b0 1A70     		strb	r2, [r3]
 325:..\Application/OS_Main.c ****                     
 326:..\Application/OS_Main.c ****                     read_counter_port2++;
 981              		.loc 1 326 0
 982 01b2 4E4B     		ldr	r3, .L43+68
 983 01b4 1B68     		ldr	r3, [r3]
 984 01b6 0133     		adds	r3, r3, #1
 985 01b8 4C4A     		ldr	r2, .L43+68
 986 01ba 1360     		str	r3, [r2]
 327:..\Application/OS_Main.c ****                     read_counter_total = read_counter_port1 + read_counter_port2;
 987              		.loc 1 327 0
 988 01bc 4C4B     		ldr	r3, .L43+72
 989 01be 1A68     		ldr	r2, [r3]
 990 01c0 4A4B     		ldr	r3, .L43+68
 991 01c2 1B68     		ldr	r3, [r3]
 992 01c4 1344     		add	r3, r3, r2
 993 01c6 4B4A     		ldr	r2, .L43+76
 994 01c8 1360     		str	r3, [r2]
ARM GAS  C:\Users\ali\AppData\Local\Temp\ccr9QJbk.s 			page 25


 328:..\Application/OS_Main.c ****                     char data[256];
 329:..\Application/OS_Main.c ****                     sprintf(data, "read_counter_port1 = %lu, read_counter_port2 = %lu, read_counter
 995              		.loc 1 329 0
 996 01ca 494B     		ldr	r3, .L43+72
 997 01cc 1A68     		ldr	r2, [r3]
 998 01ce 474B     		ldr	r3, .L43+68
 999 01d0 1968     		ldr	r1, [r3]
 1000 01d2 484B     		ldr	r3, .L43+76
 1001 01d4 1B68     		ldr	r3, [r3]
 1002 01d6 07F10C00 		add	r0, r7, #12
 1003 01da 0093     		str	r3, [sp]
 1004 01dc 0B46     		mov	r3, r1
 1005 01de 4649     		ldr	r1, .L43+80
 1006 01e0 FFF7FEFF 		bl	sprintf
 330:..\Application/OS_Main.c ****                     
 331:..\Application/OS_Main.c ****                     UART_Debug_PutString("\r\n----------------------------\r\n");
 1007              		.loc 1 331 0
 1008 01e4 3648     		ldr	r0, .L43+24
 1009 01e6 FFF7FEFF 		bl	UART_Debug_PutString
 332:..\Application/OS_Main.c ****                     UART_Debug_PutString("Read W Port 2: ");
 1010              		.loc 1 332 0
 1011 01ea 4448     		ldr	r0, .L43+84
 1012 01ec FFF7FEFF 		bl	UART_Debug_PutString
 333:..\Application/OS_Main.c ****                     CyWdtClear(); 
 1013              		.loc 1 333 0
 1014 01f0 FFF7FEFF 		bl	CyWdtClear
 334:..\Application/OS_Main.c ****                     UART_Debug_PutString(Port2_W);
 1015              		.loc 1 334 0
 1016 01f4 3B48     		ldr	r0, .L43+60
 1017 01f6 FFF7FEFF 		bl	UART_Debug_PutString
 335:..\Application/OS_Main.c ****                     CyWdtClear(); 
 1018              		.loc 1 335 0
 1019 01fa FFF7FEFF 		bl	CyWdtClear
 336:..\Application/OS_Main.c ****                     UART_Debug_PutString("\r\n");
 1020              		.loc 1 336 0
 1021 01fe 3248     		ldr	r0, .L43+32
 1022 0200 FFF7FEFF 		bl	UART_Debug_PutString
 337:..\Application/OS_Main.c ****                     
 338:..\Application/OS_Main.c ****                     CyWdtClear(); 
 1023              		.loc 1 338 0
 1024 0204 FFF7FEFF 		bl	CyWdtClear
 339:..\Application/OS_Main.c ****                     UART_Debug_PutString(data);
 1025              		.loc 1 339 0
 1026 0208 07F10C03 		add	r3, r7, #12
 1027 020c 1846     		mov	r0, r3
 1028 020e FFF7FEFF 		bl	UART_Debug_PutString
 340:..\Application/OS_Main.c ****                     
 341:..\Application/OS_Main.c ****                     OS_TIMER_Stop(&Timer_Read_W_Port2);
 1029              		.loc 1 341 0
 1030 0212 3248     		ldr	r0, .L43+52
 1031 0214 FFF7FEFF 		bl	OS_TIMER_Stop
 342:..\Application/OS_Main.c ****                     Port2_W_Counter = 0;
 1032              		.loc 1 342 0
 1033 0218 314B     		ldr	r3, .L43+56
 1034 021a 0022     		movs	r2, #0
 1035 021c 1A70     		strb	r2, [r3]
 343:..\Application/OS_Main.c ****                     Port2_w_Start = 0;
ARM GAS  C:\Users\ali\AppData\Local\Temp\ccr9QJbk.s 			page 26


 1036              		.loc 1 343 0
 1037 021e 2E4B     		ldr	r3, .L43+48
 1038 0220 0022     		movs	r2, #0
 1039 0222 1A70     		strb	r2, [r3]
 344:..\Application/OS_Main.c ****                     Port2_w_have = 1;
 1040              		.loc 1 344 0
 1041 0224 294B     		ldr	r3, .L43+36
 1042 0226 0122     		movs	r2, #1
 1043 0228 1A70     		strb	r2, [r3]
 345:..\Application/OS_Main.c ****                     
 346:..\Application/OS_Main.c ****                     OS_TIMER_Restart(&Timer_AfterRead_Port2);
 1044              		.loc 1 346 0
 1045 022a 2A48     		ldr	r0, .L43+44
 1046 022c FFF7FEFF 		bl	OS_TIMER_Restart
 1047              	.LBE5:
 347:..\Application/OS_Main.c ****                 }
 348:..\Application/OS_Main.c ****                     
 349:..\Application/OS_Main.c ****             }
 350:..\Application/OS_Main.c ****             else{
 351:..\Application/OS_Main.c ****                 Port2_w_Start = 1;
 352:..\Application/OS_Main.c ****                 OS_TIMER_Restart(&Timer_Read_W_Port2);
 353:..\Application/OS_Main.c ****                 
 354:..\Application/OS_Main.c ****                 Port2_W_Counter = 0;
 355:..\Application/OS_Main.c ****                 Port2_W[0] = 'P';
 356:..\Application/OS_Main.c ****                 Port2_W[1] = '2';
 357:..\Application/OS_Main.c ****                 Port2_W[2] = 'W';
 358:..\Application/OS_Main.c ****                 Port2_W_Counter = 3;
 359:..\Application/OS_Main.c ****                 
 360:..\Application/OS_Main.c ****                 if(Port2_W0){
 361:..\Application/OS_Main.c ****                     Port2_W[Port2_W_Counter] = '0';
 362:..\Application/OS_Main.c ****                     Port2_W_Counter = Port2_W_Counter + 1;
 363:..\Application/OS_Main.c ****                 }
 364:..\Application/OS_Main.c ****                 
 365:..\Application/OS_Main.c ****                 if(Port2_W1){
 366:..\Application/OS_Main.c ****                     Port2_W[Port2_W_Counter] = '1';
 367:..\Application/OS_Main.c ****                     Port2_W_Counter = Port2_W_Counter + 1;
 368:..\Application/OS_Main.c ****                 }
 369:..\Application/OS_Main.c ****             }
 370:..\Application/OS_Main.c ****         }
 371:..\Application/OS_Main.c ****     }
 372:..\Application/OS_Main.c ****     
 373:..\Application/OS_Main.c ****     return;
 1048              		.loc 1 373 0
 1049 0230 35E0     		b	.L42
 1050              	.L35:
 351:..\Application/OS_Main.c ****                 OS_TIMER_Restart(&Timer_Read_W_Port2);
 1051              		.loc 1 351 0
 1052 0232 294B     		ldr	r3, .L43+48
 1053 0234 0122     		movs	r2, #1
 1054 0236 1A70     		strb	r2, [r3]
 352:..\Application/OS_Main.c ****                 
 1055              		.loc 1 352 0
 1056 0238 2848     		ldr	r0, .L43+52
 1057 023a FFF7FEFF 		bl	OS_TIMER_Restart
 354:..\Application/OS_Main.c ****                 Port2_W[0] = 'P';
 1058              		.loc 1 354 0
 1059 023e 284B     		ldr	r3, .L43+56
ARM GAS  C:\Users\ali\AppData\Local\Temp\ccr9QJbk.s 			page 27


 1060 0240 0022     		movs	r2, #0
 1061 0242 1A70     		strb	r2, [r3]
 355:..\Application/OS_Main.c ****                 Port2_W[1] = '2';
 1062              		.loc 1 355 0
 1063 0244 274B     		ldr	r3, .L43+60
 1064 0246 5022     		movs	r2, #80
 1065 0248 1A70     		strb	r2, [r3]
 356:..\Application/OS_Main.c ****                 Port2_W[2] = 'W';
 1066              		.loc 1 356 0
 1067 024a 264B     		ldr	r3, .L43+60
 1068 024c 3222     		movs	r2, #50
 1069 024e 5A70     		strb	r2, [r3, #1]
 357:..\Application/OS_Main.c ****                 Port2_W_Counter = 3;
 1070              		.loc 1 357 0
 1071 0250 244B     		ldr	r3, .L43+60
 1072 0252 5722     		movs	r2, #87
 1073 0254 9A70     		strb	r2, [r3, #2]
 358:..\Application/OS_Main.c ****                 
 1074              		.loc 1 358 0
 1075 0256 224B     		ldr	r3, .L43+56
 1076 0258 0322     		movs	r2, #3
 1077 025a 1A70     		strb	r2, [r3]
 360:..\Application/OS_Main.c ****                     Port2_W[Port2_W_Counter] = '0';
 1078              		.loc 1 360 0
 1079 025c 97F80F31 		ldrb	r3, [r7, #271]	@ zero_extendqisi2
 1080 0260 002B     		cmp	r3, #0
 1081 0262 0BD0     		beq	.L39
 361:..\Application/OS_Main.c ****                     Port2_W_Counter = Port2_W_Counter + 1;
 1082              		.loc 1 361 0
 1083 0264 1E4B     		ldr	r3, .L43+56
 1084 0266 1B78     		ldrb	r3, [r3]	@ zero_extendqisi2
 1085 0268 1A46     		mov	r2, r3
 1086 026a 1E4B     		ldr	r3, .L43+60
 1087 026c 3021     		movs	r1, #48
 1088 026e 9954     		strb	r1, [r3, r2]
 362:..\Application/OS_Main.c ****                 }
 1089              		.loc 1 362 0
 1090 0270 1B4B     		ldr	r3, .L43+56
 1091 0272 1B78     		ldrb	r3, [r3]	@ zero_extendqisi2
 1092 0274 0133     		adds	r3, r3, #1
 1093 0276 DAB2     		uxtb	r2, r3
 1094 0278 194B     		ldr	r3, .L43+56
 1095 027a 1A70     		strb	r2, [r3]
 1096              	.L39:
 365:..\Application/OS_Main.c ****                     Port2_W[Port2_W_Counter] = '1';
 1097              		.loc 1 365 0
 1098 027c 97F80E31 		ldrb	r3, [r7, #270]	@ zero_extendqisi2
 1099 0280 002B     		cmp	r3, #0
 1100 0282 0CD0     		beq	.L42
 366:..\Application/OS_Main.c ****                     Port2_W_Counter = Port2_W_Counter + 1;
 1101              		.loc 1 366 0
 1102 0284 164B     		ldr	r3, .L43+56
 1103 0286 1B78     		ldrb	r3, [r3]	@ zero_extendqisi2
 1104 0288 1A46     		mov	r2, r3
 1105 028a 164B     		ldr	r3, .L43+60
 1106 028c 3121     		movs	r1, #49
 1107 028e 9954     		strb	r1, [r3, r2]
ARM GAS  C:\Users\ali\AppData\Local\Temp\ccr9QJbk.s 			page 28


 367:..\Application/OS_Main.c ****                 }
 1108              		.loc 1 367 0
 1109 0290 134B     		ldr	r3, .L43+56
 1110 0292 1B78     		ldrb	r3, [r3]	@ zero_extendqisi2
 1111 0294 0133     		adds	r3, r3, #1
 1112 0296 DAB2     		uxtb	r2, r3
 1113 0298 114B     		ldr	r3, .L43+56
 1114 029a 1A70     		strb	r2, [r3]
 1115              		.loc 1 373 0
 1116 029c 00BF     		nop
 1117              	.L42:
 1118 029e 00BF     		nop
 374:..\Application/OS_Main.c **** }
 1119              		.loc 1 374 0
 1120 02a0 07F58877 		add	r7, r7, #272
 1121              		.cfi_def_cfa_offset 8
 1122 02a4 BD46     		mov	sp, r7
 1123              		.cfi_def_cfa_register 13
 1124              		@ sp needed
 1125 02a6 80BD     		pop	{r7, pc}
 1126              	.L44:
 1127              		.align	2
 1128              	.L43:
 1129 02a8 00000000 		.word	Timer_AfterRead_In2
 1130 02ac 00000000 		.word	In2
 1131 02b0 00000000 		.word	read_input_port2
 1132 02b4 00000000 		.word	read_input_port1
 1133 02b8 00000000 		.word	read_input_total
 1134 02bc 00000000 		.word	.LC0
 1135 02c0 4C000000 		.word	.LC1
 1136 02c4 F0000000 		.word	.LC6
 1137 02c8 8C000000 		.word	.LC3
 1138 02cc 00000000 		.word	Port2_w_have
 1139 02d0 00000000 		.word	Port2_Locked
 1140 02d4 00000000 		.word	Timer_AfterRead_Port2
 1141 02d8 00000000 		.word	Port2_w_Start
 1142 02dc 00000000 		.word	Timer_Read_W_Port2
 1143 02e0 00000000 		.word	Port2_W_Counter
 1144 02e4 00000000 		.word	Port2_W
 1145 02e8 00000000 		.word	Port2_W_bits
 1146 02ec 00000000 		.word	read_counter_port2
 1147 02f0 00000000 		.word	read_counter_port1
 1148 02f4 00000000 		.word	read_counter_total
 1149 02f8 90000000 		.word	.LC4
 1150 02fc 0C010000 		.word	.LC7
 1151              		.cfi_endproc
 1152              	.LFE65:
 1153              		.size	Port2_Job, .-Port2_Job
 1154              		.section	.rodata
 1155              		.align	2
 1156              	.LC8:
 1157 011c 506F7274 		.ascii	"Port 1 Read\000"
 1157      20312052 
 1157      65616400 
 1158              		.align	2
 1159              	.LC9:
 1160 0128 6C696E75 		.ascii	"linux_read_counter_port1 = %lu, linux_read_counter_"
ARM GAS  C:\Users\ali\AppData\Local\Temp\ccr9QJbk.s 			page 29


 1160      785F7265 
 1160      61645F63 
 1160      6F756E74 
 1160      65725F70 
 1161 015b 706F7274 		.ascii	"port2 = %lu, linux_read_counter_total = %lu\015\012"
 1161      32203D20 
 1161      256C752C 
 1161      206C696E 
 1161      75785F72 
 1162 0188 00       		.ascii	"\000"
 1163 0189 000000   		.align	2
 1164              	.LC10:
 1165 018c 52656164 		.ascii	"Read New W from Port 1 with linux: \000"
 1165      204E6577 
 1165      20572066 
 1165      726F6D20 
 1165      506F7274 
 1166              		.align	2
 1167              	.LC11:
 1168 01b0 2D2D2D2D 		.ascii	"----------------------------\015\012\000"
 1168      2D2D2D2D 
 1168      2D2D2D2D 
 1168      2D2D2D2D 
 1168      2D2D2D2D 
 1169 01cf 00       		.align	2
 1170              	.LC12:
 1171 01d0 506F7274 		.ascii	"Port 2 Read\000"
 1171      20322052 
 1171      65616400 
 1172              		.align	2
 1173              	.LC13:
 1174 01dc 52656164 		.ascii	"Read New W from Port 2 with linux: \000"
 1174      204E6577 
 1174      20572066 
 1174      726F6D20 
 1174      506F7274 
 1175              		.align	2
 1176              	.LC14:
 1177 0200 506F7274 		.ascii	"Port 1 Input\000"
 1177      20312049 
 1177      6E707574 
 1177      00
 1178 020d 000000   		.align	2
 1179              	.LC15:
 1180 0210 52656164 		.ascii	"Read New Input from Port 1 with linux: \000"
 1180      204E6577 
 1180      20496E70 
 1180      75742066 
 1180      726F6D20 
 1181              		.align	2
 1182              	.LC16:
 1183 0238 506F7274 		.ascii	"Port 2 Input\000"
 1183      20322049 
 1183      6E707574 
 1183      00
 1184 0245 000000   		.align	2
 1185              	.LC17:
ARM GAS  C:\Users\ali\AppData\Local\Temp\ccr9QJbk.s 			page 30


 1186 0248 52656164 		.ascii	"Read New Input from Port 2 with linux: \000"
 1186      204E6577 
 1186      20496E70 
 1186      75742066 
 1186      726F6D20 
 1187              		.align	2
 1188              	.LC18:
 1189 0270 506F7274 		.ascii	"Port 1 Open\000"
 1189      2031204F 
 1189      70656E00 
 1190              		.align	2
 1191              	.LC19:
 1192 027c 506F7274 		.ascii	"Port 1 Open\015\012\000"
 1192      2031204F 
 1192      70656E0D 
 1192      0A00
 1193 028a 0000     		.align	2
 1194              	.LC20:
 1195 028c 506F7274 		.ascii	"Port 1 Close\000"
 1195      20312043 
 1195      6C6F7365 
 1195      00
 1196 0299 000000   		.align	2
 1197              	.LC21:
 1198 029c 506F7274 		.ascii	"Port 1 Close\015\012\000"
 1198      20312043 
 1198      6C6F7365 
 1198      0D0A00
 1199 02ab 00       		.align	2
 1200              	.LC22:
 1201 02ac 506F7274 		.ascii	"Port 2 Open\000"
 1201      2032204F 
 1201      70656E00 
 1202              		.align	2
 1203              	.LC23:
 1204 02b8 506F7274 		.ascii	"Port 2 Open\015\012\000"
 1204      2032204F 
 1204      70656E0D 
 1204      0A00
 1205 02c6 0000     		.align	2
 1206              	.LC24:
 1207 02c8 506F7274 		.ascii	"Port 2 Close\000"
 1207      20322043 
 1207      6C6F7365 
 1207      00
 1208 02d5 000000   		.align	2
 1209              	.LC25:
 1210 02d8 506F7274 		.ascii	"Port 2 Close\015\012\000"
 1210      20322043 
 1210      6C6F7365 
 1210      0D0A00
 1211 02e7 00       		.align	2
 1212              	.LC26:
 1213 02e8 506F7274 		.ascii	"Port 1 Lock\000"
 1213      2031204C 
 1213      6F636B00 
 1214              		.align	2
ARM GAS  C:\Users\ali\AppData\Local\Temp\ccr9QJbk.s 			page 31


 1215              	.LC27:
 1216 02f4 506F7274 		.ascii	"Port 1 Lock\015\012\000"
 1216      2031204C 
 1216      6F636B0D 
 1216      0A00
 1217 0302 0000     		.align	2
 1218              	.LC28:
 1219 0304 506F7274 		.ascii	"Port 1 UnLock\000"
 1219      20312055 
 1219      6E4C6F63 
 1219      6B00
 1220 0312 0000     		.align	2
 1221              	.LC29:
 1222 0314 506F7274 		.ascii	"Port 1 UnLock\015\012\000"
 1222      20312055 
 1222      6E4C6F63 
 1222      6B0D0A00 
 1223              		.align	2
 1224              	.LC30:
 1225 0324 506F7274 		.ascii	"Port 2 Lock\000"
 1225      2032204C 
 1225      6F636B00 
 1226              		.align	2
 1227              	.LC31:
 1228 0330 506F7274 		.ascii	"Port 2 Lock\015\012\000"
 1228      2032204C 
 1228      6F636B0D 
 1228      0A00
 1229 033e 0000     		.align	2
 1230              	.LC32:
 1231 0340 506F7274 		.ascii	"Port 2 UnLock\000"
 1231      20322055 
 1231      6E4C6F63 
 1231      6B00
 1232 034e 0000     		.align	2
 1233              	.LC33:
 1234 0350 506F7274 		.ascii	"Port 2 UnLock\015\012\000"
 1234      20322055 
 1234      6E4C6F63 
 1234      6B0D0A00 
 1235              		.align	2
 1236              	.LC34:
 1237 0360 506F7274 		.ascii	"Port 1 Wbits:\000"
 1237      20312057 
 1237      62697473 
 1237      3A00
 1238 036e 0000     		.align	2
 1239              	.LC35:
 1240 0370 506F7274 		.ascii	"Port 1 Wbits = %d\015\012\000"
 1240      20312057 
 1240      62697473 
 1240      203D2025 
 1240      640D0A00 
 1241              		.align	2
 1242              	.LC36:
 1243 0384 506F7274 		.ascii	"Port 2 Wbits:\000"
 1243      20322057 
ARM GAS  C:\Users\ali\AppData\Local\Temp\ccr9QJbk.s 			page 32


 1243      62697473 
 1243      3A00
 1244 0392 0000     		.align	2
 1245              	.LC37:
 1246 0394 506F7274 		.ascii	"Port 2 Wbits = %d\015\012\000"
 1246      20322057 
 1246      62697473 
 1246      203D2025 
 1246      640D0A00 
 1247              		.align	2
 1248              	.LC38:
 1249 03a8 43792052 		.ascii	"Cy RGB:\000"
 1249      47423A00 
 1250              		.align	2
 1251              	.LC39:
 1252 03b0 5247425F 		.ascii	"RGB_Color = %d\015\012\000"
 1252      436F6C6F 
 1252      72203D20 
 1252      25640D0A 
 1252      00
 1253 03c1 000000   		.align	2
 1254              	.LC40:
 1255 03c4 43792052 		.ascii	"Cy Reset\000"
 1255      65736574 
 1255      00
 1256 03cd 000000   		.align	2
 1257              	.LC41:
 1258 03d0 43792043 		.ascii	"Cy Connect\000"
 1258      6F6E6E65 
 1258      637400
 1259 03db 00       		.align	2
 1260              	.LC42:
 1261 03dc 43792043 		.ascii	"Cy Connected\000"
 1261      6F6E6E65 
 1261      63746564 
 1261      00
 1262 03e9 000000   		.align	2
 1263              	.LC43:
 1264 03ec 57726F6E 		.ascii	"Wrong Msg!!!!! \015\012\000"
 1264      67204D73 
 1264      67212121 
 1264      2121200D 
 1264      0A00
 1265              		.section	.text.CmdTask,"ax",%progbits
 1266              		.align	2
 1267              		.global	CmdTask
 1268              		.thumb
 1269              		.thumb_func
 1270              		.type	CmdTask, %function
 1271              	CmdTask:
 1272              	.LFB66:
 375:..\Application/OS_Main.c **** 
 376:..\Application/OS_Main.c **** 
 377:..\Application/OS_Main.c **** //Main Job
 378:..\Application/OS_Main.c **** void CmdTask(char* msg)
 379:..\Application/OS_Main.c **** {
 1273              		.loc 1 379 0
ARM GAS  C:\Users\ali\AppData\Local\Temp\ccr9QJbk.s 			page 33


 1274              		.cfi_startproc
 1275              		@ args = 0, pretend = 0, frame = 280
 1276              		@ frame_needed = 1, uses_anonymous_args = 0
 1277 0000 80B5     		push	{r7, lr}
 1278              		.cfi_def_cfa_offset 8
 1279              		.cfi_offset 7, -8
 1280              		.cfi_offset 14, -4
 1281 0002 C8B0     		sub	sp, sp, #288
 1282              		.cfi_def_cfa_offset 296
 1283 0004 02AF     		add	r7, sp, #8
 1284              		.cfi_def_cfa 7, 288
 1285 0006 3B1D     		adds	r3, r7, #4
 1286 0008 1860     		str	r0, [r3]
 380:..\Application/OS_Main.c ****     //read ports
 381:..\Application/OS_Main.c ****     if(memcmp((char*)msg, "Port 1 Read", 11) == 0){
 1287              		.loc 1 381 0
 1288 000a 3B1D     		adds	r3, r7, #4
 1289 000c 0B22     		movs	r2, #11
 1290 000e B549     		ldr	r1, .L82
 1291 0010 1868     		ldr	r0, [r3]
 1292 0012 FFF7FEFF 		bl	memcmp
 1293 0016 0346     		mov	r3, r0
 1294 0018 002B     		cmp	r3, #0
 1295 001a 54D1     		bne	.L46
 382:..\Application/OS_Main.c ****         if(Port1_W[0] != '\0' && Port1_w_have){
 1296              		.loc 1 382 0
 1297 001c B24B     		ldr	r3, .L82+4
 1298 001e 1B78     		ldrb	r3, [r3]	@ zero_extendqisi2
 1299 0020 002B     		cmp	r3, #0
 1300 0022 00F07B83 		beq	.L81
 1301              		.loc 1 382 0 is_stmt 0 discriminator 1
 1302 0026 B14B     		ldr	r3, .L82+8
 1303 0028 1B78     		ldrb	r3, [r3]	@ zero_extendqisi2
 1304 002a 002B     		cmp	r3, #0
 1305 002c 00F07683 		beq	.L81
 1306              	.LBB6:
 383:..\Application/OS_Main.c ****             UART_Linux_PutArray((uint8*)Port1_W, strlen(Port1_W) + 1);
 1307              		.loc 1 383 0 is_stmt 1
 1308 0030 AD48     		ldr	r0, .L82+4
 1309 0032 FFF7FEFF 		bl	strlen
 1310 0036 0346     		mov	r3, r0
 1311 0038 9BB2     		uxth	r3, r3
 1312 003a 0133     		adds	r3, r3, #1
 1313 003c 9BB2     		uxth	r3, r3
 1314 003e 1946     		mov	r1, r3
 1315 0040 A948     		ldr	r0, .L82+4
 1316 0042 FFF7FEFF 		bl	UART_Linux_PutArray
 384:..\Application/OS_Main.c **** //            UART_Linux_PutChar('\0');
 385:..\Application/OS_Main.c ****             
 386:..\Application/OS_Main.c ****             linux_read_counter_port1++;
 1317              		.loc 1 386 0
 1318 0046 AA4B     		ldr	r3, .L82+12
 1319 0048 1B68     		ldr	r3, [r3]
 1320 004a 0133     		adds	r3, r3, #1
 1321 004c A84A     		ldr	r2, .L82+12
 1322 004e 1360     		str	r3, [r2]
 387:..\Application/OS_Main.c ****             linux_read_counter_total = linux_read_counter_port1 + linux_read_counter_port2;
ARM GAS  C:\Users\ali\AppData\Local\Temp\ccr9QJbk.s 			page 34


 1323              		.loc 1 387 0
 1324 0050 A74B     		ldr	r3, .L82+12
 1325 0052 1A68     		ldr	r2, [r3]
 1326 0054 A74B     		ldr	r3, .L82+16
 1327 0056 1B68     		ldr	r3, [r3]
 1328 0058 1344     		add	r3, r3, r2
 1329 005a A74A     		ldr	r2, .L82+20
 1330 005c 1360     		str	r3, [r2]
 388:..\Application/OS_Main.c ****             char data[256];
 389:..\Application/OS_Main.c ****             sprintf(data, "linux_read_counter_port1 = %lu, linux_read_counter_port2 = %lu, linux_re
 1331              		.loc 1 389 0
 1332 005e A44B     		ldr	r3, .L82+12
 1333 0060 1A68     		ldr	r2, [r3]
 1334 0062 A44B     		ldr	r3, .L82+16
 1335 0064 1968     		ldr	r1, [r3]
 1336 0066 A44B     		ldr	r3, .L82+20
 1337 0068 1B68     		ldr	r3, [r3]
 1338 006a 07F10800 		add	r0, r7, #8
 1339 006e 0093     		str	r3, [sp]
 1340 0070 0B46     		mov	r3, r1
 1341 0072 A249     		ldr	r1, .L82+24
 1342 0074 FFF7FEFF 		bl	sprintf
 390:..\Application/OS_Main.c ****             
 391:..\Application/OS_Main.c ****             UART_Debug_PutString("Read New W from Port 1 with linux: ");
 1343              		.loc 1 391 0
 1344 0078 A148     		ldr	r0, .L82+28
 1345 007a FFF7FEFF 		bl	UART_Debug_PutString
 392:..\Application/OS_Main.c ****             UART_Debug_PutString(Port1_W);
 1346              		.loc 1 392 0
 1347 007e 9A48     		ldr	r0, .L82+4
 1348 0080 FFF7FEFF 		bl	UART_Debug_PutString
 393:..\Application/OS_Main.c ****             CyWdtClear(); 
 1349              		.loc 1 393 0
 1350 0084 FFF7FEFF 		bl	CyWdtClear
 394:..\Application/OS_Main.c ****             UART_Debug_PutString("\r\n");
 1351              		.loc 1 394 0
 1352 0088 9E48     		ldr	r0, .L82+32
 1353 008a FFF7FEFF 		bl	UART_Debug_PutString
 395:..\Application/OS_Main.c ****             
 396:..\Application/OS_Main.c ****             UART_Debug_PutString(data);
 1354              		.loc 1 396 0
 1355 008e 07F10803 		add	r3, r7, #8
 1356 0092 1846     		mov	r0, r3
 1357 0094 FFF7FEFF 		bl	UART_Debug_PutString
 397:..\Application/OS_Main.c ****             CyWdtClear(); 
 1358              		.loc 1 397 0
 1359 0098 FFF7FEFF 		bl	CyWdtClear
 398:..\Application/OS_Main.c ****             
 399:..\Application/OS_Main.c ****             OS_TIMER_Stop(&Timer_AfterRead_Port1);
 1360              		.loc 1 399 0
 1361 009c 9A48     		ldr	r0, .L82+36
 1362 009e FFF7FEFF 		bl	OS_TIMER_Stop
 400:..\Application/OS_Main.c ****             Port1_W_Counter = 0;
 1363              		.loc 1 400 0
 1364 00a2 9A4B     		ldr	r3, .L82+40
 1365 00a4 0022     		movs	r2, #0
 1366 00a6 1A70     		strb	r2, [r3]
ARM GAS  C:\Users\ali\AppData\Local\Temp\ccr9QJbk.s 			page 35


 401:..\Application/OS_Main.c ****             Port1_w_Start = 0;
 1367              		.loc 1 401 0
 1368 00a8 994B     		ldr	r3, .L82+44
 1369 00aa 0022     		movs	r2, #0
 1370 00ac 1A70     		strb	r2, [r3]
 402:..\Application/OS_Main.c ****             Port1_W[0] = '\0';
 1371              		.loc 1 402 0
 1372 00ae 8E4B     		ldr	r3, .L82+4
 1373 00b0 0022     		movs	r2, #0
 1374 00b2 1A70     		strb	r2, [r3]
 403:..\Application/OS_Main.c ****             Port1_w_have = 0;
 1375              		.loc 1 403 0
 1376 00b4 8D4B     		ldr	r3, .L82+8
 1377 00b6 0022     		movs	r2, #0
 1378 00b8 1A70     		strb	r2, [r3]
 404:..\Application/OS_Main.c ****             UART_Debug_PutString("----------------------------\r\n");
 1379              		.loc 1 404 0
 1380 00ba 9648     		ldr	r0, .L82+48
 1381 00bc FFF7FEFF 		bl	UART_Debug_PutString
 405:..\Application/OS_Main.c ****             CyWdtClear(); 
 1382              		.loc 1 405 0
 1383 00c0 FFF7FEFF 		bl	CyWdtClear
 1384              	.LBE6:
 406:..\Application/OS_Main.c ****         }
 407:..\Application/OS_Main.c ****         
 408:..\Application/OS_Main.c ****     }
 409:..\Application/OS_Main.c ****     else if(memcmp((char*)msg, "Port 2 Read", 11) == 0){
 410:..\Application/OS_Main.c ****         if(Port2_W[0] != '\0' && Port2_w_have){
 411:..\Application/OS_Main.c ****             UART_Linux_PutArray((uint8*)Port2_W, strlen(Port2_W) + 1); 
 412:..\Application/OS_Main.c ****             //UART_Linux_PutChar('\0');
 413:..\Application/OS_Main.c ****             
 414:..\Application/OS_Main.c ****             
 415:..\Application/OS_Main.c ****             linux_read_counter_port2++;
 416:..\Application/OS_Main.c ****             linux_read_counter_total = linux_read_counter_port1 + linux_read_counter_port2;
 417:..\Application/OS_Main.c ****             char data[256];
 418:..\Application/OS_Main.c ****             sprintf(data, "linux_read_counter_port1 = %lu, linux_read_counter_port2 = %lu, linux_re
 419:..\Application/OS_Main.c ****             
 420:..\Application/OS_Main.c ****             UART_Debug_PutString("Read New W from Port 2 with linux: ");
 421:..\Application/OS_Main.c ****             UART_Debug_PutString(Port2_W);
 422:..\Application/OS_Main.c ****             CyWdtClear(); 
 423:..\Application/OS_Main.c ****             UART_Debug_PutString("\r\n");
 424:..\Application/OS_Main.c ****             
 425:..\Application/OS_Main.c ****             UART_Debug_PutString(data);
 426:..\Application/OS_Main.c ****             CyWdtClear(); 
 427:..\Application/OS_Main.c ****             
 428:..\Application/OS_Main.c ****             OS_TIMER_Stop(&Timer_AfterRead_Port2);
 429:..\Application/OS_Main.c ****             Port2_W_Counter = 0;
 430:..\Application/OS_Main.c ****             Port2_w_Start = 0;
 431:..\Application/OS_Main.c ****             Port2_W[0] = '\0';
 432:..\Application/OS_Main.c ****             Port2_w_have = 0;
 433:..\Application/OS_Main.c ****             UART_Debug_PutString("----------------------------\r\n");
 434:..\Application/OS_Main.c ****             CyWdtClear(); 
 435:..\Application/OS_Main.c ****         }    
 436:..\Application/OS_Main.c ****     }
 437:..\Application/OS_Main.c ****     //read iputs
 438:..\Application/OS_Main.c ****     else if(memcmp((char*)msg, "Port 1 Input", 12) == 0){
 439:..\Application/OS_Main.c ****         if(In1[0] != '\0'){
ARM GAS  C:\Users\ali\AppData\Local\Temp\ccr9QJbk.s 			page 36


 440:..\Application/OS_Main.c ****             UART_Linux_PutArray((uint8*)In1, strlen(In1) + 1); 
 441:..\Application/OS_Main.c **** //            UART_Linux_PutChar('\0');
 442:..\Application/OS_Main.c ****             
 443:..\Application/OS_Main.c ****             OS_TIMER_Stop(&Timer_AfterRead_In1);
 444:..\Application/OS_Main.c ****             
 445:..\Application/OS_Main.c ****             UART_Debug_PutString("Read New Input from Port 1 with linux: ");
 446:..\Application/OS_Main.c ****             UART_Debug_PutString(In1);
 447:..\Application/OS_Main.c ****             CyWdtClear(); 
 448:..\Application/OS_Main.c ****             UART_Debug_PutString("\r\n");
 449:..\Application/OS_Main.c ****             
 450:..\Application/OS_Main.c ****             OS_TIMER_Stop(&Timer_AfterRead_In1);
 451:..\Application/OS_Main.c ****             In1[0] = '\0';
 452:..\Application/OS_Main.c ****             In1[1] = '\0';
 453:..\Application/OS_Main.c ****             In1[2] = '\0';
 454:..\Application/OS_Main.c ****             UART_Debug_PutString("----------------------------\r\n");
 455:..\Application/OS_Main.c ****         }    
 456:..\Application/OS_Main.c ****     }
 457:..\Application/OS_Main.c ****     else if(memcmp((char*)msg, "Port 2 Input", 12) == 0){
 458:..\Application/OS_Main.c ****         if(In2[0] != '\0'){
 459:..\Application/OS_Main.c ****             UART_Linux_PutArray((uint8*)In2, strlen(In2) + 1); 
 460:..\Application/OS_Main.c **** //            UART_Linux_PutChar('\0');
 461:..\Application/OS_Main.c ****             
 462:..\Application/OS_Main.c ****             UART_Debug_PutString("Read New Input from Port 2 with linux: ");
 463:..\Application/OS_Main.c ****             UART_Debug_PutString(In2);
 464:..\Application/OS_Main.c ****             CyWdtClear(); 
 465:..\Application/OS_Main.c ****             UART_Debug_PutString("\r\n");
 466:..\Application/OS_Main.c ****             
 467:..\Application/OS_Main.c ****             OS_TIMER_Stop(&Timer_AfterRead_In2);
 468:..\Application/OS_Main.c ****             In2[0] = '\0';
 469:..\Application/OS_Main.c ****             In2[1] = '\0';
 470:..\Application/OS_Main.c ****             In2[2] = '\0';
 471:..\Application/OS_Main.c ****             UART_Debug_PutString("----------------------------\r\n");
 472:..\Application/OS_Main.c ****             CyWdtClear(); 
 473:..\Application/OS_Main.c ****         }        
 474:..\Application/OS_Main.c ****     }
 475:..\Application/OS_Main.c ****     //relay open close
 476:..\Application/OS_Main.c ****     else if(memcmp((char*)msg, "Port 1 Open", 11) == 0){
 477:..\Application/OS_Main.c ****         Port1_Relay = 1;   
 478:..\Application/OS_Main.c ****         if(Port1_Relay != Port1_Relay_Old){
 479:..\Application/OS_Main.c ****             Port1_Relay_Old = Port1_Relay;
 480:..\Application/OS_Main.c ****             Relay_Port1_Write(Port1_Relay);
 481:..\Application/OS_Main.c ****             UART_Debug_PutString("Port 1 Open\r\n");
 482:..\Application/OS_Main.c ****             CyWdtClear(); 
 483:..\Application/OS_Main.c ****         }
 484:..\Application/OS_Main.c ****     }
 485:..\Application/OS_Main.c ****     else if(memcmp((char*)msg, "Port 1 Close", 12) == 0){
 486:..\Application/OS_Main.c ****         Port1_Relay = 0;  
 487:..\Application/OS_Main.c ****         if(Port1_Relay != Port1_Relay_Old){
 488:..\Application/OS_Main.c ****             Port1_Relay_Old = Port1_Relay;
 489:..\Application/OS_Main.c ****             Relay_Port1_Write(Port1_Relay);
 490:..\Application/OS_Main.c ****             UART_Debug_PutString("Port 1 Close\r\n");
 491:..\Application/OS_Main.c ****             CyWdtClear(); 
 492:..\Application/OS_Main.c ****         }
 493:..\Application/OS_Main.c ****     }
 494:..\Application/OS_Main.c ****     else if(memcmp((char*)msg, "Port 2 Open", 11) == 0){
 495:..\Application/OS_Main.c ****         Port2_Relay = 1; 
 496:..\Application/OS_Main.c ****         if(Port2_Relay != Port2_Relay_Old){
ARM GAS  C:\Users\ali\AppData\Local\Temp\ccr9QJbk.s 			page 37


 497:..\Application/OS_Main.c ****             Port2_Relay_Old = Port2_Relay;
 498:..\Application/OS_Main.c ****             Relay_Port2_Write(Port2_Relay);
 499:..\Application/OS_Main.c ****             UART_Debug_PutString("Port 2 Open\r\n");
 500:..\Application/OS_Main.c ****             CyWdtClear(); 
 501:..\Application/OS_Main.c ****         }
 502:..\Application/OS_Main.c ****     }
 503:..\Application/OS_Main.c ****     else if(memcmp((char*)msg, "Port 2 Close", 12) == 0){
 504:..\Application/OS_Main.c ****         Port2_Relay = 0; 
 505:..\Application/OS_Main.c ****         if(Port2_Relay != Port2_Relay_Old){
 506:..\Application/OS_Main.c ****             Port2_Relay_Old = Port2_Relay;
 507:..\Application/OS_Main.c ****             Relay_Port2_Write(Port2_Relay);
 508:..\Application/OS_Main.c ****             UART_Debug_PutString("Port 2 Close\r\n");
 509:..\Application/OS_Main.c ****             CyWdtClear(); 
 510:..\Application/OS_Main.c ****         }
 511:..\Application/OS_Main.c ****     }
 512:..\Application/OS_Main.c ****     //port locks
 513:..\Application/OS_Main.c ****     else if(memcmp((char*)msg, "Port 1 Lock", 11) == 0){
 514:..\Application/OS_Main.c ****         Port1_Locked = 1; 
 515:..\Application/OS_Main.c ****         if(Port1_Locked != Port1_Locked_Old){
 516:..\Application/OS_Main.c ****             Port1_Locked_Old = Port1_Locked;
 517:..\Application/OS_Main.c ****             UART_Debug_PutString("Port 1 Lock\r\n");
 518:..\Application/OS_Main.c ****             CyWdtClear(); 
 519:..\Application/OS_Main.c ****         }
 520:..\Application/OS_Main.c ****     }
 521:..\Application/OS_Main.c ****     else if(memcmp((char*)msg, "Port 1 UnLock", 13) == 0){
 522:..\Application/OS_Main.c ****         Port1_Locked = 0;
 523:..\Application/OS_Main.c ****         if(Port1_Locked != Port1_Locked_Old){
 524:..\Application/OS_Main.c ****             Port1_Locked_Old = Port1_Locked;
 525:..\Application/OS_Main.c ****             UART_Debug_PutString("Port 1 UnLock\r\n");
 526:..\Application/OS_Main.c ****             CyWdtClear(); 
 527:..\Application/OS_Main.c ****         }
 528:..\Application/OS_Main.c ****     }
 529:..\Application/OS_Main.c ****     else if(memcmp((char*)msg, "Port 2 Lock", 11) == 0){
 530:..\Application/OS_Main.c ****         Port2_Locked = 1;
 531:..\Application/OS_Main.c ****         if(Port2_Locked != Port2_Locked_Old){
 532:..\Application/OS_Main.c ****             Port2_Locked_Old = Port2_Locked;
 533:..\Application/OS_Main.c ****             UART_Debug_PutString("Port 2 Lock\r\n");
 534:..\Application/OS_Main.c ****             CyWdtClear(); 
 535:..\Application/OS_Main.c ****         }
 536:..\Application/OS_Main.c ****     }
 537:..\Application/OS_Main.c ****     else if(memcmp((char*)msg, "Port 2 UnLock", 13) == 0){
 538:..\Application/OS_Main.c ****         Port2_Locked = 0;   
 539:..\Application/OS_Main.c ****         if(Port2_Locked != Port2_Locked_Old){
 540:..\Application/OS_Main.c ****             Port2_Locked_Old = Port2_Locked;
 541:..\Application/OS_Main.c ****             UART_Debug_PutString("Port 2 UnLock\r\n");
 542:..\Application/OS_Main.c ****             CyWdtClear(); 
 543:..\Application/OS_Main.c ****         }
 544:..\Application/OS_Main.c ****     }
 545:..\Application/OS_Main.c ****     //port w config bits
 546:..\Application/OS_Main.c ****     else if(memcmp((char*)msg, "Port 1 Wbits:", 13) == 0){
 547:..\Application/OS_Main.c ****         //Port1_W_bits
 548:..\Application/OS_Main.c ****         char* ret = NULL;
 549:..\Application/OS_Main.c ****         ret = strremove((char*)msg, "Port 1 Wbits:");
 550:..\Application/OS_Main.c ****         CyWdtClear(); 
 551:..\Application/OS_Main.c ****         
 552:..\Application/OS_Main.c ****         Port1_W_bits = atoi(ret);
 553:..\Application/OS_Main.c ****         CyWdtClear(); 
ARM GAS  C:\Users\ali\AppData\Local\Temp\ccr9QJbk.s 			page 38


 554:..\Application/OS_Main.c ****         if(Port1_W_bits != Port1_W_bits_Old){
 555:..\Application/OS_Main.c ****             Port1_W_bits_Old = Port1_W_bits;
 556:..\Application/OS_Main.c ****             char ss[100];
 557:..\Application/OS_Main.c ****             sprintf(ss, "Port 1 Wbits = %d\r\n", Port1_W_bits);
 558:..\Application/OS_Main.c ****             UART_Debug_PutString(ss);
 559:..\Application/OS_Main.c ****             CyWdtClear(); 
 560:..\Application/OS_Main.c ****         }
 561:..\Application/OS_Main.c ****     }
 562:..\Application/OS_Main.c ****     else if(memcmp((char*)msg, "Port 2 Wbits:", 13) == 0){
 563:..\Application/OS_Main.c ****         //Port2_W_bits
 564:..\Application/OS_Main.c ****         char* ret = NULL;
 565:..\Application/OS_Main.c ****         ret = strremove((char*)msg, "Port 2 Wbits:");
 566:..\Application/OS_Main.c ****         CyWdtClear(); 
 567:..\Application/OS_Main.c ****         Port2_W_bits = atoi(ret);
 568:..\Application/OS_Main.c ****         CyWdtClear(); 
 569:..\Application/OS_Main.c ****         if(Port2_W_bits != Port2_W_bits_Old){
 570:..\Application/OS_Main.c ****             Port2_W_bits_Old = Port2_W_bits;
 571:..\Application/OS_Main.c ****             char ss[100];
 572:..\Application/OS_Main.c ****             sprintf(ss, "Port 2 Wbits = %d\r\n", Port2_W_bits);
 573:..\Application/OS_Main.c ****             UART_Debug_PutString(ss);
 574:..\Application/OS_Main.c ****             CyWdtClear(); 
 575:..\Application/OS_Main.c ****         }
 576:..\Application/OS_Main.c ****     }
 577:..\Application/OS_Main.c ****     //Cy RGB mode
 578:..\Application/OS_Main.c ****     else if(memcmp((char*)msg, "Cy RGB:", 7) == 0){
 579:..\Application/OS_Main.c ****         //RGB
 580:..\Application/OS_Main.c ****         OS_TIMER_Restart(&Timer_RGB_LED);
 581:..\Application/OS_Main.c ****         char* ret = NULL;
 582:..\Application/OS_Main.c ****         ret = strremove((char*)msg, "Cy RGB:");
 583:..\Application/OS_Main.c ****         CyWdtClear(); 
 584:..\Application/OS_Main.c ****         uint32 color = strtol(ret, NULL, 10);
 585:..\Application/OS_Main.c ****         CyWdtClear(); 
 586:..\Application/OS_Main.c ****         RGB_Color = (uint8)color;
 587:..\Application/OS_Main.c ****         if(RGB_Color != RGB_Color_Old){
 588:..\Application/OS_Main.c ****             RGB_Color_Old = RGB_Color;
 589:..\Application/OS_Main.c ****             if(RGB_Color > 6 || RGB_Color < 0){
 590:..\Application/OS_Main.c ****                 RGB_Color = 1;
 591:..\Application/OS_Main.c ****                 RGB_Color_Old = 1;
 592:..\Application/OS_Main.c ****             }
 593:..\Application/OS_Main.c ****             RGB(RGB_Color);
 594:..\Application/OS_Main.c ****             char ss[100];
 595:..\Application/OS_Main.c ****             sprintf(ss, "RGB_Color = %d\r\n", RGB_Color);
 596:..\Application/OS_Main.c ****             UART_Debug_PutString(ss);
 597:..\Application/OS_Main.c ****             CyWdtClear(); 
 598:..\Application/OS_Main.c ****         }
 599:..\Application/OS_Main.c ****         
 600:..\Application/OS_Main.c ****     }
 601:..\Application/OS_Main.c ****     //Cy reset
 602:..\Application/OS_Main.c ****     else if(memcmp((char*)msg, "Cy Reset", 8) == 0){
 603:..\Application/OS_Main.c ****         CyWdtClear(); 
 604:..\Application/OS_Main.c ****         CySoftwareReset();
 605:..\Application/OS_Main.c ****     }
 606:..\Application/OS_Main.c ****     else if(memcmp((char*)msg, "Cy Connect", 10) == 0){
 607:..\Application/OS_Main.c ****         UART_Linux_PutArray((uint8*)"Cy Connected", strlen("Cy Connected") + 1); 
 608:..\Application/OS_Main.c **** //        UART_Linux_PutChar('\0');
 609:..\Application/OS_Main.c ****         CyWdtClear(); 
 610:..\Application/OS_Main.c ****     }
ARM GAS  C:\Users\ali\AppData\Local\Temp\ccr9QJbk.s 			page 39


 611:..\Application/OS_Main.c ****     else{
 612:..\Application/OS_Main.c ****         UART_Debug_PutString("Wrong Msg!!!!! \r\n");
 613:..\Application/OS_Main.c ****         CyWdtClear(); 
 614:..\Application/OS_Main.c ****     }
 615:..\Application/OS_Main.c ****     return;
 1385              		.loc 1 615 0
 1386 00c4 2AE3     		b	.L81
 1387              	.L46:
 409:..\Application/OS_Main.c ****         if(Port2_W[0] != '\0' && Port2_w_have){
 1388              		.loc 1 409 0
 1389 00c6 3B1D     		adds	r3, r7, #4
 1390 00c8 0B22     		movs	r2, #11
 1391 00ca 9349     		ldr	r1, .L82+52
 1392 00cc 1868     		ldr	r0, [r3]
 1393 00ce FFF7FEFF 		bl	memcmp
 1394 00d2 0346     		mov	r3, r0
 1395 00d4 002B     		cmp	r3, #0
 1396 00d6 54D1     		bne	.L49
 410:..\Application/OS_Main.c ****             UART_Linux_PutArray((uint8*)Port2_W, strlen(Port2_W) + 1); 
 1397              		.loc 1 410 0
 1398 00d8 904B     		ldr	r3, .L82+56
 1399 00da 1B78     		ldrb	r3, [r3]	@ zero_extendqisi2
 1400 00dc 002B     		cmp	r3, #0
 1401 00de 00F01D83 		beq	.L81
 410:..\Application/OS_Main.c ****             UART_Linux_PutArray((uint8*)Port2_W, strlen(Port2_W) + 1); 
 1402              		.loc 1 410 0 is_stmt 0 discriminator 1
 1403 00e2 8F4B     		ldr	r3, .L82+60
 1404 00e4 1B78     		ldrb	r3, [r3]	@ zero_extendqisi2
 1405 00e6 002B     		cmp	r3, #0
 1406 00e8 00F01883 		beq	.L81
 1407              	.LBB7:
 411:..\Application/OS_Main.c ****             //UART_Linux_PutChar('\0');
 1408              		.loc 1 411 0 is_stmt 1
 1409 00ec 8B48     		ldr	r0, .L82+56
 1410 00ee FFF7FEFF 		bl	strlen
 1411 00f2 0346     		mov	r3, r0
 1412 00f4 9BB2     		uxth	r3, r3
 1413 00f6 0133     		adds	r3, r3, #1
 1414 00f8 9BB2     		uxth	r3, r3
 1415 00fa 1946     		mov	r1, r3
 1416 00fc 8748     		ldr	r0, .L82+56
 1417 00fe FFF7FEFF 		bl	UART_Linux_PutArray
 415:..\Application/OS_Main.c ****             linux_read_counter_total = linux_read_counter_port1 + linux_read_counter_port2;
 1418              		.loc 1 415 0
 1419 0102 7C4B     		ldr	r3, .L82+16
 1420 0104 1B68     		ldr	r3, [r3]
 1421 0106 0133     		adds	r3, r3, #1
 1422 0108 7A4A     		ldr	r2, .L82+16
 1423 010a 1360     		str	r3, [r2]
 416:..\Application/OS_Main.c ****             char data[256];
 1424              		.loc 1 416 0
 1425 010c 784B     		ldr	r3, .L82+12
 1426 010e 1A68     		ldr	r2, [r3]
 1427 0110 784B     		ldr	r3, .L82+16
 1428 0112 1B68     		ldr	r3, [r3]
 1429 0114 1344     		add	r3, r3, r2
 1430 0116 784A     		ldr	r2, .L82+20
ARM GAS  C:\Users\ali\AppData\Local\Temp\ccr9QJbk.s 			page 40


 1431 0118 1360     		str	r3, [r2]
 418:..\Application/OS_Main.c ****             
 1432              		.loc 1 418 0
 1433 011a 754B     		ldr	r3, .L82+12
 1434 011c 1A68     		ldr	r2, [r3]
 1435 011e 754B     		ldr	r3, .L82+16
 1436 0120 1968     		ldr	r1, [r3]
 1437 0122 754B     		ldr	r3, .L82+20
 1438 0124 1B68     		ldr	r3, [r3]
 1439 0126 07F10800 		add	r0, r7, #8
 1440 012a 0093     		str	r3, [sp]
 1441 012c 0B46     		mov	r3, r1
 1442 012e 7349     		ldr	r1, .L82+24
 1443 0130 FFF7FEFF 		bl	sprintf
 420:..\Application/OS_Main.c ****             UART_Debug_PutString(Port2_W);
 1444              		.loc 1 420 0
 1445 0134 7B48     		ldr	r0, .L82+64
 1446 0136 FFF7FEFF 		bl	UART_Debug_PutString
 421:..\Application/OS_Main.c ****             CyWdtClear(); 
 1447              		.loc 1 421 0
 1448 013a 7848     		ldr	r0, .L82+56
 1449 013c FFF7FEFF 		bl	UART_Debug_PutString
 422:..\Application/OS_Main.c ****             UART_Debug_PutString("\r\n");
 1450              		.loc 1 422 0
 1451 0140 FFF7FEFF 		bl	CyWdtClear
 423:..\Application/OS_Main.c ****             
 1452              		.loc 1 423 0
 1453 0144 6F48     		ldr	r0, .L82+32
 1454 0146 FFF7FEFF 		bl	UART_Debug_PutString
 425:..\Application/OS_Main.c ****             CyWdtClear(); 
 1455              		.loc 1 425 0
 1456 014a 07F10803 		add	r3, r7, #8
 1457 014e 1846     		mov	r0, r3
 1458 0150 FFF7FEFF 		bl	UART_Debug_PutString
 426:..\Application/OS_Main.c ****             
 1459              		.loc 1 426 0
 1460 0154 FFF7FEFF 		bl	CyWdtClear
 428:..\Application/OS_Main.c ****             Port2_W_Counter = 0;
 1461              		.loc 1 428 0
 1462 0158 7348     		ldr	r0, .L82+68
 1463 015a FFF7FEFF 		bl	OS_TIMER_Stop
 429:..\Application/OS_Main.c ****             Port2_w_Start = 0;
 1464              		.loc 1 429 0
 1465 015e 734B     		ldr	r3, .L82+72
 1466 0160 0022     		movs	r2, #0
 1467 0162 1A70     		strb	r2, [r3]
 430:..\Application/OS_Main.c ****             Port2_W[0] = '\0';
 1468              		.loc 1 430 0
 1469 0164 724B     		ldr	r3, .L82+76
 1470 0166 0022     		movs	r2, #0
 1471 0168 1A70     		strb	r2, [r3]
 431:..\Application/OS_Main.c ****             Port2_w_have = 0;
 1472              		.loc 1 431 0
 1473 016a 6C4B     		ldr	r3, .L82+56
 1474 016c 0022     		movs	r2, #0
 1475 016e 1A70     		strb	r2, [r3]
 432:..\Application/OS_Main.c ****             UART_Debug_PutString("----------------------------\r\n");
ARM GAS  C:\Users\ali\AppData\Local\Temp\ccr9QJbk.s 			page 41


 1476              		.loc 1 432 0
 1477 0170 6B4B     		ldr	r3, .L82+60
 1478 0172 0022     		movs	r2, #0
 1479 0174 1A70     		strb	r2, [r3]
 433:..\Application/OS_Main.c ****             CyWdtClear(); 
 1480              		.loc 1 433 0
 1481 0176 6748     		ldr	r0, .L82+48
 1482 0178 FFF7FEFF 		bl	UART_Debug_PutString
 434:..\Application/OS_Main.c ****         }    
 1483              		.loc 1 434 0
 1484 017c FFF7FEFF 		bl	CyWdtClear
 1485              	.LBE7:
 1486              		.loc 1 615 0
 1487 0180 CCE2     		b	.L81
 1488              	.L49:
 438:..\Application/OS_Main.c ****         if(In1[0] != '\0'){
 1489              		.loc 1 438 0
 1490 0182 3B1D     		adds	r3, r7, #4
 1491 0184 0C22     		movs	r2, #12
 1492 0186 6B49     		ldr	r1, .L82+80
 1493 0188 1868     		ldr	r0, [r3]
 1494 018a FFF7FEFF 		bl	memcmp
 1495 018e 0346     		mov	r3, r0
 1496 0190 002B     		cmp	r3, #0
 1497 0192 2DD1     		bne	.L51
 439:..\Application/OS_Main.c ****             UART_Linux_PutArray((uint8*)In1, strlen(In1) + 1); 
 1498              		.loc 1 439 0
 1499 0194 684B     		ldr	r3, .L82+84
 1500 0196 1B78     		ldrb	r3, [r3]	@ zero_extendqisi2
 1501 0198 002B     		cmp	r3, #0
 1502 019a 00F0BF82 		beq	.L81
 440:..\Application/OS_Main.c **** //            UART_Linux_PutChar('\0');
 1503              		.loc 1 440 0
 1504 019e 6648     		ldr	r0, .L82+84
 1505 01a0 FFF7FEFF 		bl	strlen
 1506 01a4 0346     		mov	r3, r0
 1507 01a6 9BB2     		uxth	r3, r3
 1508 01a8 0133     		adds	r3, r3, #1
 1509 01aa 9BB2     		uxth	r3, r3
 1510 01ac 1946     		mov	r1, r3
 1511 01ae 6248     		ldr	r0, .L82+84
 1512 01b0 FFF7FEFF 		bl	UART_Linux_PutArray
 443:..\Application/OS_Main.c ****             
 1513              		.loc 1 443 0
 1514 01b4 6148     		ldr	r0, .L82+88
 1515 01b6 FFF7FEFF 		bl	OS_TIMER_Stop
 445:..\Application/OS_Main.c ****             UART_Debug_PutString(In1);
 1516              		.loc 1 445 0
 1517 01ba 6148     		ldr	r0, .L82+92
 1518 01bc FFF7FEFF 		bl	UART_Debug_PutString
 446:..\Application/OS_Main.c ****             CyWdtClear(); 
 1519              		.loc 1 446 0
 1520 01c0 5D48     		ldr	r0, .L82+84
 1521 01c2 FFF7FEFF 		bl	UART_Debug_PutString
 447:..\Application/OS_Main.c ****             UART_Debug_PutString("\r\n");
 1522              		.loc 1 447 0
 1523 01c6 FFF7FEFF 		bl	CyWdtClear
ARM GAS  C:\Users\ali\AppData\Local\Temp\ccr9QJbk.s 			page 42


 448:..\Application/OS_Main.c ****             
 1524              		.loc 1 448 0
 1525 01ca 4E48     		ldr	r0, .L82+32
 1526 01cc FFF7FEFF 		bl	UART_Debug_PutString
 450:..\Application/OS_Main.c ****             In1[0] = '\0';
 1527              		.loc 1 450 0
 1528 01d0 5A48     		ldr	r0, .L82+88
 1529 01d2 FFF7FEFF 		bl	OS_TIMER_Stop
 451:..\Application/OS_Main.c ****             In1[1] = '\0';
 1530              		.loc 1 451 0
 1531 01d6 584B     		ldr	r3, .L82+84
 1532 01d8 0022     		movs	r2, #0
 1533 01da 1A70     		strb	r2, [r3]
 452:..\Application/OS_Main.c ****             In1[2] = '\0';
 1534              		.loc 1 452 0
 1535 01dc 564B     		ldr	r3, .L82+84
 1536 01de 0022     		movs	r2, #0
 1537 01e0 5A70     		strb	r2, [r3, #1]
 453:..\Application/OS_Main.c ****             UART_Debug_PutString("----------------------------\r\n");
 1538              		.loc 1 453 0
 1539 01e2 554B     		ldr	r3, .L82+84
 1540 01e4 0022     		movs	r2, #0
 1541 01e6 9A70     		strb	r2, [r3, #2]
 454:..\Application/OS_Main.c ****         }    
 1542              		.loc 1 454 0
 1543 01e8 4A48     		ldr	r0, .L82+48
 1544 01ea FFF7FEFF 		bl	UART_Debug_PutString
 1545              		.loc 1 615 0
 1546 01ee 95E2     		b	.L81
 1547              	.L51:
 457:..\Application/OS_Main.c ****         if(In2[0] != '\0'){
 1548              		.loc 1 457 0
 1549 01f0 3B1D     		adds	r3, r7, #4
 1550 01f2 0C22     		movs	r2, #12
 1551 01f4 5349     		ldr	r1, .L82+96
 1552 01f6 1868     		ldr	r0, [r3]
 1553 01f8 FFF7FEFF 		bl	memcmp
 1554 01fc 0346     		mov	r3, r0
 1555 01fe 002B     		cmp	r3, #0
 1556 0200 2CD1     		bne	.L53
 458:..\Application/OS_Main.c ****             UART_Linux_PutArray((uint8*)In2, strlen(In2) + 1); 
 1557              		.loc 1 458 0
 1558 0202 514B     		ldr	r3, .L82+100
 1559 0204 1B78     		ldrb	r3, [r3]	@ zero_extendqisi2
 1560 0206 002B     		cmp	r3, #0
 1561 0208 00F08882 		beq	.L81
 459:..\Application/OS_Main.c **** //            UART_Linux_PutChar('\0');
 1562              		.loc 1 459 0
 1563 020c 4E48     		ldr	r0, .L82+100
 1564 020e FFF7FEFF 		bl	strlen
 1565 0212 0346     		mov	r3, r0
 1566 0214 9BB2     		uxth	r3, r3
 1567 0216 0133     		adds	r3, r3, #1
 1568 0218 9BB2     		uxth	r3, r3
 1569 021a 1946     		mov	r1, r3
 1570 021c 4A48     		ldr	r0, .L82+100
 1571 021e FFF7FEFF 		bl	UART_Linux_PutArray
ARM GAS  C:\Users\ali\AppData\Local\Temp\ccr9QJbk.s 			page 43


 462:..\Application/OS_Main.c ****             UART_Debug_PutString(In2);
 1572              		.loc 1 462 0
 1573 0222 4A48     		ldr	r0, .L82+104
 1574 0224 FFF7FEFF 		bl	UART_Debug_PutString
 463:..\Application/OS_Main.c ****             CyWdtClear(); 
 1575              		.loc 1 463 0
 1576 0228 4748     		ldr	r0, .L82+100
 1577 022a FFF7FEFF 		bl	UART_Debug_PutString
 464:..\Application/OS_Main.c ****             UART_Debug_PutString("\r\n");
 1578              		.loc 1 464 0
 1579 022e FFF7FEFF 		bl	CyWdtClear
 465:..\Application/OS_Main.c ****             
 1580              		.loc 1 465 0
 1581 0232 3448     		ldr	r0, .L82+32
 1582 0234 FFF7FEFF 		bl	UART_Debug_PutString
 467:..\Application/OS_Main.c ****             In2[0] = '\0';
 1583              		.loc 1 467 0
 1584 0238 4548     		ldr	r0, .L82+108
 1585 023a FFF7FEFF 		bl	OS_TIMER_Stop
 468:..\Application/OS_Main.c ****             In2[1] = '\0';
 1586              		.loc 1 468 0
 1587 023e 424B     		ldr	r3, .L82+100
 1588 0240 0022     		movs	r2, #0
 1589 0242 1A70     		strb	r2, [r3]
 469:..\Application/OS_Main.c ****             In2[2] = '\0';
 1590              		.loc 1 469 0
 1591 0244 404B     		ldr	r3, .L82+100
 1592 0246 0022     		movs	r2, #0
 1593 0248 5A70     		strb	r2, [r3, #1]
 470:..\Application/OS_Main.c ****             UART_Debug_PutString("----------------------------\r\n");
 1594              		.loc 1 470 0
 1595 024a 3F4B     		ldr	r3, .L82+100
 1596 024c 0022     		movs	r2, #0
 1597 024e 9A70     		strb	r2, [r3, #2]
 471:..\Application/OS_Main.c ****             CyWdtClear(); 
 1598              		.loc 1 471 0
 1599 0250 3048     		ldr	r0, .L82+48
 1600 0252 FFF7FEFF 		bl	UART_Debug_PutString
 472:..\Application/OS_Main.c ****         }        
 1601              		.loc 1 472 0
 1602 0256 FFF7FEFF 		bl	CyWdtClear
 1603              		.loc 1 615 0
 1604 025a 5FE2     		b	.L81
 1605              	.L53:
 476:..\Application/OS_Main.c ****         Port1_Relay = 1;   
 1606              		.loc 1 476 0
 1607 025c 3B1D     		adds	r3, r7, #4
 1608 025e 0B22     		movs	r2, #11
 1609 0260 3C49     		ldr	r1, .L82+112
 1610 0262 1868     		ldr	r0, [r3]
 1611 0264 FFF7FEFF 		bl	memcmp
 1612 0268 0346     		mov	r3, r0
 1613 026a 002B     		cmp	r3, #0
 1614 026c 18D1     		bne	.L55
 477:..\Application/OS_Main.c ****         if(Port1_Relay != Port1_Relay_Old){
 1615              		.loc 1 477 0
 1616 026e 3A4B     		ldr	r3, .L82+116
ARM GAS  C:\Users\ali\AppData\Local\Temp\ccr9QJbk.s 			page 44


 1617 0270 0122     		movs	r2, #1
 1618 0272 1A70     		strb	r2, [r3]
 478:..\Application/OS_Main.c ****             Port1_Relay_Old = Port1_Relay;
 1619              		.loc 1 478 0
 1620 0274 384B     		ldr	r3, .L82+116
 1621 0276 1A78     		ldrb	r2, [r3]	@ zero_extendqisi2
 1622 0278 384B     		ldr	r3, .L82+120
 1623 027a 1B78     		ldrb	r3, [r3]	@ zero_extendqisi2
 1624 027c 9A42     		cmp	r2, r3
 1625 027e 00F04D82 		beq	.L81
 479:..\Application/OS_Main.c ****             Relay_Port1_Write(Port1_Relay);
 1626              		.loc 1 479 0
 1627 0282 354B     		ldr	r3, .L82+116
 1628 0284 1A78     		ldrb	r2, [r3]	@ zero_extendqisi2
 1629 0286 354B     		ldr	r3, .L82+120
 1630 0288 1A70     		strb	r2, [r3]
 480:..\Application/OS_Main.c ****             UART_Debug_PutString("Port 1 Open\r\n");
 1631              		.loc 1 480 0
 1632 028a 334B     		ldr	r3, .L82+116
 1633 028c 1B78     		ldrb	r3, [r3]	@ zero_extendqisi2
 1634 028e 1846     		mov	r0, r3
 1635 0290 FFF7FEFF 		bl	Relay_Port1_Write
 481:..\Application/OS_Main.c ****             CyWdtClear(); 
 1636              		.loc 1 481 0
 1637 0294 3248     		ldr	r0, .L82+124
 1638 0296 FFF7FEFF 		bl	UART_Debug_PutString
 482:..\Application/OS_Main.c ****         }
 1639              		.loc 1 482 0
 1640 029a FFF7FEFF 		bl	CyWdtClear
 1641              		.loc 1 615 0
 1642 029e 3DE2     		b	.L81
 1643              	.L55:
 485:..\Application/OS_Main.c ****         Port1_Relay = 0;  
 1644              		.loc 1 485 0
 1645 02a0 3B1D     		adds	r3, r7, #4
 1646 02a2 0C22     		movs	r2, #12
 1647 02a4 2F49     		ldr	r1, .L82+128
 1648 02a6 1868     		ldr	r0, [r3]
 1649 02a8 FFF7FEFF 		bl	memcmp
 1650 02ac 0346     		mov	r3, r0
 1651 02ae 002B     		cmp	r3, #0
 1652 02b0 5CD1     		bne	.L57
 486:..\Application/OS_Main.c ****         if(Port1_Relay != Port1_Relay_Old){
 1653              		.loc 1 486 0
 1654 02b2 294B     		ldr	r3, .L82+116
 1655 02b4 0022     		movs	r2, #0
 1656 02b6 1A70     		strb	r2, [r3]
 487:..\Application/OS_Main.c ****             Port1_Relay_Old = Port1_Relay;
 1657              		.loc 1 487 0
 1658 02b8 274B     		ldr	r3, .L82+116
 1659 02ba 1A78     		ldrb	r2, [r3]	@ zero_extendqisi2
 1660 02bc 274B     		ldr	r3, .L82+120
 1661 02be 1B78     		ldrb	r3, [r3]	@ zero_extendqisi2
 1662 02c0 9A42     		cmp	r2, r3
 1663 02c2 00F02B82 		beq	.L81
 488:..\Application/OS_Main.c ****             Relay_Port1_Write(Port1_Relay);
 1664              		.loc 1 488 0
ARM GAS  C:\Users\ali\AppData\Local\Temp\ccr9QJbk.s 			page 45


 1665 02c6 244B     		ldr	r3, .L82+116
 1666 02c8 1A78     		ldrb	r2, [r3]	@ zero_extendqisi2
 1667 02ca 244B     		ldr	r3, .L82+120
 1668 02cc 1A70     		strb	r2, [r3]
 489:..\Application/OS_Main.c ****             UART_Debug_PutString("Port 1 Close\r\n");
 1669              		.loc 1 489 0
 1670 02ce 224B     		ldr	r3, .L82+116
 1671 02d0 1B78     		ldrb	r3, [r3]	@ zero_extendqisi2
 1672 02d2 1846     		mov	r0, r3
 1673 02d4 FFF7FEFF 		bl	Relay_Port1_Write
 490:..\Application/OS_Main.c ****             CyWdtClear(); 
 1674              		.loc 1 490 0
 1675 02d8 2348     		ldr	r0, .L82+132
 1676 02da FFF7FEFF 		bl	UART_Debug_PutString
 491:..\Application/OS_Main.c ****         }
 1677              		.loc 1 491 0
 1678 02de FFF7FEFF 		bl	CyWdtClear
 1679              		.loc 1 615 0
 1680 02e2 1BE2     		b	.L81
 1681              	.L83:
 1682              		.align	2
 1683              	.L82:
 1684 02e4 1C010000 		.word	.LC8
 1685 02e8 00000000 		.word	Port1_W
 1686 02ec 00000000 		.word	Port1_w_have
 1687 02f0 00000000 		.word	linux_read_counter_port1
 1688 02f4 00000000 		.word	linux_read_counter_port2
 1689 02f8 00000000 		.word	linux_read_counter_total
 1690 02fc 28010000 		.word	.LC9
 1691 0300 8C010000 		.word	.LC10
 1692 0304 8C000000 		.word	.LC3
 1693 0308 00000000 		.word	Timer_AfterRead_Port1
 1694 030c 00000000 		.word	Port1_W_Counter
 1695 0310 00000000 		.word	Port1_w_Start
 1696 0314 B0010000 		.word	.LC11
 1697 0318 D0010000 		.word	.LC12
 1698 031c 00000000 		.word	Port2_W
 1699 0320 00000000 		.word	Port2_w_have
 1700 0324 DC010000 		.word	.LC13
 1701 0328 00000000 		.word	Timer_AfterRead_Port2
 1702 032c 00000000 		.word	Port2_W_Counter
 1703 0330 00000000 		.word	Port2_w_Start
 1704 0334 00020000 		.word	.LC14
 1705 0338 00000000 		.word	In1
 1706 033c 00000000 		.word	Timer_AfterRead_In1
 1707 0340 10020000 		.word	.LC15
 1708 0344 38020000 		.word	.LC16
 1709 0348 00000000 		.word	In2
 1710 034c 48020000 		.word	.LC17
 1711 0350 00000000 		.word	Timer_AfterRead_In2
 1712 0354 70020000 		.word	.LC18
 1713 0358 00000000 		.word	Port1_Relay
 1714 035c 00000000 		.word	Port1_Relay_Old
 1715 0360 7C020000 		.word	.LC19
 1716 0364 8C020000 		.word	.LC20
 1717 0368 9C020000 		.word	.LC21
 1718              	.L57:
ARM GAS  C:\Users\ali\AppData\Local\Temp\ccr9QJbk.s 			page 46


 494:..\Application/OS_Main.c ****         Port2_Relay = 1; 
 1719              		.loc 1 494 0
 1720 036c 3B1D     		adds	r3, r7, #4
 1721 036e 0B22     		movs	r2, #11
 1722 0370 9549     		ldr	r1, .L84
 1723 0372 1868     		ldr	r0, [r3]
 1724 0374 FFF7FEFF 		bl	memcmp
 1725 0378 0346     		mov	r3, r0
 1726 037a 002B     		cmp	r3, #0
 1727 037c 18D1     		bne	.L59
 495:..\Application/OS_Main.c ****         if(Port2_Relay != Port2_Relay_Old){
 1728              		.loc 1 495 0
 1729 037e 934B     		ldr	r3, .L84+4
 1730 0380 0122     		movs	r2, #1
 1731 0382 1A70     		strb	r2, [r3]
 496:..\Application/OS_Main.c ****             Port2_Relay_Old = Port2_Relay;
 1732              		.loc 1 496 0
 1733 0384 914B     		ldr	r3, .L84+4
 1734 0386 1A78     		ldrb	r2, [r3]	@ zero_extendqisi2
 1735 0388 914B     		ldr	r3, .L84+8
 1736 038a 1B78     		ldrb	r3, [r3]	@ zero_extendqisi2
 1737 038c 9A42     		cmp	r2, r3
 1738 038e 00F0C581 		beq	.L81
 497:..\Application/OS_Main.c ****             Relay_Port2_Write(Port2_Relay);
 1739              		.loc 1 497 0
 1740 0392 8E4B     		ldr	r3, .L84+4
 1741 0394 1A78     		ldrb	r2, [r3]	@ zero_extendqisi2
 1742 0396 8E4B     		ldr	r3, .L84+8
 1743 0398 1A70     		strb	r2, [r3]
 498:..\Application/OS_Main.c ****             UART_Debug_PutString("Port 2 Open\r\n");
 1744              		.loc 1 498 0
 1745 039a 8C4B     		ldr	r3, .L84+4
 1746 039c 1B78     		ldrb	r3, [r3]	@ zero_extendqisi2
 1747 039e 1846     		mov	r0, r3
 1748 03a0 FFF7FEFF 		bl	Relay_Port2_Write
 499:..\Application/OS_Main.c ****             CyWdtClear(); 
 1749              		.loc 1 499 0
 1750 03a4 8B48     		ldr	r0, .L84+12
 1751 03a6 FFF7FEFF 		bl	UART_Debug_PutString
 500:..\Application/OS_Main.c ****         }
 1752              		.loc 1 500 0
 1753 03aa FFF7FEFF 		bl	CyWdtClear
 1754              		.loc 1 615 0
 1755 03ae B5E1     		b	.L81
 1756              	.L59:
 503:..\Application/OS_Main.c ****         Port2_Relay = 0; 
 1757              		.loc 1 503 0
 1758 03b0 3B1D     		adds	r3, r7, #4
 1759 03b2 0C22     		movs	r2, #12
 1760 03b4 8849     		ldr	r1, .L84+16
 1761 03b6 1868     		ldr	r0, [r3]
 1762 03b8 FFF7FEFF 		bl	memcmp
 1763 03bc 0346     		mov	r3, r0
 1764 03be 002B     		cmp	r3, #0
 1765 03c0 18D1     		bne	.L61
 504:..\Application/OS_Main.c ****         if(Port2_Relay != Port2_Relay_Old){
 1766              		.loc 1 504 0
ARM GAS  C:\Users\ali\AppData\Local\Temp\ccr9QJbk.s 			page 47


 1767 03c2 824B     		ldr	r3, .L84+4
 1768 03c4 0022     		movs	r2, #0
 1769 03c6 1A70     		strb	r2, [r3]
 505:..\Application/OS_Main.c ****             Port2_Relay_Old = Port2_Relay;
 1770              		.loc 1 505 0
 1771 03c8 804B     		ldr	r3, .L84+4
 1772 03ca 1A78     		ldrb	r2, [r3]	@ zero_extendqisi2
 1773 03cc 804B     		ldr	r3, .L84+8
 1774 03ce 1B78     		ldrb	r3, [r3]	@ zero_extendqisi2
 1775 03d0 9A42     		cmp	r2, r3
 1776 03d2 00F0A381 		beq	.L81
 506:..\Application/OS_Main.c ****             Relay_Port2_Write(Port2_Relay);
 1777              		.loc 1 506 0
 1778 03d6 7D4B     		ldr	r3, .L84+4
 1779 03d8 1A78     		ldrb	r2, [r3]	@ zero_extendqisi2
 1780 03da 7D4B     		ldr	r3, .L84+8
 1781 03dc 1A70     		strb	r2, [r3]
 507:..\Application/OS_Main.c ****             UART_Debug_PutString("Port 2 Close\r\n");
 1782              		.loc 1 507 0
 1783 03de 7B4B     		ldr	r3, .L84+4
 1784 03e0 1B78     		ldrb	r3, [r3]	@ zero_extendqisi2
 1785 03e2 1846     		mov	r0, r3
 1786 03e4 FFF7FEFF 		bl	Relay_Port2_Write
 508:..\Application/OS_Main.c ****             CyWdtClear(); 
 1787              		.loc 1 508 0
 1788 03e8 7C48     		ldr	r0, .L84+20
 1789 03ea FFF7FEFF 		bl	UART_Debug_PutString
 509:..\Application/OS_Main.c ****         }
 1790              		.loc 1 509 0
 1791 03ee FFF7FEFF 		bl	CyWdtClear
 1792              		.loc 1 615 0
 1793 03f2 93E1     		b	.L81
 1794              	.L61:
 513:..\Application/OS_Main.c ****         Port1_Locked = 1; 
 1795              		.loc 1 513 0
 1796 03f4 3B1D     		adds	r3, r7, #4
 1797 03f6 0B22     		movs	r2, #11
 1798 03f8 7949     		ldr	r1, .L84+24
 1799 03fa 1868     		ldr	r0, [r3]
 1800 03fc FFF7FEFF 		bl	memcmp
 1801 0400 0346     		mov	r3, r0
 1802 0402 002B     		cmp	r3, #0
 1803 0404 13D1     		bne	.L63
 514:..\Application/OS_Main.c ****         if(Port1_Locked != Port1_Locked_Old){
 1804              		.loc 1 514 0
 1805 0406 774B     		ldr	r3, .L84+28
 1806 0408 0122     		movs	r2, #1
 1807 040a 1A70     		strb	r2, [r3]
 515:..\Application/OS_Main.c ****             Port1_Locked_Old = Port1_Locked;
 1808              		.loc 1 515 0
 1809 040c 754B     		ldr	r3, .L84+28
 1810 040e 1A78     		ldrb	r2, [r3]	@ zero_extendqisi2
 1811 0410 754B     		ldr	r3, .L84+32
 1812 0412 1B78     		ldrb	r3, [r3]	@ zero_extendqisi2
 1813 0414 9A42     		cmp	r2, r3
 1814 0416 00F08181 		beq	.L81
 516:..\Application/OS_Main.c ****             UART_Debug_PutString("Port 1 Lock\r\n");
ARM GAS  C:\Users\ali\AppData\Local\Temp\ccr9QJbk.s 			page 48


 1815              		.loc 1 516 0
 1816 041a 724B     		ldr	r3, .L84+28
 1817 041c 1A78     		ldrb	r2, [r3]	@ zero_extendqisi2
 1818 041e 724B     		ldr	r3, .L84+32
 1819 0420 1A70     		strb	r2, [r3]
 517:..\Application/OS_Main.c ****             CyWdtClear(); 
 1820              		.loc 1 517 0
 1821 0422 7248     		ldr	r0, .L84+36
 1822 0424 FFF7FEFF 		bl	UART_Debug_PutString
 518:..\Application/OS_Main.c ****         }
 1823              		.loc 1 518 0
 1824 0428 FFF7FEFF 		bl	CyWdtClear
 1825              		.loc 1 615 0
 1826 042c 76E1     		b	.L81
 1827              	.L63:
 521:..\Application/OS_Main.c ****         Port1_Locked = 0;
 1828              		.loc 1 521 0
 1829 042e 3B1D     		adds	r3, r7, #4
 1830 0430 0D22     		movs	r2, #13
 1831 0432 6F49     		ldr	r1, .L84+40
 1832 0434 1868     		ldr	r0, [r3]
 1833 0436 FFF7FEFF 		bl	memcmp
 1834 043a 0346     		mov	r3, r0
 1835 043c 002B     		cmp	r3, #0
 1836 043e 13D1     		bne	.L65
 522:..\Application/OS_Main.c ****         if(Port1_Locked != Port1_Locked_Old){
 1837              		.loc 1 522 0
 1838 0440 684B     		ldr	r3, .L84+28
 1839 0442 0022     		movs	r2, #0
 1840 0444 1A70     		strb	r2, [r3]
 523:..\Application/OS_Main.c ****             Port1_Locked_Old = Port1_Locked;
 1841              		.loc 1 523 0
 1842 0446 674B     		ldr	r3, .L84+28
 1843 0448 1A78     		ldrb	r2, [r3]	@ zero_extendqisi2
 1844 044a 674B     		ldr	r3, .L84+32
 1845 044c 1B78     		ldrb	r3, [r3]	@ zero_extendqisi2
 1846 044e 9A42     		cmp	r2, r3
 1847 0450 00F06481 		beq	.L81
 524:..\Application/OS_Main.c ****             UART_Debug_PutString("Port 1 UnLock\r\n");
 1848              		.loc 1 524 0
 1849 0454 634B     		ldr	r3, .L84+28
 1850 0456 1A78     		ldrb	r2, [r3]	@ zero_extendqisi2
 1851 0458 634B     		ldr	r3, .L84+32
 1852 045a 1A70     		strb	r2, [r3]
 525:..\Application/OS_Main.c ****             CyWdtClear(); 
 1853              		.loc 1 525 0
 1854 045c 6548     		ldr	r0, .L84+44
 1855 045e FFF7FEFF 		bl	UART_Debug_PutString
 526:..\Application/OS_Main.c ****         }
 1856              		.loc 1 526 0
 1857 0462 FFF7FEFF 		bl	CyWdtClear
 1858              		.loc 1 615 0
 1859 0466 59E1     		b	.L81
 1860              	.L65:
 529:..\Application/OS_Main.c ****         Port2_Locked = 1;
 1861              		.loc 1 529 0
 1862 0468 3B1D     		adds	r3, r7, #4
ARM GAS  C:\Users\ali\AppData\Local\Temp\ccr9QJbk.s 			page 49


 1863 046a 0B22     		movs	r2, #11
 1864 046c 6249     		ldr	r1, .L84+48
 1865 046e 1868     		ldr	r0, [r3]
 1866 0470 FFF7FEFF 		bl	memcmp
 1867 0474 0346     		mov	r3, r0
 1868 0476 002B     		cmp	r3, #0
 1869 0478 13D1     		bne	.L67
 530:..\Application/OS_Main.c ****         if(Port2_Locked != Port2_Locked_Old){
 1870              		.loc 1 530 0
 1871 047a 604B     		ldr	r3, .L84+52
 1872 047c 0122     		movs	r2, #1
 1873 047e 1A70     		strb	r2, [r3]
 531:..\Application/OS_Main.c ****             Port2_Locked_Old = Port2_Locked;
 1874              		.loc 1 531 0
 1875 0480 5E4B     		ldr	r3, .L84+52
 1876 0482 1A78     		ldrb	r2, [r3]	@ zero_extendqisi2
 1877 0484 5E4B     		ldr	r3, .L84+56
 1878 0486 1B78     		ldrb	r3, [r3]	@ zero_extendqisi2
 1879 0488 9A42     		cmp	r2, r3
 1880 048a 00F04781 		beq	.L81
 532:..\Application/OS_Main.c ****             UART_Debug_PutString("Port 2 Lock\r\n");
 1881              		.loc 1 532 0
 1882 048e 5B4B     		ldr	r3, .L84+52
 1883 0490 1A78     		ldrb	r2, [r3]	@ zero_extendqisi2
 1884 0492 5B4B     		ldr	r3, .L84+56
 1885 0494 1A70     		strb	r2, [r3]
 533:..\Application/OS_Main.c ****             CyWdtClear(); 
 1886              		.loc 1 533 0
 1887 0496 5B48     		ldr	r0, .L84+60
 1888 0498 FFF7FEFF 		bl	UART_Debug_PutString
 534:..\Application/OS_Main.c ****         }
 1889              		.loc 1 534 0
 1890 049c FFF7FEFF 		bl	CyWdtClear
 1891              		.loc 1 615 0
 1892 04a0 3CE1     		b	.L81
 1893              	.L67:
 537:..\Application/OS_Main.c ****         Port2_Locked = 0;   
 1894              		.loc 1 537 0
 1895 04a2 3B1D     		adds	r3, r7, #4
 1896 04a4 0D22     		movs	r2, #13
 1897 04a6 5849     		ldr	r1, .L84+64
 1898 04a8 1868     		ldr	r0, [r3]
 1899 04aa FFF7FEFF 		bl	memcmp
 1900 04ae 0346     		mov	r3, r0
 1901 04b0 002B     		cmp	r3, #0
 1902 04b2 13D1     		bne	.L69
 538:..\Application/OS_Main.c ****         if(Port2_Locked != Port2_Locked_Old){
 1903              		.loc 1 538 0
 1904 04b4 514B     		ldr	r3, .L84+52
 1905 04b6 0022     		movs	r2, #0
 1906 04b8 1A70     		strb	r2, [r3]
 539:..\Application/OS_Main.c ****             Port2_Locked_Old = Port2_Locked;
 1907              		.loc 1 539 0
 1908 04ba 504B     		ldr	r3, .L84+52
 1909 04bc 1A78     		ldrb	r2, [r3]	@ zero_extendqisi2
 1910 04be 504B     		ldr	r3, .L84+56
 1911 04c0 1B78     		ldrb	r3, [r3]	@ zero_extendqisi2
ARM GAS  C:\Users\ali\AppData\Local\Temp\ccr9QJbk.s 			page 50


 1912 04c2 9A42     		cmp	r2, r3
 1913 04c4 00F02A81 		beq	.L81
 540:..\Application/OS_Main.c ****             UART_Debug_PutString("Port 2 UnLock\r\n");
 1914              		.loc 1 540 0
 1915 04c8 4C4B     		ldr	r3, .L84+52
 1916 04ca 1A78     		ldrb	r2, [r3]	@ zero_extendqisi2
 1917 04cc 4C4B     		ldr	r3, .L84+56
 1918 04ce 1A70     		strb	r2, [r3]
 541:..\Application/OS_Main.c ****             CyWdtClear(); 
 1919              		.loc 1 541 0
 1920 04d0 4E48     		ldr	r0, .L84+68
 1921 04d2 FFF7FEFF 		bl	UART_Debug_PutString
 542:..\Application/OS_Main.c ****         }
 1922              		.loc 1 542 0
 1923 04d6 FFF7FEFF 		bl	CyWdtClear
 1924              		.loc 1 615 0
 1925 04da 1FE1     		b	.L81
 1926              	.L69:
 546:..\Application/OS_Main.c ****         //Port1_W_bits
 1927              		.loc 1 546 0
 1928 04dc 3B1D     		adds	r3, r7, #4
 1929 04de 0D22     		movs	r2, #13
 1930 04e0 4B49     		ldr	r1, .L84+72
 1931 04e2 1868     		ldr	r0, [r3]
 1932 04e4 FFF7FEFF 		bl	memcmp
 1933 04e8 0346     		mov	r3, r0
 1934 04ea 002B     		cmp	r3, #0
 1935 04ec 31D1     		bne	.L71
 1936              	.LBB8:
 548:..\Application/OS_Main.c ****         ret = strremove((char*)msg, "Port 1 Wbits:");
 1937              		.loc 1 548 0
 1938 04ee 0023     		movs	r3, #0
 1939 04f0 C7F81431 		str	r3, [r7, #276]
 549:..\Application/OS_Main.c ****         CyWdtClear(); 
 1940              		.loc 1 549 0
 1941 04f4 3B1D     		adds	r3, r7, #4
 1942 04f6 4649     		ldr	r1, .L84+72
 1943 04f8 1868     		ldr	r0, [r3]
 1944 04fa FFF7FEFF 		bl	strremove
 1945 04fe C7F81401 		str	r0, [r7, #276]
 550:..\Application/OS_Main.c ****         
 1946              		.loc 1 550 0
 1947 0502 FFF7FEFF 		bl	CyWdtClear
 552:..\Application/OS_Main.c ****         CyWdtClear(); 
 1948              		.loc 1 552 0
 1949 0506 D7F81401 		ldr	r0, [r7, #276]
 1950 050a FFF7FEFF 		bl	atoi
 1951 050e 0346     		mov	r3, r0
 1952 0510 DAB2     		uxtb	r2, r3
 1953 0512 404B     		ldr	r3, .L84+76
 1954 0514 1A70     		strb	r2, [r3]
 553:..\Application/OS_Main.c ****         if(Port1_W_bits != Port1_W_bits_Old){
 1955              		.loc 1 553 0
 1956 0516 FFF7FEFF 		bl	CyWdtClear
 554:..\Application/OS_Main.c ****             Port1_W_bits_Old = Port1_W_bits;
 1957              		.loc 1 554 0
 1958 051a 3E4B     		ldr	r3, .L84+76
ARM GAS  C:\Users\ali\AppData\Local\Temp\ccr9QJbk.s 			page 51


 1959 051c 1A78     		ldrb	r2, [r3]	@ zero_extendqisi2
 1960 051e 3E4B     		ldr	r3, .L84+80
 1961 0520 1B78     		ldrb	r3, [r3]	@ zero_extendqisi2
 1962 0522 9A42     		cmp	r2, r3
 1963 0524 00F0FA80 		beq	.L81
 1964              	.LBB9:
 555:..\Application/OS_Main.c ****             char ss[100];
 1965              		.loc 1 555 0
 1966 0528 3A4B     		ldr	r3, .L84+76
 1967 052a 1A78     		ldrb	r2, [r3]	@ zero_extendqisi2
 1968 052c 3A4B     		ldr	r3, .L84+80
 1969 052e 1A70     		strb	r2, [r3]
 557:..\Application/OS_Main.c ****             UART_Debug_PutString(ss);
 1970              		.loc 1 557 0
 1971 0530 384B     		ldr	r3, .L84+76
 1972 0532 1B78     		ldrb	r3, [r3]	@ zero_extendqisi2
 1973 0534 1A46     		mov	r2, r3
 1974 0536 07F10803 		add	r3, r7, #8
 1975 053a 3849     		ldr	r1, .L84+84
 1976 053c 1846     		mov	r0, r3
 1977 053e FFF7FEFF 		bl	sprintf
 558:..\Application/OS_Main.c ****             CyWdtClear(); 
 1978              		.loc 1 558 0
 1979 0542 07F10803 		add	r3, r7, #8
 1980 0546 1846     		mov	r0, r3
 1981 0548 FFF7FEFF 		bl	UART_Debug_PutString
 559:..\Application/OS_Main.c ****         }
 1982              		.loc 1 559 0
 1983 054c FFF7FEFF 		bl	CyWdtClear
 1984              	.LBE9:
 1985              	.LBE8:
 1986              		.loc 1 615 0
 1987 0550 E4E0     		b	.L81
 1988              	.L71:
 562:..\Application/OS_Main.c ****         //Port2_W_bits
 1989              		.loc 1 562 0
 1990 0552 3B1D     		adds	r3, r7, #4
 1991 0554 0D22     		movs	r2, #13
 1992 0556 3249     		ldr	r1, .L84+88
 1993 0558 1868     		ldr	r0, [r3]
 1994 055a FFF7FEFF 		bl	memcmp
 1995 055e 0346     		mov	r3, r0
 1996 0560 002B     		cmp	r3, #0
 1997 0562 65D1     		bne	.L73
 1998              	.LBB10:
 564:..\Application/OS_Main.c ****         ret = strremove((char*)msg, "Port 2 Wbits:");
 1999              		.loc 1 564 0
 2000 0564 0023     		movs	r3, #0
 2001 0566 C7F81031 		str	r3, [r7, #272]
 565:..\Application/OS_Main.c ****         CyWdtClear(); 
 2002              		.loc 1 565 0
 2003 056a 3B1D     		adds	r3, r7, #4
 2004 056c 2C49     		ldr	r1, .L84+88
 2005 056e 1868     		ldr	r0, [r3]
 2006 0570 FFF7FEFF 		bl	strremove
 2007 0574 C7F81001 		str	r0, [r7, #272]
 566:..\Application/OS_Main.c ****         Port2_W_bits = atoi(ret);
ARM GAS  C:\Users\ali\AppData\Local\Temp\ccr9QJbk.s 			page 52


 2008              		.loc 1 566 0
 2009 0578 FFF7FEFF 		bl	CyWdtClear
 567:..\Application/OS_Main.c ****         CyWdtClear(); 
 2010              		.loc 1 567 0
 2011 057c D7F81001 		ldr	r0, [r7, #272]
 2012 0580 FFF7FEFF 		bl	atoi
 2013 0584 0346     		mov	r3, r0
 2014 0586 DAB2     		uxtb	r2, r3
 2015 0588 264B     		ldr	r3, .L84+92
 2016 058a 1A70     		strb	r2, [r3]
 568:..\Application/OS_Main.c ****         if(Port2_W_bits != Port2_W_bits_Old){
 2017              		.loc 1 568 0
 2018 058c FFF7FEFF 		bl	CyWdtClear
 569:..\Application/OS_Main.c ****             Port2_W_bits_Old = Port2_W_bits;
 2019              		.loc 1 569 0
 2020 0590 244B     		ldr	r3, .L84+92
 2021 0592 1A78     		ldrb	r2, [r3]	@ zero_extendqisi2
 2022 0594 244B     		ldr	r3, .L84+96
 2023 0596 1B78     		ldrb	r3, [r3]	@ zero_extendqisi2
 2024 0598 9A42     		cmp	r2, r3
 2025 059a 00F0BF80 		beq	.L81
 2026              	.LBB11:
 570:..\Application/OS_Main.c ****             char ss[100];
 2027              		.loc 1 570 0
 2028 059e 214B     		ldr	r3, .L84+92
 2029 05a0 1A78     		ldrb	r2, [r3]	@ zero_extendqisi2
 2030 05a2 214B     		ldr	r3, .L84+96
 2031 05a4 1A70     		strb	r2, [r3]
 572:..\Application/OS_Main.c ****             UART_Debug_PutString(ss);
 2032              		.loc 1 572 0
 2033 05a6 1F4B     		ldr	r3, .L84+92
 2034 05a8 1B78     		ldrb	r3, [r3]	@ zero_extendqisi2
 2035 05aa 1A46     		mov	r2, r3
 2036 05ac 07F10803 		add	r3, r7, #8
 2037 05b0 1E49     		ldr	r1, .L84+100
 2038 05b2 1846     		mov	r0, r3
 2039 05b4 FFF7FEFF 		bl	sprintf
 573:..\Application/OS_Main.c ****             CyWdtClear(); 
 2040              		.loc 1 573 0
 2041 05b8 07F10803 		add	r3, r7, #8
 2042 05bc 1846     		mov	r0, r3
 2043 05be FFF7FEFF 		bl	UART_Debug_PutString
 574:..\Application/OS_Main.c ****         }
 2044              		.loc 1 574 0
 2045 05c2 FFF7FEFF 		bl	CyWdtClear
 2046              	.LBE11:
 2047              	.LBE10:
 2048              		.loc 1 615 0
 2049 05c6 A9E0     		b	.L81
 2050              	.L85:
 2051              		.align	2
 2052              	.L84:
 2053 05c8 AC020000 		.word	.LC22
 2054 05cc 00000000 		.word	Port2_Relay
 2055 05d0 00000000 		.word	Port2_Relay_Old
 2056 05d4 B8020000 		.word	.LC23
 2057 05d8 C8020000 		.word	.LC24
ARM GAS  C:\Users\ali\AppData\Local\Temp\ccr9QJbk.s 			page 53


 2058 05dc D8020000 		.word	.LC25
 2059 05e0 E8020000 		.word	.LC26
 2060 05e4 00000000 		.word	Port1_Locked
 2061 05e8 00000000 		.word	Port1_Locked_Old
 2062 05ec F4020000 		.word	.LC27
 2063 05f0 04030000 		.word	.LC28
 2064 05f4 14030000 		.word	.LC29
 2065 05f8 24030000 		.word	.LC30
 2066 05fc 00000000 		.word	Port2_Locked
 2067 0600 00000000 		.word	Port2_Locked_Old
 2068 0604 30030000 		.word	.LC31
 2069 0608 40030000 		.word	.LC32
 2070 060c 50030000 		.word	.LC33
 2071 0610 60030000 		.word	.LC34
 2072 0614 00000000 		.word	Port1_W_bits
 2073 0618 00000000 		.word	Port1_W_bits_Old
 2074 061c 70030000 		.word	.LC35
 2075 0620 84030000 		.word	.LC36
 2076 0624 00000000 		.word	Port2_W_bits
 2077 0628 00000000 		.word	Port2_W_bits_Old
 2078 062c 94030000 		.word	.LC37
 2079              	.L73:
 578:..\Application/OS_Main.c ****         //RGB
 2080              		.loc 1 578 0
 2081 0630 3B1D     		adds	r3, r7, #4
 2082 0632 0722     		movs	r2, #7
 2083 0634 3C49     		ldr	r1, .L86
 2084 0636 1868     		ldr	r0, [r3]
 2085 0638 FFF7FEFF 		bl	memcmp
 2086 063c 0346     		mov	r3, r0
 2087 063e 002B     		cmp	r3, #0
 2088 0640 48D1     		bne	.L75
 2089              	.LBB12:
 580:..\Application/OS_Main.c ****         char* ret = NULL;
 2090              		.loc 1 580 0
 2091 0642 3A48     		ldr	r0, .L86+4
 2092 0644 FFF7FEFF 		bl	OS_TIMER_Restart
 581:..\Application/OS_Main.c ****         ret = strremove((char*)msg, "Cy RGB:");
 2093              		.loc 1 581 0
 2094 0648 0023     		movs	r3, #0
 2095 064a C7F80C31 		str	r3, [r7, #268]
 582:..\Application/OS_Main.c ****         CyWdtClear(); 
 2096              		.loc 1 582 0
 2097 064e 3B1D     		adds	r3, r7, #4
 2098 0650 3549     		ldr	r1, .L86
 2099 0652 1868     		ldr	r0, [r3]
 2100 0654 FFF7FEFF 		bl	strremove
 2101 0658 C7F80C01 		str	r0, [r7, #268]
 583:..\Application/OS_Main.c ****         uint32 color = strtol(ret, NULL, 10);
 2102              		.loc 1 583 0
 2103 065c FFF7FEFF 		bl	CyWdtClear
 584:..\Application/OS_Main.c ****         CyWdtClear(); 
 2104              		.loc 1 584 0
 2105 0660 0A22     		movs	r2, #10
 2106 0662 0021     		movs	r1, #0
 2107 0664 D7F80C01 		ldr	r0, [r7, #268]
 2108 0668 FFF7FEFF 		bl	strtol
ARM GAS  C:\Users\ali\AppData\Local\Temp\ccr9QJbk.s 			page 54


 2109 066c 0346     		mov	r3, r0
 2110 066e C7F80831 		str	r3, [r7, #264]
 585:..\Application/OS_Main.c ****         RGB_Color = (uint8)color;
 2111              		.loc 1 585 0
 2112 0672 FFF7FEFF 		bl	CyWdtClear
 586:..\Application/OS_Main.c ****         if(RGB_Color != RGB_Color_Old){
 2113              		.loc 1 586 0
 2114 0676 D7F80831 		ldr	r3, [r7, #264]
 2115 067a DAB2     		uxtb	r2, r3
 2116 067c 2C4B     		ldr	r3, .L86+8
 2117 067e 1A70     		strb	r2, [r3]
 587:..\Application/OS_Main.c ****             RGB_Color_Old = RGB_Color;
 2118              		.loc 1 587 0
 2119 0680 2B4B     		ldr	r3, .L86+8
 2120 0682 1A78     		ldrb	r2, [r3]	@ zero_extendqisi2
 2121 0684 2B4B     		ldr	r3, .L86+12
 2122 0686 1B78     		ldrb	r3, [r3]	@ zero_extendqisi2
 2123 0688 9A42     		cmp	r2, r3
 2124 068a 47D0     		beq	.L81
 2125              	.LBB13:
 588:..\Application/OS_Main.c ****             if(RGB_Color > 6 || RGB_Color < 0){
 2126              		.loc 1 588 0
 2127 068c 284B     		ldr	r3, .L86+8
 2128 068e 1A78     		ldrb	r2, [r3]	@ zero_extendqisi2
 2129 0690 284B     		ldr	r3, .L86+12
 2130 0692 1A70     		strb	r2, [r3]
 589:..\Application/OS_Main.c ****                 RGB_Color = 1;
 2131              		.loc 1 589 0
 2132 0694 264B     		ldr	r3, .L86+8
 2133 0696 1B78     		ldrb	r3, [r3]	@ zero_extendqisi2
 2134 0698 062B     		cmp	r3, #6
 2135 069a 05D9     		bls	.L77
 590:..\Application/OS_Main.c ****                 RGB_Color_Old = 1;
 2136              		.loc 1 590 0
 2137 069c 244B     		ldr	r3, .L86+8
 2138 069e 0122     		movs	r2, #1
 2139 06a0 1A70     		strb	r2, [r3]
 591:..\Application/OS_Main.c ****             }
 2140              		.loc 1 591 0
 2141 06a2 244B     		ldr	r3, .L86+12
 2142 06a4 0122     		movs	r2, #1
 2143 06a6 1A70     		strb	r2, [r3]
 2144              	.L77:
 593:..\Application/OS_Main.c ****             char ss[100];
 2145              		.loc 1 593 0
 2146 06a8 214B     		ldr	r3, .L86+8
 2147 06aa 1B78     		ldrb	r3, [r3]	@ zero_extendqisi2
 2148 06ac 1846     		mov	r0, r3
 2149 06ae FFF7FEFF 		bl	RGB
 595:..\Application/OS_Main.c ****             UART_Debug_PutString(ss);
 2150              		.loc 1 595 0
 2151 06b2 1F4B     		ldr	r3, .L86+8
 2152 06b4 1B78     		ldrb	r3, [r3]	@ zero_extendqisi2
 2153 06b6 1A46     		mov	r2, r3
 2154 06b8 07F10803 		add	r3, r7, #8
 2155 06bc 1E49     		ldr	r1, .L86+16
 2156 06be 1846     		mov	r0, r3
ARM GAS  C:\Users\ali\AppData\Local\Temp\ccr9QJbk.s 			page 55


 2157 06c0 FFF7FEFF 		bl	sprintf
 596:..\Application/OS_Main.c ****             CyWdtClear(); 
 2158              		.loc 1 596 0
 2159 06c4 07F10803 		add	r3, r7, #8
 2160 06c8 1846     		mov	r0, r3
 2161 06ca FFF7FEFF 		bl	UART_Debug_PutString
 597:..\Application/OS_Main.c ****         }
 2162              		.loc 1 597 0
 2163 06ce FFF7FEFF 		bl	CyWdtClear
 2164              	.LBE13:
 2165              	.LBE12:
 2166              		.loc 1 615 0
 2167 06d2 23E0     		b	.L81
 2168              	.L75:
 602:..\Application/OS_Main.c ****         CyWdtClear(); 
 2169              		.loc 1 602 0
 2170 06d4 3B1D     		adds	r3, r7, #4
 2171 06d6 0822     		movs	r2, #8
 2172 06d8 1849     		ldr	r1, .L86+20
 2173 06da 1868     		ldr	r0, [r3]
 2174 06dc FFF7FEFF 		bl	memcmp
 2175 06e0 0346     		mov	r3, r0
 2176 06e2 002B     		cmp	r3, #0
 2177 06e4 04D1     		bne	.L78
 603:..\Application/OS_Main.c ****         CySoftwareReset();
 2178              		.loc 1 603 0
 2179 06e6 FFF7FEFF 		bl	CyWdtClear
 604:..\Application/OS_Main.c ****     }
 2180              		.loc 1 604 0
 2181 06ea FFF7FEFF 		bl	CySoftwareReset
 2182              		.loc 1 615 0
 2183 06ee 15E0     		b	.L81
 2184              	.L78:
 606:..\Application/OS_Main.c ****         UART_Linux_PutArray((uint8*)"Cy Connected", strlen("Cy Connected") + 1); 
 2185              		.loc 1 606 0
 2186 06f0 3B1D     		adds	r3, r7, #4
 2187 06f2 0A22     		movs	r2, #10
 2188 06f4 1249     		ldr	r1, .L86+24
 2189 06f6 1868     		ldr	r0, [r3]
 2190 06f8 FFF7FEFF 		bl	memcmp
 2191 06fc 0346     		mov	r3, r0
 2192 06fe 002B     		cmp	r3, #0
 2193 0700 06D1     		bne	.L79
 607:..\Application/OS_Main.c **** //        UART_Linux_PutChar('\0');
 2194              		.loc 1 607 0
 2195 0702 0D21     		movs	r1, #13
 2196 0704 0F48     		ldr	r0, .L86+28
 2197 0706 FFF7FEFF 		bl	UART_Linux_PutArray
 609:..\Application/OS_Main.c ****     }
 2198              		.loc 1 609 0
 2199 070a FFF7FEFF 		bl	CyWdtClear
 2200              		.loc 1 615 0
 2201 070e 05E0     		b	.L81
 2202              	.L79:
 612:..\Application/OS_Main.c ****         CyWdtClear(); 
 2203              		.loc 1 612 0
 2204 0710 0D48     		ldr	r0, .L86+32
ARM GAS  C:\Users\ali\AppData\Local\Temp\ccr9QJbk.s 			page 56


 2205 0712 FFF7FEFF 		bl	UART_Debug_PutString
 613:..\Application/OS_Main.c ****     }
 2206              		.loc 1 613 0
 2207 0716 FFF7FEFF 		bl	CyWdtClear
 2208              		.loc 1 615 0
 2209 071a 00BF     		nop
 2210              	.L81:
 2211 071c 00BF     		nop
 616:..\Application/OS_Main.c **** }
 2212              		.loc 1 616 0
 2213 071e 07F58C77 		add	r7, r7, #280
 2214              		.cfi_def_cfa_offset 8
 2215 0722 BD46     		mov	sp, r7
 2216              		.cfi_def_cfa_register 13
 2217              		@ sp needed
 2218 0724 80BD     		pop	{r7, pc}
 2219              	.L87:
 2220 0726 00BF     		.align	2
 2221              	.L86:
 2222 0728 A8030000 		.word	.LC38
 2223 072c 00000000 		.word	Timer_RGB_LED
 2224 0730 00000000 		.word	RGB_Color
 2225 0734 00000000 		.word	RGB_Color_Old
 2226 0738 B0030000 		.word	.LC39
 2227 073c C4030000 		.word	.LC40
 2228 0740 D0030000 		.word	.LC41
 2229 0744 DC030000 		.word	.LC42
 2230 0748 EC030000 		.word	.LC43
 2231              		.cfi_endproc
 2232              	.LFE66:
 2233              		.size	CmdTask, .-CmdTask
 2234              		.section	.text.UART_Linux_Rx_ISR,"ax",%progbits
 2235              		.align	2
 2236              		.global	UART_Linux_Rx_ISR
 2237              		.thumb
 2238              		.thumb_func
 2239              		.type	UART_Linux_Rx_ISR, %function
 2240              	UART_Linux_Rx_ISR:
 2241              	.LFB67:
 617:..\Application/OS_Main.c **** 
 618:..\Application/OS_Main.c **** //Interrupt Service Routine
 619:..\Application/OS_Main.c **** CY_ISR(UART_Linux_Rx_ISR) 
 620:..\Application/OS_Main.c **** {   
 2242              		.loc 1 620 0
 2243              		.cfi_startproc
 2244              		@ args = 0, pretend = 0, frame = 8
 2245              		@ frame_needed = 1, uses_anonymous_args = 0
 2246 0000 80B5     		push	{r7, lr}
 2247              		.cfi_def_cfa_offset 8
 2248              		.cfi_offset 7, -8
 2249              		.cfi_offset 14, -4
 2250 0002 82B0     		sub	sp, sp, #8
 2251              		.cfi_def_cfa_offset 16
 2252 0004 00AF     		add	r7, sp, #0
 2253              		.cfi_def_cfa_register 7
 621:..\Application/OS_Main.c ****     OS_INT_Enter();
 2254              		.loc 1 621 0
ARM GAS  C:\Users\ali\AppData\Local\Temp\ccr9QJbk.s 			page 57


 2255 0006 5D4B     		ldr	r3, .L101
 2256 0008 93F87830 		ldrb	r3, [r3, #120]	@ zero_extendqisi2
 2257 000c 002B     		cmp	r3, #0
 2258 000e 02D1     		bne	.L89
 2259              		.loc 1 621 0 is_stmt 0 discriminator 1
 2260 0010 A520     		movs	r0, #165
 2261 0012 FFF7FEFF 		bl	OS_Error
 2262              	.L89:
 2263              		.loc 1 621 0 discriminator 3
 2264 0016 594B     		ldr	r3, .L101
 2265 0018 93F87730 		ldrb	r3, [r3, #119]	@ zero_extendqisi2
 2266 001c 0133     		adds	r3, r3, #1
 2267 001e DAB2     		uxtb	r2, r3
 2268 0020 564B     		ldr	r3, .L101
 2269 0022 83F87720 		strb	r2, [r3, #119]
 2270 0026 FFF7FEFF 		bl	OS_AssertCPUInISRMode
 2271              		.syntax unified
 2272              	@ 621 "..\Application\OS_Main.c" 1
 2273 002a 4FF08000 		mov  r0, #128    
 2274 002e 80F31188 		msr  basepri, r0 
 2275 0032 00BF     		nop              
 2276 0034 00BF     		nop              
 2277              		
 2278              	@ 0 "" 2
 2279              		.thumb
 2280              		.syntax unified
 2281 0036 514B     		ldr	r3, .L101
 2282 0038 1B78     		ldrb	r3, [r3]
 2283 003a DBB2     		uxtb	r3, r3
 2284 003c 0133     		adds	r3, r3, #1
 2285 003e DAB2     		uxtb	r2, r3
 2286 0040 4E4B     		ldr	r3, .L101
 2287 0042 1A70     		strb	r2, [r3]
 2288 0044 4D4B     		ldr	r3, .L101
 2289 0046 5B78     		ldrb	r3, [r3, #1]
 2290 0048 DBB2     		uxtb	r3, r3
 2291 004a 0133     		adds	r3, r3, #1
 2292 004c DAB2     		uxtb	r2, r3
 2293 004e 4B4B     		ldr	r3, .L101
 2294 0050 5A70     		strb	r2, [r3, #1]
 2295 0052 4A4B     		ldr	r3, .L101
 2296 0054 DB6B     		ldr	r3, [r3, #60]
 2297 0056 002B     		cmp	r3, #0
 2298 0058 03D0     		beq	.L90
 2299              		.loc 1 621 0 discriminator 4
 2300 005a 484B     		ldr	r3, .L101
 2301 005c DB6B     		ldr	r3, [r3, #60]
 2302 005e 1B68     		ldr	r3, [r3]
 2303 0060 9847     		blx	r3
 2304              	.L90:
 622:..\Application/OS_Main.c ****     
 623:..\Application/OS_Main.c ****     OS_TIMER_Restart(&Timer_Read_Linux);
 2305              		.loc 1 623 0 is_stmt 1
 2306 0062 4748     		ldr	r0, .L101+4
 2307 0064 FFF7FEFF 		bl	OS_TIMER_Restart
 624:..\Application/OS_Main.c ****     char c = UART_Linux_GetChar();
 2308              		.loc 1 624 0
ARM GAS  C:\Users\ali\AppData\Local\Temp\ccr9QJbk.s 			page 58


 2309 0068 FFF7FEFF 		bl	UART_Linux_GetChar
 2310 006c 0346     		mov	r3, r0
 2311 006e FB71     		strb	r3, [r7, #7]
 625:..\Application/OS_Main.c ****     
 626:..\Application/OS_Main.c ****     if(c == '\0'){  
 2312              		.loc 1 626 0
 2313 0070 FB79     		ldrb	r3, [r7, #7]	@ zero_extendqisi2
 2314 0072 002B     		cmp	r3, #0
 2315 0074 1CD1     		bne	.L91
 627:..\Application/OS_Main.c ****         UART_Linux_Rx_Buffer[UART_Linux_Rx_Counter] = c;
 2316              		.loc 1 627 0
 2317 0076 434B     		ldr	r3, .L101+8
 2318 0078 1B68     		ldr	r3, [r3]
 2319 007a 4349     		ldr	r1, .L101+12
 2320 007c FA79     		ldrb	r2, [r7, #7]
 2321 007e CA54     		strb	r2, [r1, r3]
 628:..\Application/OS_Main.c ****         UART_Linux_Rx_Counter++;
 2322              		.loc 1 628 0
 2323 0080 404B     		ldr	r3, .L101+8
 2324 0082 1B68     		ldr	r3, [r3]
 2325 0084 0133     		adds	r3, r3, #1
 2326 0086 3F4A     		ldr	r2, .L101+8
 2327 0088 1360     		str	r3, [r2]
 629:..\Application/OS_Main.c **** 
 630:..\Application/OS_Main.c ****         CmdTask(UART_Linux_Rx_Buffer);
 2328              		.loc 1 630 0
 2329 008a 3F48     		ldr	r0, .L101+12
 2330 008c FFF7FEFF 		bl	CmdTask
 631:..\Application/OS_Main.c ****         OS_TIMER_Stop(&Timer_Read_Linux);
 2331              		.loc 1 631 0
 2332 0090 3B48     		ldr	r0, .L101+4
 2333 0092 FFF7FEFF 		bl	OS_TIMER_Stop
 632:..\Application/OS_Main.c ****         
 633:..\Application/OS_Main.c ****         memset(UART_Linux_Rx_Buffer, '\0', UART_Linux_Rx_Counter);
 2334              		.loc 1 633 0
 2335 0096 3B4B     		ldr	r3, .L101+8
 2336 0098 1B68     		ldr	r3, [r3]
 2337 009a 1A46     		mov	r2, r3
 2338 009c 0021     		movs	r1, #0
 2339 009e 3A48     		ldr	r0, .L101+12
 2340 00a0 FFF7FEFF 		bl	memset
 634:..\Application/OS_Main.c ****         CyWdtClear(); 
 2341              		.loc 1 634 0
 2342 00a4 FFF7FEFF 		bl	CyWdtClear
 635:..\Application/OS_Main.c ****         UART_Linux_Rx_Counter = 0;
 2343              		.loc 1 635 0
 2344 00a8 364B     		ldr	r3, .L101+8
 2345 00aa 0022     		movs	r2, #0
 2346 00ac 1A60     		str	r2, [r3]
 2347 00ae 09E0     		b	.L92
 2348              	.L91:
 636:..\Application/OS_Main.c ****     }
 637:..\Application/OS_Main.c ****     else{
 638:..\Application/OS_Main.c ****         UART_Linux_Rx_Buffer[UART_Linux_Rx_Counter] = c;
 2349              		.loc 1 638 0
 2350 00b0 344B     		ldr	r3, .L101+8
 2351 00b2 1B68     		ldr	r3, [r3]
ARM GAS  C:\Users\ali\AppData\Local\Temp\ccr9QJbk.s 			page 59


 2352 00b4 3449     		ldr	r1, .L101+12
 2353 00b6 FA79     		ldrb	r2, [r7, #7]
 2354 00b8 CA54     		strb	r2, [r1, r3]
 639:..\Application/OS_Main.c ****         UART_Linux_Rx_Counter++;
 2355              		.loc 1 639 0
 2356 00ba 324B     		ldr	r3, .L101+8
 2357 00bc 1B68     		ldr	r3, [r3]
 2358 00be 0133     		adds	r3, r3, #1
 2359 00c0 304A     		ldr	r2, .L101+8
 2360 00c2 1360     		str	r3, [r2]
 2361              	.L92:
 640:..\Application/OS_Main.c ****     }
 641:..\Application/OS_Main.c ****     
 642:..\Application/OS_Main.c ****     OS_INT_Leave();
 2362              		.loc 1 642 0
 2363 00c4 2D4B     		ldr	r3, .L101
 2364 00c6 1B78     		ldrb	r3, [r3]
 2365 00c8 DBB2     		uxtb	r3, r3
 2366 00ca 012B     		cmp	r3, #1
 2367 00cc 0CD1     		bne	.L93
 2368              		.loc 1 642 0 is_stmt 0 discriminator 1
 2369 00ce 2B4B     		ldr	r3, .L101
 2370 00d0 5B68     		ldr	r3, [r3, #4]
 2371 00d2 002B     		cmp	r3, #0
 2372 00d4 08D0     		beq	.L93
 2373              		.loc 1 642 0 discriminator 3
 2374 00d6 294B     		ldr	r3, .L101
 2375 00d8 DB6B     		ldr	r3, [r3, #60]
 2376 00da 002B     		cmp	r3, #0
 2377 00dc 0CD0     		beq	.L95
 2378              		.loc 1 642 0 discriminator 5
 2379 00de 274B     		ldr	r3, .L101
 2380 00e0 DB6B     		ldr	r3, [r3, #60]
 2381 00e2 9B68     		ldr	r3, [r3, #8]
 2382 00e4 9847     		blx	r3
 2383 00e6 07E0     		b	.L95
 2384              	.L93:
 2385              		.loc 1 642 0 discriminator 4
 2386 00e8 244B     		ldr	r3, .L101
 2387 00ea DB6B     		ldr	r3, [r3, #60]
 2388 00ec 002B     		cmp	r3, #0
 2389 00ee 03D0     		beq	.L95
 2390              		.loc 1 642 0 discriminator 6
 2391 00f0 224B     		ldr	r3, .L101
 2392 00f2 DB6B     		ldr	r3, [r3, #60]
 2393 00f4 5B68     		ldr	r3, [r3, #4]
 2394 00f6 9847     		blx	r3
 2395              	.L95:
 2396              		.loc 1 642 0 discriminator 8
 2397 00f8 204B     		ldr	r3, .L101
 2398 00fa 5B78     		ldrb	r3, [r3, #1]
 2399 00fc DBB2     		uxtb	r3, r3
 2400 00fe 013B     		subs	r3, r3, #1
 2401 0100 DAB2     		uxtb	r2, r3
 2402 0102 1E4B     		ldr	r3, .L101
 2403 0104 5A70     		strb	r2, [r3, #1]
 2404 0106 1D4B     		ldr	r3, .L101
ARM GAS  C:\Users\ali\AppData\Local\Temp\ccr9QJbk.s 			page 60


 2405 0108 1B78     		ldrb	r3, [r3]
 2406 010a DBB2     		uxtb	r3, r3
 2407 010c 012B     		cmp	r3, #1
 2408 010e 16D1     		bne	.L96
 2409              		.loc 1 642 0 discriminator 9
 2410 0110 1A4B     		ldr	r3, .L101
 2411 0112 5B68     		ldr	r3, [r3, #4]
 2412 0114 002B     		cmp	r3, #0
 2413 0116 12D0     		beq	.L96
 2414              		.loc 1 642 0 discriminator 11
 2415 0118 184B     		ldr	r3, .L101
 2416 011a 93F87730 		ldrb	r3, [r3, #119]	@ zero_extendqisi2
 2417 011e 002B     		cmp	r3, #0
 2418 0120 02D1     		bne	.L97
 2419              		.loc 1 642 0 discriminator 13
 2420 0122 9820     		movs	r0, #152
 2421 0124 FFF7FEFF 		bl	OS_Error
 2422              	.L97:
 2423              		.loc 1 642 0 discriminator 15
 2424 0128 144B     		ldr	r3, .L101
 2425 012a 93F87730 		ldrb	r3, [r3, #119]	@ zero_extendqisi2
 2426 012e 013B     		subs	r3, r3, #1
 2427 0130 DAB2     		uxtb	r2, r3
 2428 0132 124B     		ldr	r3, .L101
 2429 0134 83F87720 		strb	r2, [r3, #119]
 2430 0138 FFF7FEFF 		bl	OS_SwitchFromInt
 2431 013c 0FE0     		b	.L98
 2432              	.L96:
 2433              		.loc 1 642 0 discriminator 12
 2434 013e 0F4B     		ldr	r3, .L101
 2435 0140 93F87730 		ldrb	r3, [r3, #119]	@ zero_extendqisi2
 2436 0144 002B     		cmp	r3, #0
 2437 0146 02D1     		bne	.L99
 2438              		.loc 1 642 0 discriminator 17
 2439 0148 9820     		movs	r0, #152
 2440 014a FFF7FEFF 		bl	OS_Error
 2441              	.L99:
 2442              		.loc 1 642 0 discriminator 19
 2443 014e 0B4B     		ldr	r3, .L101
 2444 0150 93F87730 		ldrb	r3, [r3, #119]	@ zero_extendqisi2
 2445 0154 013B     		subs	r3, r3, #1
 2446 0156 DAB2     		uxtb	r2, r3
 2447 0158 084B     		ldr	r3, .L101
 2448 015a 83F87720 		strb	r2, [r3, #119]
 2449              	.L98:
 2450              		.loc 1 642 0 discriminator 20
 2451 015e 074B     		ldr	r3, .L101
 2452 0160 1B78     		ldrb	r3, [r3]
 2453 0162 DBB2     		uxtb	r3, r3
 2454 0164 013B     		subs	r3, r3, #1
 2455 0166 DAB2     		uxtb	r2, r3
 2456 0168 044B     		ldr	r3, .L101
 2457 016a 1A70     		strb	r2, [r3]
 2458              		.syntax unified
 2459              	@ 642 "..\Application\OS_Main.c" 1
 2460 016c 4FF00000 		mov  r0, #0      
 2461 0170 80F31188 		msr  basepri, r0 
ARM GAS  C:\Users\ali\AppData\Local\Temp\ccr9QJbk.s 			page 61


 2462              		
 2463              	@ 0 "" 2
 643:..\Application/OS_Main.c ****     return;
 2464              		.loc 1 643 0 is_stmt 1 discriminator 20
 2465              		.thumb
 2466              		.syntax unified
 2467 0174 00BF     		nop
 644:..\Application/OS_Main.c ****     
 645:..\Application/OS_Main.c **** }
 2468              		.loc 1 645 0 discriminator 20
 2469 0176 0837     		adds	r7, r7, #8
 2470              		.cfi_def_cfa_offset 8
 2471 0178 BD46     		mov	sp, r7
 2472              		.cfi_def_cfa_register 13
 2473              		@ sp needed
 2474 017a 80BD     		pop	{r7, pc}
 2475              	.L102:
 2476              		.align	2
 2477              	.L101:
 2478 017c 00000000 		.word	OS_Global
 2479 0180 00000000 		.word	Timer_Read_Linux
 2480 0184 00000000 		.word	UART_Linux_Rx_Counter
 2481 0188 00000000 		.word	UART_Linux_Rx_Buffer
 2482              		.cfi_endproc
 2483              	.LFE67:
 2484              		.size	UART_Linux_Rx_ISR, .-UART_Linux_Rx_ISR
 2485              		.section	.text.Port1_ISR,"ax",%progbits
 2486              		.align	2
 2487              		.global	Port1_ISR
 2488              		.thumb
 2489              		.thumb_func
 2490              		.type	Port1_ISR, %function
 2491              	Port1_ISR:
 2492              	.LFB68:
 646:..\Application/OS_Main.c **** 
 647:..\Application/OS_Main.c **** CY_ISR(Port1_ISR)
 648:..\Application/OS_Main.c **** {
 2493              		.loc 1 648 0
 2494              		.cfi_startproc
 2495              		@ args = 0, pretend = 0, frame = 8
 2496              		@ frame_needed = 1, uses_anonymous_args = 0
 2497 0000 80B5     		push	{r7, lr}
 2498              		.cfi_def_cfa_offset 8
 2499              		.cfi_offset 7, -8
 2500              		.cfi_offset 14, -4
 2501 0002 82B0     		sub	sp, sp, #8
 2502              		.cfi_def_cfa_offset 16
 2503 0004 00AF     		add	r7, sp, #0
 2504              		.cfi_def_cfa_register 7
 649:..\Application/OS_Main.c **** //    CyGlobalIntDisable;
 650:..\Application/OS_Main.c ****     OS_INT_Enter();
 2505              		.loc 1 650 0
 2506 0006 494B     		ldr	r3, .L114
 2507 0008 93F87830 		ldrb	r3, [r3, #120]	@ zero_extendqisi2
 2508 000c 002B     		cmp	r3, #0
 2509 000e 02D1     		bne	.L104
 2510              		.loc 1 650 0 is_stmt 0 discriminator 1
ARM GAS  C:\Users\ali\AppData\Local\Temp\ccr9QJbk.s 			page 62


 2511 0010 A520     		movs	r0, #165
 2512 0012 FFF7FEFF 		bl	OS_Error
 2513              	.L104:
 2514              		.loc 1 650 0 discriminator 3
 2515 0016 454B     		ldr	r3, .L114
 2516 0018 93F87730 		ldrb	r3, [r3, #119]	@ zero_extendqisi2
 2517 001c 0133     		adds	r3, r3, #1
 2518 001e DAB2     		uxtb	r2, r3
 2519 0020 424B     		ldr	r3, .L114
 2520 0022 83F87720 		strb	r2, [r3, #119]
 2521 0026 FFF7FEFF 		bl	OS_AssertCPUInISRMode
 2522              		.syntax unified
 2523              	@ 650 "..\Application\OS_Main.c" 1
 2524 002a 4FF08000 		mov  r0, #128    
 2525 002e 80F31188 		msr  basepri, r0 
 2526 0032 00BF     		nop              
 2527 0034 00BF     		nop              
 2528              		
 2529              	@ 0 "" 2
 2530              		.thumb
 2531              		.syntax unified
 2532 0036 3D4B     		ldr	r3, .L114
 2533 0038 1B78     		ldrb	r3, [r3]
 2534 003a DBB2     		uxtb	r3, r3
 2535 003c 0133     		adds	r3, r3, #1
 2536 003e DAB2     		uxtb	r2, r3
 2537 0040 3A4B     		ldr	r3, .L114
 2538 0042 1A70     		strb	r2, [r3]
 2539 0044 394B     		ldr	r3, .L114
 2540 0046 5B78     		ldrb	r3, [r3, #1]
 2541 0048 DBB2     		uxtb	r3, r3
 2542 004a 0133     		adds	r3, r3, #1
 2543 004c DAB2     		uxtb	r2, r3
 2544 004e 374B     		ldr	r3, .L114
 2545 0050 5A70     		strb	r2, [r3, #1]
 2546 0052 364B     		ldr	r3, .L114
 2547 0054 DB6B     		ldr	r3, [r3, #60]
 2548 0056 002B     		cmp	r3, #0
 2549 0058 03D0     		beq	.L105
 2550              		.loc 1 650 0 discriminator 4
 2551 005a 344B     		ldr	r3, .L114
 2552 005c DB6B     		ldr	r3, [r3, #60]
 2553 005e 1B68     		ldr	r3, [r3]
 2554 0060 9847     		blx	r3
 2555              	.L105:
 651:..\Application/OS_Main.c **** 
 652:..\Application/OS_Main.c ****     uint8 intr = Pins_Port1_ClearInterrupt();
 2556              		.loc 1 652 0 is_stmt 1
 2557 0062 FFF7FEFF 		bl	Pins_Port1_ClearInterrupt
 2558 0066 0346     		mov	r3, r0
 2559 0068 FB71     		strb	r3, [r7, #7]
 653:..\Application/OS_Main.c ****     
 654:..\Application/OS_Main.c ****     Port1_Job(intr);
 2560              		.loc 1 654 0
 2561 006a FB79     		ldrb	r3, [r7, #7]	@ zero_extendqisi2
 2562 006c 1846     		mov	r0, r3
 2563 006e FFF7FEFF 		bl	Port1_Job
ARM GAS  C:\Users\ali\AppData\Local\Temp\ccr9QJbk.s 			page 63


 655:..\Application/OS_Main.c ****     
 656:..\Application/OS_Main.c ****     OS_INT_Leave();
 2564              		.loc 1 656 0
 2565 0072 2E4B     		ldr	r3, .L114
 2566 0074 1B78     		ldrb	r3, [r3]
 2567 0076 DBB2     		uxtb	r3, r3
 2568 0078 012B     		cmp	r3, #1
 2569 007a 0CD1     		bne	.L106
 2570              		.loc 1 656 0 is_stmt 0 discriminator 1
 2571 007c 2B4B     		ldr	r3, .L114
 2572 007e 5B68     		ldr	r3, [r3, #4]
 2573 0080 002B     		cmp	r3, #0
 2574 0082 08D0     		beq	.L106
 2575              		.loc 1 656 0 discriminator 3
 2576 0084 294B     		ldr	r3, .L114
 2577 0086 DB6B     		ldr	r3, [r3, #60]
 2578 0088 002B     		cmp	r3, #0
 2579 008a 0CD0     		beq	.L108
 2580              		.loc 1 656 0 discriminator 5
 2581 008c 274B     		ldr	r3, .L114
 2582 008e DB6B     		ldr	r3, [r3, #60]
 2583 0090 9B68     		ldr	r3, [r3, #8]
 2584 0092 9847     		blx	r3
 2585 0094 07E0     		b	.L108
 2586              	.L106:
 2587              		.loc 1 656 0 discriminator 4
 2588 0096 254B     		ldr	r3, .L114
 2589 0098 DB6B     		ldr	r3, [r3, #60]
 2590 009a 002B     		cmp	r3, #0
 2591 009c 03D0     		beq	.L108
 2592              		.loc 1 656 0 discriminator 6
 2593 009e 234B     		ldr	r3, .L114
 2594 00a0 DB6B     		ldr	r3, [r3, #60]
 2595 00a2 5B68     		ldr	r3, [r3, #4]
 2596 00a4 9847     		blx	r3
 2597              	.L108:
 2598              		.loc 1 656 0 discriminator 8
 2599 00a6 214B     		ldr	r3, .L114
 2600 00a8 5B78     		ldrb	r3, [r3, #1]
 2601 00aa DBB2     		uxtb	r3, r3
 2602 00ac 013B     		subs	r3, r3, #1
 2603 00ae DAB2     		uxtb	r2, r3
 2604 00b0 1E4B     		ldr	r3, .L114
 2605 00b2 5A70     		strb	r2, [r3, #1]
 2606 00b4 1D4B     		ldr	r3, .L114
 2607 00b6 1B78     		ldrb	r3, [r3]
 2608 00b8 DBB2     		uxtb	r3, r3
 2609 00ba 012B     		cmp	r3, #1
 2610 00bc 16D1     		bne	.L109
 2611              		.loc 1 656 0 discriminator 9
 2612 00be 1B4B     		ldr	r3, .L114
 2613 00c0 5B68     		ldr	r3, [r3, #4]
 2614 00c2 002B     		cmp	r3, #0
 2615 00c4 12D0     		beq	.L109
 2616              		.loc 1 656 0 discriminator 11
 2617 00c6 194B     		ldr	r3, .L114
 2618 00c8 93F87730 		ldrb	r3, [r3, #119]	@ zero_extendqisi2
ARM GAS  C:\Users\ali\AppData\Local\Temp\ccr9QJbk.s 			page 64


 2619 00cc 002B     		cmp	r3, #0
 2620 00ce 02D1     		bne	.L110
 2621              		.loc 1 656 0 discriminator 13
 2622 00d0 9820     		movs	r0, #152
 2623 00d2 FFF7FEFF 		bl	OS_Error
 2624              	.L110:
 2625              		.loc 1 656 0 discriminator 15
 2626 00d6 154B     		ldr	r3, .L114
 2627 00d8 93F87730 		ldrb	r3, [r3, #119]	@ zero_extendqisi2
 2628 00dc 013B     		subs	r3, r3, #1
 2629 00de DAB2     		uxtb	r2, r3
 2630 00e0 124B     		ldr	r3, .L114
 2631 00e2 83F87720 		strb	r2, [r3, #119]
 2632 00e6 FFF7FEFF 		bl	OS_SwitchFromInt
 2633 00ea 0FE0     		b	.L111
 2634              	.L109:
 2635              		.loc 1 656 0 discriminator 12
 2636 00ec 0F4B     		ldr	r3, .L114
 2637 00ee 93F87730 		ldrb	r3, [r3, #119]	@ zero_extendqisi2
 2638 00f2 002B     		cmp	r3, #0
 2639 00f4 02D1     		bne	.L112
 2640              		.loc 1 656 0 discriminator 17
 2641 00f6 9820     		movs	r0, #152
 2642 00f8 FFF7FEFF 		bl	OS_Error
 2643              	.L112:
 2644              		.loc 1 656 0 discriminator 19
 2645 00fc 0B4B     		ldr	r3, .L114
 2646 00fe 93F87730 		ldrb	r3, [r3, #119]	@ zero_extendqisi2
 2647 0102 013B     		subs	r3, r3, #1
 2648 0104 DAB2     		uxtb	r2, r3
 2649 0106 094B     		ldr	r3, .L114
 2650 0108 83F87720 		strb	r2, [r3, #119]
 2651              	.L111:
 2652              		.loc 1 656 0 discriminator 20
 2653 010c 074B     		ldr	r3, .L114
 2654 010e 1B78     		ldrb	r3, [r3]
 2655 0110 DBB2     		uxtb	r3, r3
 2656 0112 013B     		subs	r3, r3, #1
 2657 0114 DAB2     		uxtb	r2, r3
 2658 0116 054B     		ldr	r3, .L114
 2659 0118 1A70     		strb	r2, [r3]
 2660              		.syntax unified
 2661              	@ 656 "..\Application\OS_Main.c" 1
 2662 011a 4FF00000 		mov  r0, #0      
 2663 011e 80F31188 		msr  basepri, r0 
 2664              		
 2665              	@ 0 "" 2
 657:..\Application/OS_Main.c **** //     CyGlobalIntEnable;
 658:..\Application/OS_Main.c ****     return;
 2666              		.loc 1 658 0 is_stmt 1 discriminator 20
 2667              		.thumb
 2668              		.syntax unified
 2669 0122 00BF     		nop
 659:..\Application/OS_Main.c **** }
 2670              		.loc 1 659 0 discriminator 20
 2671 0124 0837     		adds	r7, r7, #8
 2672              		.cfi_def_cfa_offset 8
ARM GAS  C:\Users\ali\AppData\Local\Temp\ccr9QJbk.s 			page 65


 2673 0126 BD46     		mov	sp, r7
 2674              		.cfi_def_cfa_register 13
 2675              		@ sp needed
 2676 0128 80BD     		pop	{r7, pc}
 2677              	.L115:
 2678 012a 00BF     		.align	2
 2679              	.L114:
 2680 012c 00000000 		.word	OS_Global
 2681              		.cfi_endproc
 2682              	.LFE68:
 2683              		.size	Port1_ISR, .-Port1_ISR
 2684              		.section	.text.Port2_ISR,"ax",%progbits
 2685              		.align	2
 2686              		.global	Port2_ISR
 2687              		.thumb
 2688              		.thumb_func
 2689              		.type	Port2_ISR, %function
 2690              	Port2_ISR:
 2691              	.LFB69:
 660:..\Application/OS_Main.c **** 
 661:..\Application/OS_Main.c **** CY_ISR(Port2_ISR)
 662:..\Application/OS_Main.c **** {
 2692              		.loc 1 662 0
 2693              		.cfi_startproc
 2694              		@ args = 0, pretend = 0, frame = 8
 2695              		@ frame_needed = 1, uses_anonymous_args = 0
 2696 0000 80B5     		push	{r7, lr}
 2697              		.cfi_def_cfa_offset 8
 2698              		.cfi_offset 7, -8
 2699              		.cfi_offset 14, -4
 2700 0002 82B0     		sub	sp, sp, #8
 2701              		.cfi_def_cfa_offset 16
 2702 0004 00AF     		add	r7, sp, #0
 2703              		.cfi_def_cfa_register 7
 663:..\Application/OS_Main.c **** //    CyGlobalIntDisable;
 664:..\Application/OS_Main.c ****     OS_INT_Enter();
 2704              		.loc 1 664 0
 2705 0006 494B     		ldr	r3, .L127
 2706 0008 93F87830 		ldrb	r3, [r3, #120]	@ zero_extendqisi2
 2707 000c 002B     		cmp	r3, #0
 2708 000e 02D1     		bne	.L117
 2709              		.loc 1 664 0 is_stmt 0 discriminator 1
 2710 0010 A520     		movs	r0, #165
 2711 0012 FFF7FEFF 		bl	OS_Error
 2712              	.L117:
 2713              		.loc 1 664 0 discriminator 3
 2714 0016 454B     		ldr	r3, .L127
 2715 0018 93F87730 		ldrb	r3, [r3, #119]	@ zero_extendqisi2
 2716 001c 0133     		adds	r3, r3, #1
 2717 001e DAB2     		uxtb	r2, r3
 2718 0020 424B     		ldr	r3, .L127
 2719 0022 83F87720 		strb	r2, [r3, #119]
 2720 0026 FFF7FEFF 		bl	OS_AssertCPUInISRMode
 2721              		.syntax unified
 2722              	@ 664 "..\Application\OS_Main.c" 1
 2723 002a 4FF08000 		mov  r0, #128    
 2724 002e 80F31188 		msr  basepri, r0 
ARM GAS  C:\Users\ali\AppData\Local\Temp\ccr9QJbk.s 			page 66


 2725 0032 00BF     		nop              
 2726 0034 00BF     		nop              
 2727              		
 2728              	@ 0 "" 2
 2729              		.thumb
 2730              		.syntax unified
 2731 0036 3D4B     		ldr	r3, .L127
 2732 0038 1B78     		ldrb	r3, [r3]
 2733 003a DBB2     		uxtb	r3, r3
 2734 003c 0133     		adds	r3, r3, #1
 2735 003e DAB2     		uxtb	r2, r3
 2736 0040 3A4B     		ldr	r3, .L127
 2737 0042 1A70     		strb	r2, [r3]
 2738 0044 394B     		ldr	r3, .L127
 2739 0046 5B78     		ldrb	r3, [r3, #1]
 2740 0048 DBB2     		uxtb	r3, r3
 2741 004a 0133     		adds	r3, r3, #1
 2742 004c DAB2     		uxtb	r2, r3
 2743 004e 374B     		ldr	r3, .L127
 2744 0050 5A70     		strb	r2, [r3, #1]
 2745 0052 364B     		ldr	r3, .L127
 2746 0054 DB6B     		ldr	r3, [r3, #60]
 2747 0056 002B     		cmp	r3, #0
 2748 0058 03D0     		beq	.L118
 2749              		.loc 1 664 0 discriminator 4
 2750 005a 344B     		ldr	r3, .L127
 2751 005c DB6B     		ldr	r3, [r3, #60]
 2752 005e 1B68     		ldr	r3, [r3]
 2753 0060 9847     		blx	r3
 2754              	.L118:
 665:..\Application/OS_Main.c ****     
 666:..\Application/OS_Main.c ****     uint8 intr = Pins_Port2_ClearInterrupt();
 2755              		.loc 1 666 0 is_stmt 1
 2756 0062 FFF7FEFF 		bl	Pins_Port2_ClearInterrupt
 2757 0066 0346     		mov	r3, r0
 2758 0068 FB71     		strb	r3, [r7, #7]
 667:..\Application/OS_Main.c ****     
 668:..\Application/OS_Main.c ****     Port2_Job(intr);
 2759              		.loc 1 668 0
 2760 006a FB79     		ldrb	r3, [r7, #7]	@ zero_extendqisi2
 2761 006c 1846     		mov	r0, r3
 2762 006e FFF7FEFF 		bl	Port2_Job
 669:..\Application/OS_Main.c ****     
 670:..\Application/OS_Main.c ****     OS_INT_Leave();
 2763              		.loc 1 670 0
 2764 0072 2E4B     		ldr	r3, .L127
 2765 0074 1B78     		ldrb	r3, [r3]
 2766 0076 DBB2     		uxtb	r3, r3
 2767 0078 012B     		cmp	r3, #1
 2768 007a 0CD1     		bne	.L119
 2769              		.loc 1 670 0 is_stmt 0 discriminator 1
 2770 007c 2B4B     		ldr	r3, .L127
 2771 007e 5B68     		ldr	r3, [r3, #4]
 2772 0080 002B     		cmp	r3, #0
 2773 0082 08D0     		beq	.L119
 2774              		.loc 1 670 0 discriminator 3
 2775 0084 294B     		ldr	r3, .L127
ARM GAS  C:\Users\ali\AppData\Local\Temp\ccr9QJbk.s 			page 67


 2776 0086 DB6B     		ldr	r3, [r3, #60]
 2777 0088 002B     		cmp	r3, #0
 2778 008a 0CD0     		beq	.L121
 2779              		.loc 1 670 0 discriminator 5
 2780 008c 274B     		ldr	r3, .L127
 2781 008e DB6B     		ldr	r3, [r3, #60]
 2782 0090 9B68     		ldr	r3, [r3, #8]
 2783 0092 9847     		blx	r3
 2784 0094 07E0     		b	.L121
 2785              	.L119:
 2786              		.loc 1 670 0 discriminator 4
 2787 0096 254B     		ldr	r3, .L127
 2788 0098 DB6B     		ldr	r3, [r3, #60]
 2789 009a 002B     		cmp	r3, #0
 2790 009c 03D0     		beq	.L121
 2791              		.loc 1 670 0 discriminator 6
 2792 009e 234B     		ldr	r3, .L127
 2793 00a0 DB6B     		ldr	r3, [r3, #60]
 2794 00a2 5B68     		ldr	r3, [r3, #4]
 2795 00a4 9847     		blx	r3
 2796              	.L121:
 2797              		.loc 1 670 0 discriminator 8
 2798 00a6 214B     		ldr	r3, .L127
 2799 00a8 5B78     		ldrb	r3, [r3, #1]
 2800 00aa DBB2     		uxtb	r3, r3
 2801 00ac 013B     		subs	r3, r3, #1
 2802 00ae DAB2     		uxtb	r2, r3
 2803 00b0 1E4B     		ldr	r3, .L127
 2804 00b2 5A70     		strb	r2, [r3, #1]
 2805 00b4 1D4B     		ldr	r3, .L127
 2806 00b6 1B78     		ldrb	r3, [r3]
 2807 00b8 DBB2     		uxtb	r3, r3
 2808 00ba 012B     		cmp	r3, #1
 2809 00bc 16D1     		bne	.L122
 2810              		.loc 1 670 0 discriminator 9
 2811 00be 1B4B     		ldr	r3, .L127
 2812 00c0 5B68     		ldr	r3, [r3, #4]
 2813 00c2 002B     		cmp	r3, #0
 2814 00c4 12D0     		beq	.L122
 2815              		.loc 1 670 0 discriminator 11
 2816 00c6 194B     		ldr	r3, .L127
 2817 00c8 93F87730 		ldrb	r3, [r3, #119]	@ zero_extendqisi2
 2818 00cc 002B     		cmp	r3, #0
 2819 00ce 02D1     		bne	.L123
 2820              		.loc 1 670 0 discriminator 13
 2821 00d0 9820     		movs	r0, #152
 2822 00d2 FFF7FEFF 		bl	OS_Error
 2823              	.L123:
 2824              		.loc 1 670 0 discriminator 15
 2825 00d6 154B     		ldr	r3, .L127
 2826 00d8 93F87730 		ldrb	r3, [r3, #119]	@ zero_extendqisi2
 2827 00dc 013B     		subs	r3, r3, #1
 2828 00de DAB2     		uxtb	r2, r3
 2829 00e0 124B     		ldr	r3, .L127
 2830 00e2 83F87720 		strb	r2, [r3, #119]
 2831 00e6 FFF7FEFF 		bl	OS_SwitchFromInt
 2832 00ea 0FE0     		b	.L124
ARM GAS  C:\Users\ali\AppData\Local\Temp\ccr9QJbk.s 			page 68


 2833              	.L122:
 2834              		.loc 1 670 0 discriminator 12
 2835 00ec 0F4B     		ldr	r3, .L127
 2836 00ee 93F87730 		ldrb	r3, [r3, #119]	@ zero_extendqisi2
 2837 00f2 002B     		cmp	r3, #0
 2838 00f4 02D1     		bne	.L125
 2839              		.loc 1 670 0 discriminator 17
 2840 00f6 9820     		movs	r0, #152
 2841 00f8 FFF7FEFF 		bl	OS_Error
 2842              	.L125:
 2843              		.loc 1 670 0 discriminator 19
 2844 00fc 0B4B     		ldr	r3, .L127
 2845 00fe 93F87730 		ldrb	r3, [r3, #119]	@ zero_extendqisi2
 2846 0102 013B     		subs	r3, r3, #1
 2847 0104 DAB2     		uxtb	r2, r3
 2848 0106 094B     		ldr	r3, .L127
 2849 0108 83F87720 		strb	r2, [r3, #119]
 2850              	.L124:
 2851              		.loc 1 670 0 discriminator 20
 2852 010c 074B     		ldr	r3, .L127
 2853 010e 1B78     		ldrb	r3, [r3]
 2854 0110 DBB2     		uxtb	r3, r3
 2855 0112 013B     		subs	r3, r3, #1
 2856 0114 DAB2     		uxtb	r2, r3
 2857 0116 054B     		ldr	r3, .L127
 2858 0118 1A70     		strb	r2, [r3]
 2859              		.syntax unified
 2860              	@ 670 "..\Application\OS_Main.c" 1
 2861 011a 4FF00000 		mov  r0, #0      
 2862 011e 80F31188 		msr  basepri, r0 
 2863              		
 2864              	@ 0 "" 2
 671:..\Application/OS_Main.c **** //    CyGlobalIntEnable;
 672:..\Application/OS_Main.c ****     return;
 2865              		.loc 1 672 0 is_stmt 1 discriminator 20
 2866              		.thumb
 2867              		.syntax unified
 2868 0122 00BF     		nop
 673:..\Application/OS_Main.c **** }
 2869              		.loc 1 673 0 discriminator 20
 2870 0124 0837     		adds	r7, r7, #8
 2871              		.cfi_def_cfa_offset 8
 2872 0126 BD46     		mov	sp, r7
 2873              		.cfi_def_cfa_register 13
 2874              		@ sp needed
 2875 0128 80BD     		pop	{r7, pc}
 2876              	.L128:
 2877 012a 00BF     		.align	2
 2878              	.L127:
 2879 012c 00000000 		.word	OS_Global
 2880              		.cfi_endproc
 2881              	.LFE69:
 2882              		.size	Port2_ISR, .-Port2_ISR
 2883              		.section	.rodata
 2884 03fe 0000     		.align	2
 2885              	.LC44:
 2886 0400 6C696E75 		.ascii	"linux_uart_failure = %lu\015\012\000"
ARM GAS  C:\Users\ali\AppData\Local\Temp\ccr9QJbk.s 			page 69


 2886      785F7561 
 2886      72745F66 
 2886      61696C75 
 2886      7265203D 
 2887 041b 00       		.align	2
 2888              	.LC45:
 2889 041c 2A2A2A2A 		.ascii	"****************************\015\012\000"
 2889      2A2A2A2A 
 2889      2A2A2A2A 
 2889      2A2A2A2A 
 2889      2A2A2A2A 
 2890 043b 00       		.align	2
 2891              	.LC46:
 2892 043c 54696D65 		.ascii	"Timer_Read_Linux_Callback\015\012\000"
 2892      725F5265 
 2892      61645F4C 
 2892      696E7578 
 2892      5F43616C 
 2893              		.section	.text.Timer_Read_Linux_Callback,"ax",%progbits
 2894              		.align	2
 2895              		.global	Timer_Read_Linux_Callback
 2896              		.thumb
 2897              		.thumb_func
 2898              		.type	Timer_Read_Linux_Callback, %function
 2899              	Timer_Read_Linux_Callback:
 2900              	.LFB70:
 674:..\Application/OS_Main.c **** 
 675:..\Application/OS_Main.c **** 
 676:..\Application/OS_Main.c **** //Callbacks
 677:..\Application/OS_Main.c **** void Timer_Read_Linux_Callback()
 678:..\Application/OS_Main.c **** {
 2901              		.loc 1 678 0
 2902              		.cfi_startproc
 2903              		@ args = 0, pretend = 0, frame = 128
 2904              		@ frame_needed = 1, uses_anonymous_args = 0
 2905 0000 80B5     		push	{r7, lr}
 2906              		.cfi_def_cfa_offset 8
 2907              		.cfi_offset 7, -8
 2908              		.cfi_offset 14, -4
 2909 0002 A0B0     		sub	sp, sp, #128
 2910              		.cfi_def_cfa_offset 136
 2911 0004 00AF     		add	r7, sp, #0
 2912              		.cfi_def_cfa_register 7
 679:..\Application/OS_Main.c ****     OS_TIMER_Stop(&Timer_Read_Linux);
 2913              		.loc 1 679 0
 2914 0006 1848     		ldr	r0, .L131
 2915 0008 FFF7FEFF 		bl	OS_TIMER_Stop
 680:..\Application/OS_Main.c ****     
 681:..\Application/OS_Main.c ****     linux_uart_failure++;
 2916              		.loc 1 681 0
 2917 000c 174B     		ldr	r3, .L131+4
 2918 000e 1B68     		ldr	r3, [r3]
 2919 0010 0133     		adds	r3, r3, #1
 2920 0012 164A     		ldr	r2, .L131+4
 2921 0014 1360     		str	r3, [r2]
 682:..\Application/OS_Main.c ****     char data[128];
 683:..\Application/OS_Main.c ****     sprintf(data, "linux_uart_failure = %lu\r\n", linux_uart_failure);
ARM GAS  C:\Users\ali\AppData\Local\Temp\ccr9QJbk.s 			page 70


 2922              		.loc 1 683 0
 2923 0016 154B     		ldr	r3, .L131+4
 2924 0018 1A68     		ldr	r2, [r3]
 2925 001a 3B46     		mov	r3, r7
 2926 001c 1449     		ldr	r1, .L131+8
 2927 001e 1846     		mov	r0, r3
 2928 0020 FFF7FEFF 		bl	sprintf
 684:..\Application/OS_Main.c ****     
 685:..\Application/OS_Main.c ****     UART_Debug_PutString("****************************\r\n");
 2929              		.loc 1 685 0
 2930 0024 1348     		ldr	r0, .L131+12
 2931 0026 FFF7FEFF 		bl	UART_Debug_PutString
 686:..\Application/OS_Main.c ****     UART_Debug_PutString("Timer_Read_Linux_Callback\r\n");
 2932              		.loc 1 686 0
 2933 002a 1348     		ldr	r0, .L131+16
 2934 002c FFF7FEFF 		bl	UART_Debug_PutString
 687:..\Application/OS_Main.c ****     CyWdtClear(); 
 2935              		.loc 1 687 0
 2936 0030 FFF7FEFF 		bl	CyWdtClear
 688:..\Application/OS_Main.c ****     UART_Debug_PutString(data);
 2937              		.loc 1 688 0
 2938 0034 3B46     		mov	r3, r7
 2939 0036 1846     		mov	r0, r3
 2940 0038 FFF7FEFF 		bl	UART_Debug_PutString
 689:..\Application/OS_Main.c ****     UART_Debug_PutString("****************************\r\n");
 2941              		.loc 1 689 0
 2942 003c 0D48     		ldr	r0, .L131+12
 2943 003e FFF7FEFF 		bl	UART_Debug_PutString
 690:..\Application/OS_Main.c ****     CyWdtClear(); 
 2944              		.loc 1 690 0
 2945 0042 FFF7FEFF 		bl	CyWdtClear
 691:..\Application/OS_Main.c ****     
 692:..\Application/OS_Main.c ****     memset(UART_Linux_Rx_Buffer, '\0', UART_Linux_Rx_Counter);
 2946              		.loc 1 692 0
 2947 0046 0D4B     		ldr	r3, .L131+20
 2948 0048 1B68     		ldr	r3, [r3]
 2949 004a 1A46     		mov	r2, r3
 2950 004c 0021     		movs	r1, #0
 2951 004e 0C48     		ldr	r0, .L131+24
 2952 0050 FFF7FEFF 		bl	memset
 693:..\Application/OS_Main.c ****     CyWdtClear(); 
 2953              		.loc 1 693 0
 2954 0054 FFF7FEFF 		bl	CyWdtClear
 694:..\Application/OS_Main.c ****     UART_Linux_Rx_Counter = 0;
 2955              		.loc 1 694 0
 2956 0058 084B     		ldr	r3, .L131+20
 2957 005a 0022     		movs	r2, #0
 2958 005c 1A60     		str	r2, [r3]
 695:..\Application/OS_Main.c ****     
 696:..\Application/OS_Main.c ****     return;
 2959              		.loc 1 696 0
 2960 005e 00BF     		nop
 697:..\Application/OS_Main.c **** }
 2961              		.loc 1 697 0
 2962 0060 8037     		adds	r7, r7, #128
 2963              		.cfi_def_cfa_offset 8
 2964 0062 BD46     		mov	sp, r7
ARM GAS  C:\Users\ali\AppData\Local\Temp\ccr9QJbk.s 			page 71


 2965              		.cfi_def_cfa_register 13
 2966              		@ sp needed
 2967 0064 80BD     		pop	{r7, pc}
 2968              	.L132:
 2969 0066 00BF     		.align	2
 2970              	.L131:
 2971 0068 00000000 		.word	Timer_Read_Linux
 2972 006c 00000000 		.word	linux_uart_failure
 2973 0070 00040000 		.word	.LC44
 2974 0074 1C040000 		.word	.LC45
 2975 0078 3C040000 		.word	.LC46
 2976 007c 00000000 		.word	UART_Linux_Rx_Counter
 2977 0080 00000000 		.word	UART_Linux_Rx_Buffer
 2978              		.cfi_endproc
 2979              	.LFE70:
 2980              		.size	Timer_Read_Linux_Callback, .-Timer_Read_Linux_Callback
 2981              		.section	.rodata
 2982              		.align	2
 2983              	.LC47:
 2984 0458 54696D65 		.ascii	"Timer_RGB_LED_Callback --> RGB_Color = %d\015\012\000"
 2984      725F5247 
 2984      425F4C45 
 2984      445F4361 
 2984      6C6C6261 
 2985              		.section	.text.Timer_RGB_LED_Callback,"ax",%progbits
 2986              		.align	2
 2987              		.global	Timer_RGB_LED_Callback
 2988              		.thumb
 2989              		.thumb_func
 2990              		.type	Timer_RGB_LED_Callback, %function
 2991              	Timer_RGB_LED_Callback:
 2992              	.LFB71:
 698:..\Application/OS_Main.c **** 
 699:..\Application/OS_Main.c **** void Timer_RGB_LED_Callback()
 700:..\Application/OS_Main.c **** {
 2993              		.loc 1 700 0
 2994              		.cfi_startproc
 2995              		@ args = 0, pretend = 0, frame = 256
 2996              		@ frame_needed = 1, uses_anonymous_args = 0
 2997 0000 80B5     		push	{r7, lr}
 2998              		.cfi_def_cfa_offset 8
 2999              		.cfi_offset 7, -8
 3000              		.cfi_offset 14, -4
 3001 0002 C0B0     		sub	sp, sp, #256
 3002              		.cfi_def_cfa_offset 264
 3003 0004 00AF     		add	r7, sp, #0
 3004              		.cfi_def_cfa_register 7
 701:..\Application/OS_Main.c ****     OS_TIMER_Stop(&Timer_RGB_LED);
 3005              		.loc 1 701 0
 3006 0006 1648     		ldr	r0, .L136
 3007 0008 FFF7FEFF 		bl	OS_TIMER_Stop
 702:..\Application/OS_Main.c ****     
 703:..\Application/OS_Main.c ****     RGB_Color = 1;
 3008              		.loc 1 703 0
 3009 000c 154B     		ldr	r3, .L136+4
 3010 000e 0122     		movs	r2, #1
 3011 0010 1A70     		strb	r2, [r3]
ARM GAS  C:\Users\ali\AppData\Local\Temp\ccr9QJbk.s 			page 72


 704:..\Application/OS_Main.c ****     if(RGB_Color != RGB_Color_Old){
 3012              		.loc 1 704 0
 3013 0012 144B     		ldr	r3, .L136+4
 3014 0014 1A78     		ldrb	r2, [r3]	@ zero_extendqisi2
 3015 0016 144B     		ldr	r3, .L136+8
 3016 0018 1B78     		ldrb	r3, [r3]	@ zero_extendqisi2
 3017 001a 9A42     		cmp	r2, r3
 3018 001c 18D0     		beq	.L134
 3019              	.LBB14:
 705:..\Application/OS_Main.c ****         RGB_Color_Old = RGB_Color;
 3020              		.loc 1 705 0
 3021 001e 114B     		ldr	r3, .L136+4
 3022 0020 1A78     		ldrb	r2, [r3]	@ zero_extendqisi2
 3023 0022 114B     		ldr	r3, .L136+8
 3024 0024 1A70     		strb	r2, [r3]
 706:..\Application/OS_Main.c ****         RGB(RGB_Color);
 3025              		.loc 1 706 0
 3026 0026 0F4B     		ldr	r3, .L136+4
 3027 0028 1B78     		ldrb	r3, [r3]	@ zero_extendqisi2
 3028 002a 1846     		mov	r0, r3
 3029 002c FFF7FEFF 		bl	RGB
 707:..\Application/OS_Main.c ****         
 708:..\Application/OS_Main.c ****         char ss[256];
 709:..\Application/OS_Main.c ****         sprintf(ss, "Timer_RGB_LED_Callback --> RGB_Color = %d\r\n", RGB_Color);
 3030              		.loc 1 709 0
 3031 0030 0C4B     		ldr	r3, .L136+4
 3032 0032 1B78     		ldrb	r3, [r3]	@ zero_extendqisi2
 3033 0034 1A46     		mov	r2, r3
 3034 0036 3B46     		mov	r3, r7
 3035 0038 0C49     		ldr	r1, .L136+12
 3036 003a 1846     		mov	r0, r3
 3037 003c FFF7FEFF 		bl	sprintf
 710:..\Application/OS_Main.c ****         CyWdtClear(); 
 3038              		.loc 1 710 0
 3039 0040 FFF7FEFF 		bl	CyWdtClear
 711:..\Application/OS_Main.c ****         UART_Debug_PutString(ss);
 3040              		.loc 1 711 0
 3041 0044 3B46     		mov	r3, r7
 3042 0046 1846     		mov	r0, r3
 3043 0048 FFF7FEFF 		bl	UART_Debug_PutString
 712:..\Application/OS_Main.c ****         CyWdtClear(); 
 3044              		.loc 1 712 0
 3045 004c FFF7FEFF 		bl	CyWdtClear
 3046              	.L134:
 3047              	.LBE14:
 713:..\Application/OS_Main.c ****     }
 714:..\Application/OS_Main.c ****     
 715:..\Application/OS_Main.c ****     OS_TIMER_Restart(&Timer_RGB_LED);
 3048              		.loc 1 715 0
 3049 0050 0348     		ldr	r0, .L136
 3050 0052 FFF7FEFF 		bl	OS_TIMER_Restart
 716:..\Application/OS_Main.c ****     
 717:..\Application/OS_Main.c ****     return;
 3051              		.loc 1 717 0
 3052 0056 00BF     		nop
 718:..\Application/OS_Main.c **** }
 3053              		.loc 1 718 0
ARM GAS  C:\Users\ali\AppData\Local\Temp\ccr9QJbk.s 			page 73


 3054 0058 07F58077 		add	r7, r7, #256
 3055              		.cfi_def_cfa_offset 8
 3056 005c BD46     		mov	sp, r7
 3057              		.cfi_def_cfa_register 13
 3058              		@ sp needed
 3059 005e 80BD     		pop	{r7, pc}
 3060              	.L137:
 3061              		.align	2
 3062              	.L136:
 3063 0060 00000000 		.word	Timer_RGB_LED
 3064 0064 00000000 		.word	RGB_Color
 3065 0068 00000000 		.word	RGB_Color_Old
 3066 006c 58040000 		.word	.LC47
 3067              		.cfi_endproc
 3068              	.LFE71:
 3069              		.size	Timer_RGB_LED_Callback, .-Timer_RGB_LED_Callback
 3070              		.section	.rodata
 3071              		.align	2
 3072              	.LC48:
 3073 0484 72656164 		.ascii	"read_failure_port1 = %lu, read_failure_port2 = %lu,"
 3073      5F666169 
 3073      6C757265 
 3073      5F706F72 
 3073      7431203D 
 3074 04b7 20726561 		.ascii	" read_failure_total = %lu\015\012\000"
 3074      645F6661 
 3074      696C7572 
 3074      655F746F 
 3074      74616C20 
 3075 04d3 00       		.align	2
 3076              	.LC49:
 3077 04d4 54696D65 		.ascii	"Timer_Read_W_Port1_Callback\015\012\000"
 3077      725F5265 
 3077      61645F57 
 3077      5F506F72 
 3077      74315F43 
 3078              		.section	.text.Timer_Read_W_Port1_Callback,"ax",%progbits
 3079              		.align	2
 3080              		.global	Timer_Read_W_Port1_Callback
 3081              		.thumb
 3082              		.thumb_func
 3083              		.type	Timer_Read_W_Port1_Callback, %function
 3084              	Timer_Read_W_Port1_Callback:
 3085              	.LFB72:
 719:..\Application/OS_Main.c **** 
 720:..\Application/OS_Main.c **** void Timer_Read_W_Port1_Callback()
 721:..\Application/OS_Main.c **** {
 3086              		.loc 1 721 0
 3087              		.cfi_startproc
 3088              		@ args = 0, pretend = 0, frame = 256
 3089              		@ frame_needed = 1, uses_anonymous_args = 0
 3090 0000 80B5     		push	{r7, lr}
 3091              		.cfi_def_cfa_offset 8
 3092              		.cfi_offset 7, -8
 3093              		.cfi_offset 14, -4
 3094 0002 C2B0     		sub	sp, sp, #264
 3095              		.cfi_def_cfa_offset 272
ARM GAS  C:\Users\ali\AppData\Local\Temp\ccr9QJbk.s 			page 74


 3096 0004 02AF     		add	r7, sp, #8
 3097              		.cfi_def_cfa 7, 264
 722:..\Application/OS_Main.c ****     OS_TIMER_Stop(&Timer_Read_W_Port1);
 3098              		.loc 1 722 0
 3099 0006 1E48     		ldr	r0, .L140
 3100 0008 FFF7FEFF 		bl	OS_TIMER_Stop
 723:..\Application/OS_Main.c ****     
 724:..\Application/OS_Main.c ****     read_failure_port1++;
 3101              		.loc 1 724 0
 3102 000c 1D4B     		ldr	r3, .L140+4
 3103 000e 1B68     		ldr	r3, [r3]
 3104 0010 0133     		adds	r3, r3, #1
 3105 0012 1C4A     		ldr	r2, .L140+4
 3106 0014 1360     		str	r3, [r2]
 725:..\Application/OS_Main.c ****     read_failure_total = read_failure_port1 + read_failure_port2;
 3107              		.loc 1 725 0
 3108 0016 1B4B     		ldr	r3, .L140+4
 3109 0018 1A68     		ldr	r2, [r3]
 3110 001a 1B4B     		ldr	r3, .L140+8
 3111 001c 1B68     		ldr	r3, [r3]
 3112 001e 1344     		add	r3, r3, r2
 3113 0020 1A4A     		ldr	r2, .L140+12
 3114 0022 1360     		str	r3, [r2]
 726:..\Application/OS_Main.c ****     char data[256];
 727:..\Application/OS_Main.c ****     sprintf(data, "read_failure_port1 = %lu, read_failure_port2 = %lu, read_failure_total = %lu\r\n
 3115              		.loc 1 727 0
 3116 0024 174B     		ldr	r3, .L140+4
 3117 0026 1A68     		ldr	r2, [r3]
 3118 0028 174B     		ldr	r3, .L140+8
 3119 002a 1968     		ldr	r1, [r3]
 3120 002c 174B     		ldr	r3, .L140+12
 3121 002e 1B68     		ldr	r3, [r3]
 3122 0030 3846     		mov	r0, r7
 3123 0032 0093     		str	r3, [sp]
 3124 0034 0B46     		mov	r3, r1
 3125 0036 1649     		ldr	r1, .L140+16
 3126 0038 FFF7FEFF 		bl	sprintf
 728:..\Application/OS_Main.c ****     UART_Debug_PutString("****************************\r\n");
 3127              		.loc 1 728 0
 3128 003c 1548     		ldr	r0, .L140+20
 3129 003e FFF7FEFF 		bl	UART_Debug_PutString
 729:..\Application/OS_Main.c ****     UART_Debug_PutString("Timer_Read_W_Port1_Callback\r\n");
 3130              		.loc 1 729 0
 3131 0042 1548     		ldr	r0, .L140+24
 3132 0044 FFF7FEFF 		bl	UART_Debug_PutString
 730:..\Application/OS_Main.c ****     CyWdtClear(); 
 3133              		.loc 1 730 0
 3134 0048 FFF7FEFF 		bl	CyWdtClear
 731:..\Application/OS_Main.c ****     UART_Debug_PutString(data);
 3135              		.loc 1 731 0
 3136 004c 3B46     		mov	r3, r7
 3137 004e 1846     		mov	r0, r3
 3138 0050 FFF7FEFF 		bl	UART_Debug_PutString
 732:..\Application/OS_Main.c ****     UART_Debug_PutString("****************************\r\n");
 3139              		.loc 1 732 0
 3140 0054 0F48     		ldr	r0, .L140+20
 3141 0056 FFF7FEFF 		bl	UART_Debug_PutString
ARM GAS  C:\Users\ali\AppData\Local\Temp\ccr9QJbk.s 			page 75


 733:..\Application/OS_Main.c ****     CyWdtClear(); 
 3142              		.loc 1 733 0
 3143 005a FFF7FEFF 		bl	CyWdtClear
 734:..\Application/OS_Main.c ****     
 735:..\Application/OS_Main.c ****     Port1_W_Counter = 0;
 3144              		.loc 1 735 0
 3145 005e 0F4B     		ldr	r3, .L140+28
 3146 0060 0022     		movs	r2, #0
 3147 0062 1A70     		strb	r2, [r3]
 736:..\Application/OS_Main.c ****     Port1_w_Start = 0;
 3148              		.loc 1 736 0
 3149 0064 0E4B     		ldr	r3, .L140+32
 3150 0066 0022     		movs	r2, #0
 3151 0068 1A70     		strb	r2, [r3]
 737:..\Application/OS_Main.c ****     Port1_W[0] = '\0';
 3152              		.loc 1 737 0
 3153 006a 0E4B     		ldr	r3, .L140+36
 3154 006c 0022     		movs	r2, #0
 3155 006e 1A70     		strb	r2, [r3]
 738:..\Application/OS_Main.c ****     Port1_w_have = 0;
 3156              		.loc 1 738 0
 3157 0070 0D4B     		ldr	r3, .L140+40
 3158 0072 0022     		movs	r2, #0
 3159 0074 1A70     		strb	r2, [r3]
 739:..\Application/OS_Main.c ****     
 740:..\Application/OS_Main.c ****     return;
 3160              		.loc 1 740 0
 3161 0076 00BF     		nop
 741:..\Application/OS_Main.c **** }
 3162              		.loc 1 741 0
 3163 0078 07F58077 		add	r7, r7, #256
 3164              		.cfi_def_cfa_offset 8
 3165 007c BD46     		mov	sp, r7
 3166              		.cfi_def_cfa_register 13
 3167              		@ sp needed
 3168 007e 80BD     		pop	{r7, pc}
 3169              	.L141:
 3170              		.align	2
 3171              	.L140:
 3172 0080 00000000 		.word	Timer_Read_W_Port1
 3173 0084 00000000 		.word	read_failure_port1
 3174 0088 00000000 		.word	read_failure_port2
 3175 008c 00000000 		.word	read_failure_total
 3176 0090 84040000 		.word	.LC48
 3177 0094 1C040000 		.word	.LC45
 3178 0098 D4040000 		.word	.LC49
 3179 009c 00000000 		.word	Port1_W_Counter
 3180 00a0 00000000 		.word	Port1_w_Start
 3181 00a4 00000000 		.word	Port1_W
 3182 00a8 00000000 		.word	Port1_w_have
 3183              		.cfi_endproc
 3184              	.LFE72:
 3185              		.size	Timer_Read_W_Port1_Callback, .-Timer_Read_W_Port1_Callback
 3186              		.section	.rodata
 3187 04f2 0000     		.align	2
 3188              	.LC50:
 3189 04f4 54696D65 		.ascii	"Timer_Read_W_Port2_Callback\015\012\000"
ARM GAS  C:\Users\ali\AppData\Local\Temp\ccr9QJbk.s 			page 76


 3189      725F5265 
 3189      61645F57 
 3189      5F506F72 
 3189      74325F43 
 3190              		.section	.text.Timer_Read_W_Port2_Callback,"ax",%progbits
 3191              		.align	2
 3192              		.global	Timer_Read_W_Port2_Callback
 3193              		.thumb
 3194              		.thumb_func
 3195              		.type	Timer_Read_W_Port2_Callback, %function
 3196              	Timer_Read_W_Port2_Callback:
 3197              	.LFB73:
 742:..\Application/OS_Main.c **** 
 743:..\Application/OS_Main.c **** void Timer_Read_W_Port2_Callback()
 744:..\Application/OS_Main.c **** {
 3198              		.loc 1 744 0
 3199              		.cfi_startproc
 3200              		@ args = 0, pretend = 0, frame = 256
 3201              		@ frame_needed = 1, uses_anonymous_args = 0
 3202 0000 80B5     		push	{r7, lr}
 3203              		.cfi_def_cfa_offset 8
 3204              		.cfi_offset 7, -8
 3205              		.cfi_offset 14, -4
 3206 0002 C2B0     		sub	sp, sp, #264
 3207              		.cfi_def_cfa_offset 272
 3208 0004 02AF     		add	r7, sp, #8
 3209              		.cfi_def_cfa 7, 264
 745:..\Application/OS_Main.c ****     OS_TIMER_Stop(&Timer_Read_W_Port2);
 3210              		.loc 1 745 0
 3211 0006 1E48     		ldr	r0, .L144
 3212 0008 FFF7FEFF 		bl	OS_TIMER_Stop
 746:..\Application/OS_Main.c ****     
 747:..\Application/OS_Main.c ****     read_failure_port2++;
 3213              		.loc 1 747 0
 3214 000c 1D4B     		ldr	r3, .L144+4
 3215 000e 1B68     		ldr	r3, [r3]
 3216 0010 0133     		adds	r3, r3, #1
 3217 0012 1C4A     		ldr	r2, .L144+4
 3218 0014 1360     		str	r3, [r2]
 748:..\Application/OS_Main.c ****     read_failure_total = read_failure_port1 + read_failure_port2;
 3219              		.loc 1 748 0
 3220 0016 1C4B     		ldr	r3, .L144+8
 3221 0018 1A68     		ldr	r2, [r3]
 3222 001a 1A4B     		ldr	r3, .L144+4
 3223 001c 1B68     		ldr	r3, [r3]
 3224 001e 1344     		add	r3, r3, r2
 3225 0020 1A4A     		ldr	r2, .L144+12
 3226 0022 1360     		str	r3, [r2]
 749:..\Application/OS_Main.c ****     char data[256];
 750:..\Application/OS_Main.c ****     sprintf(data, "read_failure_port1 = %lu, read_failure_port2 = %lu, read_failure_total = %lu\r\n
 3227              		.loc 1 750 0
 3228 0024 184B     		ldr	r3, .L144+8
 3229 0026 1A68     		ldr	r2, [r3]
 3230 0028 164B     		ldr	r3, .L144+4
 3231 002a 1968     		ldr	r1, [r3]
 3232 002c 174B     		ldr	r3, .L144+12
 3233 002e 1B68     		ldr	r3, [r3]
ARM GAS  C:\Users\ali\AppData\Local\Temp\ccr9QJbk.s 			page 77


 3234 0030 3846     		mov	r0, r7
 3235 0032 0093     		str	r3, [sp]
 3236 0034 0B46     		mov	r3, r1
 3237 0036 1649     		ldr	r1, .L144+16
 3238 0038 FFF7FEFF 		bl	sprintf
 751:..\Application/OS_Main.c ****     UART_Debug_PutString("****************************\r\n");
 3239              		.loc 1 751 0
 3240 003c 1548     		ldr	r0, .L144+20
 3241 003e FFF7FEFF 		bl	UART_Debug_PutString
 752:..\Application/OS_Main.c ****     UART_Debug_PutString("Timer_Read_W_Port2_Callback\r\n");
 3242              		.loc 1 752 0
 3243 0042 1548     		ldr	r0, .L144+24
 3244 0044 FFF7FEFF 		bl	UART_Debug_PutString
 753:..\Application/OS_Main.c ****     CyWdtClear(); 
 3245              		.loc 1 753 0
 3246 0048 FFF7FEFF 		bl	CyWdtClear
 754:..\Application/OS_Main.c ****     UART_Debug_PutString(data);
 3247              		.loc 1 754 0
 3248 004c 3B46     		mov	r3, r7
 3249 004e 1846     		mov	r0, r3
 3250 0050 FFF7FEFF 		bl	UART_Debug_PutString
 755:..\Application/OS_Main.c ****     UART_Debug_PutString("****************************\r\n");
 3251              		.loc 1 755 0
 3252 0054 0F48     		ldr	r0, .L144+20
 3253 0056 FFF7FEFF 		bl	UART_Debug_PutString
 756:..\Application/OS_Main.c ****     CyWdtClear(); 
 3254              		.loc 1 756 0
 3255 005a FFF7FEFF 		bl	CyWdtClear
 757:..\Application/OS_Main.c ****     
 758:..\Application/OS_Main.c ****     Port2_W_Counter = 0;
 3256              		.loc 1 758 0
 3257 005e 0F4B     		ldr	r3, .L144+28
 3258 0060 0022     		movs	r2, #0
 3259 0062 1A70     		strb	r2, [r3]
 759:..\Application/OS_Main.c ****     Port2_w_Start = 0;
 3260              		.loc 1 759 0
 3261 0064 0E4B     		ldr	r3, .L144+32
 3262 0066 0022     		movs	r2, #0
 3263 0068 1A70     		strb	r2, [r3]
 760:..\Application/OS_Main.c ****     Port2_W[0] = '\0';
 3264              		.loc 1 760 0
 3265 006a 0E4B     		ldr	r3, .L144+36
 3266 006c 0022     		movs	r2, #0
 3267 006e 1A70     		strb	r2, [r3]
 761:..\Application/OS_Main.c ****     Port2_w_have = 0;
 3268              		.loc 1 761 0
 3269 0070 0D4B     		ldr	r3, .L144+40
 3270 0072 0022     		movs	r2, #0
 3271 0074 1A70     		strb	r2, [r3]
 762:..\Application/OS_Main.c ****     
 763:..\Application/OS_Main.c ****     return;
 3272              		.loc 1 763 0
 3273 0076 00BF     		nop
 764:..\Application/OS_Main.c **** }
 3274              		.loc 1 764 0
 3275 0078 07F58077 		add	r7, r7, #256
 3276              		.cfi_def_cfa_offset 8
ARM GAS  C:\Users\ali\AppData\Local\Temp\ccr9QJbk.s 			page 78


 3277 007c BD46     		mov	sp, r7
 3278              		.cfi_def_cfa_register 13
 3279              		@ sp needed
 3280 007e 80BD     		pop	{r7, pc}
 3281              	.L145:
 3282              		.align	2
 3283              	.L144:
 3284 0080 00000000 		.word	Timer_Read_W_Port2
 3285 0084 00000000 		.word	read_failure_port2
 3286 0088 00000000 		.word	read_failure_port1
 3287 008c 00000000 		.word	read_failure_total
 3288 0090 84040000 		.word	.LC48
 3289 0094 1C040000 		.word	.LC45
 3290 0098 F4040000 		.word	.LC50
 3291 009c 00000000 		.word	Port2_W_Counter
 3292 00a0 00000000 		.word	Port2_w_Start
 3293 00a4 00000000 		.word	Port2_W
 3294 00a8 00000000 		.word	Port2_w_have
 3295              		.cfi_endproc
 3296              	.LFE73:
 3297              		.size	Timer_Read_W_Port2_Callback, .-Timer_Read_W_Port2_Callback
 3298              		.section	.rodata
 3299 0512 0000     		.align	2
 3300              	.LC51:
 3301 0514 6C696E75 		.ascii	"linux_read_input_failure_port1 = %lu, linux_read_in"
 3301      785F7265 
 3301      61645F69 
 3301      6E707574 
 3301      5F666169 
 3302 0547 7075745F 		.ascii	"put_failure_port2 = %lu, linux_read_input_failure_t"
 3302      6661696C 
 3302      7572655F 
 3302      706F7274 
 3302      32203D20 
 3303 057a 6F74616C 		.ascii	"otal = %lu\015\012\000"
 3303      203D2025 
 3303      6C750D0A 
 3303      00
 3304 0587 00       		.align	2
 3305              	.LC52:
 3306 0588 54696D65 		.ascii	"Timer_AfterRead_Input1_Callback\015\012\000"
 3306      725F4166 
 3306      74657252 
 3306      6561645F 
 3306      496E7075 
 3307              		.section	.text.Timer_AfterRead_Input1_Callback,"ax",%progbits
 3308              		.align	2
 3309              		.global	Timer_AfterRead_Input1_Callback
 3310              		.thumb
 3311              		.thumb_func
 3312              		.type	Timer_AfterRead_Input1_Callback, %function
 3313              	Timer_AfterRead_Input1_Callback:
 3314              	.LFB74:
 765:..\Application/OS_Main.c **** 
 766:..\Application/OS_Main.c **** void Timer_AfterRead_Input1_Callback()
 767:..\Application/OS_Main.c **** {
 3315              		.loc 1 767 0
ARM GAS  C:\Users\ali\AppData\Local\Temp\ccr9QJbk.s 			page 79


 3316              		.cfi_startproc
 3317              		@ args = 0, pretend = 0, frame = 256
 3318              		@ frame_needed = 1, uses_anonymous_args = 0
 3319 0000 80B5     		push	{r7, lr}
 3320              		.cfi_def_cfa_offset 8
 3321              		.cfi_offset 7, -8
 3322              		.cfi_offset 14, -4
 3323 0002 C2B0     		sub	sp, sp, #264
 3324              		.cfi_def_cfa_offset 272
 3325 0004 02AF     		add	r7, sp, #8
 3326              		.cfi_def_cfa 7, 264
 768:..\Application/OS_Main.c ****     OS_TIMER_Stop(&Timer_AfterRead_In1);
 3327              		.loc 1 768 0
 3328 0006 1D48     		ldr	r0, .L148
 3329 0008 FFF7FEFF 		bl	OS_TIMER_Stop
 769:..\Application/OS_Main.c ****     
 770:..\Application/OS_Main.c ****     linux_read_input_failure_port1++;
 3330              		.loc 1 770 0
 3331 000c 1C4B     		ldr	r3, .L148+4
 3332 000e 1B68     		ldr	r3, [r3]
 3333 0010 0133     		adds	r3, r3, #1
 3334 0012 1B4A     		ldr	r2, .L148+4
 3335 0014 1360     		str	r3, [r2]
 771:..\Application/OS_Main.c ****     linux_read_input_failure_total = linux_read_input_failure_port1 + linux_read_input_failure_port
 3336              		.loc 1 771 0
 3337 0016 1A4B     		ldr	r3, .L148+4
 3338 0018 1A68     		ldr	r2, [r3]
 3339 001a 1A4B     		ldr	r3, .L148+8
 3340 001c 1B68     		ldr	r3, [r3]
 3341 001e 1344     		add	r3, r3, r2
 3342 0020 194A     		ldr	r2, .L148+12
 3343 0022 1360     		str	r3, [r2]
 772:..\Application/OS_Main.c ****     char data[256];
 773:..\Application/OS_Main.c ****     sprintf(data, "linux_read_input_failure_port1 = %lu, linux_read_input_failure_port2 = %lu, linu
 3344              		.loc 1 773 0
 3345 0024 164B     		ldr	r3, .L148+4
 3346 0026 1A68     		ldr	r2, [r3]
 3347 0028 164B     		ldr	r3, .L148+8
 3348 002a 1968     		ldr	r1, [r3]
 3349 002c 164B     		ldr	r3, .L148+12
 3350 002e 1B68     		ldr	r3, [r3]
 3351 0030 3846     		mov	r0, r7
 3352 0032 0093     		str	r3, [sp]
 3353 0034 0B46     		mov	r3, r1
 3354 0036 1549     		ldr	r1, .L148+16
 3355 0038 FFF7FEFF 		bl	sprintf
 774:..\Application/OS_Main.c ****     
 775:..\Application/OS_Main.c ****     UART_Debug_PutString("****************************\r\n");
 3356              		.loc 1 775 0
 3357 003c 1448     		ldr	r0, .L148+20
 3358 003e FFF7FEFF 		bl	UART_Debug_PutString
 776:..\Application/OS_Main.c ****     UART_Debug_PutString("Timer_AfterRead_Input1_Callback\r\n");
 3359              		.loc 1 776 0
 3360 0042 1448     		ldr	r0, .L148+24
 3361 0044 FFF7FEFF 		bl	UART_Debug_PutString
 777:..\Application/OS_Main.c ****     CyWdtClear(); 
 3362              		.loc 1 777 0
ARM GAS  C:\Users\ali\AppData\Local\Temp\ccr9QJbk.s 			page 80


 3363 0048 FFF7FEFF 		bl	CyWdtClear
 778:..\Application/OS_Main.c ****     UART_Debug_PutString(data);
 3364              		.loc 1 778 0
 3365 004c 3B46     		mov	r3, r7
 3366 004e 1846     		mov	r0, r3
 3367 0050 FFF7FEFF 		bl	UART_Debug_PutString
 779:..\Application/OS_Main.c ****     UART_Debug_PutString("****************************\r\n");
 3368              		.loc 1 779 0
 3369 0054 0E48     		ldr	r0, .L148+20
 3370 0056 FFF7FEFF 		bl	UART_Debug_PutString
 780:..\Application/OS_Main.c ****     CyWdtClear(); 
 3371              		.loc 1 780 0
 3372 005a FFF7FEFF 		bl	CyWdtClear
 781:..\Application/OS_Main.c ****     
 782:..\Application/OS_Main.c ****     In1[0] = '\0';
 3373              		.loc 1 782 0
 3374 005e 0E4B     		ldr	r3, .L148+28
 3375 0060 0022     		movs	r2, #0
 3376 0062 1A70     		strb	r2, [r3]
 783:..\Application/OS_Main.c ****     In1[1] = '\0';
 3377              		.loc 1 783 0
 3378 0064 0C4B     		ldr	r3, .L148+28
 3379 0066 0022     		movs	r2, #0
 3380 0068 5A70     		strb	r2, [r3, #1]
 784:..\Application/OS_Main.c ****     In1[2] = '\0';
 3381              		.loc 1 784 0
 3382 006a 0B4B     		ldr	r3, .L148+28
 3383 006c 0022     		movs	r2, #0
 3384 006e 9A70     		strb	r2, [r3, #2]
 785:..\Application/OS_Main.c ****     
 786:..\Application/OS_Main.c ****     return;
 3385              		.loc 1 786 0
 3386 0070 00BF     		nop
 787:..\Application/OS_Main.c **** }
 3387              		.loc 1 787 0
 3388 0072 07F58077 		add	r7, r7, #256
 3389              		.cfi_def_cfa_offset 8
 3390 0076 BD46     		mov	sp, r7
 3391              		.cfi_def_cfa_register 13
 3392              		@ sp needed
 3393 0078 80BD     		pop	{r7, pc}
 3394              	.L149:
 3395 007a 00BF     		.align	2
 3396              	.L148:
 3397 007c 00000000 		.word	Timer_AfterRead_In1
 3398 0080 00000000 		.word	linux_read_input_failure_port1
 3399 0084 00000000 		.word	linux_read_input_failure_port2
 3400 0088 00000000 		.word	linux_read_input_failure_total
 3401 008c 14050000 		.word	.LC51
 3402 0090 1C040000 		.word	.LC45
 3403 0094 88050000 		.word	.LC52
 3404 0098 00000000 		.word	In1
 3405              		.cfi_endproc
 3406              	.LFE74:
 3407              		.size	Timer_AfterRead_Input1_Callback, .-Timer_AfterRead_Input1_Callback
 3408              		.section	.rodata
 3409 05aa 0000     		.align	2
ARM GAS  C:\Users\ali\AppData\Local\Temp\ccr9QJbk.s 			page 81


 3410              	.LC53:
 3411 05ac 6C696E75 		.ascii	"linux_read_failure_port1 = %lu, linux_read_failure_"
 3411      785F7265 
 3411      61645F66 
 3411      61696C75 
 3411      72655F70 
 3412 05df 706F7274 		.ascii	"port2 = %lu, linux_read_failure_total = %lu\015\012"
 3412      32203D20 
 3412      256C752C 
 3412      206C696E 
 3412      75785F72 
 3413 060c 00       		.ascii	"\000"
 3414 060d 000000   		.align	2
 3415              	.LC54:
 3416 0610 54696D65 		.ascii	"Timer_AfterRead_Port1_Callback\015\012\000"
 3416      725F4166 
 3416      74657252 
 3416      6561645F 
 3416      506F7274 
 3417              		.section	.text.Timer_AfterRead_Port1_Callback,"ax",%progbits
 3418              		.align	2
 3419              		.global	Timer_AfterRead_Port1_Callback
 3420              		.thumb
 3421              		.thumb_func
 3422              		.type	Timer_AfterRead_Port1_Callback, %function
 3423              	Timer_AfterRead_Port1_Callback:
 3424              	.LFB75:
 788:..\Application/OS_Main.c **** 
 789:..\Application/OS_Main.c **** void Timer_AfterRead_Port1_Callback()
 790:..\Application/OS_Main.c **** {
 3425              		.loc 1 790 0
 3426              		.cfi_startproc
 3427              		@ args = 0, pretend = 0, frame = 256
 3428              		@ frame_needed = 1, uses_anonymous_args = 0
 3429 0000 80B5     		push	{r7, lr}
 3430              		.cfi_def_cfa_offset 8
 3431              		.cfi_offset 7, -8
 3432              		.cfi_offset 14, -4
 3433 0002 C2B0     		sub	sp, sp, #264
 3434              		.cfi_def_cfa_offset 272
 3435 0004 02AF     		add	r7, sp, #8
 3436              		.cfi_def_cfa 7, 264
 791:..\Application/OS_Main.c ****     OS_TIMER_Stop(&Timer_AfterRead_Port1);
 3437              		.loc 1 791 0
 3438 0006 1E48     		ldr	r0, .L152
 3439 0008 FFF7FEFF 		bl	OS_TIMER_Stop
 792:..\Application/OS_Main.c ****     
 793:..\Application/OS_Main.c ****     linux_read_failure_port1++;
 3440              		.loc 1 793 0
 3441 000c 1D4B     		ldr	r3, .L152+4
 3442 000e 1B68     		ldr	r3, [r3]
 3443 0010 0133     		adds	r3, r3, #1
 3444 0012 1C4A     		ldr	r2, .L152+4
 3445 0014 1360     		str	r3, [r2]
 794:..\Application/OS_Main.c ****     linux_read_failure_total = linux_read_failure_port1 + linux_read_failure_port2;
 3446              		.loc 1 794 0
 3447 0016 1B4B     		ldr	r3, .L152+4
ARM GAS  C:\Users\ali\AppData\Local\Temp\ccr9QJbk.s 			page 82


 3448 0018 1A68     		ldr	r2, [r3]
 3449 001a 1B4B     		ldr	r3, .L152+8
 3450 001c 1B68     		ldr	r3, [r3]
 3451 001e 1344     		add	r3, r3, r2
 3452 0020 1A4A     		ldr	r2, .L152+12
 3453 0022 1360     		str	r3, [r2]
 795:..\Application/OS_Main.c ****     char data[256];
 796:..\Application/OS_Main.c ****     sprintf(data, "linux_read_failure_port1 = %lu, linux_read_failure_port2 = %lu, linux_read_failu
 3454              		.loc 1 796 0
 3455 0024 174B     		ldr	r3, .L152+4
 3456 0026 1A68     		ldr	r2, [r3]
 3457 0028 174B     		ldr	r3, .L152+8
 3458 002a 1968     		ldr	r1, [r3]
 3459 002c 174B     		ldr	r3, .L152+12
 3460 002e 1B68     		ldr	r3, [r3]
 3461 0030 3846     		mov	r0, r7
 3462 0032 0093     		str	r3, [sp]
 3463 0034 0B46     		mov	r3, r1
 3464 0036 1649     		ldr	r1, .L152+16
 3465 0038 FFF7FEFF 		bl	sprintf
 797:..\Application/OS_Main.c ****     
 798:..\Application/OS_Main.c ****     UART_Debug_PutString("****************************\r\n");
 3466              		.loc 1 798 0
 3467 003c 1548     		ldr	r0, .L152+20
 3468 003e FFF7FEFF 		bl	UART_Debug_PutString
 799:..\Application/OS_Main.c ****     UART_Debug_PutString("Timer_AfterRead_Port1_Callback\r\n");
 3469              		.loc 1 799 0
 3470 0042 1548     		ldr	r0, .L152+24
 3471 0044 FFF7FEFF 		bl	UART_Debug_PutString
 800:..\Application/OS_Main.c ****     CyWdtClear(); 
 3472              		.loc 1 800 0
 3473 0048 FFF7FEFF 		bl	CyWdtClear
 801:..\Application/OS_Main.c ****     UART_Debug_PutString(data);
 3474              		.loc 1 801 0
 3475 004c 3B46     		mov	r3, r7
 3476 004e 1846     		mov	r0, r3
 3477 0050 FFF7FEFF 		bl	UART_Debug_PutString
 802:..\Application/OS_Main.c ****     UART_Debug_PutString("****************************\r\n");
 3478              		.loc 1 802 0
 3479 0054 0F48     		ldr	r0, .L152+20
 3480 0056 FFF7FEFF 		bl	UART_Debug_PutString
 803:..\Application/OS_Main.c ****     CyWdtClear(); 
 3481              		.loc 1 803 0
 3482 005a FFF7FEFF 		bl	CyWdtClear
 804:..\Application/OS_Main.c ****     
 805:..\Application/OS_Main.c ****     Port1_W_Counter = 0;
 3483              		.loc 1 805 0
 3484 005e 0F4B     		ldr	r3, .L152+28
 3485 0060 0022     		movs	r2, #0
 3486 0062 1A70     		strb	r2, [r3]
 806:..\Application/OS_Main.c ****     Port1_w_Start = 0;
 3487              		.loc 1 806 0
 3488 0064 0E4B     		ldr	r3, .L152+32
 3489 0066 0022     		movs	r2, #0
 3490 0068 1A70     		strb	r2, [r3]
 807:..\Application/OS_Main.c ****     Port1_W[0] = '\0';
 3491              		.loc 1 807 0
ARM GAS  C:\Users\ali\AppData\Local\Temp\ccr9QJbk.s 			page 83


 3492 006a 0E4B     		ldr	r3, .L152+36
 3493 006c 0022     		movs	r2, #0
 3494 006e 1A70     		strb	r2, [r3]
 808:..\Application/OS_Main.c ****     Port1_w_have = 0;
 3495              		.loc 1 808 0
 3496 0070 0D4B     		ldr	r3, .L152+40
 3497 0072 0022     		movs	r2, #0
 3498 0074 1A70     		strb	r2, [r3]
 809:..\Application/OS_Main.c **** 
 810:..\Application/OS_Main.c ****     return;
 3499              		.loc 1 810 0
 3500 0076 00BF     		nop
 811:..\Application/OS_Main.c **** }
 3501              		.loc 1 811 0
 3502 0078 07F58077 		add	r7, r7, #256
 3503              		.cfi_def_cfa_offset 8
 3504 007c BD46     		mov	sp, r7
 3505              		.cfi_def_cfa_register 13
 3506              		@ sp needed
 3507 007e 80BD     		pop	{r7, pc}
 3508              	.L153:
 3509              		.align	2
 3510              	.L152:
 3511 0080 00000000 		.word	Timer_AfterRead_Port1
 3512 0084 00000000 		.word	linux_read_failure_port1
 3513 0088 00000000 		.word	linux_read_failure_port2
 3514 008c 00000000 		.word	linux_read_failure_total
 3515 0090 AC050000 		.word	.LC53
 3516 0094 1C040000 		.word	.LC45
 3517 0098 10060000 		.word	.LC54
 3518 009c 00000000 		.word	Port1_W_Counter
 3519 00a0 00000000 		.word	Port1_w_Start
 3520 00a4 00000000 		.word	Port1_W
 3521 00a8 00000000 		.word	Port1_w_have
 3522              		.cfi_endproc
 3523              	.LFE75:
 3524              		.size	Timer_AfterRead_Port1_Callback, .-Timer_AfterRead_Port1_Callback
 3525              		.section	.rodata
 3526 0631 000000   		.align	2
 3527              	.LC55:
 3528 0634 54696D65 		.ascii	"Timer_AfterRead_Input2_Callback\015\012\000"
 3528      725F4166 
 3528      74657252 
 3528      6561645F 
 3528      496E7075 
 3529              		.section	.text.Timer_AfterRead_Input2_Callback,"ax",%progbits
 3530              		.align	2
 3531              		.global	Timer_AfterRead_Input2_Callback
 3532              		.thumb
 3533              		.thumb_func
 3534              		.type	Timer_AfterRead_Input2_Callback, %function
 3535              	Timer_AfterRead_Input2_Callback:
 3536              	.LFB76:
 812:..\Application/OS_Main.c **** 
 813:..\Application/OS_Main.c **** void Timer_AfterRead_Input2_Callback()
 814:..\Application/OS_Main.c **** {
 3537              		.loc 1 814 0
ARM GAS  C:\Users\ali\AppData\Local\Temp\ccr9QJbk.s 			page 84


 3538              		.cfi_startproc
 3539              		@ args = 0, pretend = 0, frame = 256
 3540              		@ frame_needed = 1, uses_anonymous_args = 0
 3541 0000 80B5     		push	{r7, lr}
 3542              		.cfi_def_cfa_offset 8
 3543              		.cfi_offset 7, -8
 3544              		.cfi_offset 14, -4
 3545 0002 C2B0     		sub	sp, sp, #264
 3546              		.cfi_def_cfa_offset 272
 3547 0004 02AF     		add	r7, sp, #8
 3548              		.cfi_def_cfa 7, 264
 815:..\Application/OS_Main.c ****     OS_TIMER_Stop(&Timer_AfterRead_In2);
 3549              		.loc 1 815 0
 3550 0006 1D48     		ldr	r0, .L156
 3551 0008 FFF7FEFF 		bl	OS_TIMER_Stop
 816:..\Application/OS_Main.c ****     
 817:..\Application/OS_Main.c ****     linux_read_input_failure_port2++;
 3552              		.loc 1 817 0
 3553 000c 1C4B     		ldr	r3, .L156+4
 3554 000e 1B68     		ldr	r3, [r3]
 3555 0010 0133     		adds	r3, r3, #1
 3556 0012 1B4A     		ldr	r2, .L156+4
 3557 0014 1360     		str	r3, [r2]
 818:..\Application/OS_Main.c ****     linux_read_input_failure_total = linux_read_input_failure_port1 + linux_read_input_failure_port
 3558              		.loc 1 818 0
 3559 0016 1B4B     		ldr	r3, .L156+8
 3560 0018 1A68     		ldr	r2, [r3]
 3561 001a 194B     		ldr	r3, .L156+4
 3562 001c 1B68     		ldr	r3, [r3]
 3563 001e 1344     		add	r3, r3, r2
 3564 0020 194A     		ldr	r2, .L156+12
 3565 0022 1360     		str	r3, [r2]
 819:..\Application/OS_Main.c ****     char data[256];
 820:..\Application/OS_Main.c ****     sprintf(data, "linux_read_input_failure_port1 = %lu, linux_read_input_failure_port2 = %lu, linu
 3566              		.loc 1 820 0
 3567 0024 174B     		ldr	r3, .L156+8
 3568 0026 1A68     		ldr	r2, [r3]
 3569 0028 154B     		ldr	r3, .L156+4
 3570 002a 1968     		ldr	r1, [r3]
 3571 002c 164B     		ldr	r3, .L156+12
 3572 002e 1B68     		ldr	r3, [r3]
 3573 0030 3846     		mov	r0, r7
 3574 0032 0093     		str	r3, [sp]
 3575 0034 0B46     		mov	r3, r1
 3576 0036 1549     		ldr	r1, .L156+16
 3577 0038 FFF7FEFF 		bl	sprintf
 821:..\Application/OS_Main.c ****     
 822:..\Application/OS_Main.c ****     UART_Debug_PutString("****************************\r\n");
 3578              		.loc 1 822 0
 3579 003c 1448     		ldr	r0, .L156+20
 3580 003e FFF7FEFF 		bl	UART_Debug_PutString
 823:..\Application/OS_Main.c ****     UART_Debug_PutString("Timer_AfterRead_Input2_Callback\r\n");
 3581              		.loc 1 823 0
 3582 0042 1448     		ldr	r0, .L156+24
 3583 0044 FFF7FEFF 		bl	UART_Debug_PutString
 824:..\Application/OS_Main.c ****     CyWdtClear(); 
 3584              		.loc 1 824 0
ARM GAS  C:\Users\ali\AppData\Local\Temp\ccr9QJbk.s 			page 85


 3585 0048 FFF7FEFF 		bl	CyWdtClear
 825:..\Application/OS_Main.c ****     UART_Debug_PutString(data);
 3586              		.loc 1 825 0
 3587 004c 3B46     		mov	r3, r7
 3588 004e 1846     		mov	r0, r3
 3589 0050 FFF7FEFF 		bl	UART_Debug_PutString
 826:..\Application/OS_Main.c ****     UART_Debug_PutString("****************************\r\n");
 3590              		.loc 1 826 0
 3591 0054 0E48     		ldr	r0, .L156+20
 3592 0056 FFF7FEFF 		bl	UART_Debug_PutString
 827:..\Application/OS_Main.c ****     CyWdtClear(); 
 3593              		.loc 1 827 0
 3594 005a FFF7FEFF 		bl	CyWdtClear
 828:..\Application/OS_Main.c ****     
 829:..\Application/OS_Main.c ****     In2[0] = '\0';
 3595              		.loc 1 829 0
 3596 005e 0E4B     		ldr	r3, .L156+28
 3597 0060 0022     		movs	r2, #0
 3598 0062 1A70     		strb	r2, [r3]
 830:..\Application/OS_Main.c ****     In2[1] = '\0';
 3599              		.loc 1 830 0
 3600 0064 0C4B     		ldr	r3, .L156+28
 3601 0066 0022     		movs	r2, #0
 3602 0068 5A70     		strb	r2, [r3, #1]
 831:..\Application/OS_Main.c ****     In2[2] = '\0';
 3603              		.loc 1 831 0
 3604 006a 0B4B     		ldr	r3, .L156+28
 3605 006c 0022     		movs	r2, #0
 3606 006e 9A70     		strb	r2, [r3, #2]
 832:..\Application/OS_Main.c ****     
 833:..\Application/OS_Main.c ****     return;
 3607              		.loc 1 833 0
 3608 0070 00BF     		nop
 834:..\Application/OS_Main.c **** }
 3609              		.loc 1 834 0
 3610 0072 07F58077 		add	r7, r7, #256
 3611              		.cfi_def_cfa_offset 8
 3612 0076 BD46     		mov	sp, r7
 3613              		.cfi_def_cfa_register 13
 3614              		@ sp needed
 3615 0078 80BD     		pop	{r7, pc}
 3616              	.L157:
 3617 007a 00BF     		.align	2
 3618              	.L156:
 3619 007c 00000000 		.word	Timer_AfterRead_In2
 3620 0080 00000000 		.word	linux_read_input_failure_port2
 3621 0084 00000000 		.word	linux_read_input_failure_port1
 3622 0088 00000000 		.word	linux_read_input_failure_total
 3623 008c 14050000 		.word	.LC51
 3624 0090 1C040000 		.word	.LC45
 3625 0094 34060000 		.word	.LC55
 3626 0098 00000000 		.word	In2
 3627              		.cfi_endproc
 3628              	.LFE76:
 3629              		.size	Timer_AfterRead_Input2_Callback, .-Timer_AfterRead_Input2_Callback
 3630              		.section	.rodata
 3631 0656 0000     		.align	2
ARM GAS  C:\Users\ali\AppData\Local\Temp\ccr9QJbk.s 			page 86


 3632              	.LC56:
 3633 0658 54696D65 		.ascii	"Timer_AfterRead_Port2_Callback\015\012\000"
 3633      725F4166 
 3633      74657252 
 3633      6561645F 
 3633      506F7274 
 3634              		.section	.text.Timer_AfterRead_Port2_Callback,"ax",%progbits
 3635              		.align	2
 3636              		.global	Timer_AfterRead_Port2_Callback
 3637              		.thumb
 3638              		.thumb_func
 3639              		.type	Timer_AfterRead_Port2_Callback, %function
 3640              	Timer_AfterRead_Port2_Callback:
 3641              	.LFB77:
 835:..\Application/OS_Main.c **** 
 836:..\Application/OS_Main.c **** void Timer_AfterRead_Port2_Callback()
 837:..\Application/OS_Main.c **** {
 3642              		.loc 1 837 0
 3643              		.cfi_startproc
 3644              		@ args = 0, pretend = 0, frame = 256
 3645              		@ frame_needed = 1, uses_anonymous_args = 0
 3646 0000 80B5     		push	{r7, lr}
 3647              		.cfi_def_cfa_offset 8
 3648              		.cfi_offset 7, -8
 3649              		.cfi_offset 14, -4
 3650 0002 C2B0     		sub	sp, sp, #264
 3651              		.cfi_def_cfa_offset 272
 3652 0004 02AF     		add	r7, sp, #8
 3653              		.cfi_def_cfa 7, 264
 838:..\Application/OS_Main.c ****     OS_TIMER_Stop(&Timer_AfterRead_Port2);
 3654              		.loc 1 838 0
 3655 0006 1E48     		ldr	r0, .L160
 3656 0008 FFF7FEFF 		bl	OS_TIMER_Stop
 839:..\Application/OS_Main.c ****     
 840:..\Application/OS_Main.c ****     linux_read_failure_port2++;
 3657              		.loc 1 840 0
 3658 000c 1D4B     		ldr	r3, .L160+4
 3659 000e 1B68     		ldr	r3, [r3]
 3660 0010 0133     		adds	r3, r3, #1
 3661 0012 1C4A     		ldr	r2, .L160+4
 3662 0014 1360     		str	r3, [r2]
 841:..\Application/OS_Main.c ****     linux_read_failure_total = linux_read_failure_port1 + linux_read_failure_port2;
 3663              		.loc 1 841 0
 3664 0016 1C4B     		ldr	r3, .L160+8
 3665 0018 1A68     		ldr	r2, [r3]
 3666 001a 1A4B     		ldr	r3, .L160+4
 3667 001c 1B68     		ldr	r3, [r3]
 3668 001e 1344     		add	r3, r3, r2
 3669 0020 1A4A     		ldr	r2, .L160+12
 3670 0022 1360     		str	r3, [r2]
 842:..\Application/OS_Main.c ****     char data[256];
 843:..\Application/OS_Main.c ****     sprintf(data, "linux_read_failure_port1 = %lu, linux_read_failure_port2 = %lu, linux_read_failu
 3671              		.loc 1 843 0
 3672 0024 184B     		ldr	r3, .L160+8
 3673 0026 1A68     		ldr	r2, [r3]
 3674 0028 164B     		ldr	r3, .L160+4
 3675 002a 1968     		ldr	r1, [r3]
ARM GAS  C:\Users\ali\AppData\Local\Temp\ccr9QJbk.s 			page 87


 3676 002c 174B     		ldr	r3, .L160+12
 3677 002e 1B68     		ldr	r3, [r3]
 3678 0030 3846     		mov	r0, r7
 3679 0032 0093     		str	r3, [sp]
 3680 0034 0B46     		mov	r3, r1
 3681 0036 1649     		ldr	r1, .L160+16
 3682 0038 FFF7FEFF 		bl	sprintf
 844:..\Application/OS_Main.c ****     
 845:..\Application/OS_Main.c ****     UART_Debug_PutString("****************************\r\n");
 3683              		.loc 1 845 0
 3684 003c 1548     		ldr	r0, .L160+20
 3685 003e FFF7FEFF 		bl	UART_Debug_PutString
 846:..\Application/OS_Main.c ****     UART_Debug_PutString("Timer_AfterRead_Port2_Callback\r\n");
 3686              		.loc 1 846 0
 3687 0042 1548     		ldr	r0, .L160+24
 3688 0044 FFF7FEFF 		bl	UART_Debug_PutString
 847:..\Application/OS_Main.c ****     CyWdtClear(); 
 3689              		.loc 1 847 0
 3690 0048 FFF7FEFF 		bl	CyWdtClear
 848:..\Application/OS_Main.c ****     UART_Debug_PutString(data);
 3691              		.loc 1 848 0
 3692 004c 3B46     		mov	r3, r7
 3693 004e 1846     		mov	r0, r3
 3694 0050 FFF7FEFF 		bl	UART_Debug_PutString
 849:..\Application/OS_Main.c ****     UART_Debug_PutString("****************************\r\n");
 3695              		.loc 1 849 0
 3696 0054 0F48     		ldr	r0, .L160+20
 3697 0056 FFF7FEFF 		bl	UART_Debug_PutString
 850:..\Application/OS_Main.c ****     CyWdtClear(); 
 3698              		.loc 1 850 0
 3699 005a FFF7FEFF 		bl	CyWdtClear
 851:..\Application/OS_Main.c ****    
 852:..\Application/OS_Main.c ****     Port2_W_Counter = 0;
 3700              		.loc 1 852 0
 3701 005e 0F4B     		ldr	r3, .L160+28
 3702 0060 0022     		movs	r2, #0
 3703 0062 1A70     		strb	r2, [r3]
 853:..\Application/OS_Main.c ****     Port2_w_Start = 0;
 3704              		.loc 1 853 0
 3705 0064 0E4B     		ldr	r3, .L160+32
 3706 0066 0022     		movs	r2, #0
 3707 0068 1A70     		strb	r2, [r3]
 854:..\Application/OS_Main.c ****     Port2_W[0] = '\0';
 3708              		.loc 1 854 0
 3709 006a 0E4B     		ldr	r3, .L160+36
 3710 006c 0022     		movs	r2, #0
 3711 006e 1A70     		strb	r2, [r3]
 855:..\Application/OS_Main.c ****     Port2_w_have = 0;
 3712              		.loc 1 855 0
 3713 0070 0D4B     		ldr	r3, .L160+40
 3714 0072 0022     		movs	r2, #0
 3715 0074 1A70     		strb	r2, [r3]
 856:..\Application/OS_Main.c ****     
 857:..\Application/OS_Main.c ****     return;
 3716              		.loc 1 857 0
 3717 0076 00BF     		nop
 858:..\Application/OS_Main.c **** }
ARM GAS  C:\Users\ali\AppData\Local\Temp\ccr9QJbk.s 			page 88


 3718              		.loc 1 858 0
 3719 0078 07F58077 		add	r7, r7, #256
 3720              		.cfi_def_cfa_offset 8
 3721 007c BD46     		mov	sp, r7
 3722              		.cfi_def_cfa_register 13
 3723              		@ sp needed
 3724 007e 80BD     		pop	{r7, pc}
 3725              	.L161:
 3726              		.align	2
 3727              	.L160:
 3728 0080 00000000 		.word	Timer_AfterRead_Port2
 3729 0084 00000000 		.word	linux_read_failure_port2
 3730 0088 00000000 		.word	linux_read_failure_port1
 3731 008c 00000000 		.word	linux_read_failure_total
 3732 0090 AC050000 		.word	.LC53
 3733 0094 1C040000 		.word	.LC45
 3734 0098 58060000 		.word	.LC56
 3735 009c 00000000 		.word	Port2_W_Counter
 3736 00a0 00000000 		.word	Port2_w_Start
 3737 00a4 00000000 		.word	Port2_W
 3738 00a8 00000000 		.word	Port2_w_have
 3739              		.cfi_endproc
 3740              	.LFE77:
 3741              		.size	Timer_AfterRead_Port2_Callback, .-Timer_AfterRead_Port2_Callback
 3742              		.section	.text.Timer_WD_Callback,"ax",%progbits
 3743              		.align	2
 3744              		.global	Timer_WD_Callback
 3745              		.thumb
 3746              		.thumb_func
 3747              		.type	Timer_WD_Callback, %function
 3748              	Timer_WD_Callback:
 3749              	.LFB78:
 859:..\Application/OS_Main.c **** 
 860:..\Application/OS_Main.c **** void Timer_WD_Callback()
 861:..\Application/OS_Main.c **** {
 3750              		.loc 1 861 0
 3751              		.cfi_startproc
 3752              		@ args = 0, pretend = 0, frame = 0
 3753              		@ frame_needed = 1, uses_anonymous_args = 0
 3754 0000 80B5     		push	{r7, lr}
 3755              		.cfi_def_cfa_offset 8
 3756              		.cfi_offset 7, -8
 3757              		.cfi_offset 14, -4
 3758 0002 00AF     		add	r7, sp, #0
 3759              		.cfi_def_cfa_register 7
 862:..\Application/OS_Main.c ****     OS_TIMER_Stop(&Timer_WD);
 3760              		.loc 1 862 0
 3761 0004 0448     		ldr	r0, .L164
 3762 0006 FFF7FEFF 		bl	OS_TIMER_Stop
 863:..\Application/OS_Main.c ****     CyWdtClear();
 3763              		.loc 1 863 0
 3764 000a FFF7FEFF 		bl	CyWdtClear
 864:..\Application/OS_Main.c ****     OS_TIMER_Restart(&Timer_WD);
 3765              		.loc 1 864 0
 3766 000e 0248     		ldr	r0, .L164
 3767 0010 FFF7FEFF 		bl	OS_TIMER_Restart
 865:..\Application/OS_Main.c ****     
ARM GAS  C:\Users\ali\AppData\Local\Temp\ccr9QJbk.s 			page 89


 866:..\Application/OS_Main.c ****     return;
 3768              		.loc 1 866 0
 3769 0014 00BF     		nop
 867:..\Application/OS_Main.c **** }
 3770              		.loc 1 867 0
 3771 0016 80BD     		pop	{r7, pc}
 3772              	.L165:
 3773              		.align	2
 3774              	.L164:
 3775 0018 00000000 		.word	Timer_WD
 3776              		.cfi_endproc
 3777              	.LFE78:
 3778              		.size	Timer_WD_Callback, .-Timer_WD_Callback
 3779              		.section	.text.intrrupt_init,"ax",%progbits
 3780              		.align	2
 3781              		.global	intrrupt_init
 3782              		.thumb
 3783              		.thumb_func
 3784              		.type	intrrupt_init, %function
 3785              	intrrupt_init:
 3786              	.LFB79:
 868:..\Application/OS_Main.c **** 
 869:..\Application/OS_Main.c **** 
 870:..\Application/OS_Main.c **** //Init Functions
 871:..\Application/OS_Main.c **** void intrrupt_init()
 872:..\Application/OS_Main.c **** {
 3787              		.loc 1 872 0
 3788              		.cfi_startproc
 3789              		@ args = 0, pretend = 0, frame = 0
 3790              		@ frame_needed = 1, uses_anonymous_args = 0
 3791 0000 80B5     		push	{r7, lr}
 3792              		.cfi_def_cfa_offset 8
 3793              		.cfi_offset 7, -8
 3794              		.cfi_offset 14, -4
 3795 0002 00AF     		add	r7, sp, #0
 3796              		.cfi_def_cfa_register 7
 873:..\Application/OS_Main.c ****     intr_UART_Linux_Rx_StartEx(UART_Linux_Rx_ISR);
 3797              		.loc 1 873 0
 3798 0004 0648     		ldr	r0, .L168
 3799 0006 FFF7FEFF 		bl	intr_UART_Linux_Rx_StartEx
 874:..\Application/OS_Main.c ****     UART_Linux_EnableRxInt();
 3800              		.loc 1 874 0
 3801 000a 064B     		ldr	r3, .L168+4
 3802 000c 0422     		movs	r2, #4
 3803 000e 1A60     		str	r2, [r3]
 875:..\Application/OS_Main.c ****     
 876:..\Application/OS_Main.c ****     intr_Port1_StartEx(Port1_ISR);
 3804              		.loc 1 876 0
 3805 0010 0548     		ldr	r0, .L168+8
 3806 0012 FFF7FEFF 		bl	intr_Port1_StartEx
 877:..\Application/OS_Main.c ****     intr_Port2_StartEx(Port2_ISR);
 3807              		.loc 1 877 0
 3808 0016 0548     		ldr	r0, .L168+12
 3809 0018 FFF7FEFF 		bl	intr_Port2_StartEx
 878:..\Application/OS_Main.c ****     
 879:..\Application/OS_Main.c ****     return;
 3810              		.loc 1 879 0
ARM GAS  C:\Users\ali\AppData\Local\Temp\ccr9QJbk.s 			page 90


 3811 001c 00BF     		nop
 880:..\Application/OS_Main.c **** }
 3812              		.loc 1 880 0
 3813 001e 80BD     		pop	{r7, pc}
 3814              	.L169:
 3815              		.align	2
 3816              	.L168:
 3817 0020 00000000 		.word	UART_Linux_Rx_ISR
 3818 0024 00E100E0 		.word	-536813312
 3819 0028 00000000 		.word	Port1_ISR
 3820 002c 00000000 		.word	Port2_ISR
 3821              		.cfi_endproc
 3822              	.LFE79:
 3823              		.size	intrrupt_init, .-intrrupt_init
 3824              		.section	.text.init_vars,"ax",%progbits
 3825              		.align	2
 3826              		.global	init_vars
 3827              		.thumb
 3828              		.thumb_func
 3829              		.type	init_vars, %function
 3830              	init_vars:
 3831              	.LFB80:
 881:..\Application/OS_Main.c **** 
 882:..\Application/OS_Main.c **** void init_vars()
 883:..\Application/OS_Main.c **** {
 3832              		.loc 1 883 0
 3833              		.cfi_startproc
 3834              		@ args = 0, pretend = 0, frame = 0
 3835              		@ frame_needed = 1, uses_anonymous_args = 0
 3836              		@ link register save eliminated.
 3837 0000 80B4     		push	{r7}
 3838              		.cfi_def_cfa_offset 4
 3839              		.cfi_offset 7, -4
 3840 0002 00AF     		add	r7, sp, #0
 3841              		.cfi_def_cfa_register 7
 884:..\Application/OS_Main.c ****     Port1_W[0] = '\0';
 3842              		.loc 1 884 0
 3843 0004 074B     		ldr	r3, .L172
 3844 0006 0022     		movs	r2, #0
 3845 0008 1A70     		strb	r2, [r3]
 885:..\Application/OS_Main.c ****     In1[0] = '\0';
 3846              		.loc 1 885 0
 3847 000a 074B     		ldr	r3, .L172+4
 3848 000c 0022     		movs	r2, #0
 3849 000e 1A70     		strb	r2, [r3]
 886:..\Application/OS_Main.c ****     
 887:..\Application/OS_Main.c ****     Port2_W[0] = '\0';
 3850              		.loc 1 887 0
 3851 0010 064B     		ldr	r3, .L172+8
 3852 0012 0022     		movs	r2, #0
 3853 0014 1A70     		strb	r2, [r3]
 888:..\Application/OS_Main.c ****     In2[0] = '\0';
 3854              		.loc 1 888 0
 3855 0016 064B     		ldr	r3, .L172+12
 3856 0018 0022     		movs	r2, #0
 3857 001a 1A70     		strb	r2, [r3]
 889:..\Application/OS_Main.c ****     
ARM GAS  C:\Users\ali\AppData\Local\Temp\ccr9QJbk.s 			page 91


 890:..\Application/OS_Main.c ****     return;
 3858              		.loc 1 890 0
 3859 001c 00BF     		nop
 891:..\Application/OS_Main.c **** }
 3860              		.loc 1 891 0
 3861 001e BD46     		mov	sp, r7
 3862              		.cfi_def_cfa_register 13
 3863              		@ sp needed
 3864 0020 80BC     		pop	{r7}
 3865              		.cfi_restore 7
 3866              		.cfi_def_cfa_offset 0
 3867 0022 7047     		bx	lr
 3868              	.L173:
 3869              		.align	2
 3870              	.L172:
 3871 0024 00000000 		.word	Port1_W
 3872 0028 00000000 		.word	In1
 3873 002c 00000000 		.word	Port2_W
 3874 0030 00000000 		.word	In2
 3875              		.cfi_endproc
 3876              	.LFE80:
 3877              		.size	init_vars, .-init_vars
 3878              		.section	.text.timers_create,"ax",%progbits
 3879              		.align	2
 3880              		.global	timers_create
 3881              		.thumb
 3882              		.thumb_func
 3883              		.type	timers_create, %function
 3884              	timers_create:
 3885              	.LFB81:
 892:..\Application/OS_Main.c **** 
 893:..\Application/OS_Main.c **** void timers_create()
 894:..\Application/OS_Main.c **** {
 3886              		.loc 1 894 0
 3887              		.cfi_startproc
 3888              		@ args = 0, pretend = 0, frame = 0
 3889              		@ frame_needed = 1, uses_anonymous_args = 0
 3890 0000 80B5     		push	{r7, lr}
 3891              		.cfi_def_cfa_offset 8
 3892              		.cfi_offset 7, -8
 3893              		.cfi_offset 14, -4
 3894 0002 00AF     		add	r7, sp, #0
 3895              		.cfi_def_cfa_register 7
 895:..\Application/OS_Main.c ****     // Create without start.
 896:..\Application/OS_Main.c ****     OS_TIMER_Create(&Timer_Read_Linux, Timer_Read_Linux_Callback, 75);
 3896              		.loc 1 896 0
 3897 0004 4B22     		movs	r2, #75
 3898 0006 1949     		ldr	r1, .L176
 3899 0008 1948     		ldr	r0, .L176+4
 3900 000a FFF7FEFF 		bl	OS_TIMER_Create
 897:..\Application/OS_Main.c ****     
 898:..\Application/OS_Main.c ****     OS_TIMER_Create(&Timer_RGB_LED, Timer_RGB_LED_Callback, 1000);
 3901              		.loc 1 898 0
 3902 000e 4FF47A72 		mov	r2, #1000
 3903 0012 1849     		ldr	r1, .L176+8
 3904 0014 1848     		ldr	r0, .L176+12
 3905 0016 FFF7FEFF 		bl	OS_TIMER_Create
ARM GAS  C:\Users\ali\AppData\Local\Temp\ccr9QJbk.s 			page 92


 899:..\Application/OS_Main.c ****     
 900:..\Application/OS_Main.c ****     OS_TIMER_Create(&Timer_Read_W_Port1, Timer_Read_W_Port1_Callback, 75);
 3906              		.loc 1 900 0
 3907 001a 4B22     		movs	r2, #75
 3908 001c 1749     		ldr	r1, .L176+16
 3909 001e 1848     		ldr	r0, .L176+20
 3910 0020 FFF7FEFF 		bl	OS_TIMER_Create
 901:..\Application/OS_Main.c ****     OS_TIMER_Create(&Timer_Read_W_Port2, Timer_Read_W_Port2_Callback, 75);  
 3911              		.loc 1 901 0
 3912 0024 4B22     		movs	r2, #75
 3913 0026 1749     		ldr	r1, .L176+24
 3914 0028 1748     		ldr	r0, .L176+28
 3915 002a FFF7FEFF 		bl	OS_TIMER_Create
 902:..\Application/OS_Main.c ****     
 903:..\Application/OS_Main.c ****     OS_TIMER_Create(&Timer_AfterRead_In1, Timer_AfterRead_Input1_Callback, 500);
 3916              		.loc 1 903 0
 3917 002e 4FF4FA72 		mov	r2, #500
 3918 0032 1649     		ldr	r1, .L176+32
 3919 0034 1648     		ldr	r0, .L176+36
 3920 0036 FFF7FEFF 		bl	OS_TIMER_Create
 904:..\Application/OS_Main.c ****     OS_TIMER_Create(&Timer_AfterRead_Port1, Timer_AfterRead_Port1_Callback, 500);  
 3921              		.loc 1 904 0
 3922 003a 4FF4FA72 		mov	r2, #500
 3923 003e 1549     		ldr	r1, .L176+40
 3924 0040 1548     		ldr	r0, .L176+44
 3925 0042 FFF7FEFF 		bl	OS_TIMER_Create
 905:..\Application/OS_Main.c ****     
 906:..\Application/OS_Main.c ****     OS_TIMER_Create(&Timer_AfterRead_In2, Timer_AfterRead_Input2_Callback, 500);
 3926              		.loc 1 906 0
 3927 0046 4FF4FA72 		mov	r2, #500
 3928 004a 1449     		ldr	r1, .L176+48
 3929 004c 1448     		ldr	r0, .L176+52
 3930 004e FFF7FEFF 		bl	OS_TIMER_Create
 907:..\Application/OS_Main.c ****     OS_TIMER_Create(&Timer_AfterRead_Port2, Timer_AfterRead_Port2_Callback, 500);
 3931              		.loc 1 907 0
 3932 0052 4FF4FA72 		mov	r2, #500
 3933 0056 1349     		ldr	r1, .L176+56
 3934 0058 1348     		ldr	r0, .L176+60
 3935 005a FFF7FEFF 		bl	OS_TIMER_Create
 908:..\Application/OS_Main.c ****     
 909:..\Application/OS_Main.c ****     OS_TIMER_Create(&Timer_WD, Timer_WD_Callback, 100);
 3936              		.loc 1 909 0
 3937 005e 6422     		movs	r2, #100
 3938 0060 1249     		ldr	r1, .L176+64
 3939 0062 1348     		ldr	r0, .L176+68
 3940 0064 FFF7FEFF 		bl	OS_TIMER_Create
 910:..\Application/OS_Main.c ****     
 911:..\Application/OS_Main.c ****     return;
 3941              		.loc 1 911 0
 3942 0068 00BF     		nop
 912:..\Application/OS_Main.c **** }
 3943              		.loc 1 912 0
 3944 006a 80BD     		pop	{r7, pc}
 3945              	.L177:
 3946              		.align	2
 3947              	.L176:
 3948 006c 00000000 		.word	Timer_Read_Linux_Callback
ARM GAS  C:\Users\ali\AppData\Local\Temp\ccr9QJbk.s 			page 93


 3949 0070 00000000 		.word	Timer_Read_Linux
 3950 0074 00000000 		.word	Timer_RGB_LED_Callback
 3951 0078 00000000 		.word	Timer_RGB_LED
 3952 007c 00000000 		.word	Timer_Read_W_Port1_Callback
 3953 0080 00000000 		.word	Timer_Read_W_Port1
 3954 0084 00000000 		.word	Timer_Read_W_Port2_Callback
 3955 0088 00000000 		.word	Timer_Read_W_Port2
 3956 008c 00000000 		.word	Timer_AfterRead_Input1_Callback
 3957 0090 00000000 		.word	Timer_AfterRead_In1
 3958 0094 00000000 		.word	Timer_AfterRead_Port1_Callback
 3959 0098 00000000 		.word	Timer_AfterRead_Port1
 3960 009c 00000000 		.word	Timer_AfterRead_Input2_Callback
 3961 00a0 00000000 		.word	Timer_AfterRead_In2
 3962 00a4 00000000 		.word	Timer_AfterRead_Port2_Callback
 3963 00a8 00000000 		.word	Timer_AfterRead_Port2
 3964 00ac 00000000 		.word	Timer_WD_Callback
 3965 00b0 00000000 		.word	Timer_WD
 3966              		.cfi_endproc
 3967              	.LFE81:
 3968              		.size	timers_create, .-timers_create
 3969              		.section	.rodata
 3970 0679 000000   		.align	2
 3971              	.LC57:
 3972 067c 2A2A2A2A 		.ascii	"********************************* Start Cy IO *****"
 3972      2A2A2A2A 
 3972      2A2A2A2A 
 3972      2A2A2A2A 
 3972      2A2A2A2A 
 3973 06af 2A2A2A2A 		.ascii	"****************************\015\012\000"
 3973      2A2A2A2A 
 3973      2A2A2A2A 
 3973      2A2A2A2A 
 3973      2A2A2A2A 
 3974              		.section	.text.main,"ax",%progbits
 3975              		.align	2
 3976              		.global	main
 3977              		.thumb
 3978              		.thumb_func
 3979              		.type	main, %function
 3980              	main:
 3981              	.LFB82:
 913:..\Application/OS_Main.c **** 
 914:..\Application/OS_Main.c **** /*********************************************************************
 915:..\Application/OS_Main.c **** *
 916:..\Application/OS_Main.c **** *       main()
 917:..\Application/OS_Main.c **** */
 918:..\Application/OS_Main.c **** int main()
 919:..\Application/OS_Main.c **** {
 3982              		.loc 1 919 0
 3983              		.cfi_startproc
 3984              		@ args = 0, pretend = 0, frame = 0
 3985              		@ frame_needed = 1, uses_anonymous_args = 0
 3986 0000 80B5     		push	{r7, lr}
 3987              		.cfi_def_cfa_offset 8
 3988              		.cfi_offset 7, -8
 3989              		.cfi_offset 14, -4
 3990 0002 00AF     		add	r7, sp, #0
ARM GAS  C:\Users\ali\AppData\Local\Temp\ccr9QJbk.s 			page 94


 3991              		.cfi_def_cfa_register 7
 920:..\Application/OS_Main.c ****     CyGlobalIntEnable; /* Enable global interrupts. */
 3992              		.loc 1 920 0
 3993              		.syntax unified
 3994              	@ 920 "..\Application\OS_Main.c" 1
 3995 0004 62B6     		CPSIE   i
 3996              	@ 0 "" 2
 921:..\Application/OS_Main.c **** 
 922:..\Application/OS_Main.c ****     CyWdtStart(CYWDT_1024_TICKS, CYWDT_LPMODE_NOCHANGE); 
 3997              		.loc 1 922 0
 3998              		.thumb
 3999              		.syntax unified
 4000 0006 0021     		movs	r1, #0
 4001 0008 0320     		movs	r0, #3
 4002 000a FFF7FEFF 		bl	CyWdtStart
 923:..\Application/OS_Main.c ****     CyWdtClear(); 
 4003              		.loc 1 923 0
 4004 000e FFF7FEFF 		bl	CyWdtClear
 924:..\Application/OS_Main.c ****     
 925:..\Application/OS_Main.c ****     OS_Init();    // Initialize embOS
 4005              		.loc 1 925 0
 4006 0012 FFF7FEFF 		bl	OS_Init_STD
 926:..\Application/OS_Main.c ****     OS_InitHW();  // Initialize required hardware
 4007              		.loc 1 926 0
 4008 0016 FFF7FEFF 		bl	OS_InitHW
 927:..\Application/OS_Main.c ****     BSP_Init();   // Initialize LED ports
 4009              		.loc 1 927 0
 4010 001a FFF7FEFF 		bl	BSP_Init
 928:..\Application/OS_Main.c ****     
 929:..\Application/OS_Main.c ****     RGB_Color = 0;
 4011              		.loc 1 929 0
 4012 001e 1E4B     		ldr	r3, .L181
 4013 0020 0022     		movs	r2, #0
 4014 0022 1A70     		strb	r2, [r3]
 930:..\Application/OS_Main.c ****     RGB_Color_Old = 0;
 4015              		.loc 1 930 0
 4016 0024 1D4B     		ldr	r3, .L181+4
 4017 0026 0022     		movs	r2, #0
 4018 0028 1A70     		strb	r2, [r3]
 931:..\Application/OS_Main.c ****     RGB(RGB_Color); //Cypress run
 4019              		.loc 1 931 0
 4020 002a 1B4B     		ldr	r3, .L181
 4021 002c 1B78     		ldrb	r3, [r3]	@ zero_extendqisi2
 4022 002e 1846     		mov	r0, r3
 4023 0030 FFF7FEFF 		bl	RGB
 932:..\Application/OS_Main.c ****     
 933:..\Application/OS_Main.c ****     //CyDelay(1000);
 934:..\Application/OS_Main.c ****     
 935:..\Application/OS_Main.c ****     intrrupt_init();
 4024              		.loc 1 935 0
 4025 0034 FFF7FEFF 		bl	intrrupt_init
 936:..\Application/OS_Main.c ****     CyWdtClear(); 
 4026              		.loc 1 936 0
 4027 0038 FFF7FEFF 		bl	CyWdtClear
 937:..\Application/OS_Main.c ****     timers_create();
 4028              		.loc 1 937 0
 4029 003c FFF7FEFF 		bl	timers_create
ARM GAS  C:\Users\ali\AppData\Local\Temp\ccr9QJbk.s 			page 95


 938:..\Application/OS_Main.c ****     CyWdtClear(); 
 4030              		.loc 1 938 0
 4031 0040 FFF7FEFF 		bl	CyWdtClear
 939:..\Application/OS_Main.c ****     init_vars();
 4032              		.loc 1 939 0
 4033 0044 FFF7FEFF 		bl	init_vars
 940:..\Application/OS_Main.c ****     CyWdtClear(); 
 4034              		.loc 1 940 0
 4035 0048 FFF7FEFF 		bl	CyWdtClear
 941:..\Application/OS_Main.c ****     
 942:..\Application/OS_Main.c ****     UART_Debug_PutString("********************************* Start Cy IO ***************************
 4036              		.loc 1 942 0
 4037 004c 1448     		ldr	r0, .L181+8
 4038 004e FFF7FEFF 		bl	UART_Debug_PutString
 943:..\Application/OS_Main.c ****     CyWdtClear(); 
 4039              		.loc 1 943 0
 4040 0052 FFF7FEFF 		bl	CyWdtClear
 944:..\Application/OS_Main.c ****     cymonitoring_get_lastWtd();
 4041              		.loc 1 944 0
 4042 0056 FFF7FEFF 		bl	cymonitoring_get_lastWtd
 945:..\Application/OS_Main.c ****     CyWdtClear(); 
 4043              		.loc 1 945 0
 4044 005a FFF7FEFF 		bl	CyWdtClear
 946:..\Application/OS_Main.c ****     
 947:..\Application/OS_Main.c ****     RGB_Color = 1;
 4045              		.loc 1 947 0
 4046 005e 0E4B     		ldr	r3, .L181
 4047 0060 0122     		movs	r2, #1
 4048 0062 1A70     		strb	r2, [r3]
 948:..\Application/OS_Main.c ****     RGB_Color_Old = 1;
 4049              		.loc 1 948 0
 4050 0064 0D4B     		ldr	r3, .L181+4
 4051 0066 0122     		movs	r2, #1
 4052 0068 1A70     		strb	r2, [r3]
 949:..\Application/OS_Main.c ****     RGB(RGB_Color); //Cypress run
 4053              		.loc 1 949 0
 4054 006a 0B4B     		ldr	r3, .L181
 4055 006c 1B78     		ldrb	r3, [r3]	@ zero_extendqisi2
 4056 006e 1846     		mov	r0, r3
 4057 0070 FFF7FEFF 		bl	RGB
 950:..\Application/OS_Main.c ****     
 951:..\Application/OS_Main.c ****     Timer_WD_Callback();
 4058              		.loc 1 951 0
 4059 0074 FFF7FEFF 		bl	Timer_WD_Callback
 952:..\Application/OS_Main.c ****     
 953:..\Application/OS_Main.c ****     OS_Start();   // Start embOS
 4060              		.loc 1 953 0
 4061 0078 FFF7FEFF 		bl	OS_INFO_GetVersion
 4062 007c 0246     		mov	r2, r0
 4063 007e 4CF69113 		movw	r3, #51601
 4064 0082 9A42     		cmp	r2, r3
 4065 0084 02D0     		beq	.L179
 4066              		.loc 1 953 0 is_stmt 0 discriminator 1
 4067 0086 FD20     		movs	r0, #253
 4068 0088 FFF7FEFF 		bl	OS_Error
 4069              	.L179:
 4070              		.loc 1 953 0 discriminator 3
ARM GAS  C:\Users\ali\AppData\Local\Temp\ccr9QJbk.s 			page 96


 4071 008c FFF7FEFF 		bl	OS__Start
 954:..\Application/OS_Main.c ****     
 955:..\Application/OS_Main.c ****     return 0;
 4072              		.loc 1 955 0 is_stmt 1 discriminator 3
 4073 0090 0023     		movs	r3, #0
 956:..\Application/OS_Main.c **** }
 4074              		.loc 1 956 0 discriminator 3
 4075 0092 1846     		mov	r0, r3
 4076 0094 80BD     		pop	{r7, pc}
 4077              	.L182:
 4078 0096 00BF     		.align	2
 4079              	.L181:
 4080 0098 00000000 		.word	RGB_Color
 4081 009c 00000000 		.word	RGB_Color_Old
 4082 00a0 7C060000 		.word	.LC57
 4083              		.cfi_endproc
 4084              	.LFE82:
 4085              		.size	main, .-main
 4086              		.text
 4087              	.Letext0:
 4088              		.file 2 "..\\..\\..\\..\\Inc/RTOS.h"
 4089              		.file 3 "c:\\program files (x86)\\cypress\\psoc creator\\4.4\\psoc creator\\import\\gnu\\arm\\5.4.
 4090              		.file 4 "c:\\program files (x86)\\cypress\\psoc creator\\4.4\\psoc creator\\import\\gnu\\arm\\5.4.
 4091              		.file 5 "Generated_Source\\PSoC5/cytypes.h"
 4092              		.file 6 "Generated_Source\\PSoC5/core_cm3.h"
 4093              		.file 7 "./OS_Main.h"
 4094              		.section	.debug_info,"",%progbits
 4095              	.Ldebug_info0:
 4096 0000 D91A0000 		.4byte	0x1ad9
 4097 0004 0400     		.2byte	0x4
 4098 0006 00000000 		.4byte	.Ldebug_abbrev0
 4099 000a 04       		.byte	0x4
 4100 000b 01       		.uleb128 0x1
 4101 000c 7E0C0000 		.4byte	.LASF411
 4102 0010 0C       		.byte	0xc
 4103 0011 2C030000 		.4byte	.LASF412
 4104 0015 71120000 		.4byte	.LASF413
 4105 0019 00000000 		.4byte	.Ldebug_ranges0+0
 4106 001d 00000000 		.4byte	0
 4107 0021 00000000 		.4byte	.Ldebug_line0
 4108 0025 02       		.uleb128 0x2
 4109 0026 04       		.byte	0x4
 4110 0027 05       		.byte	0x5
 4111 0028 696E7400 		.ascii	"int\000"
 4112 002c 03       		.uleb128 0x3
 4113 002d 04       		.byte	0x4
 4114 002e 07       		.byte	0x7
 4115 002f D90F0000 		.4byte	.LASF0
 4116 0033 03       		.uleb128 0x3
 4117 0034 08       		.byte	0x8
 4118 0035 05       		.byte	0x5
 4119 0036 CB0D0000 		.4byte	.LASF1
 4120 003a 03       		.uleb128 0x3
 4121 003b 08       		.byte	0x8
 4122 003c 04       		.byte	0x4
 4123 003d E0110000 		.4byte	.LASF2
 4124 0041 03       		.uleb128 0x3
ARM GAS  C:\Users\ali\AppData\Local\Temp\ccr9QJbk.s 			page 97


 4125 0042 01       		.byte	0x1
 4126 0043 06       		.byte	0x6
 4127 0044 08040000 		.4byte	.LASF3
 4128 0048 03       		.uleb128 0x3
 4129 0049 01       		.byte	0x1
 4130 004a 08       		.byte	0x8
 4131 004b 03050000 		.4byte	.LASF4
 4132 004f 03       		.uleb128 0x3
 4133 0050 02       		.byte	0x2
 4134 0051 05       		.byte	0x5
 4135 0052 94160000 		.4byte	.LASF5
 4136 0056 03       		.uleb128 0x3
 4137 0057 02       		.byte	0x2
 4138 0058 07       		.byte	0x7
 4139 0059 111A0000 		.4byte	.LASF6
 4140 005d 04       		.uleb128 0x4
 4141 005e BA1A0000 		.4byte	.LASF30
 4142 0062 03       		.byte	0x3
 4143 0063 3F       		.byte	0x3f
 4144 0064 68000000 		.4byte	0x68
 4145 0068 03       		.uleb128 0x3
 4146 0069 04       		.byte	0x4
 4147 006a 05       		.byte	0x5
 4148 006b D1020000 		.4byte	.LASF7
 4149 006f 03       		.uleb128 0x3
 4150 0070 04       		.byte	0x4
 4151 0071 07       		.byte	0x7
 4152 0072 9C0A0000 		.4byte	.LASF8
 4153 0076 03       		.uleb128 0x3
 4154 0077 08       		.byte	0x8
 4155 0078 07       		.byte	0x7
 4156 0079 BA130000 		.4byte	.LASF9
 4157 007d 03       		.uleb128 0x3
 4158 007e 04       		.byte	0x4
 4159 007f 07       		.byte	0x7
 4160 0080 57000000 		.4byte	.LASF10
 4161 0084 05       		.uleb128 0x5
 4162 0085 04       		.byte	0x4
 4163 0086 06       		.uleb128 0x6
 4164 0087 04       		.byte	0x4
 4165 0088 8C000000 		.4byte	0x8c
 4166 008c 03       		.uleb128 0x3
 4167 008d 01       		.byte	0x1
 4168 008e 08       		.byte	0x8
 4169 008f 9B060000 		.4byte	.LASF11
 4170 0093 06       		.uleb128 0x6
 4171 0094 04       		.byte	0x4
 4172 0095 99000000 		.4byte	0x99
 4173 0099 07       		.uleb128 0x7
 4174 009a 06       		.uleb128 0x6
 4175 009b 04       		.byte	0x4
 4176 009c 48000000 		.4byte	0x48
 4177 00a0 06       		.uleb128 0x6
 4178 00a1 04       		.byte	0x4
 4179 00a2 A6000000 		.4byte	0xa6
 4180 00a6 08       		.uleb128 0x8
 4181 00a7 8C000000 		.4byte	0x8c
ARM GAS  C:\Users\ali\AppData\Local\Temp\ccr9QJbk.s 			page 98


 4182 00ab 09       		.uleb128 0x9
 4183 00ac 48       		.byte	0x48
 4184 00ad 02       		.byte	0x2
 4185 00ae 1001     		.2byte	0x110
 4186 00b0 9F010000 		.4byte	0x19f
 4187 00b4 0A       		.uleb128 0xa
 4188 00b5 AF010000 		.4byte	.LASF12
 4189 00b9 02       		.byte	0x2
 4190 00ba 1101     		.2byte	0x111
 4191 00bc 6F000000 		.4byte	0x6f
 4192 00c0 00       		.byte	0
 4193 00c1 0A       		.uleb128 0xa
 4194 00c2 200D0000 		.4byte	.LASF13
 4195 00c6 02       		.byte	0x2
 4196 00c7 1201     		.2byte	0x112
 4197 00c9 6F000000 		.4byte	0x6f
 4198 00cd 04       		.byte	0x4
 4199 00ce 0A       		.uleb128 0xa
 4200 00cf 2A0D0000 		.4byte	.LASF14
 4201 00d3 02       		.byte	0x2
 4202 00d4 1301     		.2byte	0x113
 4203 00d6 6F000000 		.4byte	0x6f
 4204 00da 08       		.byte	0x8
 4205 00db 0A       		.uleb128 0xa
 4206 00dc 340D0000 		.4byte	.LASF15
 4207 00e0 02       		.byte	0x2
 4208 00e1 1401     		.2byte	0x114
 4209 00e3 6F000000 		.4byte	0x6f
 4210 00e7 0C       		.byte	0xc
 4211 00e8 0A       		.uleb128 0xa
 4212 00e9 3E0D0000 		.4byte	.LASF16
 4213 00ed 02       		.byte	0x2
 4214 00ee 1501     		.2byte	0x115
 4215 00f0 6F000000 		.4byte	0x6f
 4216 00f4 10       		.byte	0x10
 4217 00f5 0A       		.uleb128 0xa
 4218 00f6 480D0000 		.4byte	.LASF17
 4219 00fa 02       		.byte	0x2
 4220 00fb 1601     		.2byte	0x116
 4221 00fd 6F000000 		.4byte	0x6f
 4222 0101 14       		.byte	0x14
 4223 0102 0A       		.uleb128 0xa
 4224 0103 520D0000 		.4byte	.LASF18
 4225 0107 02       		.byte	0x2
 4226 0108 1701     		.2byte	0x117
 4227 010a 6F000000 		.4byte	0x6f
 4228 010e 18       		.byte	0x18
 4229 010f 0A       		.uleb128 0xa
 4230 0110 35060000 		.4byte	.LASF19
 4231 0114 02       		.byte	0x2
 4232 0115 1801     		.2byte	0x118
 4233 0117 6F000000 		.4byte	0x6f
 4234 011b 1C       		.byte	0x1c
 4235 011c 0A       		.uleb128 0xa
 4236 011d 40060000 		.4byte	.LASF20
 4237 0121 02       		.byte	0x2
 4238 0122 1901     		.2byte	0x119
ARM GAS  C:\Users\ali\AppData\Local\Temp\ccr9QJbk.s 			page 99


 4239 0124 6F000000 		.4byte	0x6f
 4240 0128 20       		.byte	0x20
 4241 0129 0A       		.uleb128 0xa
 4242 012a 6F070000 		.4byte	.LASF21
 4243 012e 02       		.byte	0x2
 4244 012f 1A01     		.2byte	0x11a
 4245 0131 6F000000 		.4byte	0x6f
 4246 0135 24       		.byte	0x24
 4247 0136 0A       		.uleb128 0xa
 4248 0137 740C0000 		.4byte	.LASF22
 4249 013b 02       		.byte	0x2
 4250 013c 1B01     		.2byte	0x11b
 4251 013e 6F000000 		.4byte	0x6f
 4252 0142 28       		.byte	0x28
 4253 0143 0A       		.uleb128 0xa
 4254 0144 010C0000 		.4byte	.LASF23
 4255 0148 02       		.byte	0x2
 4256 0149 1C01     		.2byte	0x11c
 4257 014b 6F000000 		.4byte	0x6f
 4258 014f 2C       		.byte	0x2c
 4259 0150 0A       		.uleb128 0xa
 4260 0151 0C0D0000 		.4byte	.LASF24
 4261 0155 02       		.byte	0x2
 4262 0156 1D01     		.2byte	0x11d
 4263 0158 6F000000 		.4byte	0x6f
 4264 015c 30       		.byte	0x30
 4265 015d 0A       		.uleb128 0xa
 4266 015e 160D0000 		.4byte	.LASF25
 4267 0162 02       		.byte	0x2
 4268 0163 1E01     		.2byte	0x11e
 4269 0165 6F000000 		.4byte	0x6f
 4270 0169 34       		.byte	0x34
 4271 016a 0A       		.uleb128 0xa
 4272 016b 4B060000 		.4byte	.LASF26
 4273 016f 02       		.byte	0x2
 4274 0170 1F01     		.2byte	0x11f
 4275 0172 6F000000 		.4byte	0x6f
 4276 0176 38       		.byte	0x38
 4277 0177 0A       		.uleb128 0xa
 4278 0178 56060000 		.4byte	.LASF27
 4279 017c 02       		.byte	0x2
 4280 017d 2001     		.2byte	0x120
 4281 017f 6F000000 		.4byte	0x6f
 4282 0183 3C       		.byte	0x3c
 4283 0184 0A       		.uleb128 0xa
 4284 0185 C40A0000 		.4byte	.LASF28
 4285 0189 02       		.byte	0x2
 4286 018a 2101     		.2byte	0x121
 4287 018c 6F000000 		.4byte	0x6f
 4288 0190 40       		.byte	0x40
 4289 0191 0A       		.uleb128 0xa
 4290 0192 85150000 		.4byte	.LASF29
 4291 0196 02       		.byte	0x2
 4292 0197 2201     		.2byte	0x122
 4293 0199 6F000000 		.4byte	0x6f
 4294 019d 44       		.byte	0x44
 4295 019e 00       		.byte	0
ARM GAS  C:\Users\ali\AppData\Local\Temp\ccr9QJbk.s 			page 100


 4296 019f 0B       		.uleb128 0xb
 4297 01a0 C41A0000 		.4byte	.LASF31
 4298 01a4 02       		.byte	0x2
 4299 01a5 2301     		.2byte	0x123
 4300 01a7 AB000000 		.4byte	0xab
 4301 01ab 09       		.uleb128 0x9
 4302 01ac 48       		.byte	0x48
 4303 01ad 02       		.byte	0x2
 4304 01ae 2501     		.2byte	0x125
 4305 01b0 C2010000 		.4byte	0x1c2
 4306 01b4 0A       		.uleb128 0xa
 4307 01b5 24150000 		.4byte	.LASF32
 4308 01b9 02       		.byte	0x2
 4309 01ba 2601     		.2byte	0x126
 4310 01bc 9F010000 		.4byte	0x19f
 4311 01c0 00       		.byte	0
 4312 01c1 00       		.byte	0
 4313 01c2 0B       		.uleb128 0xb
 4314 01c3 8C160000 		.4byte	.LASF33
 4315 01c7 02       		.byte	0x2
 4316 01c8 2701     		.2byte	0x127
 4317 01ca AB010000 		.4byte	0x1ab
 4318 01ce 09       		.uleb128 0x9
 4319 01cf 34       		.byte	0x34
 4320 01d0 02       		.byte	0x2
 4321 01d1 2D01     		.2byte	0x12d
 4322 01d3 81020000 		.4byte	0x281
 4323 01d7 0A       		.uleb128 0xa
 4324 01d8 81070000 		.4byte	.LASF34
 4325 01dc 02       		.byte	0x2
 4326 01dd 2E01     		.2byte	0x12e
 4327 01df 6F000000 		.4byte	0x6f
 4328 01e3 00       		.byte	0
 4329 01e4 0A       		.uleb128 0xa
 4330 01e5 A20E0000 		.4byte	.LASF35
 4331 01e9 02       		.byte	0x2
 4332 01ea 2F01     		.2byte	0x12f
 4333 01ec 6F000000 		.4byte	0x6f
 4334 01f0 04       		.byte	0x4
 4335 01f1 0A       		.uleb128 0xa
 4336 01f2 6F070000 		.4byte	.LASF21
 4337 01f6 02       		.byte	0x2
 4338 01f7 3001     		.2byte	0x130
 4339 01f9 6F000000 		.4byte	0x6f
 4340 01fd 08       		.byte	0x8
 4341 01fe 0A       		.uleb128 0xa
 4342 01ff 200D0000 		.4byte	.LASF13
 4343 0203 02       		.byte	0x2
 4344 0204 3101     		.2byte	0x131
 4345 0206 6F000000 		.4byte	0x6f
 4346 020a 0C       		.byte	0xc
 4347 020b 0A       		.uleb128 0xa
 4348 020c 2A0D0000 		.4byte	.LASF14
 4349 0210 02       		.byte	0x2
 4350 0211 3201     		.2byte	0x132
 4351 0213 6F000000 		.4byte	0x6f
 4352 0217 10       		.byte	0x10
ARM GAS  C:\Users\ali\AppData\Local\Temp\ccr9QJbk.s 			page 101


 4353 0218 0A       		.uleb128 0xa
 4354 0219 340D0000 		.4byte	.LASF15
 4355 021d 02       		.byte	0x2
 4356 021e 3301     		.2byte	0x133
 4357 0220 6F000000 		.4byte	0x6f
 4358 0224 14       		.byte	0x14
 4359 0225 0A       		.uleb128 0xa
 4360 0226 3E0D0000 		.4byte	.LASF16
 4361 022a 02       		.byte	0x2
 4362 022b 3401     		.2byte	0x134
 4363 022d 6F000000 		.4byte	0x6f
 4364 0231 18       		.byte	0x18
 4365 0232 0A       		.uleb128 0xa
 4366 0233 480D0000 		.4byte	.LASF17
 4367 0237 02       		.byte	0x2
 4368 0238 3501     		.2byte	0x135
 4369 023a 6F000000 		.4byte	0x6f
 4370 023e 1C       		.byte	0x1c
 4371 023f 0A       		.uleb128 0xa
 4372 0240 520D0000 		.4byte	.LASF18
 4373 0244 02       		.byte	0x2
 4374 0245 3601     		.2byte	0x136
 4375 0247 6F000000 		.4byte	0x6f
 4376 024b 20       		.byte	0x20
 4377 024c 0A       		.uleb128 0xa
 4378 024d 35060000 		.4byte	.LASF19
 4379 0251 02       		.byte	0x2
 4380 0252 3701     		.2byte	0x137
 4381 0254 6F000000 		.4byte	0x6f
 4382 0258 24       		.byte	0x24
 4383 0259 0A       		.uleb128 0xa
 4384 025a 40060000 		.4byte	.LASF20
 4385 025e 02       		.byte	0x2
 4386 025f 3801     		.2byte	0x138
 4387 0261 6F000000 		.4byte	0x6f
 4388 0265 28       		.byte	0x28
 4389 0266 0A       		.uleb128 0xa
 4390 0267 38090000 		.4byte	.LASF36
 4391 026b 02       		.byte	0x2
 4392 026c 3901     		.2byte	0x139
 4393 026e 84000000 		.4byte	0x84
 4394 0272 2C       		.byte	0x2c
 4395 0273 0A       		.uleb128 0xa
 4396 0274 81020000 		.4byte	.LASF37
 4397 0278 02       		.byte	0x2
 4398 0279 3A01     		.2byte	0x13a
 4399 027b 6F000000 		.4byte	0x6f
 4400 027f 30       		.byte	0x30
 4401 0280 00       		.byte	0
 4402 0281 0B       		.uleb128 0xb
 4403 0282 40170000 		.4byte	.LASF38
 4404 0286 02       		.byte	0x2
 4405 0287 3B01     		.2byte	0x13b
 4406 0289 CE010000 		.4byte	0x1ce
 4407 028d 0C       		.uleb128 0xc
 4408 028e 98020000 		.4byte	0x298
 4409 0292 0D       		.uleb128 0xd
ARM GAS  C:\Users\ali\AppData\Local\Temp\ccr9QJbk.s 			page 102


 4410 0293 6F000000 		.4byte	0x6f
 4411 0297 00       		.byte	0
 4412 0298 06       		.uleb128 0x6
 4413 0299 04       		.byte	0x4
 4414 029a 8D020000 		.4byte	0x28d
 4415 029e 0E       		.uleb128 0xe
 4416 029f 02       		.byte	0x2
 4417 02a0 56000000 		.4byte	0x56
 4418 02a4 02       		.byte	0x2
 4419 02a5 E404     		.2byte	0x4e4
 4420 02a7 6F050000 		.4byte	0x56f
 4421 02ab 0F       		.uleb128 0xf
 4422 02ac 91000000 		.4byte	.LASF39
 4423 02b0 00       		.byte	0
 4424 02b1 0F       		.uleb128 0xf
 4425 02b2 F00B0000 		.4byte	.LASF40
 4426 02b6 64       		.byte	0x64
 4427 02b7 0F       		.uleb128 0xf
 4428 02b8 1C160000 		.4byte	.LASF41
 4429 02bc 65       		.byte	0x65
 4430 02bd 0F       		.uleb128 0xf
 4431 02be 11050000 		.4byte	.LASF42
 4432 02c2 66       		.byte	0x66
 4433 02c3 0F       		.uleb128 0xf
 4434 02c4 400A0000 		.4byte	.LASF43
 4435 02c8 67       		.byte	0x67
 4436 02c9 0F       		.uleb128 0xf
 4437 02ca B50D0000 		.4byte	.LASF44
 4438 02ce 68       		.byte	0x68
 4439 02cf 0F       		.uleb128 0xf
 4440 02d0 471B0000 		.4byte	.LASF45
 4441 02d4 69       		.byte	0x69
 4442 02d5 0F       		.uleb128 0xf
 4443 02d6 E1080000 		.4byte	.LASF46
 4444 02da 6A       		.byte	0x6a
 4445 02db 0F       		.uleb128 0xf
 4446 02dc F70F0000 		.4byte	.LASF47
 4447 02e0 74       		.byte	0x74
 4448 02e1 0F       		.uleb128 0xf
 4449 02e2 5E030000 		.4byte	.LASF48
 4450 02e6 76       		.byte	0x76
 4451 02e7 0F       		.uleb128 0xf
 4452 02e8 AF070000 		.4byte	.LASF49
 4453 02ec 77       		.byte	0x77
 4454 02ed 0F       		.uleb128 0xf
 4455 02ee AC0E0000 		.4byte	.LASF50
 4456 02f2 78       		.byte	0x78
 4457 02f3 0F       		.uleb128 0xf
 4458 02f4 BE100000 		.4byte	.LASF51
 4459 02f8 79       		.byte	0x79
 4460 02f9 0F       		.uleb128 0xf
 4461 02fa 4A040000 		.4byte	.LASF52
 4462 02fe 7A       		.byte	0x7a
 4463 02ff 0F       		.uleb128 0xf
 4464 0300 CE080000 		.4byte	.LASF53
 4465 0304 7B       		.byte	0x7b
 4466 0305 0F       		.uleb128 0xf
ARM GAS  C:\Users\ali\AppData\Local\Temp\ccr9QJbk.s 			page 103


 4467 0306 B8040000 		.4byte	.LASF54
 4468 030a 7C       		.byte	0x7c
 4469 030b 0F       		.uleb128 0xf
 4470 030c 38080000 		.4byte	.LASF55
 4471 0310 7D       		.byte	0x7d
 4472 0311 0F       		.uleb128 0xf
 4473 0312 D3170000 		.4byte	.LASF56
 4474 0316 7E       		.byte	0x7e
 4475 0317 0F       		.uleb128 0xf
 4476 0318 8E130000 		.4byte	.LASF57
 4477 031c 80       		.byte	0x80
 4478 031d 0F       		.uleb128 0xf
 4479 031e 65140000 		.4byte	.LASF58
 4480 0322 81       		.byte	0x81
 4481 0323 0F       		.uleb128 0xf
 4482 0324 A5020000 		.4byte	.LASF59
 4483 0328 82       		.byte	0x82
 4484 0329 0F       		.uleb128 0xf
 4485 032a CB180000 		.4byte	.LASF60
 4486 032e 84       		.byte	0x84
 4487 032f 0F       		.uleb128 0xf
 4488 0330 1E070000 		.4byte	.LASF61
 4489 0334 85       		.byte	0x85
 4490 0335 0F       		.uleb128 0xf
 4491 0336 A61A0000 		.4byte	.LASF62
 4492 033a 87       		.byte	0x87
 4493 033b 0F       		.uleb128 0xf
 4494 033c EE170000 		.4byte	.LASF63
 4495 0340 88       		.byte	0x88
 4496 0341 0F       		.uleb128 0xf
 4497 0342 F8150000 		.4byte	.LASF64
 4498 0346 89       		.byte	0x89
 4499 0347 0F       		.uleb128 0xf
 4500 0348 F8020000 		.4byte	.LASF65
 4501 034c 8A       		.byte	0x8a
 4502 034d 0F       		.uleb128 0xf
 4503 034e 21190000 		.4byte	.LASF66
 4504 0352 8C       		.byte	0x8c
 4505 0353 0F       		.uleb128 0xf
 4506 0354 900F0000 		.4byte	.LASF67
 4507 0358 8E       		.byte	0x8e
 4508 0359 0F       		.uleb128 0xf
 4509 035a 7D0F0000 		.4byte	.LASF68
 4510 035e 8F       		.byte	0x8f
 4511 035f 0F       		.uleb128 0xf
 4512 0360 18020000 		.4byte	.LASF69
 4513 0364 90       		.byte	0x90
 4514 0365 0F       		.uleb128 0xf
 4515 0366 4D100000 		.4byte	.LASF70
 4516 036a 91       		.byte	0x91
 4517 036b 0F       		.uleb128 0xf
 4518 036c F7090000 		.4byte	.LASF71
 4519 0370 92       		.byte	0x92
 4520 0371 0F       		.uleb128 0xf
 4521 0372 3E050000 		.4byte	.LASF72
 4522 0376 93       		.byte	0x93
 4523 0377 0F       		.uleb128 0xf
ARM GAS  C:\Users\ali\AppData\Local\Temp\ccr9QJbk.s 			page 104


 4524 0378 5C0D0000 		.4byte	.LASF73
 4525 037c 94       		.byte	0x94
 4526 037d 0F       		.uleb128 0xf
 4527 037e 8C020000 		.4byte	.LASF74
 4528 0382 95       		.byte	0x95
 4529 0383 0F       		.uleb128 0xf
 4530 0384 90070000 		.4byte	.LASF75
 4531 0388 96       		.byte	0x96
 4532 0389 0F       		.uleb128 0xf
 4533 038a 9B030000 		.4byte	.LASF76
 4534 038e 97       		.byte	0x97
 4535 038f 0F       		.uleb128 0xf
 4536 0390 CB040000 		.4byte	.LASF77
 4537 0394 98       		.byte	0x98
 4538 0395 0F       		.uleb128 0xf
 4539 0396 1D180000 		.4byte	.LASF78
 4540 039a 99       		.byte	0x99
 4541 039b 0F       		.uleb128 0xf
 4542 039c C5090000 		.4byte	.LASF79
 4543 03a0 9A       		.byte	0x9a
 4544 03a1 0F       		.uleb128 0xf
 4545 03a2 DA030000 		.4byte	.LASF80
 4546 03a6 9B       		.byte	0x9b
 4547 03a7 0F       		.uleb128 0xf
 4548 03a8 6E020000 		.4byte	.LASF81
 4549 03ac 9C       		.byte	0x9c
 4550 03ad 0F       		.uleb128 0xf
 4551 03ae 27090000 		.4byte	.LASF82
 4552 03b2 9D       		.byte	0x9d
 4553 03b3 0F       		.uleb128 0xf
 4554 03b4 0A1B0000 		.4byte	.LASF83
 4555 03b8 9E       		.byte	0x9e
 4556 03b9 0F       		.uleb128 0xf
 4557 03ba 22080000 		.4byte	.LASF84
 4558 03be 9F       		.byte	0x9f
 4559 03bf 0F       		.uleb128 0xf
 4560 03c0 85180000 		.4byte	.LASF85
 4561 03c4 A0       		.byte	0xa0
 4562 03c5 0F       		.uleb128 0xf
 4563 03c6 61130000 		.4byte	.LASF86
 4564 03ca A1       		.byte	0xa1
 4565 03cb 0F       		.uleb128 0xf
 4566 03cc 9B150000 		.4byte	.LASF87
 4567 03d0 A2       		.byte	0xa2
 4568 03d1 0F       		.uleb128 0xf
 4569 03d2 21120000 		.4byte	.LASF88
 4570 03d6 A3       		.byte	0xa3
 4571 03d7 0F       		.uleb128 0xf
 4572 03d8 33180000 		.4byte	.LASF89
 4573 03dc A4       		.byte	0xa4
 4574 03dd 0F       		.uleb128 0xf
 4575 03de 58070000 		.4byte	.LASF90
 4576 03e2 A5       		.byte	0xa5
 4577 03e3 0F       		.uleb128 0xf
 4578 03e4 C6160000 		.4byte	.LASF91
 4579 03e8 A6       		.byte	0xa6
 4580 03e9 0F       		.uleb128 0xf
ARM GAS  C:\Users\ali\AppData\Local\Temp\ccr9QJbk.s 			page 105


 4581 03ea C1030000 		.4byte	.LASF92
 4582 03ee A7       		.byte	0xa7
 4583 03ef 0F       		.uleb128 0xf
 4584 03f0 0B0A0000 		.4byte	.LASF93
 4585 03f4 A8       		.byte	0xa8
 4586 03f5 0F       		.uleb128 0xf
 4587 03f6 8D140000 		.4byte	.LASF94
 4588 03fa A9       		.byte	0xa9
 4589 03fb 0F       		.uleb128 0xf
 4590 03fc E60F0000 		.4byte	.LASF95
 4591 0400 AA       		.byte	0xaa
 4592 0401 0F       		.uleb128 0xf
 4593 0402 1C040000 		.4byte	.LASF96
 4594 0406 AB       		.byte	0xab
 4595 0407 0F       		.uleb128 0xf
 4596 0408 44070000 		.4byte	.LASF97
 4597 040c AC       		.byte	0xac
 4598 040d 0F       		.uleb128 0xf
 4599 040e F00E0000 		.4byte	.LASF98
 4600 0412 AE       		.byte	0xae
 4601 0413 0F       		.uleb128 0xf
 4602 0414 12150000 		.4byte	.LASF99
 4603 0418 AF       		.byte	0xaf
 4604 0419 0F       		.uleb128 0xf
 4605 041a 6C110000 		.4byte	.LASF100
 4606 041e B0       		.byte	0xb0
 4607 041f 0F       		.uleb128 0xf
 4608 0420 CE110000 		.4byte	.LASF101
 4609 0424 B1       		.byte	0xb1
 4610 0425 0F       		.uleb128 0xf
 4611 0426 73150000 		.4byte	.LASF102
 4612 042a B2       		.byte	0xb2
 4613 042b 0F       		.uleb128 0xf
 4614 042c 89110000 		.4byte	.LASF103
 4615 0430 B3       		.byte	0xb3
 4616 0431 0F       		.uleb128 0xf
 4617 0432 43010000 		.4byte	.LASF104
 4618 0436 B4       		.byte	0xb4
 4619 0437 0F       		.uleb128 0xf
 4620 0438 100B0000 		.4byte	.LASF105
 4621 043c B5       		.byte	0xb5
 4622 043d 0F       		.uleb128 0xf
 4623 043e 7B1A0000 		.4byte	.LASF106
 4624 0442 B9       		.byte	0xb9
 4625 0443 0F       		.uleb128 0xf
 4626 0444 9E040000 		.4byte	.LASF107
 4627 0448 BE       		.byte	0xbe
 4628 0449 0F       		.uleb128 0xf
 4629 044a 60000000 		.4byte	.LASF108
 4630 044e BF       		.byte	0xbf
 4631 044f 0F       		.uleb128 0xf
 4632 0450 AA190000 		.4byte	.LASF109
 4633 0454 C0       		.byte	0xc0
 4634 0455 0F       		.uleb128 0xf
 4635 0456 58110000 		.4byte	.LASF110
 4636 045a C1       		.byte	0xc1
 4637 045b 0F       		.uleb128 0xf
ARM GAS  C:\Users\ali\AppData\Local\Temp\ccr9QJbk.s 			page 106


 4638 045c D6140000 		.4byte	.LASF111
 4639 0460 C2       		.byte	0xc2
 4640 0461 0F       		.uleb128 0xf
 4641 0462 F8180000 		.4byte	.LASF112
 4642 0466 C3       		.byte	0xc3
 4643 0467 0F       		.uleb128 0xf
 4644 0468 1C000000 		.4byte	.LASF113
 4645 046c C8       		.byte	0xc8
 4646 046d 0F       		.uleb128 0xf
 4647 046e 21050000 		.4byte	.LASF114
 4648 0472 C9       		.byte	0xc9
 4649 0473 0F       		.uleb128 0xf
 4650 0474 07000000 		.4byte	.LASF115
 4651 0478 CA       		.byte	0xca
 4652 0479 0F       		.uleb128 0xf
 4653 047a 04120000 		.4byte	.LASF116
 4654 047e CB       		.byte	0xcb
 4655 047f 0F       		.uleb128 0xf
 4656 0480 13130000 		.4byte	.LASF117
 4657 0484 CD       		.byte	0xcd
 4658 0485 0F       		.uleb128 0xf
 4659 0486 2F070000 		.4byte	.LASF118
 4660 048a D2       		.byte	0xd2
 4661 048b 0F       		.uleb128 0xf
 4662 048c E4150000 		.4byte	.LASF119
 4663 0490 D4       		.byte	0xd4
 4664 0491 0F       		.uleb128 0xf
 4665 0492 C3070000 		.4byte	.LASF120
 4666 0496 DC       		.byte	0xdc
 4667 0497 0F       		.uleb128 0xf
 4668 0498 1C170000 		.4byte	.LASF121
 4669 049c DD       		.byte	0xdd
 4670 049d 0F       		.uleb128 0xf
 4671 049e F2160000 		.4byte	.LASF122
 4672 04a2 DE       		.byte	0xde
 4673 04a3 0F       		.uleb128 0xf
 4674 04a4 14060000 		.4byte	.LASF123
 4675 04a8 DF       		.byte	0xdf
 4676 04a9 0F       		.uleb128 0xf
 4677 04aa 6F160000 		.4byte	.LASF124
 4678 04ae E0       		.byte	0xe0
 4679 04af 0F       		.uleb128 0xf
 4680 04b0 B1160000 		.4byte	.LASF125
 4681 04b4 E1       		.byte	0xe1
 4682 04b5 0F       		.uleb128 0xf
 4683 04b6 B2150000 		.4byte	.LASF126
 4684 04ba E2       		.byte	0xe2
 4685 04bb 0F       		.uleb128 0xf
 4686 04bc 4C120000 		.4byte	.LASF127
 4687 04c0 E3       		.byte	0xe3
 4688 04c1 0F       		.uleb128 0xf
 4689 04c2 2F110000 		.4byte	.LASF128
 4690 04c6 E4       		.byte	0xe4
 4691 04c7 0F       		.uleb128 0xf
 4692 04c8 0B0C0000 		.4byte	.LASF129
 4693 04cc E5       		.byte	0xe5
 4694 04cd 0F       		.uleb128 0xf
ARM GAS  C:\Users\ali\AppData\Local\Temp\ccr9QJbk.s 			page 107


 4695 04ce 4E050000 		.4byte	.LASF130
 4696 04d2 E6       		.byte	0xe6
 4697 04d3 0F       		.uleb128 0xf
 4698 04d4 6A010000 		.4byte	.LASF131
 4699 04d8 EA       		.byte	0xea
 4700 04d9 0F       		.uleb128 0xf
 4701 04da 9E130000 		.4byte	.LASF132
 4702 04de EB       		.byte	0xeb
 4703 04df 0F       		.uleb128 0xf
 4704 04e0 D7190000 		.4byte	.LASF133
 4705 04e4 EC       		.byte	0xec
 4706 04e5 0F       		.uleb128 0xf
 4707 04e6 86190000 		.4byte	.LASF134
 4708 04ea ED       		.byte	0xed
 4709 04eb 0F       		.uleb128 0xf
 4710 04ec 50170000 		.4byte	.LASF135
 4711 04f0 EE       		.byte	0xee
 4712 04f1 0F       		.uleb128 0xf
 4713 04f2 B8020000 		.4byte	.LASF136
 4714 04f6 EF       		.byte	0xef
 4715 04f7 0F       		.uleb128 0xf
 4716 04f8 53190000 		.4byte	.LASF137
 4717 04fc F0       		.byte	0xf0
 4718 04fd 0F       		.uleb128 0xf
 4719 04fe 990B0000 		.4byte	.LASF138
 4720 0502 F1       		.byte	0xf1
 4721 0503 0F       		.uleb128 0xf
 4722 0504 DD1A0000 		.4byte	.LASF139
 4723 0508 F2       		.byte	0xf2
 4724 0509 0F       		.uleb128 0xf
 4725 050a 04080000 		.4byte	.LASF140
 4726 050e F3       		.byte	0xf3
 4727 050f 0F       		.uleb128 0xf
 4728 0510 34150000 		.4byte	.LASF141
 4729 0514 F4       		.byte	0xf4
 4730 0515 0F       		.uleb128 0xf
 4731 0516 76090000 		.4byte	.LASF142
 4732 051a F5       		.byte	0xf5
 4733 051b 0F       		.uleb128 0xf
 4734 051c 850E0000 		.4byte	.LASF143
 4735 0520 F6       		.byte	0xf6
 4736 0521 0F       		.uleb128 0xf
 4737 0522 0F0E0000 		.4byte	.LASF144
 4738 0526 F7       		.byte	0xf7
 4739 0527 0F       		.uleb128 0xf
 4740 0528 E1000000 		.4byte	.LASF145
 4741 052c FA       		.byte	0xfa
 4742 052d 0F       		.uleb128 0xf
 4743 052e 330E0000 		.4byte	.LASF146
 4744 0532 FB       		.byte	0xfb
 4745 0533 0F       		.uleb128 0xf
 4746 0534 85100000 		.4byte	.LASF147
 4747 0538 FC       		.byte	0xfc
 4748 0539 0F       		.uleb128 0xf
 4749 053a B8010000 		.4byte	.LASF148
 4750 053e FD       		.byte	0xfd
 4751 053f 0F       		.uleb128 0xf
ARM GAS  C:\Users\ali\AppData\Local\Temp\ccr9QJbk.s 			page 108


 4752 0540 EC110000 		.4byte	.LASF149
 4753 0544 FE       		.byte	0xfe
 4754 0545 0F       		.uleb128 0xf
 4755 0546 3E0C0000 		.4byte	.LASF150
 4756 054a FF       		.byte	0xff
 4757 054b 10       		.uleb128 0x10
 4758 054c 2F020000 		.4byte	.LASF151
 4759 0550 0001     		.2byte	0x100
 4760 0552 10       		.uleb128 0x10
 4761 0553 E1130000 		.4byte	.LASF152
 4762 0557 0101     		.2byte	0x101
 4763 0559 10       		.uleb128 0x10
 4764 055a 88060000 		.4byte	.LASF153
 4765 055e 0201     		.2byte	0x102
 4766 0560 10       		.uleb128 0x10
 4767 0561 2C1B0000 		.4byte	.LASF154
 4768 0565 0401     		.2byte	0x104
 4769 0567 10       		.uleb128 0x10
 4770 0568 16010000 		.4byte	.LASF155
 4771 056c 0501     		.2byte	0x105
 4772 056e 00       		.byte	0
 4773 056f 0B       		.uleb128 0xb
 4774 0570 9E110000 		.4byte	.LASF156
 4775 0574 02       		.byte	0x2
 4776 0575 AB05     		.2byte	0x5ab
 4777 0577 9E020000 		.4byte	0x29e
 4778 057b 0B       		.uleb128 0xb
 4779 057c FB1A0000 		.4byte	.LASF157
 4780 0580 02       		.byte	0x2
 4781 0581 2C07     		.2byte	0x72c
 4782 0583 87050000 		.4byte	0x587
 4783 0587 11       		.uleb128 0x11
 4784 0588 49090000 		.4byte	.LASF195
 4785 058c 80       		.byte	0x80
 4786 058d 02       		.byte	0x2
 4787 058e 7A09     		.2byte	0x97a
 4788 0590 76070000 		.4byte	0x776
 4789 0594 0A       		.uleb128 0xa
 4790 0595 AF010000 		.4byte	.LASF12
 4791 0599 02       		.byte	0x2
 4792 059a 7B09     		.2byte	0x97b
 4793 059c 93110000 		.4byte	0x1193
 4794 05a0 00       		.byte	0
 4795 05a1 0A       		.uleb128 0xa
 4796 05a2 14040000 		.4byte	.LASF158
 4797 05a6 02       		.byte	0x2
 4798 05a7 7C09     		.2byte	0x97c
 4799 05a9 0E120000 		.4byte	0x120e
 4800 05ad 04       		.byte	0x4
 4801 05ae 0A       		.uleb128 0xa
 4802 05af C9140000 		.4byte	.LASF159
 4803 05b3 02       		.byte	0x2
 4804 05b4 7D09     		.2byte	0x97d
 4805 05b6 BB090000 		.4byte	0x9bb
 4806 05ba 08       		.byte	0x8
 4807 05bb 0A       		.uleb128 0xa
 4808 05bc D8050000 		.4byte	.LASF160
ARM GAS  C:\Users\ali\AppData\Local\Temp\ccr9QJbk.s 			page 109


 4809 05c0 02       		.byte	0x2
 4810 05c1 7E09     		.2byte	0x97e
 4811 05c3 13120000 		.4byte	0x1213
 4812 05c7 0C       		.byte	0xc
 4813 05c8 0A       		.uleb128 0xa
 4814 05c9 57150000 		.4byte	.LASF161
 4815 05cd 02       		.byte	0x2
 4816 05ce 8709     		.2byte	0x987
 4817 05d0 76000000 		.4byte	0x76
 4818 05d4 10       		.byte	0x10
 4819 05d5 0A       		.uleb128 0xa
 4820 05d6 7E000000 		.4byte	.LASF162
 4821 05da 02       		.byte	0x2
 4822 05db 8909     		.2byte	0x989
 4823 05dd BB090000 		.4byte	0x9bb
 4824 05e1 18       		.byte	0x18
 4825 05e2 0A       		.uleb128 0xa
 4826 05e3 62020000 		.4byte	.LASF163
 4827 05e7 02       		.byte	0x2
 4828 05e8 8A09     		.2byte	0x98a
 4829 05ea 24120000 		.4byte	0x1224
 4830 05ee 1C       		.byte	0x1c
 4831 05ef 0A       		.uleb128 0xa
 4832 05f0 A8070000 		.4byte	.LASF164
 4833 05f4 02       		.byte	0x2
 4834 05f5 8C09     		.2byte	0x98c
 4835 05f7 DD0A0000 		.4byte	0xadd
 4836 05fb 20       		.byte	0x20
 4837 05fc 0A       		.uleb128 0xa
 4838 05fd EA180000 		.4byte	.LASF165
 4839 0601 02       		.byte	0x2
 4840 0602 8D09     		.2byte	0x98d
 4841 0604 DD0A0000 		.4byte	0xadd
 4842 0608 24       		.byte	0x24
 4843 0609 0A       		.uleb128 0xa
 4844 060a 84000000 		.4byte	.LASF166
 4845 060e 02       		.byte	0x2
 4846 060f 8E09     		.2byte	0x98e
 4847 0611 29120000 		.4byte	0x1229
 4848 0615 28       		.byte	0x28
 4849 0616 0A       		.uleb128 0xa
 4850 0617 E6060000 		.4byte	.LASF167
 4851 061b 02       		.byte	0x2
 4852 061c 9009     		.2byte	0x990
 4853 061e 2F120000 		.4byte	0x122f
 4854 0622 2C       		.byte	0x2c
 4855 0623 0A       		.uleb128 0xa
 4856 0624 FD010000 		.4byte	.LASF168
 4857 0628 02       		.byte	0x2
 4858 0629 9109     		.2byte	0x991
 4859 062b 25000000 		.4byte	0x25
 4860 062f 30       		.byte	0x30
 4861 0630 0A       		.uleb128 0xa
 4862 0631 210E0000 		.4byte	.LASF169
 4863 0635 02       		.byte	0x2
 4864 0636 9309     		.2byte	0x993
 4865 0638 E30A0000 		.4byte	0xae3
ARM GAS  C:\Users\ali\AppData\Local\Temp\ccr9QJbk.s 			page 110


 4866 063c 34       		.byte	0x34
 4867 063d 0A       		.uleb128 0xa
 4868 063e A9090000 		.4byte	.LASF170
 4869 0642 02       		.byte	0x2
 4870 0643 9409     		.2byte	0x994
 4871 0645 25000000 		.4byte	0x25
 4872 0649 38       		.byte	0x38
 4873 064a 0A       		.uleb128 0xa
 4874 064b 661A0000 		.4byte	.LASF171
 4875 064f 02       		.byte	0x2
 4876 0650 9709     		.2byte	0x997
 4877 0652 34120000 		.4byte	0x1234
 4878 0656 3C       		.byte	0x3c
 4879 0657 0A       		.uleb128 0xa
 4880 0658 49080000 		.4byte	.LASF172
 4881 065c 02       		.byte	0x2
 4882 065d 9909     		.2byte	0x999
 4883 065f 020C0000 		.4byte	0xc02
 4884 0663 40       		.byte	0x40
 4885 0664 0A       		.uleb128 0xa
 4886 0665 3C190000 		.4byte	.LASF173
 4887 0669 02       		.byte	0x2
 4888 066a 9A09     		.2byte	0x99a
 4889 066c 8E0E0000 		.4byte	0xe8e
 4890 0670 44       		.byte	0x44
 4891 0671 0A       		.uleb128 0xa
 4892 0672 DA020000 		.4byte	.LASF174
 4893 0676 02       		.byte	0x2
 4894 0677 9B09     		.2byte	0x99b
 4895 0679 C80E0000 		.4byte	0xec8
 4896 067d 48       		.byte	0x48
 4897 067e 0A       		.uleb128 0xa
 4898 067f 41180000 		.4byte	.LASF175
 4899 0683 02       		.byte	0x2
 4900 0684 9C09     		.2byte	0x99c
 4901 0686 FA0D0000 		.4byte	0xdfa
 4902 068a 4C       		.byte	0x4c
 4903 068b 0A       		.uleb128 0xa
 4904 068c 0D100000 		.4byte	.LASF176
 4905 0690 02       		.byte	0x2
 4906 0691 9E09     		.2byte	0x99e
 4907 0693 F40D0000 		.4byte	0xdf4
 4908 0697 50       		.byte	0x50
 4909 0698 0A       		.uleb128 0xa
 4910 0699 16030000 		.4byte	.LASF177
 4911 069d 02       		.byte	0x2
 4912 069e 9F09     		.2byte	0x99f
 4913 06a0 530D0000 		.4byte	0xd53
 4914 06a4 54       		.byte	0x54
 4915 06a5 0A       		.uleb128 0xa
 4916 06a6 D7000000 		.4byte	.LASF178
 4917 06aa 02       		.byte	0x2
 4918 06ab A009     		.2byte	0x9a0
 4919 06ad 5A0C0000 		.4byte	0xc5a
 4920 06b1 58       		.byte	0x58
 4921 06b2 0A       		.uleb128 0xa
 4922 06b3 A0060000 		.4byte	.LASF179
ARM GAS  C:\Users\ali\AppData\Local\Temp\ccr9QJbk.s 			page 111


 4923 06b7 02       		.byte	0x2
 4924 06b8 A109     		.2byte	0x9a1
 4925 06ba A20B0000 		.4byte	0xba2
 4926 06be 5C       		.byte	0x5c
 4927 06bf 0A       		.uleb128 0xa
 4928 06c0 56020000 		.4byte	.LASF180
 4929 06c4 02       		.byte	0x2
 4930 06c5 A209     		.2byte	0x9a2
 4931 06c7 BF0C0000 		.4byte	0xcbf
 4932 06cb 60       		.byte	0x60
 4933 06cc 0A       		.uleb128 0xa
 4934 06cd 780B0000 		.4byte	.LASF181
 4935 06d1 02       		.byte	0x2
 4936 06d2 A509     		.2byte	0x9a5
 4937 06d4 0F0F0000 		.4byte	0xf0f
 4938 06d8 64       		.byte	0x64
 4939 06d9 0A       		.uleb128 0xa
 4940 06da E8020000 		.4byte	.LASF182
 4941 06de 02       		.byte	0x2
 4942 06df A709     		.2byte	0x9a7
 4943 06e1 E30A0000 		.4byte	0xae3
 4944 06e5 68       		.byte	0x68
 4945 06e6 0A       		.uleb128 0xa
 4946 06e7 D8070000 		.4byte	.LASF183
 4947 06eb 02       		.byte	0x2
 4948 06ec A909     		.2byte	0x9a9
 4949 06ee 3F120000 		.4byte	0x123f
 4950 06f2 6C       		.byte	0x6c
 4951 06f3 0A       		.uleb128 0xa
 4952 06f4 A7160000 		.4byte	.LASF184
 4953 06f8 02       		.byte	0x2
 4954 06f9 AC09     		.2byte	0x9ac
 4955 06fb 6F000000 		.4byte	0x6f
 4956 06ff 70       		.byte	0x70
 4957 0700 0A       		.uleb128 0xa
 4958 0701 700D0000 		.4byte	.LASF185
 4959 0705 02       		.byte	0x2
 4960 0706 B109     		.2byte	0x9b1
 4961 0708 45120000 		.4byte	0x1245
 4962 070c 74       		.byte	0x74
 4963 070d 0A       		.uleb128 0xa
 4964 070e ED090000 		.4byte	.LASF186
 4965 0712 02       		.byte	0x2
 4966 0713 B209     		.2byte	0x9b2
 4967 0715 48000000 		.4byte	0x48
 4968 0719 76       		.byte	0x76
 4969 071a 0A       		.uleb128 0xa
 4970 071b 02040000 		.4byte	.LASF187
 4971 071f 02       		.byte	0x2
 4972 0720 B409     		.2byte	0x9b4
 4973 0722 48000000 		.4byte	0x48
 4974 0726 77       		.byte	0x77
 4975 0727 0A       		.uleb128 0xa
 4976 0728 701A0000 		.4byte	.LASF188
 4977 072c 02       		.byte	0x2
 4978 072d B709     		.2byte	0x9b7
 4979 072f 48000000 		.4byte	0x48
ARM GAS  C:\Users\ali\AppData\Local\Temp\ccr9QJbk.s 			page 112


 4980 0733 78       		.byte	0x78
 4981 0734 0A       		.uleb128 0xa
 4982 0735 7D110000 		.4byte	.LASF189
 4983 0739 02       		.byte	0x2
 4984 073a BA09     		.2byte	0x9ba
 4985 073c 48000000 		.4byte	0x48
 4986 0740 79       		.byte	0x79
 4987 0741 0A       		.uleb128 0xa
 4988 0742 06010000 		.4byte	.LASF190
 4989 0746 02       		.byte	0x2
 4990 0747 BD09     		.2byte	0x9bd
 4991 0749 48000000 		.4byte	0x48
 4992 074d 7A       		.byte	0x7a
 4993 074e 0A       		.uleb128 0xa
 4994 074f EB140000 		.4byte	.LASF191
 4995 0753 02       		.byte	0x2
 4996 0754 C309     		.2byte	0x9c3
 4997 0756 48000000 		.4byte	0x48
 4998 075a 7B       		.byte	0x7b
 4999 075b 0A       		.uleb128 0xa
 5000 075c EB060000 		.4byte	.LASF192
 5001 0760 02       		.byte	0x2
 5002 0761 C409     		.2byte	0x9c4
 5003 0763 48000000 		.4byte	0x48
 5004 0767 7C       		.byte	0x7c
 5005 0768 0A       		.uleb128 0xa
 5006 0769 941A0000 		.4byte	.LASF193
 5007 076d 02       		.byte	0x2
 5008 076e C609     		.2byte	0x9c6
 5009 0770 48000000 		.4byte	0x48
 5010 0774 7D       		.byte	0x7d
 5011 0775 00       		.byte	0
 5012 0776 0B       		.uleb128 0xb
 5013 0777 770A0000 		.4byte	.LASF194
 5014 077b 02       		.byte	0x2
 5015 077c 2D07     		.2byte	0x72d
 5016 077e 82070000 		.4byte	0x782
 5017 0782 11       		.uleb128 0x11
 5018 0783 18090000 		.4byte	.LASF196
 5019 0787 54       		.byte	0x54
 5020 0788 02       		.byte	0x2
 5021 0789 E807     		.2byte	0x7e8
 5022 078b BA080000 		.4byte	0x8ba
 5023 078f 0A       		.uleb128 0xa
 5024 0790 D11A0000 		.4byte	.LASF197
 5025 0794 02       		.byte	0x2
 5026 0795 E907     		.2byte	0x7e9
 5027 0797 BB090000 		.4byte	0x9bb
 5028 079b 00       		.byte	0
 5029 079c 0A       		.uleb128 0xa
 5030 079d 450F0000 		.4byte	.LASF198
 5031 07a1 02       		.byte	0x2
 5032 07a2 EA07     		.2byte	0x7ea
 5033 07a4 6B0A0000 		.4byte	0xa6b
 5034 07a8 04       		.byte	0x4
 5035 07a9 0A       		.uleb128 0xa
 5036 07aa 620F0000 		.4byte	.LASF199
ARM GAS  C:\Users\ali\AppData\Local\Temp\ccr9QJbk.s 			page 113


 5037 07ae 02       		.byte	0x2
 5038 07af EB07     		.2byte	0x7eb
 5039 07b1 AF090000 		.4byte	0x9af
 5040 07b5 08       		.byte	0x8
 5041 07b6 0A       		.uleb128 0xa
 5042 07b7 79070000 		.4byte	.LASF200
 5043 07bb 02       		.byte	0x2
 5044 07bc EC07     		.2byte	0x7ec
 5045 07be 25000000 		.4byte	0x25
 5046 07c2 0C       		.byte	0xc
 5047 07c3 0A       		.uleb128 0xa
 5048 07c4 23030000 		.4byte	.LASF201
 5049 07c8 02       		.byte	0x2
 5050 07c9 ED07     		.2byte	0x7ed
 5051 07cb 6F000000 		.4byte	0x6f
 5052 07cf 10       		.byte	0x10
 5053 07d0 0A       		.uleb128 0xa
 5054 07d1 240A0000 		.4byte	.LASF202
 5055 07d5 02       		.byte	0x2
 5056 07d6 EE07     		.2byte	0x7ee
 5057 07d8 6F000000 		.4byte	0x6f
 5058 07dc 14       		.byte	0x14
 5059 07dd 0A       		.uleb128 0xa
 5060 07de A8000000 		.4byte	.LASF203
 5061 07e2 02       		.byte	0x2
 5062 07e3 EF07     		.2byte	0x7ef
 5063 07e5 710A0000 		.4byte	0xa71
 5064 07e9 18       		.byte	0x18
 5065 07ea 0A       		.uleb128 0xa
 5066 07eb E4170000 		.4byte	.LASF204
 5067 07ef 02       		.byte	0x2
 5068 07f0 F007     		.2byte	0x7f0
 5069 07f2 6F000000 		.4byte	0x6f
 5070 07f6 1C       		.byte	0x1c
 5071 07f7 0A       		.uleb128 0xa
 5072 07f8 F51A0000 		.4byte	.LASF205
 5073 07fc 02       		.byte	0x2
 5074 07fd F207     		.2byte	0x7f2
 5075 07ff BB090000 		.4byte	0x9bb
 5076 0803 20       		.byte	0x20
 5077 0804 0A       		.uleb128 0xa
 5078 0805 67100000 		.4byte	.LASF206
 5079 0809 02       		.byte	0x2
 5080 080a F507     		.2byte	0x7f5
 5081 080c A0000000 		.4byte	0xa0
 5082 0810 24       		.byte	0x24
 5083 0811 0A       		.uleb128 0xa
 5084 0812 0C030000 		.4byte	.LASF207
 5085 0816 02       		.byte	0x2
 5086 0817 F807     		.2byte	0x7f8
 5087 0819 2C000000 		.4byte	0x2c
 5088 081d 28       		.byte	0x28
 5089 081e 0A       		.uleb128 0xa
 5090 081f 6D0B0000 		.4byte	.LASF208
 5091 0823 02       		.byte	0x2
 5092 0824 F907     		.2byte	0x7f9
 5093 0826 9A000000 		.4byte	0x9a
ARM GAS  C:\Users\ali\AppData\Local\Temp\ccr9QJbk.s 			page 114


 5094 082a 2C       		.byte	0x2c
 5095 082b 0A       		.uleb128 0xa
 5096 082c 31170000 		.4byte	.LASF209
 5097 0830 02       		.byte	0x2
 5098 0831 FC07     		.2byte	0x7fc
 5099 0833 6F000000 		.4byte	0x6f
 5100 0837 30       		.byte	0x30
 5101 0838 0A       		.uleb128 0xa
 5102 0839 F5070000 		.4byte	.LASF210
 5103 083d 02       		.byte	0x2
 5104 083e FD07     		.2byte	0x7fd
 5105 0840 6F000000 		.4byte	0x6f
 5106 0844 34       		.byte	0x34
 5107 0845 0A       		.uleb128 0xa
 5108 0846 B30B0000 		.4byte	.LASF211
 5109 084a 02       		.byte	0x2
 5110 084b 0008     		.2byte	0x800
 5111 084d 6F000000 		.4byte	0x6f
 5112 0851 38       		.byte	0x38
 5113 0852 0A       		.uleb128 0xa
 5114 0853 40090000 		.4byte	.LASF212
 5115 0857 02       		.byte	0x2
 5116 0858 0108     		.2byte	0x801
 5117 085a 6F000000 		.4byte	0x6f
 5118 085e 3C       		.byte	0x3c
 5119 085f 0A       		.uleb128 0xa
 5120 0860 65010000 		.4byte	.LASF213
 5121 0864 02       		.byte	0x2
 5122 0865 0208     		.2byte	0x802
 5123 0867 6F000000 		.4byte	0x6f
 5124 086b 40       		.byte	0x40
 5125 086c 0A       		.uleb128 0xa
 5126 086d FF0A0000 		.4byte	.LASF214
 5127 0871 02       		.byte	0x2
 5128 0872 0508     		.2byte	0x805
 5129 0874 5F0A0000 		.4byte	0xa5f
 5130 0878 44       		.byte	0x44
 5131 0879 0A       		.uleb128 0xa
 5132 087a DB010000 		.4byte	.LASF215
 5133 087e 02       		.byte	0x2
 5134 087f 0808     		.2byte	0x808
 5135 0881 84000000 		.4byte	0x84
 5136 0885 4C       		.byte	0x4c
 5137 0886 0A       		.uleb128 0xa
 5138 0887 80100000 		.4byte	.LASF216
 5139 088b 02       		.byte	0x2
 5140 088c 0D08     		.2byte	0x80d
 5141 088e 48000000 		.4byte	0x48
 5142 0892 50       		.byte	0x50
 5143 0893 0A       		.uleb128 0xa
 5144 0894 041A0000 		.4byte	.LASF217
 5145 0898 02       		.byte	0x2
 5146 0899 0F08     		.2byte	0x80f
 5147 089b 48000000 		.4byte	0x48
 5148 089f 51       		.byte	0x51
 5149 08a0 0A       		.uleb128 0xa
 5150 08a1 571B0000 		.4byte	.LASF218
ARM GAS  C:\Users\ali\AppData\Local\Temp\ccr9QJbk.s 			page 115


 5151 08a5 02       		.byte	0x2
 5152 08a6 1008     		.2byte	0x810
 5153 08a8 48000000 		.4byte	0x48
 5154 08ac 52       		.byte	0x52
 5155 08ad 12       		.uleb128 0x12
 5156 08ae 496400   		.ascii	"Id\000"
 5157 08b1 02       		.byte	0x2
 5158 08b2 1308     		.2byte	0x813
 5159 08b4 48000000 		.4byte	0x48
 5160 08b8 53       		.byte	0x53
 5161 08b9 00       		.byte	0
 5162 08ba 0B       		.uleb128 0xb
 5163 08bb 9D190000 		.4byte	.LASF219
 5164 08bf 02       		.byte	0x2
 5165 08c0 2E07     		.2byte	0x72e
 5166 08c2 C6080000 		.4byte	0x8c6
 5167 08c6 11       		.uleb128 0x11
 5168 08c7 850B0000 		.4byte	.LASF220
 5169 08cb 10       		.byte	0x10
 5170 08cc 02       		.byte	0x2
 5171 08cd 4707     		.2byte	0x747
 5172 08cf 08090000 		.4byte	0x908
 5173 08d3 0A       		.uleb128 0xa
 5174 08d4 D11A0000 		.4byte	.LASF197
 5175 08d8 02       		.byte	0x2
 5176 08d9 4807     		.2byte	0x748
 5177 08db AF090000 		.4byte	0x9af
 5178 08df 00       		.byte	0
 5179 08e0 0A       		.uleb128 0xa
 5180 08e1 F51A0000 		.4byte	.LASF205
 5181 08e5 02       		.byte	0x2
 5182 08e6 4907     		.2byte	0x749
 5183 08e8 AF090000 		.4byte	0x9af
 5184 08ec 04       		.byte	0x4
 5185 08ed 0A       		.uleb128 0xa
 5186 08ee C5080000 		.4byte	.LASF221
 5187 08f2 02       		.byte	0x2
 5188 08f3 4A07     		.2byte	0x74a
 5189 08f5 B5090000 		.4byte	0x9b5
 5190 08f9 08       		.byte	0x8
 5191 08fa 0A       		.uleb128 0xa
 5192 08fb 7E000000 		.4byte	.LASF162
 5193 08ff 02       		.byte	0x2
 5194 0900 4B07     		.2byte	0x74b
 5195 0902 BB090000 		.4byte	0x9bb
 5196 0906 0C       		.byte	0xc
 5197 0907 00       		.byte	0
 5198 0908 0B       		.uleb128 0xb
 5199 0909 10160000 		.4byte	.LASF222
 5200 090d 02       		.byte	0x2
 5201 090e 2F07     		.2byte	0x72f
 5202 0910 14090000 		.4byte	0x914
 5203 0914 11       		.uleb128 0x11
 5204 0915 C4000000 		.4byte	.LASF223
 5205 0919 04       		.byte	0x4
 5206 091a 02       		.byte	0x2
 5207 091b 4307     		.2byte	0x743
ARM GAS  C:\Users\ali\AppData\Local\Temp\ccr9QJbk.s 			page 116


 5208 091d 2F090000 		.4byte	0x92f
 5209 0921 0A       		.uleb128 0xa
 5210 0922 620F0000 		.4byte	.LASF199
 5211 0926 02       		.byte	0x2
 5212 0927 4407     		.2byte	0x744
 5213 0929 AF090000 		.4byte	0x9af
 5214 092d 00       		.byte	0
 5215 092e 00       		.byte	0
 5216 092f 0B       		.uleb128 0xb
 5217 0930 18070000 		.4byte	.LASF224
 5218 0934 02       		.byte	0x2
 5219 0935 3007     		.2byte	0x730
 5220 0937 3B090000 		.4byte	0x93b
 5221 093b 11       		.uleb128 0x11
 5222 093c 2A100000 		.4byte	.LASF225
 5223 0940 0C       		.byte	0xc
 5224 0941 02       		.byte	0x2
 5225 0942 C508     		.2byte	0x8c5
 5226 0944 70090000 		.4byte	0x970
 5227 0948 0A       		.uleb128 0xa
 5228 0949 D11A0000 		.4byte	.LASF197
 5229 094d 02       		.byte	0x2
 5230 094e C608     		.2byte	0x8c6
 5231 0950 FA0D0000 		.4byte	0xdfa
 5232 0954 00       		.byte	0
 5233 0955 0A       		.uleb128 0xa
 5234 0956 2E160000 		.4byte	.LASF226
 5235 095a 02       		.byte	0x2
 5236 095b C708     		.2byte	0x8c7
 5237 095d 25000000 		.4byte	0x25
 5238 0961 04       		.byte	0x4
 5239 0962 0A       		.uleb128 0xa
 5240 0963 FD010000 		.4byte	.LASF168
 5241 0967 02       		.byte	0x2
 5242 0968 C808     		.2byte	0x8c8
 5243 096a 25000000 		.4byte	0x25
 5244 096e 08       		.byte	0x8
 5245 096f 00       		.byte	0
 5246 0970 0B       		.uleb128 0xb
 5247 0971 660E0000 		.4byte	.LASF227
 5248 0975 02       		.byte	0x2
 5249 0976 3807     		.2byte	0x738
 5250 0978 99000000 		.4byte	0x99
 5251 097c 0C       		.uleb128 0xc
 5252 097d 87090000 		.4byte	0x987
 5253 0981 0D       		.uleb128 0xd
 5254 0982 87090000 		.4byte	0x987
 5255 0986 00       		.byte	0
 5256 0987 06       		.uleb128 0x6
 5257 0988 04       		.byte	0x4
 5258 0989 8D090000 		.4byte	0x98d
 5259 098d 08       		.uleb128 0x8
 5260 098e 76070000 		.4byte	0x776
 5261 0992 0B       		.uleb128 0xb
 5262 0993 5C040000 		.4byte	.LASF228
 5263 0997 02       		.byte	0x2
 5264 0998 3D07     		.2byte	0x73d
ARM GAS  C:\Users\ali\AppData\Local\Temp\ccr9QJbk.s 			page 117


 5265 099a 9E090000 		.4byte	0x99e
 5266 099e 0C       		.uleb128 0xc
 5267 099f A9090000 		.4byte	0x9a9
 5268 09a3 0D       		.uleb128 0xd
 5269 09a4 A9090000 		.4byte	0x9a9
 5270 09a8 00       		.byte	0
 5271 09a9 06       		.uleb128 0x6
 5272 09aa 04       		.byte	0x4
 5273 09ab 7B050000 		.4byte	0x57b
 5274 09af 06       		.uleb128 0x6
 5275 09b0 04       		.byte	0x4
 5276 09b1 BA080000 		.4byte	0x8ba
 5277 09b5 06       		.uleb128 0x6
 5278 09b6 04       		.byte	0x4
 5279 09b7 08090000 		.4byte	0x908
 5280 09bb 06       		.uleb128 0x6
 5281 09bc 04       		.byte	0x4
 5282 09bd 76070000 		.4byte	0x776
 5283 09c1 11       		.uleb128 0x11
 5284 09c2 F6050000 		.4byte	.LASF229
 5285 09c6 08       		.byte	0x8
 5286 09c7 02       		.byte	0x2
 5287 09c8 DA07     		.2byte	0x7da
 5288 09ca E9090000 		.4byte	0x9e9
 5289 09ce 0A       		.uleb128 0xa
 5290 09cf 00000000 		.4byte	.LASF230
 5291 09d3 02       		.byte	0x2
 5292 09d4 DB07     		.2byte	0x7db
 5293 09d6 F8090000 		.4byte	0x9f8
 5294 09da 00       		.byte	0
 5295 09db 0A       		.uleb128 0xa
 5296 09dc 6D0A0000 		.4byte	.LASF231
 5297 09e0 02       		.byte	0x2
 5298 09e1 DC07     		.2byte	0x7dc
 5299 09e3 140A0000 		.4byte	0xa14
 5300 09e7 04       		.byte	0x4
 5301 09e8 00       		.byte	0
 5302 09e9 13       		.uleb128 0x13
 5303 09ea 84000000 		.4byte	0x84
 5304 09ee F8090000 		.4byte	0x9f8
 5305 09f2 0D       		.uleb128 0xd
 5306 09f3 84000000 		.4byte	0x84
 5307 09f7 00       		.byte	0
 5308 09f8 06       		.uleb128 0x6
 5309 09f9 04       		.byte	0x4
 5310 09fa E9090000 		.4byte	0x9e9
 5311 09fe 13       		.uleb128 0x13
 5312 09ff 84000000 		.4byte	0x84
 5313 0a03 0D0A0000 		.4byte	0xa0d
 5314 0a07 0D       		.uleb128 0xd
 5315 0a08 0D0A0000 		.4byte	0xa0d
 5316 0a0c 00       		.byte	0
 5317 0a0d 06       		.uleb128 0x6
 5318 0a0e 04       		.byte	0x4
 5319 0a0f 130A0000 		.4byte	0xa13
 5320 0a13 14       		.uleb128 0x14
 5321 0a14 06       		.uleb128 0x6
ARM GAS  C:\Users\ali\AppData\Local\Temp\ccr9QJbk.s 			page 118


 5322 0a15 04       		.byte	0x4
 5323 0a16 FE090000 		.4byte	0x9fe
 5324 0a1a 0B       		.uleb128 0xb
 5325 0a1b 76140000 		.4byte	.LASF232
 5326 0a1f 02       		.byte	0x2
 5327 0a20 DD07     		.2byte	0x7dd
 5328 0a22 C1090000 		.4byte	0x9c1
 5329 0a26 11       		.uleb128 0x11
 5330 0a27 2E0B0000 		.4byte	.LASF233
 5331 0a2b 08       		.byte	0x8
 5332 0a2c 02       		.byte	0x2
 5333 0a2d DF07     		.2byte	0x7df
 5334 0a2f 4E0A0000 		.4byte	0xa4e
 5335 0a33 0A       		.uleb128 0xa
 5336 0a34 58010000 		.4byte	.LASF234
 5337 0a38 02       		.byte	0x2
 5338 0a39 E007     		.2byte	0x7e0
 5339 0a3b 4E0A0000 		.4byte	0xa4e
 5340 0a3f 00       		.byte	0
 5341 0a40 0A       		.uleb128 0xa
 5342 0a41 D11A0000 		.4byte	.LASF197
 5343 0a45 02       		.byte	0x2
 5344 0a46 E107     		.2byte	0x7e1
 5345 0a48 590A0000 		.4byte	0xa59
 5346 0a4c 04       		.byte	0x4
 5347 0a4d 00       		.byte	0
 5348 0a4e 06       		.uleb128 0x6
 5349 0a4f 04       		.byte	0x4
 5350 0a50 540A0000 		.4byte	0xa54
 5351 0a54 08       		.uleb128 0x8
 5352 0a55 1A0A0000 		.4byte	0xa1a
 5353 0a59 06       		.uleb128 0x6
 5354 0a5a 04       		.byte	0x4
 5355 0a5b 260A0000 		.4byte	0xa26
 5356 0a5f 0B       		.uleb128 0xb
 5357 0a60 5A090000 		.4byte	.LASF235
 5358 0a64 02       		.byte	0x2
 5359 0a65 E207     		.2byte	0x7e2
 5360 0a67 260A0000 		.4byte	0xa26
 5361 0a6b 06       		.uleb128 0x6
 5362 0a6c 04       		.byte	0x4
 5363 0a6d C2010000 		.4byte	0x1c2
 5364 0a71 15       		.uleb128 0x15
 5365 0a72 6F000000 		.4byte	0x6f
 5366 0a76 0B       		.uleb128 0xb
 5367 0a77 590C0000 		.4byte	.LASF236
 5368 0a7b 02       		.byte	0x2
 5369 0a7c 2008     		.2byte	0x820
 5370 0a7e 820A0000 		.4byte	0xa82
 5371 0a82 11       		.uleb128 0x11
 5372 0a83 6E030000 		.4byte	.LASF237
 5373 0a87 14       		.byte	0x14
 5374 0a88 02       		.byte	0x2
 5375 0a89 2108     		.2byte	0x821
 5376 0a8b DD0A0000 		.4byte	0xadd
 5377 0a8f 0A       		.uleb128 0xa
 5378 0a90 D11A0000 		.4byte	.LASF197
ARM GAS  C:\Users\ali\AppData\Local\Temp\ccr9QJbk.s 			page 119


 5379 0a94 02       		.byte	0x2
 5380 0a95 2208     		.2byte	0x822
 5381 0a97 DD0A0000 		.4byte	0xadd
 5382 0a9b 00       		.byte	0
 5383 0a9c 0A       		.uleb128 0xa
 5384 0a9d 530A0000 		.4byte	.LASF238
 5385 0aa1 02       		.byte	0x2
 5386 0aa2 2308     		.2byte	0x823
 5387 0aa4 E30A0000 		.4byte	0xae3
 5388 0aa8 04       		.byte	0x4
 5389 0aa9 0A       		.uleb128 0xa
 5390 0aaa E6060000 		.4byte	.LASF167
 5391 0aae 02       		.byte	0x2
 5392 0aaf 2408     		.2byte	0x824
 5393 0ab1 25000000 		.4byte	0x25
 5394 0ab5 08       		.byte	0x8
 5395 0ab6 0A       		.uleb128 0xa
 5396 0ab7 2E160000 		.4byte	.LASF226
 5397 0abb 02       		.byte	0x2
 5398 0abc 2508     		.2byte	0x825
 5399 0abe 25000000 		.4byte	0x25
 5400 0ac2 0C       		.byte	0xc
 5401 0ac3 0A       		.uleb128 0xa
 5402 0ac4 E20D0000 		.4byte	.LASF239
 5403 0ac8 02       		.byte	0x2
 5404 0ac9 2608     		.2byte	0x826
 5405 0acb 48000000 		.4byte	0x48
 5406 0acf 10       		.byte	0x10
 5407 0ad0 12       		.uleb128 0x12
 5408 0ad1 496400   		.ascii	"Id\000"
 5409 0ad4 02       		.byte	0x2
 5410 0ad5 2808     		.2byte	0x828
 5411 0ad7 48000000 		.4byte	0x48
 5412 0adb 11       		.byte	0x11
 5413 0adc 00       		.byte	0
 5414 0add 06       		.uleb128 0x6
 5415 0ade 04       		.byte	0x4
 5416 0adf 760A0000 		.4byte	0xa76
 5417 0ae3 06       		.uleb128 0x6
 5418 0ae4 04       		.byte	0x4
 5419 0ae5 70090000 		.4byte	0x970
 5420 0ae9 0E       		.uleb128 0xe
 5421 0aea 01       		.byte	0x1
 5422 0aeb 48000000 		.4byte	0x48
 5423 0aef 02       		.byte	0x2
 5424 0af0 3C08     		.2byte	0x83c
 5425 0af2 090B0000 		.4byte	0xb09
 5426 0af6 0F       		.uleb128 0xf
 5427 0af7 A5170000 		.4byte	.LASF240
 5428 0afb 00       		.byte	0
 5429 0afc 0F       		.uleb128 0xf
 5430 0afd 47160000 		.4byte	.LASF241
 5431 0b01 01       		.byte	0x1
 5432 0b02 0F       		.uleb128 0xf
 5433 0b03 90090000 		.4byte	.LASF242
 5434 0b07 02       		.byte	0x2
 5435 0b08 00       		.byte	0
ARM GAS  C:\Users\ali\AppData\Local\Temp\ccr9QJbk.s 			page 120


 5436 0b09 0B       		.uleb128 0xb
 5437 0b0a 61060000 		.4byte	.LASF243
 5438 0b0e 02       		.byte	0x2
 5439 0b0f 4008     		.2byte	0x840
 5440 0b11 E90A0000 		.4byte	0xae9
 5441 0b15 0E       		.uleb128 0xe
 5442 0b16 01       		.byte	0x1
 5443 0b17 48000000 		.4byte	0x48
 5444 0b1b 02       		.byte	0x2
 5445 0b1c 4208     		.2byte	0x842
 5446 0b1e 2F0B0000 		.4byte	0xb2f
 5447 0b22 0F       		.uleb128 0xf
 5448 0b23 130F0000 		.4byte	.LASF244
 5449 0b27 00       		.byte	0
 5450 0b28 0F       		.uleb128 0xf
 5451 0b29 DB040000 		.4byte	.LASF245
 5452 0b2d 04       		.byte	0x4
 5453 0b2e 00       		.byte	0
 5454 0b2f 0B       		.uleb128 0xb
 5455 0b30 B8180000 		.4byte	.LASF246
 5456 0b34 02       		.byte	0x2
 5457 0b35 4508     		.2byte	0x845
 5458 0b37 150B0000 		.4byte	0xb15
 5459 0b3b 0B       		.uleb128 0xb
 5460 0b3c B2060000 		.4byte	.LASF247
 5461 0b40 02       		.byte	0x2
 5462 0b41 4708     		.2byte	0x847
 5463 0b43 470B0000 		.4byte	0xb47
 5464 0b47 11       		.uleb128 0x11
 5465 0b48 08090000 		.4byte	.LASF248
 5466 0b4c 10       		.byte	0x10
 5467 0b4d 02       		.byte	0x2
 5468 0b4e 4808     		.2byte	0x848
 5469 0b50 A20B0000 		.4byte	0xba2
 5470 0b54 0A       		.uleb128 0xa
 5471 0b55 2A140000 		.4byte	.LASF249
 5472 0b59 02       		.byte	0x2
 5473 0b5a 4908     		.2byte	0x849
 5474 0b5c 08090000 		.4byte	0x908
 5475 0b60 00       		.byte	0
 5476 0b61 0A       		.uleb128 0xa
 5477 0b62 D11A0000 		.4byte	.LASF197
 5478 0b66 02       		.byte	0x2
 5479 0b67 4B08     		.2byte	0x84b
 5480 0b69 A20B0000 		.4byte	0xba2
 5481 0b6d 04       		.byte	0x4
 5482 0b6e 0A       		.uleb128 0xa
 5483 0b6f 26110000 		.4byte	.LASF250
 5484 0b73 02       		.byte	0x2
 5485 0b74 4D08     		.2byte	0x84d
 5486 0b76 710A0000 		.4byte	0xa71
 5487 0b7a 08       		.byte	0x8
 5488 0b7b 0A       		.uleb128 0xa
 5489 0b7c C9150000 		.4byte	.LASF251
 5490 0b80 02       		.byte	0x2
 5491 0b81 4E08     		.2byte	0x84e
 5492 0b83 090B0000 		.4byte	0xb09
ARM GAS  C:\Users\ali\AppData\Local\Temp\ccr9QJbk.s 			page 121


 5493 0b87 0C       		.byte	0xc
 5494 0b88 0A       		.uleb128 0xa
 5495 0b89 9E160000 		.4byte	.LASF252
 5496 0b8d 02       		.byte	0x2
 5497 0b8e 4F08     		.2byte	0x84f
 5498 0b90 2F0B0000 		.4byte	0xb2f
 5499 0b94 0D       		.byte	0xd
 5500 0b95 12       		.uleb128 0x12
 5501 0b96 496400   		.ascii	"Id\000"
 5502 0b99 02       		.byte	0x2
 5503 0b9a 5108     		.2byte	0x851
 5504 0b9c 48000000 		.4byte	0x48
 5505 0ba0 0E       		.byte	0xe
 5506 0ba1 00       		.byte	0
 5507 0ba2 06       		.uleb128 0x6
 5508 0ba3 04       		.byte	0x4
 5509 0ba4 3B0B0000 		.4byte	0xb3b
 5510 0ba8 0B       		.uleb128 0xb
 5511 0ba9 9F000000 		.4byte	.LASF253
 5512 0bad 02       		.byte	0x2
 5513 0bae 6308     		.2byte	0x863
 5514 0bb0 B40B0000 		.4byte	0xbb4
 5515 0bb4 11       		.uleb128 0x11
 5516 0bb5 F6000000 		.4byte	.LASF254
 5517 0bb9 10       		.byte	0x10
 5518 0bba 02       		.byte	0x2
 5519 0bbb 6408     		.2byte	0x864
 5520 0bbd 020C0000 		.4byte	0xc02
 5521 0bc1 0A       		.uleb128 0xa
 5522 0bc2 2A140000 		.4byte	.LASF249
 5523 0bc6 02       		.byte	0x2
 5524 0bc7 6508     		.2byte	0x865
 5525 0bc9 08090000 		.4byte	0x908
 5526 0bcd 00       		.byte	0
 5527 0bce 0A       		.uleb128 0xa
 5528 0bcf 7E000000 		.4byte	.LASF162
 5529 0bd3 02       		.byte	0x2
 5530 0bd4 6608     		.2byte	0x866
 5531 0bd6 BB090000 		.4byte	0x9bb
 5532 0bda 04       		.byte	0x4
 5533 0bdb 0A       		.uleb128 0xa
 5534 0bdc D11A0000 		.4byte	.LASF197
 5535 0be0 02       		.byte	0x2
 5536 0be1 6708     		.2byte	0x867
 5537 0be3 020C0000 		.4byte	0xc02
 5538 0be7 08       		.byte	0x8
 5539 0be8 0A       		.uleb128 0xa
 5540 0be9 F6010000 		.4byte	.LASF255
 5541 0bed 02       		.byte	0x2
 5542 0bee 6808     		.2byte	0x868
 5543 0bf0 080C0000 		.4byte	0xc08
 5544 0bf4 0C       		.byte	0xc
 5545 0bf5 12       		.uleb128 0x12
 5546 0bf6 496400   		.ascii	"Id\000"
 5547 0bf9 02       		.byte	0x2
 5548 0bfa 6A08     		.2byte	0x86a
 5549 0bfc 48000000 		.4byte	0x48
ARM GAS  C:\Users\ali\AppData\Local\Temp\ccr9QJbk.s 			page 122


 5550 0c00 0D       		.byte	0xd
 5551 0c01 00       		.byte	0
 5552 0c02 06       		.uleb128 0x6
 5553 0c03 04       		.byte	0x4
 5554 0c04 A80B0000 		.4byte	0xba8
 5555 0c08 15       		.uleb128 0x15
 5556 0c09 48000000 		.4byte	0x48
 5557 0c0d 0B       		.uleb128 0xb
 5558 0c0e F7190000 		.4byte	.LASF256
 5559 0c12 02       		.byte	0x2
 5560 0c13 7208     		.2byte	0x872
 5561 0c15 190C0000 		.4byte	0xc19
 5562 0c19 11       		.uleb128 0x11
 5563 0c1a 36040000 		.4byte	.LASF257
 5564 0c1e 10       		.byte	0x10
 5565 0c1f 02       		.byte	0x2
 5566 0c20 7308     		.2byte	0x873
 5567 0c22 5A0C0000 		.4byte	0xc5a
 5568 0c26 0A       		.uleb128 0xa
 5569 0c27 2A140000 		.4byte	.LASF249
 5570 0c2b 02       		.byte	0x2
 5571 0c2c 7408     		.2byte	0x874
 5572 0c2e 08090000 		.4byte	0x908
 5573 0c32 00       		.byte	0
 5574 0c33 0A       		.uleb128 0xa
 5575 0c34 D11A0000 		.4byte	.LASF197
 5576 0c38 02       		.byte	0x2
 5577 0c39 7608     		.2byte	0x876
 5578 0c3b 5A0C0000 		.4byte	0xc5a
 5579 0c3f 04       		.byte	0x4
 5580 0c40 12       		.uleb128 0x12
 5581 0c41 436E7400 		.ascii	"Cnt\000"
 5582 0c45 02       		.byte	0x2
 5583 0c46 7808     		.2byte	0x878
 5584 0c48 600C0000 		.4byte	0xc60
 5585 0c4c 08       		.byte	0x8
 5586 0c4d 12       		.uleb128 0x12
 5587 0c4e 496400   		.ascii	"Id\000"
 5588 0c51 02       		.byte	0x2
 5589 0c52 7A08     		.2byte	0x87a
 5590 0c54 48000000 		.4byte	0x48
 5591 0c58 0C       		.byte	0xc
 5592 0c59 00       		.byte	0
 5593 0c5a 06       		.uleb128 0x6
 5594 0c5b 04       		.byte	0x4
 5595 0c5c 0D0C0000 		.4byte	0xc0d
 5596 0c60 15       		.uleb128 0x15
 5597 0c61 2C000000 		.4byte	0x2c
 5598 0c65 0B       		.uleb128 0xb
 5599 0c66 5C0E0000 		.4byte	.LASF258
 5600 0c6a 02       		.byte	0x2
 5601 0c6b 8208     		.2byte	0x882
 5602 0c6d 710C0000 		.4byte	0xc71
 5603 0c71 11       		.uleb128 0x11
 5604 0c72 E5050000 		.4byte	.LASF259
 5605 0c76 2C       		.byte	0x2c
 5606 0c77 02       		.byte	0x2
ARM GAS  C:\Users\ali\AppData\Local\Temp\ccr9QJbk.s 			page 123


 5607 0c78 8308     		.2byte	0x883
 5608 0c7a BF0C0000 		.4byte	0xcbf
 5609 0c7e 0A       		.uleb128 0xa
 5610 0c7f 480E0000 		.4byte	.LASF260
 5611 0c83 02       		.byte	0x2
 5612 0c84 8408     		.2byte	0x884
 5613 0c86 0D0C0000 		.4byte	0xc0d
 5614 0c8a 00       		.byte	0
 5615 0c8b 0A       		.uleb128 0xa
 5616 0c8c 9B0D0000 		.4byte	.LASF261
 5617 0c90 02       		.byte	0x2
 5618 0c91 8508     		.2byte	0x885
 5619 0c93 A80B0000 		.4byte	0xba8
 5620 0c97 10       		.byte	0x10
 5621 0c98 0A       		.uleb128 0xa
 5622 0c99 35160000 		.4byte	.LASF262
 5623 0c9d 02       		.byte	0x2
 5624 0c9e 8608     		.2byte	0x886
 5625 0ca0 2C000000 		.4byte	0x2c
 5626 0ca4 20       		.byte	0x20
 5627 0ca5 0A       		.uleb128 0xa
 5628 0ca6 D11A0000 		.4byte	.LASF197
 5629 0caa 02       		.byte	0x2
 5630 0cab 8808     		.2byte	0x888
 5631 0cad BF0C0000 		.4byte	0xcbf
 5632 0cb1 24       		.byte	0x24
 5633 0cb2 12       		.uleb128 0x12
 5634 0cb3 496400   		.ascii	"Id\000"
 5635 0cb6 02       		.byte	0x2
 5636 0cb7 8908     		.2byte	0x889
 5637 0cb9 48000000 		.4byte	0x48
 5638 0cbd 28       		.byte	0x28
 5639 0cbe 00       		.byte	0
 5640 0cbf 06       		.uleb128 0x6
 5641 0cc0 04       		.byte	0x4
 5642 0cc1 650C0000 		.4byte	0xc65
 5643 0cc5 0B       		.uleb128 0xb
 5644 0cc6 D0010000 		.4byte	.LASF263
 5645 0cca 02       		.byte	0x2
 5646 0ccb 9108     		.2byte	0x891
 5647 0ccd D10C0000 		.4byte	0xcd1
 5648 0cd1 11       		.uleb128 0x11
 5649 0cd2 8C040000 		.4byte	.LASF264
 5650 0cd6 1C       		.byte	0x1c
 5651 0cd7 02       		.byte	0x2
 5652 0cd8 9208     		.2byte	0x892
 5653 0cda 530D0000 		.4byte	0xd53
 5654 0cde 0A       		.uleb128 0xa
 5655 0cdf 2A140000 		.4byte	.LASF249
 5656 0ce3 02       		.byte	0x2
 5657 0ce4 9308     		.2byte	0x893
 5658 0ce6 08090000 		.4byte	0x908
 5659 0cea 00       		.byte	0
 5660 0ceb 0A       		.uleb128 0xa
 5661 0cec D71A0000 		.4byte	.LASF265
 5662 0cf0 02       		.byte	0x2
 5663 0cf1 9408     		.2byte	0x894
ARM GAS  C:\Users\ali\AppData\Local\Temp\ccr9QJbk.s 			page 124


 5664 0cf3 86000000 		.4byte	0x86
 5665 0cf7 04       		.byte	0x4
 5666 0cf8 0A       		.uleb128 0xa
 5667 0cf9 D11A0000 		.4byte	.LASF197
 5668 0cfd 02       		.byte	0x2
 5669 0cfe 9608     		.2byte	0x896
 5670 0d00 530D0000 		.4byte	0xd53
 5671 0d04 08       		.byte	0x8
 5672 0d05 0A       		.uleb128 0xa
 5673 0d06 E6090000 		.4byte	.LASF266
 5674 0d0a 02       		.byte	0x2
 5675 0d0b 9808     		.2byte	0x898
 5676 0d0d 600C0000 		.4byte	0xc60
 5677 0d11 0C       		.byte	0xc
 5678 0d12 0A       		.uleb128 0xa
 5679 0d13 38140000 		.4byte	.LASF267
 5680 0d17 02       		.byte	0x2
 5681 0d18 9908     		.2byte	0x899
 5682 0d1a 2C000000 		.4byte	0x2c
 5683 0d1e 10       		.byte	0x10
 5684 0d1f 12       		.uleb128 0x12
 5685 0d20 69526400 		.ascii	"iRd\000"
 5686 0d24 02       		.byte	0x2
 5687 0d25 9A08     		.2byte	0x89a
 5688 0d27 2C000000 		.4byte	0x2c
 5689 0d2b 14       		.byte	0x14
 5690 0d2c 0A       		.uleb128 0xa
 5691 0d2d BB080000 		.4byte	.LASF268
 5692 0d31 02       		.byte	0x2
 5693 0d32 9B08     		.2byte	0x89b
 5694 0d34 56000000 		.4byte	0x56
 5695 0d38 18       		.byte	0x18
 5696 0d39 0A       		.uleb128 0xa
 5697 0d3a 51150000 		.4byte	.LASF269
 5698 0d3e 02       		.byte	0x2
 5699 0d3f 9C08     		.2byte	0x89c
 5700 0d41 48000000 		.4byte	0x48
 5701 0d45 1A       		.byte	0x1a
 5702 0d46 12       		.uleb128 0x12
 5703 0d47 496400   		.ascii	"Id\000"
 5704 0d4a 02       		.byte	0x2
 5705 0d4b 9E08     		.2byte	0x89e
 5706 0d4d 48000000 		.4byte	0x48
 5707 0d51 1B       		.byte	0x1b
 5708 0d52 00       		.byte	0
 5709 0d53 06       		.uleb128 0x6
 5710 0d54 04       		.byte	0x4
 5711 0d55 C50C0000 		.4byte	0xcc5
 5712 0d59 0B       		.uleb128 0xb
 5713 0d5a 7D190000 		.4byte	.LASF270
 5714 0d5e 02       		.byte	0x2
 5715 0d5f A608     		.2byte	0x8a6
 5716 0d61 650D0000 		.4byte	0xd65
 5717 0d65 11       		.uleb128 0x11
 5718 0d66 D6060000 		.4byte	.LASF271
 5719 0d6a 24       		.byte	0x24
 5720 0d6b 02       		.byte	0x2
ARM GAS  C:\Users\ali\AppData\Local\Temp\ccr9QJbk.s 			page 125


 5721 0d6c A708     		.2byte	0x8a7
 5722 0d6e F40D0000 		.4byte	0xdf4
 5723 0d72 0A       		.uleb128 0xa
 5724 0d73 2A140000 		.4byte	.LASF249
 5725 0d77 02       		.byte	0x2
 5726 0d78 A808     		.2byte	0x8a8
 5727 0d7a 08090000 		.4byte	0x908
 5728 0d7e 00       		.byte	0
 5729 0d7f 0A       		.uleb128 0xa
 5730 0d80 D71A0000 		.4byte	.LASF265
 5731 0d84 02       		.byte	0x2
 5732 0d85 A908     		.2byte	0x8a9
 5733 0d87 9A000000 		.4byte	0x9a
 5734 0d8b 04       		.byte	0x4
 5735 0d8c 0A       		.uleb128 0xa
 5736 0d8d D11A0000 		.4byte	.LASF197
 5737 0d91 02       		.byte	0x2
 5738 0d92 AB08     		.2byte	0x8ab
 5739 0d94 F40D0000 		.4byte	0xdf4
 5740 0d98 08       		.byte	0x8
 5741 0d99 0A       		.uleb128 0xa
 5742 0d9a FD030000 		.4byte	.LASF272
 5743 0d9e 02       		.byte	0x2
 5744 0d9f AD08     		.2byte	0x8ad
 5745 0da1 2C000000 		.4byte	0x2c
 5746 0da5 0C       		.byte	0xc
 5747 0da6 0A       		.uleb128 0xa
 5748 0da7 A8110000 		.4byte	.LASF273
 5749 0dab 02       		.byte	0x2
 5750 0dac AE08     		.2byte	0x8ae
 5751 0dae 2C000000 		.4byte	0x2c
 5752 0db2 10       		.byte	0x10
 5753 0db3 0A       		.uleb128 0xa
 5754 0db4 85130000 		.4byte	.LASF274
 5755 0db8 02       		.byte	0x2
 5756 0db9 AF08     		.2byte	0x8af
 5757 0dbb 2C000000 		.4byte	0x2c
 5758 0dbf 14       		.byte	0x14
 5759 0dc0 0A       		.uleb128 0xa
 5760 0dc1 4A030000 		.4byte	.LASF275
 5761 0dc5 02       		.byte	0x2
 5762 0dc6 B008     		.2byte	0x8b0
 5763 0dc8 2C000000 		.4byte	0x2c
 5764 0dcc 18       		.byte	0x18
 5765 0dcd 0A       		.uleb128 0xa
 5766 0dce C8060000 		.4byte	.LASF276
 5767 0dd2 02       		.byte	0x2
 5768 0dd3 B108     		.2byte	0x8b1
 5769 0dd5 2C000000 		.4byte	0x2c
 5770 0dd9 1C       		.byte	0x1c
 5771 0dda 0A       		.uleb128 0xa
 5772 0ddb 51150000 		.4byte	.LASF269
 5773 0ddf 02       		.byte	0x2
 5774 0de0 B208     		.2byte	0x8b2
 5775 0de2 48000000 		.4byte	0x48
 5776 0de6 20       		.byte	0x20
 5777 0de7 12       		.uleb128 0x12
ARM GAS  C:\Users\ali\AppData\Local\Temp\ccr9QJbk.s 			page 126


 5778 0de8 496400   		.ascii	"Id\000"
 5779 0deb 02       		.byte	0x2
 5780 0dec B408     		.2byte	0x8b4
 5781 0dee 48000000 		.4byte	0x48
 5782 0df2 21       		.byte	0x21
 5783 0df3 00       		.byte	0
 5784 0df4 06       		.uleb128 0x6
 5785 0df5 04       		.byte	0x4
 5786 0df6 590D0000 		.4byte	0xd59
 5787 0dfa 06       		.uleb128 0x6
 5788 0dfb 04       		.byte	0x4
 5789 0dfc 2F090000 		.4byte	0x92f
 5790 0e00 0B       		.uleb128 0xb
 5791 0e01 37100000 		.4byte	.LASF277
 5792 0e05 02       		.byte	0x2
 5793 0e06 FD08     		.2byte	0x8fd
 5794 0e08 0C0E0000 		.4byte	0xe0c
 5795 0e0c 11       		.uleb128 0x11
 5796 0e0d 8C050000 		.4byte	.LASF278
 5797 0e11 24       		.byte	0x24
 5798 0e12 02       		.byte	0x2
 5799 0e13 FE08     		.2byte	0x8fe
 5800 0e15 8E0E0000 		.4byte	0xe8e
 5801 0e19 0A       		.uleb128 0xa
 5802 0e1a 2A140000 		.4byte	.LASF249
 5803 0e1e 02       		.byte	0x2
 5804 0e1f FF08     		.2byte	0x8ff
 5805 0e21 08090000 		.4byte	0x908
 5806 0e25 00       		.byte	0
 5807 0e26 0A       		.uleb128 0xa
 5808 0e27 D11A0000 		.4byte	.LASF197
 5809 0e2b 02       		.byte	0x2
 5810 0e2c 0009     		.2byte	0x900
 5811 0e2e 8E0E0000 		.4byte	0xe8e
 5812 0e32 04       		.byte	0x4
 5813 0e33 0A       		.uleb128 0xa
 5814 0e34 BF190000 		.4byte	.LASF279
 5815 0e38 02       		.byte	0x2
 5816 0e39 0109     		.2byte	0x901
 5817 0e3b 84000000 		.4byte	0x84
 5818 0e3f 08       		.byte	0x8
 5819 0e40 0A       		.uleb128 0xa
 5820 0e41 DB130000 		.4byte	.LASF280
 5821 0e45 02       		.byte	0x2
 5822 0e46 0209     		.2byte	0x902
 5823 0e48 84000000 		.4byte	0x84
 5824 0e4c 0C       		.byte	0xc
 5825 0e4d 0A       		.uleb128 0xa
 5826 0e4e CF0F0000 		.4byte	.LASF281
 5827 0e52 02       		.byte	0x2
 5828 0e53 0309     		.2byte	0x903
 5829 0e55 2C000000 		.4byte	0x2c
 5830 0e59 10       		.byte	0x10
 5831 0e5a 0A       		.uleb128 0xa
 5832 0e5b 82040000 		.4byte	.LASF282
 5833 0e5f 02       		.byte	0x2
 5834 0e60 0409     		.2byte	0x904
ARM GAS  C:\Users\ali\AppData\Local\Temp\ccr9QJbk.s 			page 127


 5835 0e62 2C000000 		.4byte	0x2c
 5836 0e66 14       		.byte	0x14
 5837 0e67 0A       		.uleb128 0xa
 5838 0e68 63120000 		.4byte	.LASF283
 5839 0e6c 02       		.byte	0x2
 5840 0e6d 0509     		.2byte	0x905
 5841 0e6f 600C0000 		.4byte	0xc60
 5842 0e73 18       		.byte	0x18
 5843 0e74 0A       		.uleb128 0xa
 5844 0e75 7D0E0000 		.4byte	.LASF284
 5845 0e79 02       		.byte	0x2
 5846 0e7a 0609     		.2byte	0x906
 5847 0e7c 2C000000 		.4byte	0x2c
 5848 0e80 1C       		.byte	0x1c
 5849 0e81 12       		.uleb128 0x12
 5850 0e82 496400   		.ascii	"Id\000"
 5851 0e85 02       		.byte	0x2
 5852 0e86 0809     		.2byte	0x908
 5853 0e88 48000000 		.4byte	0x48
 5854 0e8c 20       		.byte	0x20
 5855 0e8d 00       		.byte	0
 5856 0e8e 06       		.uleb128 0x6
 5857 0e8f 04       		.byte	0x4
 5858 0e90 000E0000 		.4byte	0xe00
 5859 0e94 0B       		.uleb128 0xb
 5860 0e95 46190000 		.4byte	.LASF285
 5861 0e99 02       		.byte	0x2
 5862 0e9a 1009     		.2byte	0x910
 5863 0e9c A00E0000 		.4byte	0xea0
 5864 0ea0 11       		.uleb128 0x11
 5865 0ea1 51140000 		.4byte	.LASF286
 5866 0ea5 08       		.byte	0x8
 5867 0ea6 02       		.byte	0x2
 5868 0ea7 1109     		.2byte	0x911
 5869 0ea9 C80E0000 		.4byte	0xec8
 5870 0ead 0A       		.uleb128 0xa
 5871 0eae D11A0000 		.4byte	.LASF197
 5872 0eb2 02       		.byte	0x2
 5873 0eb3 1209     		.2byte	0x912
 5874 0eb5 C80E0000 		.4byte	0xec8
 5875 0eb9 00       		.byte	0
 5876 0eba 0A       		.uleb128 0xa
 5877 0ebb AE180000 		.4byte	.LASF287
 5878 0ebf 02       		.byte	0x2
 5879 0ec0 1309     		.2byte	0x913
 5880 0ec2 E30A0000 		.4byte	0xae3
 5881 0ec6 04       		.byte	0x4
 5882 0ec7 00       		.byte	0
 5883 0ec8 06       		.uleb128 0x6
 5884 0ec9 04       		.byte	0x4
 5885 0eca 940E0000 		.4byte	0xe94
 5886 0ece 0B       		.uleb128 0xb
 5887 0ecf F8040000 		.4byte	.LASF288
 5888 0ed3 02       		.byte	0x2
 5889 0ed4 1A09     		.2byte	0x91a
 5890 0ed6 DA0E0000 		.4byte	0xeda
 5891 0eda 11       		.uleb128 0x11
ARM GAS  C:\Users\ali\AppData\Local\Temp\ccr9QJbk.s 			page 128


 5892 0edb 18100000 		.4byte	.LASF289
 5893 0edf 0C       		.byte	0xc
 5894 0ee0 02       		.byte	0x2
 5895 0ee1 1B09     		.2byte	0x91b
 5896 0ee3 0F0F0000 		.4byte	0xf0f
 5897 0ee7 0A       		.uleb128 0xa
 5898 0ee8 D11A0000 		.4byte	.LASF197
 5899 0eec 02       		.byte	0x2
 5900 0eed 1C09     		.2byte	0x91c
 5901 0eef 0F0F0000 		.4byte	0xf0f
 5902 0ef3 00       		.byte	0
 5903 0ef4 0A       		.uleb128 0xa
 5904 0ef5 2C060000 		.4byte	.LASF290
 5905 0ef9 02       		.byte	0x2
 5906 0efa 1D09     		.2byte	0x91d
 5907 0efc 0D0A0000 		.4byte	0xa0d
 5908 0f00 04       		.byte	0x4
 5909 0f01 0A       		.uleb128 0xa
 5910 0f02 67100000 		.4byte	.LASF206
 5911 0f06 02       		.byte	0x2
 5912 0f07 1E09     		.2byte	0x91e
 5913 0f09 A0000000 		.4byte	0xa0
 5914 0f0d 08       		.byte	0x8
 5915 0f0e 00       		.byte	0
 5916 0f0f 06       		.uleb128 0x6
 5917 0f10 04       		.byte	0x4
 5918 0f11 CE0E0000 		.4byte	0xece
 5919 0f15 09       		.uleb128 0x9
 5920 0f16 5C       		.byte	0x5c
 5921 0f17 02       		.byte	0x2
 5922 0f18 3309     		.2byte	0x933
 5923 0f1a 4A100000 		.4byte	0x104a
 5924 0f1e 0A       		.uleb128 0xa
 5925 0f1f 6C0F0000 		.4byte	.LASF291
 5926 0f23 02       		.byte	0x2
 5927 0f24 3709     		.2byte	0x937
 5928 0f26 93000000 		.4byte	0x93
 5929 0f2a 00       		.byte	0
 5930 0f2b 0A       		.uleb128 0xa
 5931 0f2c 8B030000 		.4byte	.LASF292
 5932 0f30 02       		.byte	0x2
 5933 0f31 3809     		.2byte	0x938
 5934 0f33 93000000 		.4byte	0x93
 5935 0f37 04       		.byte	0x4
 5936 0f38 0A       		.uleb128 0xa
 5937 0f39 800D0000 		.4byte	.LASF293
 5938 0f3d 02       		.byte	0x2
 5939 0f3e 3909     		.2byte	0x939
 5940 0f40 93000000 		.4byte	0x93
 5941 0f44 08       		.byte	0x8
 5942 0f45 0A       		.uleb128 0xa
 5943 0f46 AD100000 		.4byte	.LASF294
 5944 0f4a 02       		.byte	0x2
 5945 0f4b 3A09     		.2byte	0x93a
 5946 0f4d 4A100000 		.4byte	0x104a
 5947 0f51 0C       		.byte	0xc
 5948 0f52 0A       		.uleb128 0xa
ARM GAS  C:\Users\ali\AppData\Local\Temp\ccr9QJbk.s 			page 129


 5949 0f53 75060000 		.4byte	.LASF295
 5950 0f57 02       		.byte	0x2
 5951 0f58 3B09     		.2byte	0x93b
 5952 0f5a 98020000 		.4byte	0x298
 5953 0f5e 10       		.byte	0x10
 5954 0f5f 0A       		.uleb128 0xa
 5955 0f60 2F0F0000 		.4byte	.LASF296
 5956 0f64 02       		.byte	0x2
 5957 0f65 3C09     		.2byte	0x93c
 5958 0f67 98020000 		.4byte	0x298
 5959 0f6b 14       		.byte	0x14
 5960 0f6c 0A       		.uleb128 0xa
 5961 0f6d AF000000 		.4byte	.LASF297
 5962 0f71 02       		.byte	0x2
 5963 0f72 3D09     		.2byte	0x93d
 5964 0f74 93000000 		.4byte	0x93
 5965 0f78 18       		.byte	0x18
 5966 0f79 0A       		.uleb128 0xa
 5967 0f7a FB140000 		.4byte	.LASF298
 5968 0f7e 02       		.byte	0x2
 5969 0f7f 3E09     		.2byte	0x93e
 5970 0f81 98020000 		.4byte	0x298
 5971 0f85 1C       		.byte	0x1c
 5972 0f86 0A       		.uleb128 0xa
 5973 0f87 E0010000 		.4byte	.LASF299
 5974 0f8b 02       		.byte	0x2
 5975 0f8c 3F09     		.2byte	0x93f
 5976 0f8e 60100000 		.4byte	0x1060
 5977 0f92 20       		.byte	0x20
 5978 0f93 0A       		.uleb128 0xa
 5979 0f94 B8090000 		.4byte	.LASF300
 5980 0f98 02       		.byte	0x2
 5981 0f99 4009     		.2byte	0x940
 5982 0f9b 93000000 		.4byte	0x93
 5983 0f9f 24       		.byte	0x24
 5984 0fa0 0A       		.uleb128 0xa
 5985 0fa1 A2010000 		.4byte	.LASF301
 5986 0fa5 02       		.byte	0x2
 5987 0fa6 4409     		.2byte	0x944
 5988 0fa8 71100000 		.4byte	0x1071
 5989 0fac 28       		.byte	0x28
 5990 0fad 0A       		.uleb128 0xa
 5991 0fae 52030000 		.4byte	.LASF302
 5992 0fb2 02       		.byte	0x2
 5993 0fb3 4509     		.2byte	0x945
 5994 0fb5 87100000 		.4byte	0x1087
 5995 0fb9 2C       		.byte	0x2c
 5996 0fba 0A       		.uleb128 0xa
 5997 0fbb 2E1A0000 		.4byte	.LASF303
 5998 0fbf 02       		.byte	0x2
 5999 0fc0 4609     		.2byte	0x946
 6000 0fc2 A2100000 		.4byte	0x10a2
 6001 0fc6 30       		.byte	0x30
 6002 0fc7 0A       		.uleb128 0xa
 6003 0fc8 3C1A0000 		.4byte	.LASF304
 6004 0fcc 02       		.byte	0x2
 6005 0fcd 4709     		.2byte	0x947
ARM GAS  C:\Users\ali\AppData\Local\Temp\ccr9QJbk.s 			page 130


 6006 0fcf C2100000 		.4byte	0x10c2
 6007 0fd3 34       		.byte	0x34
 6008 0fd4 0A       		.uleb128 0xa
 6009 0fd5 4A1A0000 		.4byte	.LASF305
 6010 0fd9 02       		.byte	0x2
 6011 0fda 4809     		.2byte	0x948
 6012 0fdc E7100000 		.4byte	0x10e7
 6013 0fe0 38       		.byte	0x38
 6014 0fe1 0A       		.uleb128 0xa
 6015 0fe2 91150000 		.4byte	.LASF306
 6016 0fe6 02       		.byte	0x2
 6017 0fe7 4909     		.2byte	0x949
 6018 0fe9 FC100000 		.4byte	0x10fc
 6019 0fed 3C       		.byte	0x3c
 6020 0fee 0A       		.uleb128 0xa
 6021 0fef 0E190000 		.4byte	.LASF307
 6022 0ff3 02       		.byte	0x2
 6023 0ff4 4D09     		.2byte	0x94d
 6024 0ff6 98020000 		.4byte	0x298
 6025 0ffa 40       		.byte	0x40
 6026 0ffb 0A       		.uleb128 0xa
 6027 0ffc 620C0000 		.4byte	.LASF308
 6028 1000 02       		.byte	0x2
 6029 1001 4E09     		.2byte	0x94e
 6030 1003 93000000 		.4byte	0x93
 6031 1007 44       		.byte	0x44
 6032 1008 0A       		.uleb128 0xa
 6033 1009 16110000 		.4byte	.LASF309
 6034 100d 02       		.byte	0x2
 6035 100e 4F09     		.2byte	0x94f
 6036 1010 71100000 		.4byte	0x1071
 6037 1014 48       		.byte	0x48
 6038 1015 0A       		.uleb128 0xa
 6039 1016 6D100000 		.4byte	.LASF310
 6040 101a 02       		.byte	0x2
 6041 101b 5009     		.2byte	0x950
 6042 101d 87100000 		.4byte	0x1087
 6043 1021 4C       		.byte	0x4c
 6044 1022 0A       		.uleb128 0xa
 6045 1023 D8100000 		.4byte	.LASF311
 6046 1027 02       		.byte	0x2
 6047 1028 5109     		.2byte	0x951
 6048 102a 98020000 		.4byte	0x298
 6049 102e 50       		.byte	0x50
 6050 102f 0A       		.uleb128 0xa
 6051 1030 581A0000 		.4byte	.LASF312
 6052 1034 02       		.byte	0x2
 6053 1035 5209     		.2byte	0x952
 6054 1037 26110000 		.4byte	0x1126
 6055 103b 54       		.byte	0x54
 6056 103c 0A       		.uleb128 0xa
 6057 103d 7F0A0000 		.4byte	.LASF313
 6058 1041 02       		.byte	0x2
 6059 1042 5309     		.2byte	0x953
 6060 1044 3C110000 		.4byte	0x113c
 6061 1048 58       		.byte	0x58
 6062 1049 00       		.byte	0
ARM GAS  C:\Users\ali\AppData\Local\Temp\ccr9QJbk.s 			page 131


 6063 104a 06       		.uleb128 0x6
 6064 104b 04       		.byte	0x4
 6065 104c 7C090000 		.4byte	0x97c
 6066 1050 0C       		.uleb128 0xc
 6067 1051 60100000 		.4byte	0x1060
 6068 1055 0D       		.uleb128 0xd
 6069 1056 6F000000 		.4byte	0x6f
 6070 105a 0D       		.uleb128 0xd
 6071 105b 2C000000 		.4byte	0x2c
 6072 105f 00       		.byte	0
 6073 1060 06       		.uleb128 0x6
 6074 1061 04       		.byte	0x4
 6075 1062 50100000 		.4byte	0x1050
 6076 1066 0C       		.uleb128 0xc
 6077 1067 71100000 		.4byte	0x1071
 6078 106b 0D       		.uleb128 0xd
 6079 106c 2C000000 		.4byte	0x2c
 6080 1070 00       		.byte	0
 6081 1071 06       		.uleb128 0x6
 6082 1072 04       		.byte	0x4
 6083 1073 66100000 		.4byte	0x1066
 6084 1077 0C       		.uleb128 0xc
 6085 1078 87100000 		.4byte	0x1087
 6086 107c 0D       		.uleb128 0xd
 6087 107d 2C000000 		.4byte	0x2c
 6088 1081 0D       		.uleb128 0xd
 6089 1082 6F000000 		.4byte	0x6f
 6090 1086 00       		.byte	0
 6091 1087 06       		.uleb128 0x6
 6092 1088 04       		.byte	0x4
 6093 1089 77100000 		.4byte	0x1077
 6094 108d 0C       		.uleb128 0xc
 6095 108e A2100000 		.4byte	0x10a2
 6096 1092 0D       		.uleb128 0xd
 6097 1093 2C000000 		.4byte	0x2c
 6098 1097 0D       		.uleb128 0xd
 6099 1098 6F000000 		.4byte	0x6f
 6100 109c 0D       		.uleb128 0xd
 6101 109d 6F000000 		.4byte	0x6f
 6102 10a1 00       		.byte	0
 6103 10a2 06       		.uleb128 0x6
 6104 10a3 04       		.byte	0x4
 6105 10a4 8D100000 		.4byte	0x108d
 6106 10a8 0C       		.uleb128 0xc
 6107 10a9 C2100000 		.4byte	0x10c2
 6108 10ad 0D       		.uleb128 0xd
 6109 10ae 2C000000 		.4byte	0x2c
 6110 10b2 0D       		.uleb128 0xd
 6111 10b3 6F000000 		.4byte	0x6f
 6112 10b7 0D       		.uleb128 0xd
 6113 10b8 6F000000 		.4byte	0x6f
 6114 10bc 0D       		.uleb128 0xd
 6115 10bd 6F000000 		.4byte	0x6f
 6116 10c1 00       		.byte	0
 6117 10c2 06       		.uleb128 0x6
 6118 10c3 04       		.byte	0x4
 6119 10c4 A8100000 		.4byte	0x10a8
ARM GAS  C:\Users\ali\AppData\Local\Temp\ccr9QJbk.s 			page 132


 6120 10c8 0C       		.uleb128 0xc
 6121 10c9 E7100000 		.4byte	0x10e7
 6122 10cd 0D       		.uleb128 0xd
 6123 10ce 2C000000 		.4byte	0x2c
 6124 10d2 0D       		.uleb128 0xd
 6125 10d3 6F000000 		.4byte	0x6f
 6126 10d7 0D       		.uleb128 0xd
 6127 10d8 6F000000 		.4byte	0x6f
 6128 10dc 0D       		.uleb128 0xd
 6129 10dd 6F000000 		.4byte	0x6f
 6130 10e1 0D       		.uleb128 0xd
 6131 10e2 6F000000 		.4byte	0x6f
 6132 10e6 00       		.byte	0
 6133 10e7 06       		.uleb128 0x6
 6134 10e8 04       		.byte	0x4
 6135 10e9 C8100000 		.4byte	0x10c8
 6136 10ed 13       		.uleb128 0x13
 6137 10ee 6F000000 		.4byte	0x6f
 6138 10f2 FC100000 		.4byte	0x10fc
 6139 10f6 0D       		.uleb128 0xd
 6140 10f7 6F000000 		.4byte	0x6f
 6141 10fb 00       		.byte	0
 6142 10fc 06       		.uleb128 0x6
 6143 10fd 04       		.byte	0x4
 6144 10fe ED100000 		.4byte	0x10ed
 6145 1102 0C       		.uleb128 0xc
 6146 1103 26110000 		.4byte	0x1126
 6147 1107 0D       		.uleb128 0xd
 6148 1108 2C000000 		.4byte	0x2c
 6149 110c 0D       		.uleb128 0xd
 6150 110d 6F000000 		.4byte	0x6f
 6151 1111 0D       		.uleb128 0xd
 6152 1112 6F000000 		.4byte	0x6f
 6153 1116 0D       		.uleb128 0xd
 6154 1117 6F000000 		.4byte	0x6f
 6155 111b 0D       		.uleb128 0xd
 6156 111c 6F000000 		.4byte	0x6f
 6157 1120 0D       		.uleb128 0xd
 6158 1121 6F000000 		.4byte	0x6f
 6159 1125 00       		.byte	0
 6160 1126 06       		.uleb128 0x6
 6161 1127 04       		.byte	0x4
 6162 1128 02110000 		.4byte	0x1102
 6163 112c 0C       		.uleb128 0xc
 6164 112d 3C110000 		.4byte	0x113c
 6165 1131 0D       		.uleb128 0xd
 6166 1132 6F000000 		.4byte	0x6f
 6167 1136 0D       		.uleb128 0xd
 6168 1137 A0000000 		.4byte	0xa0
 6169 113b 00       		.byte	0
 6170 113c 06       		.uleb128 0x6
 6171 113d 04       		.byte	0x4
 6172 113e 2C110000 		.4byte	0x112c
 6173 1142 0B       		.uleb128 0xb
 6174 1143 62160000 		.4byte	.LASF314
 6175 1147 02       		.byte	0x2
 6176 1148 5409     		.2byte	0x954
ARM GAS  C:\Users\ali\AppData\Local\Temp\ccr9QJbk.s 			page 133


 6177 114a 150F0000 		.4byte	0xf15
 6178 114e 09       		.uleb128 0x9
 6179 114f 02       		.byte	0x2
 6180 1150 02       		.byte	0x2
 6181 1151 5E09     		.2byte	0x95e
 6182 1153 71110000 		.4byte	0x1171
 6183 1157 0A       		.uleb128 0xa
 6184 1158 40160000 		.4byte	.LASF315
 6185 115c 02       		.byte	0x2
 6186 115d 5F09     		.2byte	0x95f
 6187 115f 080C0000 		.4byte	0xc08
 6188 1163 00       		.byte	0
 6189 1164 12       		.uleb128 0x12
 6190 1165 444900   		.ascii	"DI\000"
 6191 1168 02       		.byte	0x2
 6192 1169 6009     		.2byte	0x960
 6193 116b 080C0000 		.4byte	0xc08
 6194 116f 01       		.byte	0x1
 6195 1170 00       		.byte	0
 6196 1171 16       		.uleb128 0x16
 6197 1172 04       		.byte	0x4
 6198 1173 02       		.byte	0x2
 6199 1174 5C09     		.2byte	0x95c
 6200 1176 93110000 		.4byte	0x1193
 6201 117a 17       		.uleb128 0x17
 6202 117b C3140000 		.4byte	.LASF316
 6203 117f 02       		.byte	0x2
 6204 1180 5D09     		.2byte	0x95d
 6205 1182 25000000 		.4byte	0x25
 6206 1186 18       		.uleb128 0x18
 6207 1187 436E7400 		.ascii	"Cnt\000"
 6208 118b 02       		.byte	0x2
 6209 118c 6109     		.2byte	0x961
 6210 118e 4E110000 		.4byte	0x114e
 6211 1192 00       		.byte	0
 6212 1193 0B       		.uleb128 0xb
 6213 1194 F7130000 		.4byte	.LASF317
 6214 1198 02       		.byte	0x2
 6215 1199 6209     		.2byte	0x962
 6216 119b 71110000 		.4byte	0x1171
 6217 119f 09       		.uleb128 0x9
 6218 11a0 04       		.byte	0x4
 6219 11a1 02       		.byte	0x2
 6220 11a2 6D09     		.2byte	0x96d
 6221 11a4 D0110000 		.4byte	0x11d0
 6222 11a8 0A       		.uleb128 0xa
 6223 11a9 620A0000 		.4byte	.LASF318
 6224 11ad 02       		.byte	0x2
 6225 11ae 6E09     		.2byte	0x96e
 6226 11b0 48000000 		.4byte	0x48
 6227 11b4 00       		.byte	0
 6228 11b5 0A       		.uleb128 0xa
 6229 11b6 29150000 		.4byte	.LASF319
 6230 11ba 02       		.byte	0x2
 6231 11bb 6F09     		.2byte	0x96f
 6232 11bd 48000000 		.4byte	0x48
 6233 11c1 01       		.byte	0x1
ARM GAS  C:\Users\ali\AppData\Local\Temp\ccr9QJbk.s 			page 134


 6234 11c2 0A       		.uleb128 0xa
 6235 11c3 AB060000 		.4byte	.LASF320
 6236 11c7 02       		.byte	0x2
 6237 11c8 7009     		.2byte	0x970
 6238 11ca D0110000 		.4byte	0x11d0
 6239 11ce 02       		.byte	0x2
 6240 11cf 00       		.byte	0
 6241 11d0 19       		.uleb128 0x19
 6242 11d1 48000000 		.4byte	0x48
 6243 11d5 E0110000 		.4byte	0x11e0
 6244 11d9 1A       		.uleb128 0x1a
 6245 11da 7D000000 		.4byte	0x7d
 6246 11de 01       		.byte	0x1
 6247 11df 00       		.byte	0
 6248 11e0 16       		.uleb128 0x16
 6249 11e1 04       		.byte	0x4
 6250 11e2 02       		.byte	0x2
 6251 11e3 6B09     		.2byte	0x96b
 6252 11e5 02120000 		.4byte	0x1202
 6253 11e9 18       		.uleb128 0x18
 6254 11ea 416C6C00 		.ascii	"All\000"
 6255 11ee 02       		.byte	0x2
 6256 11ef 6C09     		.2byte	0x96c
 6257 11f1 710A0000 		.4byte	0xa71
 6258 11f5 17       		.uleb128 0x17
 6259 11f6 BF0A0000 		.4byte	.LASF321
 6260 11fa 02       		.byte	0x2
 6261 11fb 7109     		.2byte	0x971
 6262 11fd 9F110000 		.4byte	0x119f
 6263 1201 00       		.byte	0
 6264 1202 0B       		.uleb128 0xb
 6265 1203 42100000 		.4byte	.LASF322
 6266 1207 02       		.byte	0x2
 6267 1208 7209     		.2byte	0x972
 6268 120a E0110000 		.4byte	0x11e0
 6269 120e 15       		.uleb128 0x15
 6270 120f 02120000 		.4byte	0x1202
 6271 1213 06       		.uleb128 0x6
 6272 1214 04       		.byte	0x4
 6273 1215 81020000 		.4byte	0x281
 6274 1219 06       		.uleb128 0x6
 6275 121a 04       		.byte	0x4
 6276 121b 1F120000 		.4byte	0x121f
 6277 121f 15       		.uleb128 0x15
 6278 1220 76070000 		.4byte	0x776
 6279 1224 15       		.uleb128 0x15
 6280 1225 19120000 		.4byte	0x1219
 6281 1229 06       		.uleb128 0x6
 6282 122a 04       		.byte	0x4
 6283 122b 92090000 		.4byte	0x992
 6284 122f 15       		.uleb128 0x15
 6285 1230 68000000 		.4byte	0x68
 6286 1234 06       		.uleb128 0x6
 6287 1235 04       		.byte	0x4
 6288 1236 3A120000 		.4byte	0x123a
 6289 123a 08       		.uleb128 0x8
 6290 123b 42110000 		.4byte	0x1142
ARM GAS  C:\Users\ali\AppData\Local\Temp\ccr9QJbk.s 			page 135


 6291 123f 06       		.uleb128 0x6
 6292 1240 04       		.byte	0x4
 6293 1241 1A0A0000 		.4byte	0xa1a
 6294 1245 15       		.uleb128 0x15
 6295 1246 6F050000 		.4byte	0x56f
 6296 124a 04       		.uleb128 0x4
 6297 124b 97000000 		.4byte	.LASF323
 6298 124f 04       		.byte	0x4
 6299 1250 2C       		.byte	0x2c
 6300 1251 5D000000 		.4byte	0x5d
 6301 1255 0B       		.uleb128 0xb
 6302 1256 32140000 		.4byte	.LASF324
 6303 125a 05       		.byte	0x5
 6304 125b E801     		.2byte	0x1e8
 6305 125d 48000000 		.4byte	0x48
 6306 1261 0B       		.uleb128 0xb
 6307 1262 DF090000 		.4byte	.LASF325
 6308 1266 05       		.byte	0x5
 6309 1267 EA01     		.2byte	0x1ea
 6310 1269 6F000000 		.4byte	0x6f
 6311 126d 03       		.uleb128 0x3
 6312 126e 04       		.byte	0x4
 6313 126f 04       		.byte	0x4
 6314 1270 5C0F0000 		.4byte	.LASF326
 6315 1274 03       		.uleb128 0x3
 6316 1275 08       		.byte	0x8
 6317 1276 04       		.byte	0x4
 6318 1277 760E0000 		.4byte	.LASF327
 6319 127b 0B       		.uleb128 0xb
 6320 127c 24140000 		.4byte	.LASF328
 6321 1280 05       		.byte	0x5
 6322 1281 9402     		.2byte	0x294
 6323 1283 87120000 		.4byte	0x1287
 6324 1287 15       		.uleb128 0x15
 6325 1288 61120000 		.4byte	0x1261
 6326 128c 1B       		.uleb128 0x1b
 6327 128d AE040000 		.4byte	.LASF333
 6328 1291 01       		.byte	0x1
 6329 1292 6F       		.byte	0x6f
 6330 1293 00000000 		.4byte	.LFB64
 6331 1297 00030000 		.4byte	.LFE64-.LFB64
 6332 129b 01       		.uleb128 0x1
 6333 129c 9C       		.byte	0x9c
 6334 129d 11130000 		.4byte	0x1311
 6335 12a1 1C       		.uleb128 0x1c
 6336 12a2 62100000 		.4byte	.LASF335
 6337 12a6 01       		.byte	0x1
 6338 12a7 6F       		.byte	0x6f
 6339 12a8 55120000 		.4byte	0x1255
 6340 12ac 03       		.uleb128 0x3
 6341 12ad 91       		.byte	0x91
 6342 12ae EF7D     		.sleb128 -273
 6343 12b0 1D       		.uleb128 0x1d
 6344 12b1 C5190000 		.4byte	.LASF329
 6345 12b5 01       		.byte	0x1
 6346 12b6 71       		.byte	0x71
 6347 12b7 55120000 		.4byte	0x1255
ARM GAS  C:\Users\ali\AppData\Local\Temp\ccr9QJbk.s 			page 136


 6348 12bb 02       		.uleb128 0x2
 6349 12bc 91       		.byte	0x91
 6350 12bd 77       		.sleb128 -9
 6351 12be 1D       		.uleb128 0x1d
 6352 12bf CE190000 		.4byte	.LASF330
 6353 12c3 01       		.byte	0x1
 6354 12c4 72       		.byte	0x72
 6355 12c5 55120000 		.4byte	0x1255
 6356 12c9 02       		.uleb128 0x2
 6357 12ca 91       		.byte	0x91
 6358 12cb 76       		.sleb128 -10
 6359 12cc 1D       		.uleb128 0x1d
 6360 12cd 770D0000 		.4byte	.LASF331
 6361 12d1 01       		.byte	0x1
 6362 12d2 73       		.byte	0x73
 6363 12d3 55120000 		.4byte	0x1255
 6364 12d7 02       		.uleb128 0x2
 6365 12d8 91       		.byte	0x91
 6366 12d9 75       		.sleb128 -11
 6367 12da 1E       		.uleb128 0x1e
 6368 12db 92000000 		.4byte	.LBB2
 6369 12df 74000000 		.4byte	.LBE2-.LBB2
 6370 12e3 F7120000 		.4byte	0x12f7
 6371 12e7 1D       		.uleb128 0x1d
 6372 12e8 051B0000 		.4byte	.LASF332
 6373 12ec 01       		.byte	0x1
 6374 12ed 9E       		.byte	0x9e
 6375 12ee 11130000 		.4byte	0x1311
 6376 12f2 03       		.uleb128 0x3
 6377 12f3 91       		.byte	0x91
 6378 12f4 F47D     		.sleb128 -268
 6379 12f6 00       		.byte	0
 6380 12f7 1F       		.uleb128 0x1f
 6381 12f8 9A010000 		.4byte	.LBB3
 6382 12fc 96000000 		.4byte	.LBE3-.LBB3
 6383 1300 1D       		.uleb128 0x1d
 6384 1301 051B0000 		.4byte	.LASF332
 6385 1305 01       		.byte	0x1
 6386 1306 C4       		.byte	0xc4
 6387 1307 11130000 		.4byte	0x1311
 6388 130b 03       		.uleb128 0x3
 6389 130c 91       		.byte	0x91
 6390 130d F47D     		.sleb128 -268
 6391 130f 00       		.byte	0
 6392 1310 00       		.byte	0
 6393 1311 19       		.uleb128 0x19
 6394 1312 8C000000 		.4byte	0x8c
 6395 1316 21130000 		.4byte	0x1321
 6396 131a 1A       		.uleb128 0x1a
 6397 131b 7D000000 		.4byte	0x7d
 6398 131f FF       		.byte	0xff
 6399 1320 00       		.byte	0
 6400 1321 1B       		.uleb128 0x1b
 6401 1322 98010000 		.4byte	.LASF334
 6402 1326 01       		.byte	0x1
 6403 1327 F4       		.byte	0xf4
 6404 1328 00000000 		.4byte	.LFB65
ARM GAS  C:\Users\ali\AppData\Local\Temp\ccr9QJbk.s 			page 137


 6405 132c 00030000 		.4byte	.LFE65-.LFB65
 6406 1330 01       		.uleb128 0x1
 6407 1331 9C       		.byte	0x9c
 6408 1332 A8130000 		.4byte	0x13a8
 6409 1336 1C       		.uleb128 0x1c
 6410 1337 62100000 		.4byte	.LASF335
 6411 133b 01       		.byte	0x1
 6412 133c F4       		.byte	0xf4
 6413 133d 55120000 		.4byte	0x1255
 6414 1341 03       		.uleb128 0x3
 6415 1342 91       		.byte	0x91
 6416 1343 EF7D     		.sleb128 -273
 6417 1345 1D       		.uleb128 0x1d
 6418 1346 CE0A0000 		.4byte	.LASF336
 6419 134a 01       		.byte	0x1
 6420 134b F6       		.byte	0xf6
 6421 134c 55120000 		.4byte	0x1255
 6422 1350 02       		.uleb128 0x2
 6423 1351 91       		.byte	0x91
 6424 1352 77       		.sleb128 -9
 6425 1353 1D       		.uleb128 0x1d
 6426 1354 D70A0000 		.4byte	.LASF337
 6427 1358 01       		.byte	0x1
 6428 1359 F7       		.byte	0xf7
 6429 135a 55120000 		.4byte	0x1255
 6430 135e 02       		.uleb128 0x2
 6431 135f 91       		.byte	0x91
 6432 1360 76       		.sleb128 -10
 6433 1361 1D       		.uleb128 0x1d
 6434 1362 D90D0000 		.4byte	.LASF338
 6435 1366 01       		.byte	0x1
 6436 1367 F8       		.byte	0xf8
 6437 1368 55120000 		.4byte	0x1255
 6438 136c 02       		.uleb128 0x2
 6439 136d 91       		.byte	0x91
 6440 136e 75       		.sleb128 -11
 6441 136f 1E       		.uleb128 0x1e
 6442 1370 92000000 		.4byte	.LBB4
 6443 1374 74000000 		.4byte	.LBE4-.LBB4
 6444 1378 8D130000 		.4byte	0x138d
 6445 137c 20       		.uleb128 0x20
 6446 137d 051B0000 		.4byte	.LASF332
 6447 1381 01       		.byte	0x1
 6448 1382 2201     		.2byte	0x122
 6449 1384 11130000 		.4byte	0x1311
 6450 1388 03       		.uleb128 0x3
 6451 1389 91       		.byte	0x91
 6452 138a F47D     		.sleb128 -268
 6453 138c 00       		.byte	0
 6454 138d 1F       		.uleb128 0x1f
 6455 138e 9A010000 		.4byte	.LBB5
 6456 1392 96000000 		.4byte	.LBE5-.LBB5
 6457 1396 20       		.uleb128 0x20
 6458 1397 051B0000 		.4byte	.LASF332
 6459 139b 01       		.byte	0x1
 6460 139c 4801     		.2byte	0x148
 6461 139e 11130000 		.4byte	0x1311
ARM GAS  C:\Users\ali\AppData\Local\Temp\ccr9QJbk.s 			page 138


 6462 13a2 03       		.uleb128 0x3
 6463 13a3 91       		.byte	0x91
 6464 13a4 F47D     		.sleb128 -268
 6465 13a6 00       		.byte	0
 6466 13a7 00       		.byte	0
 6467 13a8 21       		.uleb128 0x21
 6468 13a9 14170000 		.4byte	.LASF339
 6469 13ad 01       		.byte	0x1
 6470 13ae 7A01     		.2byte	0x17a
 6471 13b0 00000000 		.4byte	.LFB66
 6472 13b4 4C070000 		.4byte	.LFE66-.LFB66
 6473 13b8 01       		.uleb128 0x1
 6474 13b9 9C       		.byte	0x9c
 6475 13ba B8140000 		.4byte	0x14b8
 6476 13be 22       		.uleb128 0x22
 6477 13bf 6D736700 		.ascii	"msg\000"
 6478 13c3 01       		.byte	0x1
 6479 13c4 7A01     		.2byte	0x17a
 6480 13c6 86000000 		.4byte	0x86
 6481 13ca 03       		.uleb128 0x3
 6482 13cb 91       		.byte	0x91
 6483 13cc E47D     		.sleb128 -284
 6484 13ce 1E       		.uleb128 0x1e
 6485 13cf 30000000 		.4byte	.LBB6
 6486 13d3 94000000 		.4byte	.LBE6-.LBB6
 6487 13d7 EC130000 		.4byte	0x13ec
 6488 13db 20       		.uleb128 0x20
 6489 13dc 051B0000 		.4byte	.LASF332
 6490 13e0 01       		.byte	0x1
 6491 13e1 8401     		.2byte	0x184
 6492 13e3 11130000 		.4byte	0x1311
 6493 13e7 03       		.uleb128 0x3
 6494 13e8 91       		.byte	0x91
 6495 13e9 E87D     		.sleb128 -280
 6496 13eb 00       		.byte	0
 6497 13ec 1E       		.uleb128 0x1e
 6498 13ed EC000000 		.4byte	.LBB7
 6499 13f1 94000000 		.4byte	.LBE7-.LBB7
 6500 13f5 0A140000 		.4byte	0x140a
 6501 13f9 20       		.uleb128 0x20
 6502 13fa 051B0000 		.4byte	.LASF332
 6503 13fe 01       		.byte	0x1
 6504 13ff A101     		.2byte	0x1a1
 6505 1401 11130000 		.4byte	0x1311
 6506 1405 03       		.uleb128 0x3
 6507 1406 91       		.byte	0x91
 6508 1407 E87D     		.sleb128 -280
 6509 1409 00       		.byte	0
 6510 140a 1E       		.uleb128 0x1e
 6511 140b EE040000 		.4byte	.LBB8
 6512 140f 62000000 		.4byte	.LBE8-.LBB8
 6513 1413 40140000 		.4byte	0x1440
 6514 1417 23       		.uleb128 0x23
 6515 1418 72657400 		.ascii	"ret\000"
 6516 141c 01       		.byte	0x1
 6517 141d 2402     		.2byte	0x224
 6518 141f 86000000 		.4byte	0x86
ARM GAS  C:\Users\ali\AppData\Local\Temp\ccr9QJbk.s 			page 139


 6519 1423 02       		.uleb128 0x2
 6520 1424 91       		.byte	0x91
 6521 1425 74       		.sleb128 -12
 6522 1426 1F       		.uleb128 0x1f
 6523 1427 28050000 		.4byte	.LBB9
 6524 142b 28000000 		.4byte	.LBE9-.LBB9
 6525 142f 23       		.uleb128 0x23
 6526 1430 737300   		.ascii	"ss\000"
 6527 1433 01       		.byte	0x1
 6528 1434 2C02     		.2byte	0x22c
 6529 1436 B8140000 		.4byte	0x14b8
 6530 143a 03       		.uleb128 0x3
 6531 143b 91       		.byte	0x91
 6532 143c E87D     		.sleb128 -280
 6533 143e 00       		.byte	0
 6534 143f 00       		.byte	0
 6535 1440 1E       		.uleb128 0x1e
 6536 1441 64050000 		.4byte	.LBB10
 6537 1445 62000000 		.4byte	.LBE10-.LBB10
 6538 1449 76140000 		.4byte	0x1476
 6539 144d 23       		.uleb128 0x23
 6540 144e 72657400 		.ascii	"ret\000"
 6541 1452 01       		.byte	0x1
 6542 1453 3402     		.2byte	0x234
 6543 1455 86000000 		.4byte	0x86
 6544 1459 02       		.uleb128 0x2
 6545 145a 91       		.byte	0x91
 6546 145b 70       		.sleb128 -16
 6547 145c 1F       		.uleb128 0x1f
 6548 145d 9E050000 		.4byte	.LBB11
 6549 1461 28000000 		.4byte	.LBE11-.LBB11
 6550 1465 23       		.uleb128 0x23
 6551 1466 737300   		.ascii	"ss\000"
 6552 1469 01       		.byte	0x1
 6553 146a 3B02     		.2byte	0x23b
 6554 146c B8140000 		.4byte	0x14b8
 6555 1470 03       		.uleb128 0x3
 6556 1471 91       		.byte	0x91
 6557 1472 E87D     		.sleb128 -280
 6558 1474 00       		.byte	0
 6559 1475 00       		.byte	0
 6560 1476 1F       		.uleb128 0x1f
 6561 1477 42060000 		.4byte	.LBB12
 6562 147b 90000000 		.4byte	.LBE12-.LBB12
 6563 147f 23       		.uleb128 0x23
 6564 1480 72657400 		.ascii	"ret\000"
 6565 1484 01       		.byte	0x1
 6566 1485 4502     		.2byte	0x245
 6567 1487 86000000 		.4byte	0x86
 6568 148b 02       		.uleb128 0x2
 6569 148c 91       		.byte	0x91
 6570 148d 6C       		.sleb128 -20
 6571 148e 20       		.uleb128 0x20
 6572 148f F5140000 		.4byte	.LASF340
 6573 1493 01       		.byte	0x1
 6574 1494 4802     		.2byte	0x248
 6575 1496 61120000 		.4byte	0x1261
ARM GAS  C:\Users\ali\AppData\Local\Temp\ccr9QJbk.s 			page 140


 6576 149a 02       		.uleb128 0x2
 6577 149b 91       		.byte	0x91
 6578 149c 68       		.sleb128 -24
 6579 149d 1F       		.uleb128 0x1f
 6580 149e 8C060000 		.4byte	.LBB13
 6581 14a2 46000000 		.4byte	.LBE13-.LBB13
 6582 14a6 23       		.uleb128 0x23
 6583 14a7 737300   		.ascii	"ss\000"
 6584 14aa 01       		.byte	0x1
 6585 14ab 5202     		.2byte	0x252
 6586 14ad B8140000 		.4byte	0x14b8
 6587 14b1 03       		.uleb128 0x3
 6588 14b2 91       		.byte	0x91
 6589 14b3 E87D     		.sleb128 -280
 6590 14b5 00       		.byte	0
 6591 14b6 00       		.byte	0
 6592 14b7 00       		.byte	0
 6593 14b8 19       		.uleb128 0x19
 6594 14b9 8C000000 		.4byte	0x8c
 6595 14bd C8140000 		.4byte	0x14c8
 6596 14c1 1A       		.uleb128 0x1a
 6597 14c2 7D000000 		.4byte	0x7d
 6598 14c6 63       		.byte	0x63
 6599 14c7 00       		.byte	0
 6600 14c8 21       		.uleb128 0x21
 6601 14c9 BC110000 		.4byte	.LASF341
 6602 14cd 01       		.byte	0x1
 6603 14ce 6B02     		.2byte	0x26b
 6604 14d0 00000000 		.4byte	.LFB67
 6605 14d4 8C010000 		.4byte	.LFE67-.LFB67
 6606 14d8 01       		.uleb128 0x1
 6607 14d9 9C       		.byte	0x9c
 6608 14da EC140000 		.4byte	0x14ec
 6609 14de 23       		.uleb128 0x23
 6610 14df 6300     		.ascii	"c\000"
 6611 14e1 01       		.byte	0x1
 6612 14e2 7002     		.2byte	0x270
 6613 14e4 8C000000 		.4byte	0x8c
 6614 14e8 02       		.uleb128 0x2
 6615 14e9 91       		.byte	0x91
 6616 14ea 77       		.sleb128 -9
 6617 14eb 00       		.byte	0
 6618 14ec 21       		.uleb128 0x21
 6619 14ed D1130000 		.4byte	.LASF342
 6620 14f1 01       		.byte	0x1
 6621 14f2 8702     		.2byte	0x287
 6622 14f4 00000000 		.4byte	.LFB68
 6623 14f8 30010000 		.4byte	.LFE68-.LFB68
 6624 14fc 01       		.uleb128 0x1
 6625 14fd 9C       		.byte	0x9c
 6626 14fe 12150000 		.4byte	0x1512
 6627 1502 20       		.uleb128 0x20
 6628 1503 62100000 		.4byte	.LASF335
 6629 1507 01       		.byte	0x1
 6630 1508 8C02     		.2byte	0x28c
 6631 150a 55120000 		.4byte	0x1255
 6632 150e 02       		.uleb128 0x2
ARM GAS  C:\Users\ali\AppData\Local\Temp\ccr9QJbk.s 			page 141


 6633 150f 91       		.byte	0x91
 6634 1510 77       		.sleb128 -9
 6635 1511 00       		.byte	0
 6636 1512 21       		.uleb128 0x21
 6637 1513 241A0000 		.4byte	.LASF343
 6638 1517 01       		.byte	0x1
 6639 1518 9502     		.2byte	0x295
 6640 151a 00000000 		.4byte	.LFB69
 6641 151e 30010000 		.4byte	.LFE69-.LFB69
 6642 1522 01       		.uleb128 0x1
 6643 1523 9C       		.byte	0x9c
 6644 1524 38150000 		.4byte	0x1538
 6645 1528 20       		.uleb128 0x20
 6646 1529 62100000 		.4byte	.LASF335
 6647 152d 01       		.byte	0x1
 6648 152e 9A02     		.2byte	0x29a
 6649 1530 55120000 		.4byte	0x1255
 6650 1534 02       		.uleb128 0x2
 6651 1535 91       		.byte	0x91
 6652 1536 77       		.sleb128 -9
 6653 1537 00       		.byte	0
 6654 1538 24       		.uleb128 0x24
 6655 1539 35000000 		.4byte	.LASF344
 6656 153d 01       		.byte	0x1
 6657 153e A502     		.2byte	0x2a5
 6658 1540 00000000 		.4byte	.LFB70
 6659 1544 84000000 		.4byte	.LFE70-.LFB70
 6660 1548 01       		.uleb128 0x1
 6661 1549 9C       		.byte	0x9c
 6662 154a 5F150000 		.4byte	0x155f
 6663 154e 20       		.uleb128 0x20
 6664 154f 051B0000 		.4byte	.LASF332
 6665 1553 01       		.byte	0x1
 6666 1554 AA02     		.2byte	0x2aa
 6667 1556 5F150000 		.4byte	0x155f
 6668 155a 03       		.uleb128 0x3
 6669 155b 91       		.byte	0x91
 6670 155c F87E     		.sleb128 -136
 6671 155e 00       		.byte	0
 6672 155f 19       		.uleb128 0x19
 6673 1560 8C000000 		.4byte	0x8c
 6674 1564 6F150000 		.4byte	0x156f
 6675 1568 1A       		.uleb128 0x1a
 6676 1569 7D000000 		.4byte	0x7d
 6677 156d 7F       		.byte	0x7f
 6678 156e 00       		.byte	0
 6679 156f 24       		.uleb128 0x24
 6680 1570 FF100000 		.4byte	.LASF345
 6681 1574 01       		.byte	0x1
 6682 1575 BB02     		.2byte	0x2bb
 6683 1577 00000000 		.4byte	.LFB71
 6684 157b 70000000 		.4byte	.LFE71-.LFB71
 6685 157f 01       		.uleb128 0x1
 6686 1580 9C       		.byte	0x9c
 6687 1581 9F150000 		.4byte	0x159f
 6688 1585 1F       		.uleb128 0x1f
 6689 1586 1E000000 		.4byte	.LBB14
ARM GAS  C:\Users\ali\AppData\Local\Temp\ccr9QJbk.s 			page 142


 6690 158a 32000000 		.4byte	.LBE14-.LBB14
 6691 158e 23       		.uleb128 0x23
 6692 158f 737300   		.ascii	"ss\000"
 6693 1592 01       		.byte	0x1
 6694 1593 C402     		.2byte	0x2c4
 6695 1595 11130000 		.4byte	0x1311
 6696 1599 03       		.uleb128 0x3
 6697 159a 91       		.byte	0x91
 6698 159b F87D     		.sleb128 -264
 6699 159d 00       		.byte	0
 6700 159e 00       		.byte	0
 6701 159f 24       		.uleb128 0x24
 6702 15a0 220C0000 		.4byte	.LASF346
 6703 15a4 01       		.byte	0x1
 6704 15a5 D002     		.2byte	0x2d0
 6705 15a7 00000000 		.4byte	.LFB72
 6706 15ab AC000000 		.4byte	.LFE72-.LFB72
 6707 15af 01       		.uleb128 0x1
 6708 15b0 9C       		.byte	0x9c
 6709 15b1 C6150000 		.4byte	0x15c6
 6710 15b5 20       		.uleb128 0x20
 6711 15b6 051B0000 		.4byte	.LASF332
 6712 15ba 01       		.byte	0x1
 6713 15bb D602     		.2byte	0x2d6
 6714 15bd 11130000 		.4byte	0x1311
 6715 15c1 03       		.uleb128 0x3
 6716 15c2 91       		.byte	0x91
 6717 15c3 F87D     		.sleb128 -264
 6718 15c5 00       		.byte	0
 6719 15c6 24       		.uleb128 0x24
 6720 15c7 FC060000 		.4byte	.LASF347
 6721 15cb 01       		.byte	0x1
 6722 15cc E702     		.2byte	0x2e7
 6723 15ce 00000000 		.4byte	.LFB73
 6724 15d2 AC000000 		.4byte	.LFE73-.LFB73
 6725 15d6 01       		.uleb128 0x1
 6726 15d7 9C       		.byte	0x9c
 6727 15d8 ED150000 		.4byte	0x15ed
 6728 15dc 20       		.uleb128 0x20
 6729 15dd 051B0000 		.4byte	.LASF332
 6730 15e1 01       		.byte	0x1
 6731 15e2 ED02     		.2byte	0x2ed
 6732 15e4 11130000 		.4byte	0x1311
 6733 15e8 03       		.uleb128 0x3
 6734 15e9 91       		.byte	0x91
 6735 15ea F87D     		.sleb128 -264
 6736 15ec 00       		.byte	0
 6737 15ed 24       		.uleb128 0x24
 6738 15ee 6C050000 		.4byte	.LASF348
 6739 15f2 01       		.byte	0x1
 6740 15f3 FE02     		.2byte	0x2fe
 6741 15f5 00000000 		.4byte	.LFB74
 6742 15f9 9C000000 		.4byte	.LFE74-.LFB74
 6743 15fd 01       		.uleb128 0x1
 6744 15fe 9C       		.byte	0x9c
 6745 15ff 14160000 		.4byte	0x1614
 6746 1603 20       		.uleb128 0x20
ARM GAS  C:\Users\ali\AppData\Local\Temp\ccr9QJbk.s 			page 143


 6747 1604 051B0000 		.4byte	.LASF332
 6748 1608 01       		.byte	0x1
 6749 1609 0403     		.2byte	0x304
 6750 160b 11130000 		.4byte	0x1311
 6751 160f 03       		.uleb128 0x3
 6752 1610 91       		.byte	0x91
 6753 1611 F87D     		.sleb128 -264
 6754 1613 00       		.byte	0
 6755 1614 24       		.uleb128 0x24
 6756 1615 E00A0000 		.4byte	.LASF349
 6757 1619 01       		.byte	0x1
 6758 161a 1503     		.2byte	0x315
 6759 161c 00000000 		.4byte	.LFB75
 6760 1620 AC000000 		.4byte	.LFE75-.LFB75
 6761 1624 01       		.uleb128 0x1
 6762 1625 9C       		.byte	0x9c
 6763 1626 3B160000 		.4byte	0x163b
 6764 162a 20       		.uleb128 0x20
 6765 162b 051B0000 		.4byte	.LASF332
 6766 162f 01       		.byte	0x1
 6767 1630 1B03     		.2byte	0x31b
 6768 1632 11130000 		.4byte	0x1311
 6769 1636 03       		.uleb128 0x3
 6770 1637 91       		.byte	0x91
 6771 1638 F87D     		.sleb128 -264
 6772 163a 00       		.byte	0
 6773 163b 24       		.uleb128 0x24
 6774 163c BD0B0000 		.4byte	.LASF350
 6775 1640 01       		.byte	0x1
 6776 1641 2D03     		.2byte	0x32d
 6777 1643 00000000 		.4byte	.LFB76
 6778 1647 9C000000 		.4byte	.LFE76-.LFB76
 6779 164b 01       		.uleb128 0x1
 6780 164c 9C       		.byte	0x9c
 6781 164d 62160000 		.4byte	0x1662
 6782 1651 20       		.uleb128 0x20
 6783 1652 051B0000 		.4byte	.LASF332
 6784 1656 01       		.byte	0x1
 6785 1657 3303     		.2byte	0x333
 6786 1659 11130000 		.4byte	0x1311
 6787 165d 03       		.uleb128 0x3
 6788 165e 91       		.byte	0x91
 6789 165f F87D     		.sleb128 -264
 6790 1661 00       		.byte	0
 6791 1662 24       		.uleb128 0x24
 6792 1663 B9050000 		.4byte	.LASF351
 6793 1667 01       		.byte	0x1
 6794 1668 4403     		.2byte	0x344
 6795 166a 00000000 		.4byte	.LFB77
 6796 166e AC000000 		.4byte	.LFE77-.LFB77
 6797 1672 01       		.uleb128 0x1
 6798 1673 9C       		.byte	0x9c
 6799 1674 89160000 		.4byte	0x1689
 6800 1678 20       		.uleb128 0x20
 6801 1679 051B0000 		.4byte	.LASF332
 6802 167d 01       		.byte	0x1
 6803 167e 4A03     		.2byte	0x34a
ARM GAS  C:\Users\ali\AppData\Local\Temp\ccr9QJbk.s 			page 144


 6804 1680 11130000 		.4byte	0x1311
 6805 1684 03       		.uleb128 0x3
 6806 1685 91       		.byte	0x91
 6807 1686 F87D     		.sleb128 -264
 6808 1688 00       		.byte	0
 6809 1689 25       		.uleb128 0x25
 6810 168a 3F140000 		.4byte	.LASF352
 6811 168e 01       		.byte	0x1
 6812 168f 5C03     		.2byte	0x35c
 6813 1691 00000000 		.4byte	.LFB78
 6814 1695 1C000000 		.4byte	.LFE78-.LFB78
 6815 1699 01       		.uleb128 0x1
 6816 169a 9C       		.byte	0x9c
 6817 169b 25       		.uleb128 0x25
 6818 169c AB050000 		.4byte	.LASF353
 6819 16a0 01       		.byte	0x1
 6820 16a1 6703     		.2byte	0x367
 6821 16a3 00000000 		.4byte	.LFB79
 6822 16a7 30000000 		.4byte	.LFE79-.LFB79
 6823 16ab 01       		.uleb128 0x1
 6824 16ac 9C       		.byte	0x9c
 6825 16ad 26       		.uleb128 0x26
 6826 16ae E0180000 		.4byte	.LASF354
 6827 16b2 01       		.byte	0x1
 6828 16b3 7203     		.2byte	0x372
 6829 16b5 00000000 		.4byte	.LFB80
 6830 16b9 34000000 		.4byte	.LFE80-.LFB80
 6831 16bd 01       		.uleb128 0x1
 6832 16be 9C       		.byte	0x9c
 6833 16bf 25       		.uleb128 0x25
 6834 16c0 16140000 		.4byte	.LASF355
 6835 16c4 01       		.byte	0x1
 6836 16c5 7D03     		.2byte	0x37d
 6837 16c7 00000000 		.4byte	.LFB81
 6838 16cb B4000000 		.4byte	.LFE81-.LFB81
 6839 16cf 01       		.uleb128 0x1
 6840 16d0 9C       		.byte	0x9c
 6841 16d1 27       		.uleb128 0x27
 6842 16d2 45030000 		.4byte	.LASF414
 6843 16d6 01       		.byte	0x1
 6844 16d7 9603     		.2byte	0x396
 6845 16d9 25000000 		.4byte	0x25
 6846 16dd 00000000 		.4byte	.LFB82
 6847 16e1 A4000000 		.4byte	.LFE82-.LFB82
 6848 16e5 01       		.uleb128 0x1
 6849 16e6 9C       		.byte	0x9c
 6850 16e7 28       		.uleb128 0x28
 6851 16e8 74000000 		.4byte	.LASF356
 6852 16ec 02       		.byte	0x2
 6853 16ed 130A     		.2byte	0xa13
 6854 16ef 7B050000 		.4byte	0x57b
 6855 16f3 28       		.uleb128 0x28
 6856 16f4 060F0000 		.4byte	.LASF357
 6857 16f8 06       		.byte	0x6
 6858 16f9 1207     		.2byte	0x712
 6859 16fb FF160000 		.4byte	0x16ff
 6860 16ff 15       		.uleb128 0x15
ARM GAS  C:\Users\ali\AppData\Local\Temp\ccr9QJbk.s 			page 145


 6861 1700 4A120000 		.4byte	0x124a
 6862 1704 29       		.uleb128 0x29
 6863 1705 84170000 		.4byte	.LASF358
 6864 1709 07       		.byte	0x7
 6865 170a 16       		.byte	0x16
 6866 170b 760A0000 		.4byte	0xa76
 6867 170f 05       		.uleb128 0x5
 6868 1710 03       		.byte	0x3
 6869 1711 00000000 		.4byte	Timer_Read_Linux
 6870 1715 29       		.uleb128 0x29
 6871 1716 C10F0000 		.4byte	.LASF359
 6872 171a 07       		.byte	0x7
 6873 171b 17       		.byte	0x17
 6874 171c 760A0000 		.4byte	0xa76
 6875 1720 05       		.uleb128 0x5
 6876 1721 03       		.byte	0x3
 6877 1722 00000000 		.4byte	Timer_RGB_LED
 6878 1726 29       		.uleb128 0x29
 6879 1727 E90D0000 		.4byte	.LASF360
 6880 172b 07       		.byte	0x7
 6881 172c 18       		.byte	0x18
 6882 172d 760A0000 		.4byte	0xa76
 6883 1731 05       		.uleb128 0x5
 6884 1732 03       		.byte	0x3
 6885 1733 00000000 		.4byte	Timer_Read_W_Port1
 6886 1737 29       		.uleb128 0x29
 6887 1738 BE0E0000 		.4byte	.LASF361
 6888 173c 07       		.byte	0x7
 6889 173d 19       		.byte	0x19
 6890 173e 760A0000 		.4byte	0xa76
 6891 1742 05       		.uleb128 0x5
 6892 1743 03       		.byte	0x3
 6893 1744 00000000 		.4byte	Timer_Read_W_Port2
 6894 1748 29       		.uleb128 0x29
 6895 1749 A10D0000 		.4byte	.LASF362
 6896 174d 07       		.byte	0x7
 6897 174e 1A       		.byte	0x1a
 6898 174f 760A0000 		.4byte	0xa76
 6899 1753 05       		.uleb128 0x5
 6900 1754 03       		.byte	0x3
 6901 1755 00000000 		.4byte	Timer_AfterRead_In1
 6902 1759 29       		.uleb128 0x29
 6903 175a 59180000 		.4byte	.LASF363
 6904 175e 07       		.byte	0x7
 6905 175f 1B       		.byte	0x1b
 6906 1760 760A0000 		.4byte	0xa76
 6907 1764 05       		.uleb128 0x5
 6908 1765 03       		.byte	0x3
 6909 1766 00000000 		.4byte	Timer_AfterRead_Port1
 6910 176a 29       		.uleb128 0x29
 6911 176b 5F150000 		.4byte	.LASF364
 6912 176f 07       		.byte	0x7
 6913 1770 1C       		.byte	0x1c
 6914 1771 760A0000 		.4byte	0xa76
 6915 1775 05       		.uleb128 0x5
 6916 1776 03       		.byte	0x3
 6917 1777 00000000 		.4byte	Timer_AfterRead_In2
ARM GAS  C:\Users\ali\AppData\Local\Temp\ccr9QJbk.s 			page 146


 6918 177b 29       		.uleb128 0x29
 6919 177c 6F180000 		.4byte	.LASF365
 6920 1780 07       		.byte	0x7
 6921 1781 1D       		.byte	0x1d
 6922 1782 760A0000 		.4byte	0xa76
 6923 1786 05       		.uleb128 0x5
 6924 1787 03       		.byte	0x3
 6925 1788 00000000 		.4byte	Timer_AfterRead_Port2
 6926 178c 29       		.uleb128 0x29
 6927 178d A4100000 		.4byte	.LASF366
 6928 1791 07       		.byte	0x7
 6929 1792 1E       		.byte	0x1e
 6930 1793 760A0000 		.4byte	0xa76
 6931 1797 05       		.uleb128 0x5
 6932 1798 03       		.byte	0x3
 6933 1799 00000000 		.4byte	Timer_WD
 6934 179d 29       		.uleb128 0x29
 6935 179e 2D0A0000 		.4byte	.LASF367
 6936 17a2 01       		.byte	0x1
 6937 17a3 32       		.byte	0x32
 6938 17a4 61120000 		.4byte	0x1261
 6939 17a8 05       		.uleb128 0x5
 6940 17a9 03       		.byte	0x3
 6941 17aa 00000000 		.4byte	read_counter_port1
 6942 17ae 29       		.uleb128 0x29
 6943 17af DD0B0000 		.4byte	.LASF368
 6944 17b3 01       		.byte	0x1
 6945 17b4 33       		.byte	0x33
 6946 17b5 61120000 		.4byte	0x1261
 6947 17b9 05       		.uleb128 0x5
 6948 17ba 03       		.byte	0x3
 6949 17bb 00000000 		.4byte	read_counter_port2
 6950 17bf 29       		.uleb128 0x29
 6951 17c0 6A190000 		.4byte	.LASF369
 6952 17c4 01       		.byte	0x1
 6953 17c5 34       		.byte	0x34
 6954 17c6 61120000 		.4byte	0x1261
 6955 17ca 05       		.uleb128 0x5
 6956 17cb 03       		.byte	0x3
 6957 17cc 00000000 		.4byte	read_counter_total
 6958 17d0 29       		.uleb128 0x29
 6959 17d1 05020000 		.4byte	.LASF370
 6960 17d5 01       		.byte	0x1
 6961 17d6 36       		.byte	0x36
 6962 17d7 61120000 		.4byte	0x1261
 6963 17db 05       		.uleb128 0x5
 6964 17dc 03       		.byte	0x3
 6965 17dd 00000000 		.4byte	read_failure_port1
 6966 17e1 29       		.uleb128 0x29
 6967 17e2 03140000 		.4byte	.LASF371
 6968 17e6 01       		.byte	0x1
 6969 17e7 37       		.byte	0x37
 6970 17e8 61120000 		.4byte	0x1261
 6971 17ec 05       		.uleb128 0x5
 6972 17ed 03       		.byte	0x3
 6973 17ee 00000000 		.4byte	read_failure_port2
 6974 17f2 29       		.uleb128 0x29
ARM GAS  C:\Users\ali\AppData\Local\Temp\ccr9QJbk.s 			page 147


 6975 17f3 9B180000 		.4byte	.LASF372
 6976 17f7 01       		.byte	0x1
 6977 17f8 38       		.byte	0x38
 6978 17f9 61120000 		.4byte	0x1261
 6979 17fd 05       		.uleb128 0x5
 6980 17fe 03       		.byte	0x3
 6981 17ff 00000000 		.4byte	read_failure_total
 6982 1803 29       		.uleb128 0x29
 6983 1804 2F130000 		.4byte	.LASF373
 6984 1808 01       		.byte	0x1
 6985 1809 3A       		.byte	0x3a
 6986 180a 61120000 		.4byte	0x1261
 6987 180e 05       		.uleb128 0x5
 6988 180f 03       		.byte	0x3
 6989 1810 00000000 		.4byte	linux_read_counter_port1
 6990 1814 29       		.uleb128 0x29
 6991 1815 48130000 		.4byte	.LASF374
 6992 1819 01       		.byte	0x1
 6993 181a 3B       		.byte	0x3b
 6994 181b 61120000 		.4byte	0x1261
 6995 181f 05       		.uleb128 0x5
 6996 1820 03       		.byte	0x3
 6997 1821 00000000 		.4byte	linux_read_counter_port2
 6998 1825 29       		.uleb128 0x29
 6999 1826 04180000 		.4byte	.LASF375
 7000 182a 01       		.byte	0x1
 7001 182b 3C       		.byte	0x3c
 7002 182c 61120000 		.4byte	0x1261
 7003 1830 05       		.uleb128 0x5
 7004 1831 03       		.byte	0x3
 7005 1832 00000000 		.4byte	linux_read_counter_total
 7006 1836 29       		.uleb128 0x29
 7007 1837 33120000 		.4byte	.LASF376
 7008 183b 01       		.byte	0x1
 7009 183c 3E       		.byte	0x3e
 7010 183d 61120000 		.4byte	0x1261
 7011 1841 05       		.uleb128 0x5
 7012 1842 03       		.byte	0x3
 7013 1843 00000000 		.4byte	linux_read_failure_port1
 7014 1847 29       		.uleb128 0x29
 7015 1848 A80F0000 		.4byte	.LASF377
 7016 184c 01       		.byte	0x1
 7017 184d 3F       		.byte	0x3f
 7018 184e 61120000 		.4byte	0x1261
 7019 1852 05       		.uleb128 0x5
 7020 1853 03       		.byte	0x3
 7021 1854 00000000 		.4byte	linux_read_failure_port2
 7022 1858 29       		.uleb128 0x29
 7023 1859 6B170000 		.4byte	.LASF378
 7024 185d 01       		.byte	0x1
 7025 185e 40       		.byte	0x40
 7026 185f 61120000 		.4byte	0x1261
 7027 1863 05       		.uleb128 0x5
 7028 1864 03       		.byte	0x3
 7029 1865 00000000 		.4byte	linux_read_failure_total
 7030 1869 29       		.uleb128 0x29
 7031 186a EE100000 		.4byte	.LASF379
ARM GAS  C:\Users\ali\AppData\Local\Temp\ccr9QJbk.s 			page 148


 7032 186e 01       		.byte	0x1
 7033 186f 42       		.byte	0x42
 7034 1870 61120000 		.4byte	0x1261
 7035 1874 05       		.uleb128 0x5
 7036 1875 03       		.byte	0x3
 7037 1876 00000000 		.4byte	read_input_port1
 7038 187a 29       		.uleb128 0x29
 7039 187b B2140000 		.4byte	.LASF380
 7040 187f 01       		.byte	0x1
 7041 1880 43       		.byte	0x43
 7042 1881 61120000 		.4byte	0x1261
 7043 1885 05       		.uleb128 0x5
 7044 1886 03       		.byte	0x3
 7045 1887 00000000 		.4byte	read_input_port2
 7046 188b 29       		.uleb128 0x29
 7047 188c 32010000 		.4byte	.LASF381
 7048 1890 01       		.byte	0x1
 7049 1891 44       		.byte	0x44
 7050 1892 61120000 		.4byte	0x1261
 7051 1896 05       		.uleb128 0x5
 7052 1897 03       		.byte	0x3
 7053 1898 00000000 		.4byte	read_input_total
 7054 189c 29       		.uleb128 0x29
 7055 189d 7D080000 		.4byte	.LASF382
 7056 18a1 01       		.byte	0x1
 7057 18a2 46       		.byte	0x46
 7058 18a3 61120000 		.4byte	0x1261
 7059 18a7 05       		.uleb128 0x5
 7060 18a8 03       		.byte	0x3
 7061 18a9 00000000 		.4byte	linux_read_input_failure_port1
 7062 18ad 29       		.uleb128 0x29
 7063 18ae 9C080000 		.4byte	.LASF383
 7064 18b2 01       		.byte	0x1
 7065 18b3 47       		.byte	0x47
 7066 18b4 61120000 		.4byte	0x1261
 7067 18b8 05       		.uleb128 0x5
 7068 18b9 03       		.byte	0x3
 7069 18ba 00000000 		.4byte	linux_read_input_failure_port2
 7070 18be 29       		.uleb128 0x29
 7071 18bf D10E0000 		.4byte	.LASF384
 7072 18c3 01       		.byte	0x1
 7073 18c4 48       		.byte	0x48
 7074 18c5 61120000 		.4byte	0x1261
 7075 18c9 05       		.uleb128 0x5
 7076 18ca 03       		.byte	0x3
 7077 18cb 00000000 		.4byte	linux_read_input_failure_total
 7078 18cf 29       		.uleb128 0x29
 7079 18d0 FC0D0000 		.4byte	.LASF385
 7080 18d4 01       		.byte	0x1
 7081 18d5 4A       		.byte	0x4a
 7082 18d6 61120000 		.4byte	0x1261
 7083 18da 05       		.uleb128 0x5
 7084 18db 03       		.byte	0x3
 7085 18dc 00000000 		.4byte	linux_uart_failure
 7086 18e0 29       		.uleb128 0x29
 7087 18e1 4C110000 		.4byte	.LASF386
 7088 18e5 01       		.byte	0x1
ARM GAS  C:\Users\ali\AppData\Local\Temp\ccr9QJbk.s 			page 149


 7089 18e6 4C       		.byte	0x4c
 7090 18e7 55120000 		.4byte	0x1255
 7091 18eb 05       		.uleb128 0x5
 7092 18ec 03       		.byte	0x3
 7093 18ed 00000000 		.4byte	Port1_Relay
 7094 18f1 29       		.uleb128 0x29
 7095 18f2 4C0F0000 		.4byte	.LASF387
 7096 18f6 01       		.byte	0x1
 7097 18f7 4D       		.byte	0x4d
 7098 18f8 55120000 		.4byte	0x1255
 7099 18fc 05       		.uleb128 0x5
 7100 18fd 03       		.byte	0x3
 7101 18fe 00000000 		.4byte	Port1_Relay_Old
 7102 1902 29       		.uleb128 0x29
 7103 1903 AF110000 		.4byte	.LASF388
 7104 1907 01       		.byte	0x1
 7105 1908 4E       		.byte	0x4e
 7106 1909 55120000 		.4byte	0x1255
 7107 190d 05       		.uleb128 0x5
 7108 190e 03       		.byte	0x3
 7109 190f 00000000 		.4byte	Port1_Locked
 7110 1913 29       		.uleb128 0x29
 7111 1914 AE0A0000 		.4byte	.LASF389
 7112 1918 01       		.byte	0x1
 7113 1919 4F       		.byte	0x4f
 7114 191a 55120000 		.4byte	0x1255
 7115 191e 05       		.uleb128 0x5
 7116 191f 03       		.byte	0x3
 7117 1920 00000000 		.4byte	Port1_Locked_Old
 7118 1924 29       		.uleb128 0x29
 7119 1925 74040000 		.4byte	.LASF390
 7120 1929 01       		.byte	0x1
 7121 192a 50       		.byte	0x50
 7122 192b 55120000 		.4byte	0x1255
 7123 192f 05       		.uleb128 0x5
 7124 1930 03       		.byte	0x3
 7125 1931 00000000 		.4byte	Port1_w_Start
 7126 1935 29       		.uleb128 0x29
 7127 1936 7E030000 		.4byte	.LASF391
 7128 193a 01       		.byte	0x1
 7129 193b 51       		.byte	0x51
 7130 193c 55120000 		.4byte	0x1255
 7131 1940 05       		.uleb128 0x5
 7132 1941 03       		.byte	0x3
 7133 1942 00000000 		.4byte	Port1_w_have
 7134 1946 19       		.uleb128 0x19
 7135 1947 8C000000 		.4byte	0x8c
 7136 194b 56190000 		.4byte	0x1956
 7137 194f 1A       		.uleb128 0x1a
 7138 1950 7D000000 		.4byte	0x7d
 7139 1954 80       		.byte	0x80
 7140 1955 00       		.byte	0
 7141 1956 29       		.uleb128 0x29
 7142 1957 4F000000 		.4byte	.LASF392
 7143 195b 01       		.byte	0x1
 7144 195c 52       		.byte	0x52
 7145 195d 46190000 		.4byte	0x1946
ARM GAS  C:\Users\ali\AppData\Local\Temp\ccr9QJbk.s 			page 150


 7146 1961 05       		.uleb128 0x5
 7147 1962 03       		.byte	0x3
 7148 1963 00000000 		.4byte	Port1_W
 7149 1967 19       		.uleb128 0x19
 7150 1968 8C000000 		.4byte	0x8c
 7151 196c 77190000 		.4byte	0x1977
 7152 1970 1A       		.uleb128 0x1a
 7153 1971 7D000000 		.4byte	0x7d
 7154 1975 02       		.byte	0x2
 7155 1976 00       		.byte	0
 7156 1977 2A       		.uleb128 0x2a
 7157 1978 496E3100 		.ascii	"In1\000"
 7158 197c 01       		.byte	0x1
 7159 197d 53       		.byte	0x53
 7160 197e 67190000 		.4byte	0x1967
 7161 1982 05       		.uleb128 0x5
 7162 1983 03       		.byte	0x3
 7163 1984 00000000 		.4byte	In1
 7164 1988 29       		.uleb128 0x29
 7165 1989 95170000 		.4byte	.LASF393
 7166 198d 01       		.byte	0x1
 7167 198e 54       		.byte	0x54
 7168 198f 55120000 		.4byte	0x1255
 7169 1993 05       		.uleb128 0x5
 7170 1994 03       		.byte	0x3
 7171 1995 00000000 		.4byte	Port1_W_Counter
 7172 1999 29       		.uleb128 0x29
 7173 199a 9E050000 		.4byte	.LASF394
 7174 199e 01       		.byte	0x1
 7175 199f 55       		.byte	0x55
 7176 19a0 55120000 		.4byte	0x1255
 7177 19a4 05       		.uleb128 0x5
 7178 19a5 03       		.byte	0x3
 7179 19a6 00000000 		.4byte	Port1_W_bits
 7180 19aa 29       		.uleb128 0x29
 7181 19ab F7080000 		.4byte	.LASF395
 7182 19af 01       		.byte	0x1
 7183 19b0 56       		.byte	0x56
 7184 19b1 55120000 		.4byte	0x1255
 7185 19b5 05       		.uleb128 0x5
 7186 19b6 03       		.byte	0x3
 7187 19b7 00000000 		.4byte	Port1_W_bits_Old
 7188 19bb 29       		.uleb128 0x29
 7189 19bc 79130000 		.4byte	.LASF396
 7190 19c0 01       		.byte	0x1
 7191 19c1 58       		.byte	0x58
 7192 19c2 55120000 		.4byte	0x1255
 7193 19c6 05       		.uleb128 0x5
 7194 19c7 03       		.byte	0x3
 7195 19c8 00000000 		.4byte	Port2_Relay
 7196 19cc 29       		.uleb128 0x29
 7197 19cd 49180000 		.4byte	.LASF397
 7198 19d1 01       		.byte	0x1
 7199 19d2 59       		.byte	0x59
 7200 19d3 55120000 		.4byte	0x1255
 7201 19d7 05       		.uleb128 0x5
 7202 19d8 03       		.byte	0x3
ARM GAS  C:\Users\ali\AppData\Local\Temp\ccr9QJbk.s 			page 151


 7203 19d9 00000000 		.4byte	Port2_Relay_Old
 7204 19dd 29       		.uleb128 0x29
 7205 19de BB060000 		.4byte	.LASF398
 7206 19e2 01       		.byte	0x1
 7207 19e3 5A       		.byte	0x5a
 7208 19e4 55120000 		.4byte	0x1255
 7209 19e8 05       		.uleb128 0x5
 7210 19e9 03       		.byte	0x3
 7211 19ea 00000000 		.4byte	Port2_Locked
 7212 19ee 29       		.uleb128 0x29
 7213 19ef C2170000 		.4byte	.LASF399
 7214 19f3 01       		.byte	0x1
 7215 19f4 5B       		.byte	0x5b
 7216 19f5 55120000 		.4byte	0x1255
 7217 19f9 05       		.uleb128 0x5
 7218 19fa 03       		.byte	0x3
 7219 19fb 00000000 		.4byte	Port2_Locked_Old
 7220 19ff 29       		.uleb128 0x29
 7221 1a00 510B0000 		.4byte	.LASF400
 7222 1a04 01       		.byte	0x1
 7223 1a05 5C       		.byte	0x5c
 7224 1a06 55120000 		.4byte	0x1255
 7225 1a0a 05       		.uleb128 0x5
 7226 1a0b 03       		.byte	0x3
 7227 1a0c 00000000 		.4byte	Port2_w_Start
 7228 1a10 29       		.uleb128 0x29
 7229 1a11 07170000 		.4byte	.LASF401
 7230 1a15 01       		.byte	0x1
 7231 1a16 5D       		.byte	0x5d
 7232 1a17 55120000 		.4byte	0x1255
 7233 1a1b 05       		.uleb128 0x5
 7234 1a1c 03       		.byte	0x3
 7235 1a1d 00000000 		.4byte	Port2_w_have
 7236 1a21 29       		.uleb128 0x29
 7237 1a22 2E040000 		.4byte	.LASF402
 7238 1a26 01       		.byte	0x1
 7239 1a27 5E       		.byte	0x5e
 7240 1a28 46190000 		.4byte	0x1946
 7241 1a2c 05       		.uleb128 0x5
 7242 1a2d 03       		.byte	0x3
 7243 1a2e 00000000 		.4byte	Port2_W
 7244 1a32 2A       		.uleb128 0x2a
 7245 1a33 496E3200 		.ascii	"In2\000"
 7246 1a37 01       		.byte	0x1
 7247 1a38 5F       		.byte	0x5f
 7248 1a39 67190000 		.4byte	0x1967
 7249 1a3d 05       		.uleb128 0x5
 7250 1a3e 03       		.byte	0x3
 7251 1a3f 00000000 		.4byte	In2
 7252 1a43 29       		.uleb128 0x29
 7253 1a44 E2160000 		.4byte	.LASF403
 7254 1a48 01       		.byte	0x1
 7255 1a49 60       		.byte	0x60
 7256 1a4a 55120000 		.4byte	0x1255
 7257 1a4e 05       		.uleb128 0x5
 7258 1a4f 03       		.byte	0x3
 7259 1a50 00000000 		.4byte	Port2_W_Counter
ARM GAS  C:\Users\ali\AppData\Local\Temp\ccr9QJbk.s 			page 152


 7260 1a54 29       		.uleb128 0x29
 7261 1a55 8F0A0000 		.4byte	.LASF404
 7262 1a59 01       		.byte	0x1
 7263 1a5a 61       		.byte	0x61
 7264 1a5b 55120000 		.4byte	0x1255
 7265 1a5f 05       		.uleb128 0x5
 7266 1a60 03       		.byte	0x3
 7267 1a61 00000000 		.4byte	Port2_W_bits
 7268 1a65 29       		.uleb128 0x29
 7269 1a66 D3150000 		.4byte	.LASF405
 7270 1a6a 01       		.byte	0x1
 7271 1a6b 62       		.byte	0x62
 7272 1a6c 55120000 		.4byte	0x1255
 7273 1a70 05       		.uleb128 0x5
 7274 1a71 03       		.byte	0x3
 7275 1a72 00000000 		.4byte	Port2_W_bits_Old
 7276 1a76 29       		.uleb128 0x29
 7277 1a77 69080000 		.4byte	.LASF406
 7278 1a7b 01       		.byte	0x1
 7279 1a7c 64       		.byte	0x64
 7280 1a7d 55120000 		.4byte	0x1255
 7281 1a81 05       		.uleb128 0x5
 7282 1a82 03       		.byte	0x3
 7283 1a83 00000000 		.4byte	UART_Linux_StartBit
 7284 1a87 19       		.uleb128 0x19
 7285 1a88 8C000000 		.4byte	0x8c
 7286 1a8c 981A0000 		.4byte	0x1a98
 7287 1a90 2B       		.uleb128 0x2b
 7288 1a91 7D000000 		.4byte	0x7d
 7289 1a95 FF03     		.2byte	0x3ff
 7290 1a97 00       		.byte	0
 7291 1a98 29       		.uleb128 0x29
 7292 1a99 54080000 		.4byte	.LASF407
 7293 1a9d 01       		.byte	0x1
 7294 1a9e 65       		.byte	0x65
 7295 1a9f 871A0000 		.4byte	0x1a87
 7296 1aa3 05       		.uleb128 0x5
 7297 1aa4 03       		.byte	0x3
 7298 1aa5 00000000 		.4byte	UART_Linux_Rx_Buffer
 7299 1aa9 29       		.uleb128 0x29
 7300 1aaa 82010000 		.4byte	.LASF408
 7301 1aae 01       		.byte	0x1
 7302 1aaf 66       		.byte	0x66
 7303 1ab0 25000000 		.4byte	0x25
 7304 1ab4 05       		.uleb128 0x5
 7305 1ab5 03       		.byte	0x3
 7306 1ab6 00000000 		.4byte	UART_Linux_Rx_Counter
 7307 1aba 29       		.uleb128 0x29
 7308 1abb 520E0000 		.4byte	.LASF409
 7309 1abf 01       		.byte	0x1
 7310 1ac0 68       		.byte	0x68
 7311 1ac1 55120000 		.4byte	0x1255
 7312 1ac5 05       		.uleb128 0x5
 7313 1ac6 03       		.byte	0x3
 7314 1ac7 00000000 		.4byte	RGB_Color
 7315 1acb 29       		.uleb128 0x29
 7316 1acc 5F0B0000 		.4byte	.LASF410
ARM GAS  C:\Users\ali\AppData\Local\Temp\ccr9QJbk.s 			page 153


 7317 1ad0 01       		.byte	0x1
 7318 1ad1 69       		.byte	0x69
 7319 1ad2 55120000 		.4byte	0x1255
 7320 1ad6 05       		.uleb128 0x5
 7321 1ad7 03       		.byte	0x3
 7322 1ad8 00000000 		.4byte	RGB_Color_Old
 7323 1adc 00       		.byte	0
 7324              		.section	.debug_abbrev,"",%progbits
 7325              	.Ldebug_abbrev0:
 7326 0000 01       		.uleb128 0x1
 7327 0001 11       		.uleb128 0x11
 7328 0002 01       		.byte	0x1
 7329 0003 25       		.uleb128 0x25
 7330 0004 0E       		.uleb128 0xe
 7331 0005 13       		.uleb128 0x13
 7332 0006 0B       		.uleb128 0xb
 7333 0007 03       		.uleb128 0x3
 7334 0008 0E       		.uleb128 0xe
 7335 0009 1B       		.uleb128 0x1b
 7336 000a 0E       		.uleb128 0xe
 7337 000b 55       		.uleb128 0x55
 7338 000c 17       		.uleb128 0x17
 7339 000d 11       		.uleb128 0x11
 7340 000e 01       		.uleb128 0x1
 7341 000f 10       		.uleb128 0x10
 7342 0010 17       		.uleb128 0x17
 7343 0011 00       		.byte	0
 7344 0012 00       		.byte	0
 7345 0013 02       		.uleb128 0x2
 7346 0014 24       		.uleb128 0x24
 7347 0015 00       		.byte	0
 7348 0016 0B       		.uleb128 0xb
 7349 0017 0B       		.uleb128 0xb
 7350 0018 3E       		.uleb128 0x3e
 7351 0019 0B       		.uleb128 0xb
 7352 001a 03       		.uleb128 0x3
 7353 001b 08       		.uleb128 0x8
 7354 001c 00       		.byte	0
 7355 001d 00       		.byte	0
 7356 001e 03       		.uleb128 0x3
 7357 001f 24       		.uleb128 0x24
 7358 0020 00       		.byte	0
 7359 0021 0B       		.uleb128 0xb
 7360 0022 0B       		.uleb128 0xb
 7361 0023 3E       		.uleb128 0x3e
 7362 0024 0B       		.uleb128 0xb
 7363 0025 03       		.uleb128 0x3
 7364 0026 0E       		.uleb128 0xe
 7365 0027 00       		.byte	0
 7366 0028 00       		.byte	0
 7367 0029 04       		.uleb128 0x4
 7368 002a 16       		.uleb128 0x16
 7369 002b 00       		.byte	0
 7370 002c 03       		.uleb128 0x3
 7371 002d 0E       		.uleb128 0xe
 7372 002e 3A       		.uleb128 0x3a
 7373 002f 0B       		.uleb128 0xb
ARM GAS  C:\Users\ali\AppData\Local\Temp\ccr9QJbk.s 			page 154


 7374 0030 3B       		.uleb128 0x3b
 7375 0031 0B       		.uleb128 0xb
 7376 0032 49       		.uleb128 0x49
 7377 0033 13       		.uleb128 0x13
 7378 0034 00       		.byte	0
 7379 0035 00       		.byte	0
 7380 0036 05       		.uleb128 0x5
 7381 0037 0F       		.uleb128 0xf
 7382 0038 00       		.byte	0
 7383 0039 0B       		.uleb128 0xb
 7384 003a 0B       		.uleb128 0xb
 7385 003b 00       		.byte	0
 7386 003c 00       		.byte	0
 7387 003d 06       		.uleb128 0x6
 7388 003e 0F       		.uleb128 0xf
 7389 003f 00       		.byte	0
 7390 0040 0B       		.uleb128 0xb
 7391 0041 0B       		.uleb128 0xb
 7392 0042 49       		.uleb128 0x49
 7393 0043 13       		.uleb128 0x13
 7394 0044 00       		.byte	0
 7395 0045 00       		.byte	0
 7396 0046 07       		.uleb128 0x7
 7397 0047 15       		.uleb128 0x15
 7398 0048 00       		.byte	0
 7399 0049 27       		.uleb128 0x27
 7400 004a 19       		.uleb128 0x19
 7401 004b 00       		.byte	0
 7402 004c 00       		.byte	0
 7403 004d 08       		.uleb128 0x8
 7404 004e 26       		.uleb128 0x26
 7405 004f 00       		.byte	0
 7406 0050 49       		.uleb128 0x49
 7407 0051 13       		.uleb128 0x13
 7408 0052 00       		.byte	0
 7409 0053 00       		.byte	0
 7410 0054 09       		.uleb128 0x9
 7411 0055 13       		.uleb128 0x13
 7412 0056 01       		.byte	0x1
 7413 0057 0B       		.uleb128 0xb
 7414 0058 0B       		.uleb128 0xb
 7415 0059 3A       		.uleb128 0x3a
 7416 005a 0B       		.uleb128 0xb
 7417 005b 3B       		.uleb128 0x3b
 7418 005c 05       		.uleb128 0x5
 7419 005d 01       		.uleb128 0x1
 7420 005e 13       		.uleb128 0x13
 7421 005f 00       		.byte	0
 7422 0060 00       		.byte	0
 7423 0061 0A       		.uleb128 0xa
 7424 0062 0D       		.uleb128 0xd
 7425 0063 00       		.byte	0
 7426 0064 03       		.uleb128 0x3
 7427 0065 0E       		.uleb128 0xe
 7428 0066 3A       		.uleb128 0x3a
 7429 0067 0B       		.uleb128 0xb
 7430 0068 3B       		.uleb128 0x3b
ARM GAS  C:\Users\ali\AppData\Local\Temp\ccr9QJbk.s 			page 155


 7431 0069 05       		.uleb128 0x5
 7432 006a 49       		.uleb128 0x49
 7433 006b 13       		.uleb128 0x13
 7434 006c 38       		.uleb128 0x38
 7435 006d 0B       		.uleb128 0xb
 7436 006e 00       		.byte	0
 7437 006f 00       		.byte	0
 7438 0070 0B       		.uleb128 0xb
 7439 0071 16       		.uleb128 0x16
 7440 0072 00       		.byte	0
 7441 0073 03       		.uleb128 0x3
 7442 0074 0E       		.uleb128 0xe
 7443 0075 3A       		.uleb128 0x3a
 7444 0076 0B       		.uleb128 0xb
 7445 0077 3B       		.uleb128 0x3b
 7446 0078 05       		.uleb128 0x5
 7447 0079 49       		.uleb128 0x49
 7448 007a 13       		.uleb128 0x13
 7449 007b 00       		.byte	0
 7450 007c 00       		.byte	0
 7451 007d 0C       		.uleb128 0xc
 7452 007e 15       		.uleb128 0x15
 7453 007f 01       		.byte	0x1
 7454 0080 27       		.uleb128 0x27
 7455 0081 19       		.uleb128 0x19
 7456 0082 01       		.uleb128 0x1
 7457 0083 13       		.uleb128 0x13
 7458 0084 00       		.byte	0
 7459 0085 00       		.byte	0
 7460 0086 0D       		.uleb128 0xd
 7461 0087 05       		.uleb128 0x5
 7462 0088 00       		.byte	0
 7463 0089 49       		.uleb128 0x49
 7464 008a 13       		.uleb128 0x13
 7465 008b 00       		.byte	0
 7466 008c 00       		.byte	0
 7467 008d 0E       		.uleb128 0xe
 7468 008e 04       		.uleb128 0x4
 7469 008f 01       		.byte	0x1
 7470 0090 0B       		.uleb128 0xb
 7471 0091 0B       		.uleb128 0xb
 7472 0092 49       		.uleb128 0x49
 7473 0093 13       		.uleb128 0x13
 7474 0094 3A       		.uleb128 0x3a
 7475 0095 0B       		.uleb128 0xb
 7476 0096 3B       		.uleb128 0x3b
 7477 0097 05       		.uleb128 0x5
 7478 0098 01       		.uleb128 0x1
 7479 0099 13       		.uleb128 0x13
 7480 009a 00       		.byte	0
 7481 009b 00       		.byte	0
 7482 009c 0F       		.uleb128 0xf
 7483 009d 28       		.uleb128 0x28
 7484 009e 00       		.byte	0
 7485 009f 03       		.uleb128 0x3
 7486 00a0 0E       		.uleb128 0xe
 7487 00a1 1C       		.uleb128 0x1c
ARM GAS  C:\Users\ali\AppData\Local\Temp\ccr9QJbk.s 			page 156


 7488 00a2 0B       		.uleb128 0xb
 7489 00a3 00       		.byte	0
 7490 00a4 00       		.byte	0
 7491 00a5 10       		.uleb128 0x10
 7492 00a6 28       		.uleb128 0x28
 7493 00a7 00       		.byte	0
 7494 00a8 03       		.uleb128 0x3
 7495 00a9 0E       		.uleb128 0xe
 7496 00aa 1C       		.uleb128 0x1c
 7497 00ab 05       		.uleb128 0x5
 7498 00ac 00       		.byte	0
 7499 00ad 00       		.byte	0
 7500 00ae 11       		.uleb128 0x11
 7501 00af 13       		.uleb128 0x13
 7502 00b0 01       		.byte	0x1
 7503 00b1 03       		.uleb128 0x3
 7504 00b2 0E       		.uleb128 0xe
 7505 00b3 0B       		.uleb128 0xb
 7506 00b4 0B       		.uleb128 0xb
 7507 00b5 3A       		.uleb128 0x3a
 7508 00b6 0B       		.uleb128 0xb
 7509 00b7 3B       		.uleb128 0x3b
 7510 00b8 05       		.uleb128 0x5
 7511 00b9 01       		.uleb128 0x1
 7512 00ba 13       		.uleb128 0x13
 7513 00bb 00       		.byte	0
 7514 00bc 00       		.byte	0
 7515 00bd 12       		.uleb128 0x12
 7516 00be 0D       		.uleb128 0xd
 7517 00bf 00       		.byte	0
 7518 00c0 03       		.uleb128 0x3
 7519 00c1 08       		.uleb128 0x8
 7520 00c2 3A       		.uleb128 0x3a
 7521 00c3 0B       		.uleb128 0xb
 7522 00c4 3B       		.uleb128 0x3b
 7523 00c5 05       		.uleb128 0x5
 7524 00c6 49       		.uleb128 0x49
 7525 00c7 13       		.uleb128 0x13
 7526 00c8 38       		.uleb128 0x38
 7527 00c9 0B       		.uleb128 0xb
 7528 00ca 00       		.byte	0
 7529 00cb 00       		.byte	0
 7530 00cc 13       		.uleb128 0x13
 7531 00cd 15       		.uleb128 0x15
 7532 00ce 01       		.byte	0x1
 7533 00cf 27       		.uleb128 0x27
 7534 00d0 19       		.uleb128 0x19
 7535 00d1 49       		.uleb128 0x49
 7536 00d2 13       		.uleb128 0x13
 7537 00d3 01       		.uleb128 0x1
 7538 00d4 13       		.uleb128 0x13
 7539 00d5 00       		.byte	0
 7540 00d6 00       		.byte	0
 7541 00d7 14       		.uleb128 0x14
 7542 00d8 26       		.uleb128 0x26
 7543 00d9 00       		.byte	0
 7544 00da 00       		.byte	0
ARM GAS  C:\Users\ali\AppData\Local\Temp\ccr9QJbk.s 			page 157


 7545 00db 00       		.byte	0
 7546 00dc 15       		.uleb128 0x15
 7547 00dd 35       		.uleb128 0x35
 7548 00de 00       		.byte	0
 7549 00df 49       		.uleb128 0x49
 7550 00e0 13       		.uleb128 0x13
 7551 00e1 00       		.byte	0
 7552 00e2 00       		.byte	0
 7553 00e3 16       		.uleb128 0x16
 7554 00e4 17       		.uleb128 0x17
 7555 00e5 01       		.byte	0x1
 7556 00e6 0B       		.uleb128 0xb
 7557 00e7 0B       		.uleb128 0xb
 7558 00e8 3A       		.uleb128 0x3a
 7559 00e9 0B       		.uleb128 0xb
 7560 00ea 3B       		.uleb128 0x3b
 7561 00eb 05       		.uleb128 0x5
 7562 00ec 01       		.uleb128 0x1
 7563 00ed 13       		.uleb128 0x13
 7564 00ee 00       		.byte	0
 7565 00ef 00       		.byte	0
 7566 00f0 17       		.uleb128 0x17
 7567 00f1 0D       		.uleb128 0xd
 7568 00f2 00       		.byte	0
 7569 00f3 03       		.uleb128 0x3
 7570 00f4 0E       		.uleb128 0xe
 7571 00f5 3A       		.uleb128 0x3a
 7572 00f6 0B       		.uleb128 0xb
 7573 00f7 3B       		.uleb128 0x3b
 7574 00f8 05       		.uleb128 0x5
 7575 00f9 49       		.uleb128 0x49
 7576 00fa 13       		.uleb128 0x13
 7577 00fb 00       		.byte	0
 7578 00fc 00       		.byte	0
 7579 00fd 18       		.uleb128 0x18
 7580 00fe 0D       		.uleb128 0xd
 7581 00ff 00       		.byte	0
 7582 0100 03       		.uleb128 0x3
 7583 0101 08       		.uleb128 0x8
 7584 0102 3A       		.uleb128 0x3a
 7585 0103 0B       		.uleb128 0xb
 7586 0104 3B       		.uleb128 0x3b
 7587 0105 05       		.uleb128 0x5
 7588 0106 49       		.uleb128 0x49
 7589 0107 13       		.uleb128 0x13
 7590 0108 00       		.byte	0
 7591 0109 00       		.byte	0
 7592 010a 19       		.uleb128 0x19
 7593 010b 01       		.uleb128 0x1
 7594 010c 01       		.byte	0x1
 7595 010d 49       		.uleb128 0x49
 7596 010e 13       		.uleb128 0x13
 7597 010f 01       		.uleb128 0x1
 7598 0110 13       		.uleb128 0x13
 7599 0111 00       		.byte	0
 7600 0112 00       		.byte	0
 7601 0113 1A       		.uleb128 0x1a
ARM GAS  C:\Users\ali\AppData\Local\Temp\ccr9QJbk.s 			page 158


 7602 0114 21       		.uleb128 0x21
 7603 0115 00       		.byte	0
 7604 0116 49       		.uleb128 0x49
 7605 0117 13       		.uleb128 0x13
 7606 0118 2F       		.uleb128 0x2f
 7607 0119 0B       		.uleb128 0xb
 7608 011a 00       		.byte	0
 7609 011b 00       		.byte	0
 7610 011c 1B       		.uleb128 0x1b
 7611 011d 2E       		.uleb128 0x2e
 7612 011e 01       		.byte	0x1
 7613 011f 3F       		.uleb128 0x3f
 7614 0120 19       		.uleb128 0x19
 7615 0121 03       		.uleb128 0x3
 7616 0122 0E       		.uleb128 0xe
 7617 0123 3A       		.uleb128 0x3a
 7618 0124 0B       		.uleb128 0xb
 7619 0125 3B       		.uleb128 0x3b
 7620 0126 0B       		.uleb128 0xb
 7621 0127 27       		.uleb128 0x27
 7622 0128 19       		.uleb128 0x19
 7623 0129 11       		.uleb128 0x11
 7624 012a 01       		.uleb128 0x1
 7625 012b 12       		.uleb128 0x12
 7626 012c 06       		.uleb128 0x6
 7627 012d 40       		.uleb128 0x40
 7628 012e 18       		.uleb128 0x18
 7629 012f 9642     		.uleb128 0x2116
 7630 0131 19       		.uleb128 0x19
 7631 0132 01       		.uleb128 0x1
 7632 0133 13       		.uleb128 0x13
 7633 0134 00       		.byte	0
 7634 0135 00       		.byte	0
 7635 0136 1C       		.uleb128 0x1c
 7636 0137 05       		.uleb128 0x5
 7637 0138 00       		.byte	0
 7638 0139 03       		.uleb128 0x3
 7639 013a 0E       		.uleb128 0xe
 7640 013b 3A       		.uleb128 0x3a
 7641 013c 0B       		.uleb128 0xb
 7642 013d 3B       		.uleb128 0x3b
 7643 013e 0B       		.uleb128 0xb
 7644 013f 49       		.uleb128 0x49
 7645 0140 13       		.uleb128 0x13
 7646 0141 02       		.uleb128 0x2
 7647 0142 18       		.uleb128 0x18
 7648 0143 00       		.byte	0
 7649 0144 00       		.byte	0
 7650 0145 1D       		.uleb128 0x1d
 7651 0146 34       		.uleb128 0x34
 7652 0147 00       		.byte	0
 7653 0148 03       		.uleb128 0x3
 7654 0149 0E       		.uleb128 0xe
 7655 014a 3A       		.uleb128 0x3a
 7656 014b 0B       		.uleb128 0xb
 7657 014c 3B       		.uleb128 0x3b
 7658 014d 0B       		.uleb128 0xb
ARM GAS  C:\Users\ali\AppData\Local\Temp\ccr9QJbk.s 			page 159


 7659 014e 49       		.uleb128 0x49
 7660 014f 13       		.uleb128 0x13
 7661 0150 02       		.uleb128 0x2
 7662 0151 18       		.uleb128 0x18
 7663 0152 00       		.byte	0
 7664 0153 00       		.byte	0
 7665 0154 1E       		.uleb128 0x1e
 7666 0155 0B       		.uleb128 0xb
 7667 0156 01       		.byte	0x1
 7668 0157 11       		.uleb128 0x11
 7669 0158 01       		.uleb128 0x1
 7670 0159 12       		.uleb128 0x12
 7671 015a 06       		.uleb128 0x6
 7672 015b 01       		.uleb128 0x1
 7673 015c 13       		.uleb128 0x13
 7674 015d 00       		.byte	0
 7675 015e 00       		.byte	0
 7676 015f 1F       		.uleb128 0x1f
 7677 0160 0B       		.uleb128 0xb
 7678 0161 01       		.byte	0x1
 7679 0162 11       		.uleb128 0x11
 7680 0163 01       		.uleb128 0x1
 7681 0164 12       		.uleb128 0x12
 7682 0165 06       		.uleb128 0x6
 7683 0166 00       		.byte	0
 7684 0167 00       		.byte	0
 7685 0168 20       		.uleb128 0x20
 7686 0169 34       		.uleb128 0x34
 7687 016a 00       		.byte	0
 7688 016b 03       		.uleb128 0x3
 7689 016c 0E       		.uleb128 0xe
 7690 016d 3A       		.uleb128 0x3a
 7691 016e 0B       		.uleb128 0xb
 7692 016f 3B       		.uleb128 0x3b
 7693 0170 05       		.uleb128 0x5
 7694 0171 49       		.uleb128 0x49
 7695 0172 13       		.uleb128 0x13
 7696 0173 02       		.uleb128 0x2
 7697 0174 18       		.uleb128 0x18
 7698 0175 00       		.byte	0
 7699 0176 00       		.byte	0
 7700 0177 21       		.uleb128 0x21
 7701 0178 2E       		.uleb128 0x2e
 7702 0179 01       		.byte	0x1
 7703 017a 3F       		.uleb128 0x3f
 7704 017b 19       		.uleb128 0x19
 7705 017c 03       		.uleb128 0x3
 7706 017d 0E       		.uleb128 0xe
 7707 017e 3A       		.uleb128 0x3a
 7708 017f 0B       		.uleb128 0xb
 7709 0180 3B       		.uleb128 0x3b
 7710 0181 05       		.uleb128 0x5
 7711 0182 27       		.uleb128 0x27
 7712 0183 19       		.uleb128 0x19
 7713 0184 11       		.uleb128 0x11
 7714 0185 01       		.uleb128 0x1
 7715 0186 12       		.uleb128 0x12
ARM GAS  C:\Users\ali\AppData\Local\Temp\ccr9QJbk.s 			page 160


 7716 0187 06       		.uleb128 0x6
 7717 0188 40       		.uleb128 0x40
 7718 0189 18       		.uleb128 0x18
 7719 018a 9642     		.uleb128 0x2116
 7720 018c 19       		.uleb128 0x19
 7721 018d 01       		.uleb128 0x1
 7722 018e 13       		.uleb128 0x13
 7723 018f 00       		.byte	0
 7724 0190 00       		.byte	0
 7725 0191 22       		.uleb128 0x22
 7726 0192 05       		.uleb128 0x5
 7727 0193 00       		.byte	0
 7728 0194 03       		.uleb128 0x3
 7729 0195 08       		.uleb128 0x8
 7730 0196 3A       		.uleb128 0x3a
 7731 0197 0B       		.uleb128 0xb
 7732 0198 3B       		.uleb128 0x3b
 7733 0199 05       		.uleb128 0x5
 7734 019a 49       		.uleb128 0x49
 7735 019b 13       		.uleb128 0x13
 7736 019c 02       		.uleb128 0x2
 7737 019d 18       		.uleb128 0x18
 7738 019e 00       		.byte	0
 7739 019f 00       		.byte	0
 7740 01a0 23       		.uleb128 0x23
 7741 01a1 34       		.uleb128 0x34
 7742 01a2 00       		.byte	0
 7743 01a3 03       		.uleb128 0x3
 7744 01a4 08       		.uleb128 0x8
 7745 01a5 3A       		.uleb128 0x3a
 7746 01a6 0B       		.uleb128 0xb
 7747 01a7 3B       		.uleb128 0x3b
 7748 01a8 05       		.uleb128 0x5
 7749 01a9 49       		.uleb128 0x49
 7750 01aa 13       		.uleb128 0x13
 7751 01ab 02       		.uleb128 0x2
 7752 01ac 18       		.uleb128 0x18
 7753 01ad 00       		.byte	0
 7754 01ae 00       		.byte	0
 7755 01af 24       		.uleb128 0x24
 7756 01b0 2E       		.uleb128 0x2e
 7757 01b1 01       		.byte	0x1
 7758 01b2 3F       		.uleb128 0x3f
 7759 01b3 19       		.uleb128 0x19
 7760 01b4 03       		.uleb128 0x3
 7761 01b5 0E       		.uleb128 0xe
 7762 01b6 3A       		.uleb128 0x3a
 7763 01b7 0B       		.uleb128 0xb
 7764 01b8 3B       		.uleb128 0x3b
 7765 01b9 05       		.uleb128 0x5
 7766 01ba 11       		.uleb128 0x11
 7767 01bb 01       		.uleb128 0x1
 7768 01bc 12       		.uleb128 0x12
 7769 01bd 06       		.uleb128 0x6
 7770 01be 40       		.uleb128 0x40
 7771 01bf 18       		.uleb128 0x18
 7772 01c0 9642     		.uleb128 0x2116
ARM GAS  C:\Users\ali\AppData\Local\Temp\ccr9QJbk.s 			page 161


 7773 01c2 19       		.uleb128 0x19
 7774 01c3 01       		.uleb128 0x1
 7775 01c4 13       		.uleb128 0x13
 7776 01c5 00       		.byte	0
 7777 01c6 00       		.byte	0
 7778 01c7 25       		.uleb128 0x25
 7779 01c8 2E       		.uleb128 0x2e
 7780 01c9 00       		.byte	0
 7781 01ca 3F       		.uleb128 0x3f
 7782 01cb 19       		.uleb128 0x19
 7783 01cc 03       		.uleb128 0x3
 7784 01cd 0E       		.uleb128 0xe
 7785 01ce 3A       		.uleb128 0x3a
 7786 01cf 0B       		.uleb128 0xb
 7787 01d0 3B       		.uleb128 0x3b
 7788 01d1 05       		.uleb128 0x5
 7789 01d2 11       		.uleb128 0x11
 7790 01d3 01       		.uleb128 0x1
 7791 01d4 12       		.uleb128 0x12
 7792 01d5 06       		.uleb128 0x6
 7793 01d6 40       		.uleb128 0x40
 7794 01d7 18       		.uleb128 0x18
 7795 01d8 9642     		.uleb128 0x2116
 7796 01da 19       		.uleb128 0x19
 7797 01db 00       		.byte	0
 7798 01dc 00       		.byte	0
 7799 01dd 26       		.uleb128 0x26
 7800 01de 2E       		.uleb128 0x2e
 7801 01df 00       		.byte	0
 7802 01e0 3F       		.uleb128 0x3f
 7803 01e1 19       		.uleb128 0x19
 7804 01e2 03       		.uleb128 0x3
 7805 01e3 0E       		.uleb128 0xe
 7806 01e4 3A       		.uleb128 0x3a
 7807 01e5 0B       		.uleb128 0xb
 7808 01e6 3B       		.uleb128 0x3b
 7809 01e7 05       		.uleb128 0x5
 7810 01e8 11       		.uleb128 0x11
 7811 01e9 01       		.uleb128 0x1
 7812 01ea 12       		.uleb128 0x12
 7813 01eb 06       		.uleb128 0x6
 7814 01ec 40       		.uleb128 0x40
 7815 01ed 18       		.uleb128 0x18
 7816 01ee 9742     		.uleb128 0x2117
 7817 01f0 19       		.uleb128 0x19
 7818 01f1 00       		.byte	0
 7819 01f2 00       		.byte	0
 7820 01f3 27       		.uleb128 0x27
 7821 01f4 2E       		.uleb128 0x2e
 7822 01f5 00       		.byte	0
 7823 01f6 3F       		.uleb128 0x3f
 7824 01f7 19       		.uleb128 0x19
 7825 01f8 03       		.uleb128 0x3
 7826 01f9 0E       		.uleb128 0xe
 7827 01fa 3A       		.uleb128 0x3a
 7828 01fb 0B       		.uleb128 0xb
 7829 01fc 3B       		.uleb128 0x3b
ARM GAS  C:\Users\ali\AppData\Local\Temp\ccr9QJbk.s 			page 162


 7830 01fd 05       		.uleb128 0x5
 7831 01fe 49       		.uleb128 0x49
 7832 01ff 13       		.uleb128 0x13
 7833 0200 11       		.uleb128 0x11
 7834 0201 01       		.uleb128 0x1
 7835 0202 12       		.uleb128 0x12
 7836 0203 06       		.uleb128 0x6
 7837 0204 40       		.uleb128 0x40
 7838 0205 18       		.uleb128 0x18
 7839 0206 9642     		.uleb128 0x2116
 7840 0208 19       		.uleb128 0x19
 7841 0209 00       		.byte	0
 7842 020a 00       		.byte	0
 7843 020b 28       		.uleb128 0x28
 7844 020c 34       		.uleb128 0x34
 7845 020d 00       		.byte	0
 7846 020e 03       		.uleb128 0x3
 7847 020f 0E       		.uleb128 0xe
 7848 0210 3A       		.uleb128 0x3a
 7849 0211 0B       		.uleb128 0xb
 7850 0212 3B       		.uleb128 0x3b
 7851 0213 05       		.uleb128 0x5
 7852 0214 49       		.uleb128 0x49
 7853 0215 13       		.uleb128 0x13
 7854 0216 3F       		.uleb128 0x3f
 7855 0217 19       		.uleb128 0x19
 7856 0218 3C       		.uleb128 0x3c
 7857 0219 19       		.uleb128 0x19
 7858 021a 00       		.byte	0
 7859 021b 00       		.byte	0
 7860 021c 29       		.uleb128 0x29
 7861 021d 34       		.uleb128 0x34
 7862 021e 00       		.byte	0
 7863 021f 03       		.uleb128 0x3
 7864 0220 0E       		.uleb128 0xe
 7865 0221 3A       		.uleb128 0x3a
 7866 0222 0B       		.uleb128 0xb
 7867 0223 3B       		.uleb128 0x3b
 7868 0224 0B       		.uleb128 0xb
 7869 0225 49       		.uleb128 0x49
 7870 0226 13       		.uleb128 0x13
 7871 0227 3F       		.uleb128 0x3f
 7872 0228 19       		.uleb128 0x19
 7873 0229 02       		.uleb128 0x2
 7874 022a 18       		.uleb128 0x18
 7875 022b 00       		.byte	0
 7876 022c 00       		.byte	0
 7877 022d 2A       		.uleb128 0x2a
 7878 022e 34       		.uleb128 0x34
 7879 022f 00       		.byte	0
 7880 0230 03       		.uleb128 0x3
 7881 0231 08       		.uleb128 0x8
 7882 0232 3A       		.uleb128 0x3a
 7883 0233 0B       		.uleb128 0xb
 7884 0234 3B       		.uleb128 0x3b
 7885 0235 0B       		.uleb128 0xb
 7886 0236 49       		.uleb128 0x49
ARM GAS  C:\Users\ali\AppData\Local\Temp\ccr9QJbk.s 			page 163


 7887 0237 13       		.uleb128 0x13
 7888 0238 3F       		.uleb128 0x3f
 7889 0239 19       		.uleb128 0x19
 7890 023a 02       		.uleb128 0x2
 7891 023b 18       		.uleb128 0x18
 7892 023c 00       		.byte	0
 7893 023d 00       		.byte	0
 7894 023e 2B       		.uleb128 0x2b
 7895 023f 21       		.uleb128 0x21
 7896 0240 00       		.byte	0
 7897 0241 49       		.uleb128 0x49
 7898 0242 13       		.uleb128 0x13
 7899 0243 2F       		.uleb128 0x2f
 7900 0244 05       		.uleb128 0x5
 7901 0245 00       		.byte	0
 7902 0246 00       		.byte	0
 7903 0247 00       		.byte	0
 7904              		.section	.debug_aranges,"",%progbits
 7905 0000 AC000000 		.4byte	0xac
 7906 0004 0200     		.2byte	0x2
 7907 0006 00000000 		.4byte	.Ldebug_info0
 7908 000a 04       		.byte	0x4
 7909 000b 00       		.byte	0
 7910 000c 0000     		.2byte	0
 7911 000e 0000     		.2byte	0
 7912 0010 00000000 		.4byte	.LFB64
 7913 0014 00030000 		.4byte	.LFE64-.LFB64
 7914 0018 00000000 		.4byte	.LFB65
 7915 001c 00030000 		.4byte	.LFE65-.LFB65
 7916 0020 00000000 		.4byte	.LFB66
 7917 0024 4C070000 		.4byte	.LFE66-.LFB66
 7918 0028 00000000 		.4byte	.LFB67
 7919 002c 8C010000 		.4byte	.LFE67-.LFB67
 7920 0030 00000000 		.4byte	.LFB68
 7921 0034 30010000 		.4byte	.LFE68-.LFB68
 7922 0038 00000000 		.4byte	.LFB69
 7923 003c 30010000 		.4byte	.LFE69-.LFB69
 7924 0040 00000000 		.4byte	.LFB70
 7925 0044 84000000 		.4byte	.LFE70-.LFB70
 7926 0048 00000000 		.4byte	.LFB71
 7927 004c 70000000 		.4byte	.LFE71-.LFB71
 7928 0050 00000000 		.4byte	.LFB72
 7929 0054 AC000000 		.4byte	.LFE72-.LFB72
 7930 0058 00000000 		.4byte	.LFB73
 7931 005c AC000000 		.4byte	.LFE73-.LFB73
 7932 0060 00000000 		.4byte	.LFB74
 7933 0064 9C000000 		.4byte	.LFE74-.LFB74
 7934 0068 00000000 		.4byte	.LFB75
 7935 006c AC000000 		.4byte	.LFE75-.LFB75
 7936 0070 00000000 		.4byte	.LFB76
 7937 0074 9C000000 		.4byte	.LFE76-.LFB76
 7938 0078 00000000 		.4byte	.LFB77
 7939 007c AC000000 		.4byte	.LFE77-.LFB77
 7940 0080 00000000 		.4byte	.LFB78
 7941 0084 1C000000 		.4byte	.LFE78-.LFB78
 7942 0088 00000000 		.4byte	.LFB79
 7943 008c 30000000 		.4byte	.LFE79-.LFB79
ARM GAS  C:\Users\ali\AppData\Local\Temp\ccr9QJbk.s 			page 164


 7944 0090 00000000 		.4byte	.LFB80
 7945 0094 34000000 		.4byte	.LFE80-.LFB80
 7946 0098 00000000 		.4byte	.LFB81
 7947 009c B4000000 		.4byte	.LFE81-.LFB81
 7948 00a0 00000000 		.4byte	.LFB82
 7949 00a4 A4000000 		.4byte	.LFE82-.LFB82
 7950 00a8 00000000 		.4byte	0
 7951 00ac 00000000 		.4byte	0
 7952              		.section	.debug_ranges,"",%progbits
 7953              	.Ldebug_ranges0:
 7954 0000 00000000 		.4byte	.LFB64
 7955 0004 00030000 		.4byte	.LFE64
 7956 0008 00000000 		.4byte	.LFB65
 7957 000c 00030000 		.4byte	.LFE65
 7958 0010 00000000 		.4byte	.LFB66
 7959 0014 4C070000 		.4byte	.LFE66
 7960 0018 00000000 		.4byte	.LFB67
 7961 001c 8C010000 		.4byte	.LFE67
 7962 0020 00000000 		.4byte	.LFB68
 7963 0024 30010000 		.4byte	.LFE68
 7964 0028 00000000 		.4byte	.LFB69
 7965 002c 30010000 		.4byte	.LFE69
 7966 0030 00000000 		.4byte	.LFB70
 7967 0034 84000000 		.4byte	.LFE70
 7968 0038 00000000 		.4byte	.LFB71
 7969 003c 70000000 		.4byte	.LFE71
 7970 0040 00000000 		.4byte	.LFB72
 7971 0044 AC000000 		.4byte	.LFE72
 7972 0048 00000000 		.4byte	.LFB73
 7973 004c AC000000 		.4byte	.LFE73
 7974 0050 00000000 		.4byte	.LFB74
 7975 0054 9C000000 		.4byte	.LFE74
 7976 0058 00000000 		.4byte	.LFB75
 7977 005c AC000000 		.4byte	.LFE75
 7978 0060 00000000 		.4byte	.LFB76
 7979 0064 9C000000 		.4byte	.LFE76
 7980 0068 00000000 		.4byte	.LFB77
 7981 006c AC000000 		.4byte	.LFE77
 7982 0070 00000000 		.4byte	.LFB78
 7983 0074 1C000000 		.4byte	.LFE78
 7984 0078 00000000 		.4byte	.LFB79
 7985 007c 30000000 		.4byte	.LFE79
 7986 0080 00000000 		.4byte	.LFB80
 7987 0084 34000000 		.4byte	.LFE80
 7988 0088 00000000 		.4byte	.LFB81
 7989 008c B4000000 		.4byte	.LFE81
 7990 0090 00000000 		.4byte	.LFB82
 7991 0094 A4000000 		.4byte	.LFE82
 7992 0098 00000000 		.4byte	0
 7993 009c 00000000 		.4byte	0
 7994              		.section	.debug_line,"",%progbits
 7995              	.Ldebug_line0:
 7996 0000 B8060000 		.section	.debug_str,"MS",%progbits,1
 7996      02008701 
 7996      00000201 
 7996      FB0E0D00 
 7996      01010101 
ARM GAS  C:\Users\ali\AppData\Local\Temp\ccr9QJbk.s 			page 165


 7997              	.LASF230:
 7998 0000 70665361 		.ascii	"pfSave\000"
 7998      766500
 7999              	.LASF115:
 8000 0007 4F535F45 		.ascii	"OS_ERR_TASK_PRIORITY\000"
 8000      52525F54 
 8000      41534B5F 
 8000      5052494F 
 8000      52495459 
 8001              	.LASF113:
 8002 001c 4F535F45 		.ascii	"OS_ERR_SUSPEND_TOO_OFTEN\000"
 8002      52525F53 
 8002      55535045 
 8002      4E445F54 
 8002      4F4F5F4F 
 8003              	.LASF344:
 8004 0035 54696D65 		.ascii	"Timer_Read_Linux_Callback\000"
 8004      725F5265 
 8004      61645F4C 
 8004      696E7578 
 8004      5F43616C 
 8005              	.LASF392:
 8006 004f 506F7274 		.ascii	"Port1_W\000"
 8006      315F5700 
 8007              	.LASF10:
 8008 0057 73697A65 		.ascii	"sizetype\000"
 8008      74797065 
 8008      00
 8009              	.LASF108:
 8010 0060 4F535F45 		.ascii	"OS_ERR_MEMF_INV_PTR\000"
 8010      52525F4D 
 8010      454D465F 
 8010      494E565F 
 8010      50545200 
 8011              	.LASF356:
 8012 0074 4F535F47 		.ascii	"OS_Global\000"
 8012      6C6F6261 
 8012      6C00
 8013              	.LASF162:
 8014 007e 70546173 		.ascii	"pTask\000"
 8014      6B00
 8015              	.LASF166:
 8016 0084 70664368 		.ascii	"pfCheckTimer\000"
 8016      65636B54 
 8016      696D6572 
 8016      00
 8017              	.LASF39:
 8018 0091 4F535F4F 		.ascii	"OS_OK\000"
 8018      4B00
 8019              	.LASF323:
 8020 0097 696E7433 		.ascii	"int32_t\000"
 8020      325F7400 
 8021              	.LASF253:
 8022 009f 4F535F4D 		.ascii	"OS_MUTEX\000"
 8022      55544558 
 8022      00
 8023              	.LASF203:
ARM GAS  C:\Users\ali\AppData\Local\Temp\ccr9QJbk.s 			page 166


 8024 00a8 4576656E 		.ascii	"Events\000"
 8024      747300
 8025              	.LASF297:
 8026 00af 70665265 		.ascii	"pfRecordTaskStopExec\000"
 8026      636F7264 
 8026      5461736B 
 8026      53746F70 
 8026      45786563 
 8027              	.LASF223:
 8028 00c4 4F535F57 		.ascii	"OS_WAIT_OBJ_STRUCT\000"
 8028      4149545F 
 8028      4F424A5F 
 8028      53545255 
 8028      435400
 8029              	.LASF178:
 8030 00d7 7053656D 		.ascii	"pSemaRoot\000"
 8030      61526F6F 
 8030      7400
 8031              	.LASF145:
 8032 00e1 4F535F45 		.ascii	"OS_ERR_CONFIG_OSSTOP\000"
 8032      52525F43 
 8032      4F4E4649 
 8032      475F4F53 
 8032      53544F50 
 8033              	.LASF254:
 8034 00f6 4F535F4D 		.ascii	"OS_MUTEX_STRUCT\000"
 8034      55544558 
 8034      5F535452 
 8034      55435400 
 8035              	.LASF190:
 8036 0106 5469636B 		.ascii	"TicklessExpired\000"
 8036      6C657373 
 8036      45787069 
 8036      72656400 
 8037              	.LASF155:
 8038 0116 4F535F45 		.ascii	"OS_ERR_UNALIGNED_MAIN_STACK\000"
 8038      52525F55 
 8038      4E414C49 
 8038      474E4544 
 8038      5F4D4149 
 8039              	.LASF381:
 8040 0132 72656164 		.ascii	"read_input_total\000"
 8040      5F696E70 
 8040      75745F74 
 8040      6F74616C 
 8040      00
 8041              	.LASF104:
 8042 0143 4F535F45 		.ascii	"OS_ERR_NESTED_RX_INT\000"
 8042      52525F4E 
 8042      45535445 
 8042      445F5258 
 8042      5F494E54 
 8043              	.LASF234:
 8044 0158 70546173 		.ascii	"pTaskContext\000"
 8044      6B436F6E 
 8044      74657874 
 8044      00
ARM GAS  C:\Users\ali\AppData\Local\Temp\ccr9QJbk.s 			page 167


 8045              	.LASF213:
 8046 0165 4C6F6164 		.ascii	"Load\000"
 8046      00
 8047              	.LASF131:
 8048 016a 4F535F45 		.ascii	"OS_ERR_HW_NOT_AVAILABLE\000"
 8048      52525F48 
 8048      575F4E4F 
 8048      545F4156 
 8048      41494C41 
 8049              	.LASF408:
 8050 0182 55415254 		.ascii	"UART_Linux_Rx_Counter\000"
 8050      5F4C696E 
 8050      75785F52 
 8050      785F436F 
 8050      756E7465 
 8051              	.LASF334:
 8052 0198 506F7274 		.ascii	"Port2_Job\000"
 8052      325F4A6F 
 8052      6200
 8053              	.LASF301:
 8054 01a2 70665265 		.ascii	"pfRecordVoid\000"
 8054      636F7264 
 8054      566F6964 
 8054      00
 8055              	.LASF12:
 8056 01af 436F756E 		.ascii	"Counters\000"
 8056      74657273 
 8056      00
 8057              	.LASF148:
 8058 01b8 4F535F45 		.ascii	"OS_ERR_VERSION_MISMATCH\000"
 8058      52525F56 
 8058      45525349 
 8058      4F4E5F4D 
 8058      49534D41 
 8059              	.LASF263:
 8060 01d0 4F535F4D 		.ascii	"OS_MAILBOX\000"
 8060      41494C42 
 8060      4F5800
 8061              	.LASF215:
 8062 01db 70544C53 		.ascii	"pTLS\000"
 8062      00
 8063              	.LASF299:
 8064 01e0 70665265 		.ascii	"pfRecordTaskStopReady\000"
 8064      636F7264 
 8064      5461736B 
 8064      53746F70 
 8064      52656164 
 8065              	.LASF255:
 8066 01f6 55736543 		.ascii	"UseCnt\000"
 8066      6E7400
 8067              	.LASF168:
 8068 01fd 54696D65 		.ascii	"TimeDex\000"
 8068      44657800 
 8069              	.LASF370:
 8070 0205 72656164 		.ascii	"read_failure_port1\000"
 8070      5F666169 
 8070      6C757265 
ARM GAS  C:\Users\ali\AppData\Local\Temp\ccr9QJbk.s 			page 168


 8070      5F706F72 
 8070      743100
 8071              	.LASF69:
 8072 0218 4F535F45 		.ascii	"OS_ERR_QUEUE_NOT_INUSE\000"
 8072      52525F51 
 8072      55455545 
 8072      5F4E4F54 
 8072      5F494E55 
 8073              	.LASF151:
 8074 022f 4F535F45 		.ascii	"OS_ERR_TICKHANDLE_WITH_FRACTIONAL_TICK\000"
 8074      52525F54 
 8074      49434B48 
 8074      414E444C 
 8074      455F5749 
 8075              	.LASF180:
 8076 0256 7052574C 		.ascii	"pRWLockRoot\000"
 8076      6F636B52 
 8076      6F6F7400 
 8077              	.LASF163:
 8078 0262 70416374 		.ascii	"pActiveTask\000"
 8078      69766554 
 8078      61736B00 
 8079              	.LASF81:
 8080 026e 4F535F45 		.ascii	"OS_ERR_MUTEX_OWNER\000"
 8080      52525F4D 
 8080      55544558 
 8080      5F4F574E 
 8080      455200
 8081              	.LASF37:
 8082 0281 42756666 		.ascii	"BufferSize\000"
 8082      65725369 
 8082      7A6500
 8083              	.LASF74:
 8084 028c 4F535F45 		.ascii	"OS_ERR_MESSAGE_SIZE_ZERO\000"
 8084      52525F4D 
 8084      45535341 
 8084      47455F53 
 8084      495A455F 
 8085              	.LASF59:
 8086 02a5 4F535F45 		.ascii	"OS_ERR_INV_MAILBOX\000"
 8086      52525F49 
 8086      4E565F4D 
 8086      41494C42 
 8086      4F5800
 8087              	.LASF136:
 8088 02b8 4F535F45 		.ascii	"OS_ERR_COUNTER_FREQ_ZERO\000"
 8088      52525F43 
 8088      4F554E54 
 8088      45525F46 
 8088      5245515F 
 8089              	.LASF7:
 8090 02d1 6C6F6E67 		.ascii	"long int\000"
 8090      20696E74 
 8090      00
 8091              	.LASF174:
 8092 02da 70546963 		.ascii	"pTickHookRoot\000"
 8092      6B486F6F 
ARM GAS  C:\Users\ali\AppData\Local\Temp\ccr9QJbk.s 			page 169


 8092      6B526F6F 
 8092      7400
 8093              	.LASF182:
 8094 02e8 70665461 		.ascii	"pfTaskStartHook\000"
 8094      736B5374 
 8094      61727448 
 8094      6F6F6B00 
 8095              	.LASF65:
 8096 02f8 4F535F45 		.ascii	"OS_ERR_MUTEX_DELETE\000"
 8096      52525F4D 
 8096      55544558 
 8096      5F44454C 
 8096      45544500 
 8097              	.LASF207:
 8098 030c 53746163 		.ascii	"StackSize\000"
 8098      6B53697A 
 8098      6500
 8099              	.LASF177:
 8100 0316 704D6169 		.ascii	"pMailboxRoot\000"
 8100      6C626F78 
 8100      526F6F74 
 8100      00
 8101              	.LASF201:
 8102 0323 5072696F 		.ascii	"Priority\000"
 8102      72697479 
 8102      00
 8103              	.LASF412:
 8104 032c 2E2E5C41 		.ascii	"..\\Application\\OS_Main.c\000"
 8104      70706C69 
 8104      63617469 
 8104      6F6E5C4F 
 8104      535F4D61 
 8105              	.LASF414:
 8106 0345 6D61696E 		.ascii	"main\000"
 8106      00
 8107              	.LASF275:
 8108 034a 6F66664C 		.ascii	"offLast\000"
 8108      61737400 
 8109              	.LASF302:
 8110 0352 70665265 		.ascii	"pfRecordU32\000"
 8110      636F7264 
 8110      55333200 
 8111              	.LASF48:
 8112 035e 4F535F45 		.ascii	"OS_ERR_INTERNAL\000"
 8112      52525F49 
 8112      4E544552 
 8112      4E414C00 
 8113              	.LASF237:
 8114 036e 4F535F54 		.ascii	"OS_TIMER_STRUCT\000"
 8114      494D4552 
 8114      5F535452 
 8114      55435400 
 8115              	.LASF391:
 8116 037e 506F7274 		.ascii	"Port1_w_have\000"
 8116      315F775F 
 8116      68617665 
 8116      00
ARM GAS  C:\Users\ali\AppData\Local\Temp\ccr9QJbk.s 			page 170


 8117              	.LASF292:
 8118 038b 70665265 		.ascii	"pfRecordExitISR\000"
 8118      636F7264 
 8118      45786974 
 8118      49535200 
 8119              	.LASF76:
 8120 039b 4F535F45 		.ascii	"OS_ERR_LEAVEREGION_BEFORE_ENTERREGION\000"
 8120      52525F4C 
 8120      45415645 
 8120      52454749 
 8120      4F4E5F42 
 8121              	.LASF92:
 8122 03c1 4F535F45 		.ascii	"OS_ERR_CPU_STATE_ILLEGAL\000"
 8122      52525F43 
 8122      50555F53 
 8122      54415445 
 8122      5F494C4C 
 8123              	.LASF80:
 8124 03da 4F535F45 		.ascii	"OS_ERR_TASK_ENDS_WITHOUT_TERMINATE\000"
 8124      52525F54 
 8124      41534B5F 
 8124      454E4453 
 8124      5F574954 
 8125              	.LASF272:
 8126 03fd 53697A65 		.ascii	"Size\000"
 8126      00
 8127              	.LASF187:
 8128 0402 496E496E 		.ascii	"InInt\000"
 8128      7400
 8129              	.LASF3:
 8130 0408 7369676E 		.ascii	"signed char\000"
 8130      65642063 
 8130      68617200 
 8131              	.LASF158:
 8132 0414 50656E64 		.ascii	"Pending\000"
 8132      696E6700 
 8133              	.LASF96:
 8134 041c 4F535F45 		.ascii	"OS_ERR_2USE_TIMER\000"
 8134      52525F32 
 8134      5553455F 
 8134      54494D45 
 8134      5200
 8135              	.LASF402:
 8136 042e 506F7274 		.ascii	"Port2_W\000"
 8136      325F5700 
 8137              	.LASF257:
 8138 0436 4F535F53 		.ascii	"OS_SEMAPHORE_STRUCT\000"
 8138      454D4150 
 8138      484F5245 
 8138      5F535452 
 8138      55435400 
 8139              	.LASF52:
 8140 044a 4F535F45 		.ascii	"OS_ERR_POWER_OVER\000"
 8140      52525F50 
 8140      4F574552 
 8140      5F4F5645 
 8140      5200
ARM GAS  C:\Users\ali\AppData\Local\Temp\ccr9QJbk.s 			page 171


 8141              	.LASF228:
 8142 045c 4F535F52 		.ascii	"OS_ROUTINE_OSGLOBAL_PTR\000"
 8142      4F555449 
 8142      4E455F4F 
 8142      53474C4F 
 8142      42414C5F 
 8143              	.LASF390:
 8144 0474 506F7274 		.ascii	"Port1_w_Start\000"
 8144      315F775F 
 8144      53746172 
 8144      7400
 8145              	.LASF282:
 8146 0482 426C6F63 		.ascii	"BlockSize\000"
 8146      6B53697A 
 8146      6500
 8147              	.LASF264:
 8148 048c 4F535F4D 		.ascii	"OS_MAILBOX_STRUCT\000"
 8148      41494C42 
 8148      4F585F53 
 8148      54525543 
 8148      5400
 8149              	.LASF107:
 8150 049e 4F535F45 		.ascii	"OS_ERR_MEMF_INV\000"
 8150      52525F4D 
 8150      454D465F 
 8150      494E5600 
 8151              	.LASF333:
 8152 04ae 506F7274 		.ascii	"Port1_Job\000"
 8152      315F4A6F 
 8152      6200
 8153              	.LASF54:
 8154 04b8 4F535F45 		.ascii	"OS_ERR_POWER_INDEX\000"
 8154      52525F50 
 8154      4F574552 
 8154      5F494E44 
 8154      455800
 8155              	.LASF77:
 8156 04cb 4F535F45 		.ascii	"OS_ERR_LEAVEINT\000"
 8156      52525F4C 
 8156      45415645 
 8156      494E5400 
 8157              	.LASF245:
 8158 04db 4F535F45 		.ascii	"OS_EVENT_MASK_MODE_AND_LOGIC\000"
 8158      56454E54 
 8158      5F4D4153 
 8158      4B5F4D4F 
 8158      44455F41 
 8159              	.LASF288:
 8160 04f8 4F535F4F 		.ascii	"OS_OBJNAME\000"
 8160      424A4E41 
 8160      4D4500
 8161              	.LASF4:
 8162 0503 756E7369 		.ascii	"unsigned char\000"
 8162      676E6564 
 8162      20636861 
 8162      7200
 8163              	.LASF42:
ARM GAS  C:\Users\ali\AppData\Local\Temp\ccr9QJbk.s 			page 172


 8164 0511 4F535F45 		.ascii	"OS_ERR_ISR_PRIO\000"
 8164      52525F49 
 8164      53525F50 
 8164      52494F00 
 8165              	.LASF114:
 8166 0521 4F535F45 		.ascii	"OS_ERR_RESUME_BEFORE_SUSPEND\000"
 8166      52525F52 
 8166      4553554D 
 8166      455F4245 
 8166      464F5245 
 8167              	.LASF72:
 8168 053e 4F535F45 		.ascii	"OS_ERR_MB_INUSE\000"
 8168      52525F4D 
 8168      425F494E 
 8168      55534500 
 8169              	.LASF130:
 8170 054e 4F535F45 		.ascii	"OS_ERR_NON_ALIGNED_INVALIDATE\000"
 8170      52525F4E 
 8170      4F4E5F41 
 8170      4C49474E 
 8170      45445F49 
 8171              	.LASF348:
 8172 056c 54696D65 		.ascii	"Timer_AfterRead_Input1_Callback\000"
 8172      725F4166 
 8172      74657252 
 8172      6561645F 
 8172      496E7075 
 8173              	.LASF278:
 8174 058c 4F535F4D 		.ascii	"OS_MEMPOOL_STRUCT\000"
 8174      454D504F 
 8174      4F4C5F53 
 8174      54525543 
 8174      5400
 8175              	.LASF394:
 8176 059e 506F7274 		.ascii	"Port1_W_bits\000"
 8176      315F575F 
 8176      62697473 
 8176      00
 8177              	.LASF353:
 8178 05ab 696E7472 		.ascii	"intrrupt_init\000"
 8178      72757074 
 8178      5F696E69 
 8178      7400
 8179              	.LASF351:
 8180 05b9 54696D65 		.ascii	"Timer_AfterRead_Port2_Callback\000"
 8180      725F4166 
 8180      74657252 
 8180      6561645F 
 8180      506F7274 
 8181              	.LASF160:
 8182 05d8 704D6169 		.ascii	"pMainContext\000"
 8182      6E436F6E 
 8182      74657874 
 8182      00
 8183              	.LASF259:
 8184 05e5 4F535F52 		.ascii	"OS_RWLOCK_STRUCT\000"
 8184      574C4F43 
ARM GAS  C:\Users\ali\AppData\Local\Temp\ccr9QJbk.s 			page 173


 8184      4B5F5354 
 8184      52554354 
 8184      00
 8185              	.LASF229:
 8186 05f6 4F535F45 		.ascii	"OS_EXTEND_TASK_CONTEXT_STRUCT\000"
 8186      5854454E 
 8186      445F5441 
 8186      534B5F43 
 8186      4F4E5445 
 8187              	.LASF123:
 8188 0614 4F535F45 		.ascii	"OS_ERR_TICKHOOK_INVALID\000"
 8188      52525F54 
 8188      49434B48 
 8188      4F4F4B5F 
 8188      494E5641 
 8189              	.LASF290:
 8190 062c 704F534F 		.ascii	"pOSObjID\000"
 8190      626A4944 
 8190      00
 8191              	.LASF19:
 8192 0635 4F535F52 		.ascii	"OS_REG_R10\000"
 8192      45475F52 
 8192      313000
 8193              	.LASF20:
 8194 0640 4F535F52 		.ascii	"OS_REG_R11\000"
 8194      45475F52 
 8194      313100
 8195              	.LASF26:
 8196 064b 4F535F52 		.ascii	"OS_REG_R12\000"
 8196      45475F52 
 8196      313200
 8197              	.LASF27:
 8198 0656 4F535F52 		.ascii	"OS_REG_R14\000"
 8198      45475F52 
 8198      313400
 8199              	.LASF243:
 8200 0661 4F535F45 		.ascii	"OS_EVENT_RESET_MODE\000"
 8200      56454E54 
 8200      5F524553 
 8200      45545F4D 
 8200      4F444500 
 8201              	.LASF295:
 8202 0675 70665265 		.ascii	"pfRecordTaskCreate\000"
 8202      636F7264 
 8202      5461736B 
 8202      43726561 
 8202      746500
 8203              	.LASF153:
 8204 0688 4F535F45 		.ascii	"OS_ERR_2USE_RWLOCK\000"
 8204      52525F32 
 8204      5553455F 
 8204      52574C4F 
 8204      434B00
 8205              	.LASF11:
 8206 069b 63686172 		.ascii	"char\000"
 8206      00
 8207              	.LASF179:
ARM GAS  C:\Users\ali\AppData\Local\Temp\ccr9QJbk.s 			page 174


 8208 06a0 70457665 		.ascii	"pEventRoot\000"
 8208      6E74526F 
 8208      6F7400
 8209              	.LASF320:
 8210 06ab 6144756D 		.ascii	"aDummy\000"
 8210      6D7900
 8211              	.LASF247:
 8212 06b2 4F535F45 		.ascii	"OS_EVENT\000"
 8212      56454E54 
 8212      00
 8213              	.LASF398:
 8214 06bb 506F7274 		.ascii	"Port2_Locked\000"
 8214      325F4C6F 
 8214      636B6564 
 8214      00
 8215              	.LASF276:
 8216 06c8 496E5072 		.ascii	"InProgressCnt\000"
 8216      6F677265 
 8216      7373436E 
 8216      7400
 8217              	.LASF271:
 8218 06d6 4F535F51 		.ascii	"OS_QUEUE_STRUCT\000"
 8218      55455545 
 8218      5F535452 
 8218      55435400 
 8219              	.LASF167:
 8220 06e6 54696D65 		.ascii	"Time\000"
 8220      00
 8221              	.LASF192:
 8222 06eb 54696D65 		.ascii	"TimeSliceAtStart\000"
 8222      536C6963 
 8222      65417453 
 8222      74617274 
 8222      00
 8223              	.LASF347:
 8224 06fc 54696D65 		.ascii	"Timer_Read_W_Port2_Callback\000"
 8224      725F5265 
 8224      61645F57 
 8224      5F506F72 
 8224      74325F43 
 8225              	.LASF224:
 8226 0718 4F535F57 		.ascii	"OS_WD\000"
 8226      4400
 8227              	.LASF61:
 8228 071e 4F535F45 		.ascii	"OS_ERR_INV_MUTEX\000"
 8228      52525F49 
 8228      4E565F4D 
 8228      55544558 
 8228      00
 8229              	.LASF118:
 8230 072f 4F535F45 		.ascii	"OS_ERR_EVENT_INVALID\000"
 8230      52525F45 
 8230      56454E54 
 8230      5F494E56 
 8230      414C4944 
 8231              	.LASF97:
 8232 0744 4F535F45 		.ascii	"OS_ERR_2USE_MAILBOX\000"
ARM GAS  C:\Users\ali\AppData\Local\Temp\ccr9QJbk.s 			page 175


 8232      52525F32 
 8232      5553455F 
 8232      4D41494C 
 8232      424F5800 
 8233              	.LASF90:
 8234 0758 4F535F45 		.ascii	"OS_ERR_INIT_NOT_CALLED\000"
 8234      52525F49 
 8234      4E49545F 
 8234      4E4F545F 
 8234      43414C4C 
 8235              	.LASF21:
 8236 076f 4F535F52 		.ascii	"OS_REG_LR\000"
 8236      45475F4C 
 8236      5200
 8237              	.LASF200:
 8238 0779 54696D65 		.ascii	"Timeout\000"
 8238      6F757400 
 8239              	.LASF34:
 8240 0781 4F535F52 		.ascii	"OS_REG_CONTROL\000"
 8240      45475F43 
 8240      4F4E5452 
 8240      4F4C00
 8241              	.LASF75:
 8242 0790 4F535F45 		.ascii	"OS_ERR_UNUSE_BEFORE_USE\000"
 8242      52525F55 
 8242      4E555345 
 8242      5F424546 
 8242      4F52455F 
 8243              	.LASF164:
 8244 07a8 7054696D 		.ascii	"pTimer\000"
 8244      657200
 8245              	.LASF49:
 8246 07af 4F535F45 		.ascii	"OS_ERR_IDLE_RETURNS\000"
 8246      52525F49 
 8246      444C455F 
 8246      52455455 
 8246      524E5300 
 8247              	.LASF120:
 8248 07c3 4F535F45 		.ascii	"OS_ERR_WAITLIST_RING\000"
 8248      52525F57 
 8248      4149544C 
 8248      4953545F 
 8248      52494E47 
 8249              	.LASF183:
 8250 07d8 70446566 		.ascii	"pDefaultTaskContextExtension\000"
 8250      61756C74 
 8250      5461736B 
 8250      436F6E74 
 8250      65787445 
 8251              	.LASF210:
 8252 07f5 4E756D50 		.ascii	"NumPreemptions\000"
 8252      7265656D 
 8252      7074696F 
 8252      6E7300
 8253              	.LASF140:
 8254 0804 4F535F45 		.ascii	"OS_ERR_MPU_INVALID_PERMISSION\000"
 8254      52525F4D 
ARM GAS  C:\Users\ali\AppData\Local\Temp\ccr9QJbk.s 			page 176


 8254      50555F49 
 8254      4E56414C 
 8254      49445F50 
 8255              	.LASF84:
 8256 0822 4F535F45 		.ascii	"OS_ERR_MUTEX_OVERFLOW\000"
 8256      52525F4D 
 8256      55544558 
 8256      5F4F5645 
 8256      52464C4F 
 8257              	.LASF55:
 8258 0838 4F535F45 		.ascii	"OS_ERR_SYS_STACK\000"
 8258      52525F53 
 8258      59535F53 
 8258      5441434B 
 8258      00
 8259              	.LASF172:
 8260 0849 704D7574 		.ascii	"pMutexRoot\000"
 8260      6578526F 
 8260      6F7400
 8261              	.LASF407:
 8262 0854 55415254 		.ascii	"UART_Linux_Rx_Buffer\000"
 8262      5F4C696E 
 8262      75785F52 
 8262      785F4275 
 8262      66666572 
 8263              	.LASF406:
 8264 0869 55415254 		.ascii	"UART_Linux_StartBit\000"
 8264      5F4C696E 
 8264      75785F53 
 8264      74617274 
 8264      42697400 
 8265              	.LASF382:
 8266 087d 6C696E75 		.ascii	"linux_read_input_failure_port1\000"
 8266      785F7265 
 8266      61645F69 
 8266      6E707574 
 8266      5F666169 
 8267              	.LASF383:
 8268 089c 6C696E75 		.ascii	"linux_read_input_failure_port2\000"
 8268      785F7265 
 8268      61645F69 
 8268      6E707574 
 8268      5F666169 
 8269              	.LASF268:
 8270 08bb 73697A65 		.ascii	"sizeofMsg\000"
 8270      6F664D73 
 8270      6700
 8271              	.LASF221:
 8272 08c5 70576169 		.ascii	"pWaitObj\000"
 8272      744F626A 
 8272      00
 8273              	.LASF53:
 8274 08ce 4F535F45 		.ascii	"OS_ERR_POWER_UNDER\000"
 8274      52525F50 
 8274      4F574552 
 8274      5F554E44 
 8274      455200
ARM GAS  C:\Users\ali\AppData\Local\Temp\ccr9QJbk.s 			page 177


 8275              	.LASF46:
 8276 08e1 4F535F45 		.ascii	"OS_ERR_MB_BUFFER_SIZE\000"
 8276      52525F4D 
 8276      425F4255 
 8276      46464552 
 8276      5F53495A 
 8277              	.LASF395:
 8278 08f7 506F7274 		.ascii	"Port1_W_bits_Old\000"
 8278      315F575F 
 8278      62697473 
 8278      5F4F6C64 
 8278      00
 8279              	.LASF248:
 8280 0908 4F535F45 		.ascii	"OS_EVENT_STRUCT\000"
 8280      56454E54 
 8280      5F535452 
 8280      55435400 
 8281              	.LASF196:
 8282 0918 4F535F54 		.ascii	"OS_TASK_STRUCT\000"
 8282      41534B5F 
 8282      53545255 
 8282      435400
 8283              	.LASF82:
 8284 0927 4F535F45 		.ascii	"OS_ERR_REGIONCNT\000"
 8284      52525F52 
 8284      4547494F 
 8284      4E434E54 
 8284      00
 8285              	.LASF36:
 8286 0938 70427566 		.ascii	"pBuffer\000"
 8286      66657200 
 8287              	.LASF212:
 8288 0940 45786563 		.ascii	"ExecLast\000"
 8288      4C617374 
 8288      00
 8289              	.LASF195:
 8290 0949 4F535F47 		.ascii	"OS_GLOBAL_STRUCT\000"
 8290      4C4F4241 
 8290      4C5F5354 
 8290      52554354 
 8290      00
 8291              	.LASF235:
 8292 095a 4F535F45 		.ascii	"OS_EXTEND_TASK_CONTEXT_LINK\000"
 8292      5854454E 
 8292      445F5441 
 8292      534B5F43 
 8292      4F4E5445 
 8293              	.LASF142:
 8294 0976 4F535F45 		.ascii	"OS_ERR_MPU_INVALID_OBJECT\000"
 8294      52525F4D 
 8294      50555F49 
 8294      4E56414C 
 8294      49445F4F 
 8295              	.LASF242:
 8296 0990 4F535F45 		.ascii	"OS_EVENT_RESET_MODE_AUTO\000"
 8296      56454E54 
 8296      5F524553 
ARM GAS  C:\Users\ali\AppData\Local\Temp\ccr9QJbk.s 			page 178


 8296      45545F4D 
 8296      4F44455F 
 8297              	.LASF170:
 8298 09a9 5469636B 		.ascii	"TicklessPeriod\000"
 8298      6C657373 
 8298      50657269 
 8298      6F6400
 8299              	.LASF300:
 8300 09b8 70665265 		.ascii	"pfRecordIdle\000"
 8300      636F7264 
 8300      49646C65 
 8300      00
 8301              	.LASF79:
 8302 09c5 4F535F45 		.ascii	"OS_ERR_INTERRUPT_DISABLED\000"
 8302      52525F49 
 8302      4E544552 
 8302      52555054 
 8302      5F444953 
 8303              	.LASF325:
 8304 09df 75696E74 		.ascii	"uint32\000"
 8304      333200
 8305              	.LASF266:
 8306 09e6 6E6F664D 		.ascii	"nofMsg\000"
 8306      736700
 8307              	.LASF186:
 8308 09ed 49735275 		.ascii	"IsRunning\000"
 8308      6E6E696E 
 8308      6700
 8309              	.LASF71:
 8310 09f7 4F535F45 		.ascii	"OS_ERR_QUEUE_DELETE\000"
 8310      52525F51 
 8310      55455545 
 8310      5F44454C 
 8310      45544500 
 8311              	.LASF93:
 8312 0a0b 4F535F45 		.ascii	"OS_ERR_CPU_STATE_UNKNOWN\000"
 8312      52525F43 
 8312      50555F53 
 8312      54415445 
 8312      5F554E4B 
 8313              	.LASF202:
 8314 0a24 42617365 		.ascii	"BasePrio\000"
 8314      5072696F 
 8314      00
 8315              	.LASF367:
 8316 0a2d 72656164 		.ascii	"read_counter_port1\000"
 8316      5F636F75 
 8316      6E746572 
 8316      5F706F72 
 8316      743100
 8317              	.LASF43:
 8318 0a40 4F535F45 		.ascii	"OS_ERR_WRONG_STACK\000"
 8318      52525F57 
 8318      524F4E47 
 8318      5F535441 
 8318      434B00
 8319              	.LASF238:
ARM GAS  C:\Users\ali\AppData\Local\Temp\ccr9QJbk.s 			page 179


 8320 0a53 70665469 		.ascii	"pfTimerRoutine\000"
 8320      6D657252 
 8320      6F757469 
 8320      6E6500
 8321              	.LASF318:
 8322 0a62 526F756E 		.ascii	"RoundRobin\000"
 8322      64526F62 
 8322      696E00
 8323              	.LASF231:
 8324 0a6d 70665265 		.ascii	"pfRestore\000"
 8324      73746F72 
 8324      6500
 8325              	.LASF194:
 8326 0a77 4F535F54 		.ascii	"OS_TASK\000"
 8326      41534B00 
 8327              	.LASF313:
 8328 0a7f 70665265 		.ascii	"pfRecordObjName\000"
 8328      636F7264 
 8328      4F626A4E 
 8328      616D6500 
 8329              	.LASF404:
 8330 0a8f 506F7274 		.ascii	"Port2_W_bits\000"
 8330      325F575F 
 8330      62697473 
 8330      00
 8331              	.LASF8:
 8332 0a9c 6C6F6E67 		.ascii	"long unsigned int\000"
 8332      20756E73 
 8332      69676E65 
 8332      6420696E 
 8332      7400
 8333              	.LASF389:
 8334 0aae 506F7274 		.ascii	"Port1_Locked_Old\000"
 8334      315F4C6F 
 8334      636B6564 
 8334      5F4F6C64 
 8334      00
 8335              	.LASF321:
 8336 0abf 466C6167 		.ascii	"Flag\000"
 8336      00
 8337              	.LASF28:
 8338 0ac4 4F535F52 		.ascii	"OS_REG_PC\000"
 8338      45475F50 
 8338      4300
 8339              	.LASF336:
 8340 0ace 506F7274 		.ascii	"Port2_W0\000"
 8340      325F5730 
 8340      00
 8341              	.LASF337:
 8342 0ad7 506F7274 		.ascii	"Port2_W1\000"
 8342      325F5731 
 8342      00
 8343              	.LASF349:
 8344 0ae0 54696D65 		.ascii	"Timer_AfterRead_Port1_Callback\000"
 8344      725F4166 
 8344      74657252 
 8344      6561645F 
ARM GAS  C:\Users\ali\AppData\Local\Temp\ccr9QJbk.s 			page 180


 8344      506F7274 
 8345              	.LASF214:
 8346 0aff 436F6E74 		.ascii	"ContextExtension\000"
 8346      65787445 
 8346      7874656E 
 8346      73696F6E 
 8346      00
 8347              	.LASF105:
 8348 0b10 4F535F45 		.ascii	"OS_ERR_ISR_ENTRY_FUNC_INVALID\000"
 8348      52525F49 
 8348      53525F45 
 8348      4E545259 
 8348      5F46554E 
 8349              	.LASF233:
 8350 0b2e 4F535F45 		.ascii	"OS_EXTEND_TASK_CONTEXT_LINK_STRUCT\000"
 8350      5854454E 
 8350      445F5441 
 8350      534B5F43 
 8350      4F4E5445 
 8351              	.LASF400:
 8352 0b51 506F7274 		.ascii	"Port2_w_Start\000"
 8352      325F775F 
 8352      53746172 
 8352      7400
 8353              	.LASF410:
 8354 0b5f 5247425F 		.ascii	"RGB_Color_Old\000"
 8354      436F6C6F 
 8354      725F4F6C 
 8354      6400
 8355              	.LASF208:
 8356 0b6d 70537461 		.ascii	"pStackBase\000"
 8356      636B4261 
 8356      736500
 8357              	.LASF181:
 8358 0b78 704F626A 		.ascii	"pObjNameRoot\000"
 8358      4E616D65 
 8358      526F6F74 
 8358      00
 8359              	.LASF220:
 8360 0b85 4F535F57 		.ascii	"OS_WAIT_LIST_STRUCT\000"
 8360      4149545F 
 8360      4C495354 
 8360      5F535452 
 8360      55435400 
 8361              	.LASF138:
 8362 0b99 4F535F45 		.ascii	"OS_ERR_MPU_INVALID_REGION\000"
 8362      52525F4D 
 8362      50555F49 
 8362      4E56414C 
 8362      49445F52 
 8363              	.LASF211:
 8364 0bb3 45786563 		.ascii	"ExecTotal\000"
 8364      546F7461 
 8364      6C00
 8365              	.LASF350:
 8366 0bbd 54696D65 		.ascii	"Timer_AfterRead_Input2_Callback\000"
 8366      725F4166 
ARM GAS  C:\Users\ali\AppData\Local\Temp\ccr9QJbk.s 			page 181


 8366      74657252 
 8366      6561645F 
 8366      496E7075 
 8367              	.LASF368:
 8368 0bdd 72656164 		.ascii	"read_counter_port2\000"
 8368      5F636F75 
 8368      6E746572 
 8368      5F706F72 
 8368      743200
 8369              	.LASF40:
 8370 0bf0 4F535F45 		.ascii	"OS_ERR_ISR_INDEX\000"
 8370      52525F49 
 8370      53525F49 
 8370      4E444558 
 8370      00
 8371              	.LASF23:
 8372 0c01 4F535F52 		.ascii	"OS_REG_R1\000"
 8372      45475F52 
 8372      3100
 8373              	.LASF129:
 8374 0c0b 4F535F45 		.ascii	"OS_ERR_ILLEGAL_IN_IDLE\000"
 8374      52525F49 
 8374      4C4C4547 
 8374      414C5F49 
 8374      4E5F4944 
 8375              	.LASF346:
 8376 0c22 54696D65 		.ascii	"Timer_Read_W_Port1_Callback\000"
 8376      725F5265 
 8376      61645F57 
 8376      5F506F72 
 8376      74315F43 
 8377              	.LASF150:
 8378 0c3e 4F535F45 		.ascii	"OS_ERR_INV_PARAMETER_VALUE\000"
 8378      52525F49 
 8378      4E565F50 
 8378      4152414D 
 8378      45544552 
 8379              	.LASF236:
 8380 0c59 4F535F54 		.ascii	"OS_TIMER\000"
 8380      494D4552 
 8380      00
 8381              	.LASF308:
 8382 0c62 70665265 		.ascii	"pfRecordExitTimer\000"
 8382      636F7264 
 8382      45786974 
 8382      54696D65 
 8382      7200
 8383              	.LASF22:
 8384 0c74 4F535F52 		.ascii	"OS_REG_R0\000"
 8384      45475F52 
 8384      3000
 8385              	.LASF411:
 8386 0c7e 474E5520 		.ascii	"GNU C11 5.4.1 20160609 (release) [ARM/embedded-5-br"
 8386      43313120 
 8386      352E342E 
 8386      31203230 
 8386      31363036 
ARM GAS  C:\Users\ali\AppData\Local\Temp\ccr9QJbk.s 			page 182


 8387 0cb1 616E6368 		.ascii	"anch revision 237715] -mcpu=cortex-m3 -mthumb -g -O"
 8387      20726576 
 8387      6973696F 
 8387      6E203233 
 8387      37373135 
 8388 0ce4 30202D66 		.ascii	"0 -ffunction-sections -ffat-lto-objects\000"
 8388      66756E63 
 8388      74696F6E 
 8388      2D736563 
 8388      74696F6E 
 8389              	.LASF24:
 8390 0d0c 4F535F52 		.ascii	"OS_REG_R2\000"
 8390      45475F52 
 8390      3200
 8391              	.LASF25:
 8392 0d16 4F535F52 		.ascii	"OS_REG_R3\000"
 8392      45475F52 
 8392      3300
 8393              	.LASF13:
 8394 0d20 4F535F52 		.ascii	"OS_REG_R4\000"
 8394      45475F52 
 8394      3400
 8395              	.LASF14:
 8396 0d2a 4F535F52 		.ascii	"OS_REG_R5\000"
 8396      45475F52 
 8396      3500
 8397              	.LASF15:
 8398 0d34 4F535F52 		.ascii	"OS_REG_R6\000"
 8398      45475F52 
 8398      3600
 8399              	.LASF16:
 8400 0d3e 4F535F52 		.ascii	"OS_REG_R7\000"
 8400      45475F52 
 8400      3700
 8401              	.LASF17:
 8402 0d48 4F535F52 		.ascii	"OS_REG_R8\000"
 8402      45475F52 
 8402      3800
 8403              	.LASF18:
 8404 0d52 4F535F52 		.ascii	"OS_REG_R9\000"
 8404      45475F52 
 8404      3900
 8405              	.LASF73:
 8406 0d5c 4F535F45 		.ascii	"OS_ERR_MB_NOT_INUSE\000"
 8406      52525F4D 
 8406      425F4E4F 
 8406      545F494E 
 8406      55534500 
 8407              	.LASF185:
 8408 0d70 53746174 		.ascii	"Status\000"
 8408      757300
 8409              	.LASF331:
 8410 0d77 506F7274 		.ascii	"Port1_In\000"
 8410      315F496E 
 8410      00
 8411              	.LASF293:
 8412 0d80 70665265 		.ascii	"pfRecordExitISRToScheduler\000"
ARM GAS  C:\Users\ali\AppData\Local\Temp\ccr9QJbk.s 			page 183


 8412      636F7264 
 8412      45786974 
 8412      49535254 
 8412      6F536368 
 8413              	.LASF261:
 8414 0d9b 4D757465 		.ascii	"Mutex\000"
 8414      7800
 8415              	.LASF362:
 8416 0da1 54696D65 		.ascii	"Timer_AfterRead_In1\000"
 8416      725F4166 
 8416      74657252 
 8416      6561645F 
 8416      496E3100 
 8417              	.LASF44:
 8418 0db5 4F535F45 		.ascii	"OS_ERR_ISR_NO_HANDLER\000"
 8418      52525F49 
 8418      53525F4E 
 8418      4F5F4841 
 8418      4E444C45 
 8419              	.LASF1:
 8420 0dcb 6C6F6E67 		.ascii	"long long int\000"
 8420      206C6F6E 
 8420      6720696E 
 8420      7400
 8421              	.LASF338:
 8422 0dd9 506F7274 		.ascii	"Port2_In\000"
 8422      325F496E 
 8422      00
 8423              	.LASF239:
 8424 0de2 41637469 		.ascii	"Active\000"
 8424      766500
 8425              	.LASF360:
 8426 0de9 54696D65 		.ascii	"Timer_Read_W_Port1\000"
 8426      725F5265 
 8426      61645F57 
 8426      5F506F72 
 8426      743100
 8427              	.LASF385:
 8428 0dfc 6C696E75 		.ascii	"linux_uart_failure\000"
 8428      785F7561 
 8428      72745F66 
 8428      61696C75 
 8428      726500
 8429              	.LASF144:
 8430 0e0f 4F535F45 		.ascii	"OS_ERR_MPU_NOINIT\000"
 8430      52525F4D 
 8430      50555F4E 
 8430      4F494E49 
 8430      5400
 8431              	.LASF169:
 8432 0e21 7066456E 		.ascii	"pfEndTicklessMode\000"
 8432      64546963 
 8432      6B6C6573 
 8432      734D6F64 
 8432      6500
 8433              	.LASF146:
 8434 0e33 4F535F45 		.ascii	"OS_ERR_OSSTOP_BUFFER\000"
ARM GAS  C:\Users\ali\AppData\Local\Temp\ccr9QJbk.s 			page 184


 8434      52525F4F 
 8434      5353544F 
 8434      505F4255 
 8434      46464552 
 8435              	.LASF260:
 8436 0e48 53656D61 		.ascii	"Semaphore\000"
 8436      70686F72 
 8436      6500
 8437              	.LASF409:
 8438 0e52 5247425F 		.ascii	"RGB_Color\000"
 8438      436F6C6F 
 8438      7200
 8439              	.LASF258:
 8440 0e5c 4F535F52 		.ascii	"OS_RWLOCK\000"
 8440      574C4F43 
 8440      4B00
 8441              	.LASF227:
 8442 0e66 4F535F52 		.ascii	"OS_ROUTINE_VOID\000"
 8442      4F555449 
 8442      4E455F56 
 8442      4F494400 
 8443              	.LASF327:
 8444 0e76 646F7562 		.ascii	"double\000"
 8444      6C6500
 8445              	.LASF284:
 8446 0e7d 4D617855 		.ascii	"MaxUsed\000"
 8446      73656400 
 8447              	.LASF143:
 8448 0e85 4F535F45 		.ascii	"OS_ERR_MPU_PRIVSTATE_INVALID\000"
 8448      52525F4D 
 8448      50555F50 
 8448      52495653 
 8448      54415445 
 8449              	.LASF35:
 8450 0ea2 4F535F52 		.ascii	"OS_REG_SP\000"
 8450      45475F53 
 8450      5000
 8451              	.LASF50:
 8452 0eac 4F535F45 		.ascii	"OS_ERR_TASK_STACK\000"
 8452      52525F54 
 8452      41534B5F 
 8452      53544143 
 8452      4B00
 8453              	.LASF361:
 8454 0ebe 54696D65 		.ascii	"Timer_Read_W_Port2\000"
 8454      725F5265 
 8454      61645F57 
 8454      5F506F72 
 8454      743200
 8455              	.LASF384:
 8456 0ed1 6C696E75 		.ascii	"linux_read_input_failure_total\000"
 8456      785F7265 
 8456      61645F69 
 8456      6E707574 
 8456      5F666169 
 8457              	.LASF98:
 8458 0ef0 4F535F45 		.ascii	"OS_ERR_2USE_SEMAPHORE\000"
ARM GAS  C:\Users\ali\AppData\Local\Temp\ccr9QJbk.s 			page 185


 8458      52525F32 
 8458      5553455F 
 8458      53454D41 
 8458      50484F52 
 8459              	.LASF357:
 8460 0f06 49544D5F 		.ascii	"ITM_RxBuffer\000"
 8460      52784275 
 8460      66666572 
 8460      00
 8461              	.LASF244:
 8462 0f13 4F535F45 		.ascii	"OS_EVENT_MASK_MODE_OR_LOGIC\000"
 8462      56454E54 
 8462      5F4D4153 
 8462      4B5F4D4F 
 8462      44455F4F 
 8463              	.LASF296:
 8464 0f2f 70665265 		.ascii	"pfRecordTaskStartExec\000"
 8464      636F7264 
 8464      5461736B 
 8464      53746172 
 8464      74457865 
 8465              	.LASF198:
 8466 0f45 70537461 		.ascii	"pStack\000"
 8466      636B00
 8467              	.LASF387:
 8468 0f4c 506F7274 		.ascii	"Port1_Relay_Old\000"
 8468      315F5265 
 8468      6C61795F 
 8468      4F6C6400 
 8469              	.LASF326:
 8470 0f5c 666C6F61 		.ascii	"float\000"
 8470      7400
 8471              	.LASF199:
 8472 0f62 70576169 		.ascii	"pWaitList\000"
 8472      744C6973 
 8472      7400
 8473              	.LASF291:
 8474 0f6c 70665265 		.ascii	"pfRecordEnterISR\000"
 8474      636F7264 
 8474      456E7465 
 8474      72495352 
 8474      00
 8475              	.LASF68:
 8476 0f7d 4F535F45 		.ascii	"OS_ERR_QUEUE_INUSE\000"
 8476      52525F51 
 8476      55455545 
 8476      5F494E55 
 8476      534500
 8477              	.LASF67:
 8478 0f90 4F535F45 		.ascii	"OS_ERR_TASKLIST_CORRUPT\000"
 8478      52525F54 
 8478      41534B4C 
 8478      4953545F 
 8478      434F5252 
 8479              	.LASF377:
 8480 0fa8 6C696E75 		.ascii	"linux_read_failure_port2\000"
 8480      785F7265 
ARM GAS  C:\Users\ali\AppData\Local\Temp\ccr9QJbk.s 			page 186


 8480      61645F66 
 8480      61696C75 
 8480      72655F70 
 8481              	.LASF359:
 8482 0fc1 54696D65 		.ascii	"Timer_RGB_LED\000"
 8482      725F5247 
 8482      425F4C45 
 8482      4400
 8483              	.LASF281:
 8484 0fcf 4E756D42 		.ascii	"NumBlocks\000"
 8484      6C6F636B 
 8484      7300
 8485              	.LASF0:
 8486 0fd9 756E7369 		.ascii	"unsigned int\000"
 8486      676E6564 
 8486      20696E74 
 8486      00
 8487              	.LASF95:
 8488 0fe6 4F535F45 		.ascii	"OS_ERR_2USE_TASK\000"
 8488      52525F32 
 8488      5553455F 
 8488      5441534B 
 8488      00
 8489              	.LASF47:
 8490 0ff7 4F535F45 		.ascii	"OS_ERR_EXTEND_CONTEXT\000"
 8490      52525F45 
 8490      5854454E 
 8490      445F434F 
 8490      4E544558 
 8491              	.LASF176:
 8492 100d 70517565 		.ascii	"pQueueRoot\000"
 8492      7565526F 
 8492      6F7400
 8493              	.LASF289:
 8494 1018 4F535F4F 		.ascii	"OS_OBJNAME_STRUCT\000"
 8494      424A4E41 
 8494      4D455F53 
 8494      54525543 
 8494      5400
 8495              	.LASF225:
 8496 102a 4F535F57 		.ascii	"OS_WD_STRUCT\000"
 8496      445F5354 
 8496      52554354 
 8496      00
 8497              	.LASF277:
 8498 1037 4F535F4D 		.ascii	"OS_MEMPOOL\000"
 8498      454D504F 
 8498      4F4C00
 8499              	.LASF322:
 8500 1042 4F535F50 		.ascii	"OS_PENDING\000"
 8500      454E4449 
 8500      4E4700
 8501              	.LASF70:
 8502 104d 4F535F45 		.ascii	"OS_ERR_QUEUE_INVALID\000"
 8502      52525F51 
 8502      55455545 
 8502      5F494E56 
ARM GAS  C:\Users\ali\AppData\Local\Temp\ccr9QJbk.s 			page 187


 8502      414C4944 
 8503              	.LASF335:
 8504 1062 696E7472 		.ascii	"intr\000"
 8504      00
 8505              	.LASF206:
 8506 1067 734E616D 		.ascii	"sName\000"
 8506      6500
 8507              	.LASF310:
 8508 106d 70665265 		.ascii	"pfRecordEndCallU32\000"
 8508      636F7264 
 8508      456E6443 
 8508      616C6C55 
 8508      333200
 8509              	.LASF216:
 8510 1080 53746174 		.ascii	"Stat\000"
 8510      00
 8511              	.LASF147:
 8512 1085 4F535F45 		.ascii	"OS_EMBOSVIEW_SEND_STATUS_16BIT\000"
 8512      4D424F53 
 8512      56494557 
 8512      5F53454E 
 8512      445F5354 
 8513              	.LASF366:
 8514 10a4 54696D65 		.ascii	"Timer_WD\000"
 8514      725F5744 
 8514      00
 8515              	.LASF294:
 8516 10ad 70665265 		.ascii	"pfRecordTaskInfo\000"
 8516      636F7264 
 8516      5461736B 
 8516      496E666F 
 8516      00
 8517              	.LASF51:
 8518 10be 4F535F45 		.ascii	"OS_ERR_SEMAPHORE_OVERFLOW\000"
 8518      52525F53 
 8518      454D4150 
 8518      484F5245 
 8518      5F4F5645 
 8519              	.LASF311:
 8520 10d8 70665265 		.ascii	"pfRecordTaskTerminate\000"
 8520      636F7264 
 8520      5461736B 
 8520      5465726D 
 8520      696E6174 
 8521              	.LASF379:
 8522 10ee 72656164 		.ascii	"read_input_port1\000"
 8522      5F696E70 
 8522      75745F70 
 8522      6F727431 
 8522      00
 8523              	.LASF345:
 8524 10ff 54696D65 		.ascii	"Timer_RGB_LED_Callback\000"
 8524      725F5247 
 8524      425F4C45 
 8524      445F4361 
 8524      6C6C6261 
 8525              	.LASF309:
ARM GAS  C:\Users\ali\AppData\Local\Temp\ccr9QJbk.s 			page 188


 8526 1116 70665265 		.ascii	"pfRecordEndCall\000"
 8526      636F7264 
 8526      456E6443 
 8526      616C6C00 
 8527              	.LASF250:
 8528 1126 5369676E 		.ascii	"Signaled\000"
 8528      616C6564 
 8528      00
 8529              	.LASF128:
 8530 112f 4F535F45 		.ascii	"OS_ERR_ILLEGAL_AFTER_OSSTART\000"
 8530      52525F49 
 8530      4C4C4547 
 8530      414C5F41 
 8530      46544552 
 8531              	.LASF386:
 8532 114c 506F7274 		.ascii	"Port1_Relay\000"
 8532      315F5265 
 8532      6C617900 
 8533              	.LASF110:
 8534 1158 4F535F45 		.ascii	"OS_ERR_MEMF_RELEASE\000"
 8534      52525F4D 
 8534      454D465F 
 8534      52454C45 
 8534      41534500 
 8535              	.LASF100:
 8536 116c 4F535F45 		.ascii	"OS_ERR_2USE_MEMF\000"
 8536      52525F32 
 8536      5553455F 
 8536      4D454D46 
 8536      00
 8537              	.LASF189:
 8538 117d 50726F66 		.ascii	"ProfilingOn\000"
 8538      696C696E 
 8538      674F6E00 
 8539              	.LASF103:
 8540 1189 4F535F45 		.ascii	"OS_ERR_2USE_WATCHDOG\000"
 8540      52525F32 
 8540      5553455F 
 8540      57415443 
 8540      48444F47 
 8541              	.LASF156:
 8542 119e 4F535F53 		.ascii	"OS_STATUS\000"
 8542      54415455 
 8542      5300
 8543              	.LASF273:
 8544 11a8 4D736743 		.ascii	"MsgCnt\000"
 8544      6E7400
 8545              	.LASF388:
 8546 11af 506F7274 		.ascii	"Port1_Locked\000"
 8546      315F4C6F 
 8546      636B6564 
 8546      00
 8547              	.LASF341:
 8548 11bc 55415254 		.ascii	"UART_Linux_Rx_ISR\000"
 8548      5F4C696E 
 8548      75785F52 
 8548      785F4953 
ARM GAS  C:\Users\ali\AppData\Local\Temp\ccr9QJbk.s 			page 189


 8548      5200
 8549              	.LASF101:
 8550 11ce 4F535F45 		.ascii	"OS_ERR_2USE_QUEUE\000"
 8550      52525F32 
 8550      5553455F 
 8550      51554555 
 8550      4500
 8551              	.LASF2:
 8552 11e0 6C6F6E67 		.ascii	"long double\000"
 8552      20646F75 
 8552      626C6500 
 8553              	.LASF149:
 8554 11ec 4F535F45 		.ascii	"OS_ERR_LIB_INCOMPATIBLE\000"
 8554      52525F4C 
 8554      49425F49 
 8554      4E434F4D 
 8554      50415449 
 8555              	.LASF116:
 8556 1204 4F535F45 		.ascii	"OS_ERR_TASK_PRIORITY_INVALID\000"
 8556      52525F54 
 8556      41534B5F 
 8556      5052494F 
 8556      52495459 
 8557              	.LASF88:
 8558 1221 4F535F45 		.ascii	"OS_ERR_NOT_IN_ISR\000"
 8558      52525F4E 
 8558      4F545F49 
 8558      4E5F4953 
 8558      5200
 8559              	.LASF376:
 8560 1233 6C696E75 		.ascii	"linux_read_failure_port1\000"
 8560      785F7265 
 8560      61645F66 
 8560      61696C75 
 8560      72655F70 
 8561              	.LASF127:
 8562 124c 4F535F45 		.ascii	"OS_ERR_ILLEGAL_IN_TASK\000"
 8562      52525F49 
 8562      4C4C4547 
 8562      414C5F49 
 8562      4E5F5441 
 8563              	.LASF283:
 8564 1263 4E756D46 		.ascii	"NumFreeBlocks\000"
 8564      72656542 
 8564      6C6F636B 
 8564      7300
 8565              	.LASF413:
 8566 1271 433A5C55 		.ascii	"C:\\Users\\ali\\Desktop\\no-exp -V1-old board\\new-"
 8566      73657273 
 8566      5C616C69 
 8566      5C446573 
 8566      6B746F70 
 8567 129f 63792D6E 		.ascii	"cy-notask\\cy-notask\\Start\\BoardSupport\\Cypress\\"
 8567      6F746173 
 8567      6B5C6379 
 8567      2D6E6F74 
 8567      61736B5C 
ARM GAS  C:\Users\ali\AppData\Local\Temp\ccr9QJbk.s 			page 190


 8568 12ce 43593843 		.ascii	"CY8C5868_CY8CKIT_050_PSoC5_DK\\Start_CY8C5868_Acces"
 8568      35383638 
 8568      5F435938 
 8568      434B4954 
 8568      5F303530 
 8569 1300 7356312E 		.ascii	"sV1.0_OldBrd.cydsn\000"
 8569      305F4F6C 
 8569      64427264 
 8569      2E637964 
 8569      736E00
 8570              	.LASF117:
 8571 1313 4F535F45 		.ascii	"OS_ERR_TIMER_PERIOD_INVALID\000"
 8571      52525F54 
 8571      494D4552 
 8571      5F504552 
 8571      494F445F 
 8572              	.LASF373:
 8573 132f 6C696E75 		.ascii	"linux_read_counter_port1\000"
 8573      785F7265 
 8573      61645F63 
 8573      6F756E74 
 8573      65725F70 
 8574              	.LASF374:
 8575 1348 6C696E75 		.ascii	"linux_read_counter_port2\000"
 8575      785F7265 
 8575      61645F63 
 8575      6F756E74 
 8575      65725F70 
 8576              	.LASF86:
 8577 1361 4F535F45 		.ascii	"OS_ERR_ILLEGAL_IN_TIMER\000"
 8577      52525F49 
 8577      4C4C4547 
 8577      414C5F49 
 8577      4E5F5449 
 8578              	.LASF396:
 8579 1379 506F7274 		.ascii	"Port2_Relay\000"
 8579      325F5265 
 8579      6C617900 
 8580              	.LASF274:
 8581 1385 6F666646 		.ascii	"offFirst\000"
 8581      69727374 
 8581      00
 8582              	.LASF57:
 8583 138e 4F535F45 		.ascii	"OS_ERR_INV_TASK\000"
 8583      52525F49 
 8583      4E565F54 
 8583      41534B00 
 8584              	.LASF132:
 8585 139e 4F535F45 		.ascii	"OS_ERR_NON_TIMERCYCLES_FUNC\000"
 8585      52525F4E 
 8585      4F4E5F54 
 8585      494D4552 
 8585      4359434C 
 8586              	.LASF9:
 8587 13ba 6C6F6E67 		.ascii	"long long unsigned int\000"
 8587      206C6F6E 
 8587      6720756E 
ARM GAS  C:\Users\ali\AppData\Local\Temp\ccr9QJbk.s 			page 191


 8587      7369676E 
 8587      65642069 
 8588              	.LASF342:
 8589 13d1 506F7274 		.ascii	"Port1_ISR\000"
 8589      315F4953 
 8589      5200
 8590              	.LASF280:
 8591 13db 70506F6F 		.ascii	"pPool\000"
 8591      6C00
 8592              	.LASF152:
 8593 13e1 4F535F45 		.ascii	"OS_ERR_RWLOCK_INVALID\000"
 8593      52525F52 
 8593      574C4F43 
 8593      4B5F494E 
 8593      56414C49 
 8594              	.LASF317:
 8595 13f7 4F535F43 		.ascii	"OS_COUNTERS\000"
 8595      4F554E54 
 8595      45525300 
 8596              	.LASF371:
 8597 1403 72656164 		.ascii	"read_failure_port2\000"
 8597      5F666169 
 8597      6C757265 
 8597      5F706F72 
 8597      743200
 8598              	.LASF355:
 8599 1416 74696D65 		.ascii	"timers_create\000"
 8599      72735F63 
 8599      72656174 
 8599      6500
 8600              	.LASF328:
 8601 1424 72656733 		.ascii	"reg32\000"
 8601      3200
 8602              	.LASF249:
 8603 142a 57616974 		.ascii	"WaitObj\000"
 8603      4F626A00 
 8604              	.LASF324:
 8605 1432 75696E74 		.ascii	"uint8\000"
 8605      3800
 8606              	.LASF267:
 8607 1438 6D61784D 		.ascii	"maxMsg\000"
 8607      736700
 8608              	.LASF352:
 8609 143f 54696D65 		.ascii	"Timer_WD_Callback\000"
 8609      725F5744 
 8609      5F43616C 
 8609      6C626163 
 8609      6B00
 8610              	.LASF286:
 8611 1451 4F535F54 		.ascii	"OS_TICK_HOOK_STRUCT\000"
 8611      49434B5F 
 8611      484F4F4B 
 8611      5F535452 
 8611      55435400 
 8612              	.LASF58:
 8613 1465 4F535F45 		.ascii	"OS_ERR_INV_TIMER\000"
 8613      52525F49 
ARM GAS  C:\Users\ali\AppData\Local\Temp\ccr9QJbk.s 			page 192


 8613      4E565F54 
 8613      494D4552 
 8613      00
 8614              	.LASF232:
 8615 1476 4F535F45 		.ascii	"OS_EXTEND_TASK_CONTEXT\000"
 8615      5854454E 
 8615      445F5441 
 8615      534B5F43 
 8615      4F4E5445 
 8616              	.LASF94:
 8617 148d 4F535F45 		.ascii	"OS_ERR_TICKLESS_WITH_FRACTIONAL_TICK\000"
 8617      52525F54 
 8617      49434B4C 
 8617      4553535F 
 8617      57495448 
 8618              	.LASF380:
 8619 14b2 72656164 		.ascii	"read_input_port2\000"
 8619      5F696E70 
 8619      75745F70 
 8619      6F727432 
 8619      00
 8620              	.LASF316:
 8621 14c3 44756D6D 		.ascii	"Dummy\000"
 8621      7900
 8622              	.LASF159:
 8623 14c9 70437572 		.ascii	"pCurrentTask\000"
 8623      72656E74 
 8623      5461736B 
 8623      00
 8624              	.LASF111:
 8625 14d6 4F535F45 		.ascii	"OS_ERR_MEMF_POOLADDR\000"
 8625      52525F4D 
 8625      454D465F 
 8625      504F4F4C 
 8625      41444452 
 8626              	.LASF191:
 8627 14eb 54696D65 		.ascii	"TimeSlice\000"
 8627      536C6963 
 8627      6500
 8628              	.LASF340:
 8629 14f5 636F6C6F 		.ascii	"color\000"
 8629      7200
 8630              	.LASF298:
 8631 14fb 70665265 		.ascii	"pfRecordTaskStartReady\000"
 8631      636F7264 
 8631      5461736B 
 8631      53746172 
 8631      74526561 
 8632              	.LASF99:
 8633 1512 4F535F45 		.ascii	"OS_ERR_2USE_MUTEX\000"
 8633      52525F32 
 8633      5553455F 
 8633      4D555445 
 8633      5800
 8634              	.LASF32:
 8635 1524 42617365 		.ascii	"Base\000"
 8635      00
ARM GAS  C:\Users\ali\AppData\Local\Temp\ccr9QJbk.s 			page 193


 8636              	.LASF319:
 8637 1529 5461736B 		.ascii	"TaskSwitch\000"
 8637      53776974 
 8637      636800
 8638              	.LASF141:
 8639 1534 4F535F45 		.ascii	"OS_ERR_MPU_INVALID_ALIGNMENT\000"
 8639      52525F4D 
 8639      50555F49 
 8639      4E56414C 
 8639      49445F41 
 8640              	.LASF269:
 8641 1551 496E5573 		.ascii	"InUse\000"
 8641      6500
 8642              	.LASF161:
 8643 1557 5469636B 		.ascii	"TickCnt\000"
 8643      436E7400 
 8644              	.LASF364:
 8645 155f 54696D65 		.ascii	"Timer_AfterRead_In2\000"
 8645      725F4166 
 8645      74657252 
 8645      6561645F 
 8645      496E3200 
 8646              	.LASF102:
 8647 1573 4F535F45 		.ascii	"OS_ERR_2USE_EVENT\000"
 8647      52525F32 
 8647      5553455F 
 8647      4556454E 
 8647      5400
 8648              	.LASF29:
 8649 1585 4F535F52 		.ascii	"OS_REG_XPSR\000"
 8649      45475F58 
 8649      50535200 
 8650              	.LASF306:
 8651 1591 70665074 		.ascii	"pfPtrToId\000"
 8651      72546F49 
 8651      6400
 8652              	.LASF87:
 8653 159b 4F535F45 		.ascii	"OS_ERR_ILLEGAL_OUT_ISR\000"
 8653      52525F49 
 8653      4C4C4547 
 8653      414C5F4F 
 8653      55545F49 
 8654              	.LASF126:
 8655 15b2 4F535F45 		.ascii	"OS_ERR_ILLEGAL_IN_MAIN\000"
 8655      52525F49 
 8655      4C4C4547 
 8655      414C5F49 
 8655      4E5F4D41 
 8656              	.LASF251:
 8657 15c9 52657365 		.ascii	"ResetMode\000"
 8657      744D6F64 
 8657      6500
 8658              	.LASF405:
 8659 15d3 506F7274 		.ascii	"Port2_W_bits_Old\000"
 8659      325F575F 
 8659      62697473 
 8659      5F4F6C64 
ARM GAS  C:\Users\ali\AppData\Local\Temp\ccr9QJbk.s 			page 194


 8659      00
 8660              	.LASF119:
 8661 15e4 4F535F45 		.ascii	"OS_ERR_EVENT_DELETE\000"
 8661      52525F45 
 8661      56454E54 
 8661      5F44454C 
 8661      45544500 
 8662              	.LASF64:
 8663 15f8 4F535F45 		.ascii	"OS_ERR_SEMAPHORE_DELETE\000"
 8663      52525F53 
 8663      454D4150 
 8663      484F5245 
 8663      5F44454C 
 8664              	.LASF222:
 8665 1610 4F535F57 		.ascii	"OS_WAIT_OBJ\000"
 8665      4149545F 
 8665      4F424A00 
 8666              	.LASF41:
 8667 161c 4F535F45 		.ascii	"OS_ERR_ISR_VECTOR\000"
 8667      52525F49 
 8667      53525F56 
 8667      4543544F 
 8667      5200
 8668              	.LASF226:
 8669 162e 50657269 		.ascii	"Period\000"
 8669      6F6400
 8670              	.LASF262:
 8671 1635 4E756D52 		.ascii	"NumReaders\000"
 8671      65616465 
 8671      727300
 8672              	.LASF315:
 8673 1640 52656769 		.ascii	"Region\000"
 8673      6F6E00
 8674              	.LASF241:
 8675 1647 4F535F45 		.ascii	"OS_EVENT_RESET_MODE_MANUAL\000"
 8675      56454E54 
 8675      5F524553 
 8675      45545F4D 
 8675      4F44455F 
 8676              	.LASF314:
 8677 1662 4F535F54 		.ascii	"OS_TRACE_API\000"
 8677      52414345 
 8677      5F415049 
 8677      00
 8678              	.LASF124:
 8679 166f 4F535F45 		.ascii	"OS_ERR_TICKHOOK_FUNC_INVALID\000"
 8679      52525F54 
 8679      49434B48 
 8679      4F4F4B5F 
 8679      46554E43 
 8680              	.LASF33:
 8681 168c 4F535F52 		.ascii	"OS_REGS\000"
 8681      45475300 
 8682              	.LASF5:
 8683 1694 73686F72 		.ascii	"short int\000"
 8683      7420696E 
 8683      7400
ARM GAS  C:\Users\ali\AppData\Local\Temp\ccr9QJbk.s 			page 195


 8684              	.LASF252:
 8685 169e 4D61736B 		.ascii	"MaskMode\000"
 8685      4D6F6465 
 8685      00
 8686              	.LASF184:
 8687 16a7 45786563 		.ascii	"ExecStart\000"
 8687      53746172 
 8687      7400
 8688              	.LASF125:
 8689 16b1 4F535F45 		.ascii	"OS_ERR_NOT_IN_REGION\000"
 8689      52525F4E 
 8689      4F545F49 
 8689      4E5F5245 
 8689      47494F4E 
 8690              	.LASF91:
 8691 16c6 4F535F45 		.ascii	"OS_ERR_ISR_PRIORITY_INVALID\000"
 8691      52525F49 
 8691      53525F50 
 8691      52494F52 
 8691      4954595F 
 8692              	.LASF403:
 8693 16e2 506F7274 		.ascii	"Port2_W_Counter\000"
 8693      325F575F 
 8693      436F756E 
 8693      74657200 
 8694              	.LASF122:
 8695 16f2 4F535F45 		.ascii	"OS_ERR_WAITLIST_NEXT\000"
 8695      52525F57 
 8695      4149544C 
 8695      4953545F 
 8695      4E455854 
 8696              	.LASF401:
 8697 1707 506F7274 		.ascii	"Port2_w_have\000"
 8697      325F775F 
 8697      68617665 
 8697      00
 8698              	.LASF339:
 8699 1714 436D6454 		.ascii	"CmdTask\000"
 8699      61736B00 
 8700              	.LASF121:
 8701 171c 4F535F45 		.ascii	"OS_ERR_WAITLIST_PREV\000"
 8701      52525F57 
 8701      4149544C 
 8701      4953545F 
 8701      50524556 
 8702              	.LASF209:
 8703 1731 4E756D41 		.ascii	"NumActivations\000"
 8703      63746976 
 8703      6174696F 
 8703      6E7300
 8704              	.LASF38:
 8705 1740 4F535F4D 		.ascii	"OS_MAIN_CONTEXT\000"
 8705      41494E5F 
 8705      434F4E54 
 8705      45585400 
 8706              	.LASF135:
 8707 1750 4F535F45 		.ascii	"OS_ERR_ZERO_TIMER_INT_FREQ\000"
ARM GAS  C:\Users\ali\AppData\Local\Temp\ccr9QJbk.s 			page 196


 8707      52525F5A 
 8707      45524F5F 
 8707      54494D45 
 8707      525F494E 
 8708              	.LASF378:
 8709 176b 6C696E75 		.ascii	"linux_read_failure_total\000"
 8709      785F7265 
 8709      61645F66 
 8709      61696C75 
 8709      72655F74 
 8710              	.LASF358:
 8711 1784 54696D65 		.ascii	"Timer_Read_Linux\000"
 8711      725F5265 
 8711      61645F4C 
 8711      696E7578 
 8711      00
 8712              	.LASF393:
 8713 1795 506F7274 		.ascii	"Port1_W_Counter\000"
 8713      315F575F 
 8713      436F756E 
 8713      74657200 
 8714              	.LASF240:
 8715 17a5 4F535F45 		.ascii	"OS_EVENT_RESET_MODE_SEMIAUTO\000"
 8715      56454E54 
 8715      5F524553 
 8715      45545F4D 
 8715      4F44455F 
 8716              	.LASF399:
 8717 17c2 506F7274 		.ascii	"Port2_Locked_Old\000"
 8717      325F4C6F 
 8717      636B6564 
 8717      5F4F6C64 
 8717      00
 8718              	.LASF56:
 8719 17d3 4F535F45 		.ascii	"OS_ERR_INT_STACK\000"
 8719      52525F49 
 8719      4E545F53 
 8719      5441434B 
 8719      00
 8720              	.LASF204:
 8721 17e4 4576656E 		.ascii	"EventMask\000"
 8721      744D6173 
 8721      6B00
 8722              	.LASF63:
 8723 17ee 4F535F45 		.ascii	"OS_ERR_MAILBOX_DELETE\000"
 8723      52525F4D 
 8723      41494C42 
 8723      4F585F44 
 8723      454C4554 
 8724              	.LASF375:
 8725 1804 6C696E75 		.ascii	"linux_read_counter_total\000"
 8725      785F7265 
 8725      61645F63 
 8725      6F756E74 
 8725      65725F74 
 8726              	.LASF78:
 8727 181d 4F535F45 		.ascii	"OS_ERR_DICNT_OVERFLOW\000"
ARM GAS  C:\Users\ali\AppData\Local\Temp\ccr9QJbk.s 			page 197


 8727      52525F44 
 8727      49434E54 
 8727      5F4F5645 
 8727      52464C4F 
 8728              	.LASF89:
 8729 1833 4F535F45 		.ascii	"OS_ERR_IN_ISR\000"
 8729      52525F49 
 8729      4E5F4953 
 8729      5200
 8730              	.LASF175:
 8731 1841 70574452 		.ascii	"pWDRoot\000"
 8731      6F6F7400 
 8732              	.LASF397:
 8733 1849 506F7274 		.ascii	"Port2_Relay_Old\000"
 8733      325F5265 
 8733      6C61795F 
 8733      4F6C6400 
 8734              	.LASF363:
 8735 1859 54696D65 		.ascii	"Timer_AfterRead_Port1\000"
 8735      725F4166 
 8735      74657252 
 8735      6561645F 
 8735      506F7274 
 8736              	.LASF365:
 8737 186f 54696D65 		.ascii	"Timer_AfterRead_Port2\000"
 8737      725F4166 
 8737      74657252 
 8737      6561645F 
 8737      506F7274 
 8738              	.LASF85:
 8739 1885 4F535F45 		.ascii	"OS_ERR_ILLEGAL_IN_ISR\000"
 8739      52525F49 
 8739      4C4C4547 
 8739      414C5F49 
 8739      4E5F4953 
 8740              	.LASF372:
 8741 189b 72656164 		.ascii	"read_failure_total\000"
 8741      5F666169 
 8741      6C757265 
 8741      5F746F74 
 8741      616C00
 8742              	.LASF287:
 8743 18ae 7066526F 		.ascii	"pfRoutine\000"
 8743      7574696E 
 8743      6500
 8744              	.LASF246:
 8745 18b8 4F535F45 		.ascii	"OS_EVENT_MASK_MODE\000"
 8745      56454E54 
 8745      5F4D4153 
 8745      4B5F4D4F 
 8745      444500
 8746              	.LASF60:
 8747 18cb 4F535F45 		.ascii	"OS_ERR_INV_SEMAPHORE\000"
 8747      52525F49 
 8747      4E565F53 
 8747      454D4150 
 8747      484F5245 
ARM GAS  C:\Users\ali\AppData\Local\Temp\ccr9QJbk.s 			page 198


 8748              	.LASF354:
 8749 18e0 696E6974 		.ascii	"init_vars\000"
 8749      5F766172 
 8749      7300
 8750              	.LASF165:
 8751 18ea 70437572 		.ascii	"pCurrentTimer\000"
 8751      72656E74 
 8751      54696D65 
 8751      7200
 8752              	.LASF112:
 8753 18f8 4F535F45 		.ascii	"OS_ERR_MEMF_BLOCKSIZE\000"
 8753      52525F4D 
 8753      454D465F 
 8753      424C4F43 
 8753      4B53495A 
 8754              	.LASF307:
 8755 190e 70665265 		.ascii	"pfRecordEnterTimer\000"
 8755      636F7264 
 8755      456E7465 
 8755      7254696D 
 8755      657200
 8756              	.LASF66:
 8757 1921 4F535F45 		.ascii	"OS_ERR_MAILBOX_NOT_IN_LIST\000"
 8757      52525F4D 
 8757      41494C42 
 8757      4F585F4E 
 8757      4F545F49 
 8758              	.LASF173:
 8759 193c 704D454D 		.ascii	"pMEMFRoot\000"
 8759      46526F6F 
 8759      7400
 8760              	.LASF285:
 8761 1946 4F535F54 		.ascii	"OS_TICK_HOOK\000"
 8761      49434B5F 
 8761      484F4F4B 
 8761      00
 8762              	.LASF137:
 8763 1953 4F535F45 		.ascii	"OS_ERR_MPU_NOT_PRESENT\000"
 8763      52525F4D 
 8763      50555F4E 
 8763      4F545F50 
 8763      52455345 
 8764              	.LASF369:
 8765 196a 72656164 		.ascii	"read_counter_total\000"
 8765      5F636F75 
 8765      6E746572 
 8765      5F746F74 
 8765      616C00
 8766              	.LASF270:
 8767 197d 4F535F51 		.ascii	"OS_QUEUE\000"
 8767      55455545 
 8767      00
 8768              	.LASF134:
 8769 1986 4F535F45 		.ascii	"OS_ERR_FRACTIONAL_TICK\000"
 8769      52525F46 
 8769      52414354 
 8769      494F4E41 
ARM GAS  C:\Users\ali\AppData\Local\Temp\ccr9QJbk.s 			page 199


 8769      4C5F5449 
 8770              	.LASF219:
 8771 199d 4F535F57 		.ascii	"OS_WAIT_LIST\000"
 8771      4149545F 
 8771      4C495354 
 8771      00
 8772              	.LASF109:
 8773 19aa 4F535F45 		.ascii	"OS_ERR_MEMF_PTR_FREE\000"
 8773      52525F4D 
 8773      454D465F 
 8773      5054525F 
 8773      46524545 
 8774              	.LASF279:
 8775 19bf 70467265 		.ascii	"pFree\000"
 8775      6500
 8776              	.LASF329:
 8777 19c5 506F7274 		.ascii	"Port1_W0\000"
 8777      315F5730 
 8777      00
 8778              	.LASF330:
 8779 19ce 506F7274 		.ascii	"Port1_W1\000"
 8779      315F5731 
 8779      00
 8780              	.LASF133:
 8781 19d7 4F535F45 		.ascii	"OS_ERR_NON_TIMERINTPENDING_FUNC\000"
 8781      52525F4E 
 8781      4F4E5F54 
 8781      494D4552 
 8781      494E5450 
 8782              	.LASF256:
 8783 19f7 4F535F53 		.ascii	"OS_SEMAPHORE\000"
 8783      454D4150 
 8783      484F5245 
 8783      00
 8784              	.LASF217:
 8785 1a04 54696D65 		.ascii	"TimeSliceRem\000"
 8785      536C6963 
 8785      6552656D 
 8785      00
 8786              	.LASF6:
 8787 1a11 73686F72 		.ascii	"short unsigned int\000"
 8787      7420756E 
 8787      7369676E 
 8787      65642069 
 8787      6E7400
 8788              	.LASF343:
 8789 1a24 506F7274 		.ascii	"Port2_ISR\000"
 8789      325F4953 
 8789      5200
 8790              	.LASF303:
 8791 1a2e 70665265 		.ascii	"pfRecordU32x2\000"
 8791      636F7264 
 8791      55333278 
 8791      3200
 8792              	.LASF304:
 8793 1a3c 70665265 		.ascii	"pfRecordU32x3\000"
 8793      636F7264 
ARM GAS  C:\Users\ali\AppData\Local\Temp\ccr9QJbk.s 			page 200


 8793      55333278 
 8793      3300
 8794              	.LASF305:
 8795 1a4a 70665265 		.ascii	"pfRecordU32x4\000"
 8795      636F7264 
 8795      55333278 
 8795      3400
 8796              	.LASF312:
 8797 1a58 70665265 		.ascii	"pfRecordU32x5\000"
 8797      636F7264 
 8797      55333278 
 8797      3500
 8798              	.LASF171:
 8799 1a66 70547261 		.ascii	"pTraceAPI\000"
 8799      63654150 
 8799      4900
 8800              	.LASF188:
 8801 1a70 496E6974 		.ascii	"InitCalled\000"
 8801      43616C6C 
 8801      656400
 8802              	.LASF106:
 8803 1a7b 4F535F45 		.ascii	"OS_ERR_SPINLOCK_INV_CORE\000"
 8803      52525F53 
 8803      50494E4C 
 8803      4F434B5F 
 8803      494E565F 
 8804              	.LASF193:
 8805 1a94 496E6974 		.ascii	"InitialSuspendCnt\000"
 8805      69616C53 
 8805      75737065 
 8805      6E64436E 
 8805      7400
 8806              	.LASF62:
 8807 1aa6 4F535F45 		.ascii	"OS_ERR_MAILBOX_NOT1\000"
 8807      52525F4D 
 8807      41494C42 
 8807      4F585F4E 
 8807      4F543100 
 8808              	.LASF30:
 8809 1aba 5F5F696E 		.ascii	"__int32_t\000"
 8809      7433325F 
 8809      7400
 8810              	.LASF31:
 8811 1ac4 4F535F52 		.ascii	"OS_REGS_BASE\000"
 8811      4547535F 
 8811      42415345 
 8811      00
 8812              	.LASF197:
 8813 1ad1 704E6578 		.ascii	"pNext\000"
 8813      7400
 8814              	.LASF265:
 8815 1ad7 70446174 		.ascii	"pData\000"
 8815      6100
 8816              	.LASF139:
 8817 1add 4F535F45 		.ascii	"OS_ERR_MPU_INVALID_SIZE\000"
 8817      52525F4D 
 8817      50555F49 
ARM GAS  C:\Users\ali\AppData\Local\Temp\ccr9QJbk.s 			page 201


 8817      4E56414C 
 8817      49445F53 
 8818              	.LASF205:
 8819 1af5 70507265 		.ascii	"pPrev\000"
 8819      7600
 8820              	.LASF157:
 8821 1afb 4F535F47 		.ascii	"OS_GLOBAL\000"
 8821      4C4F4241 
 8821      4C00
 8822              	.LASF332:
 8823 1b05 64617461 		.ascii	"data\000"
 8823      00
 8824              	.LASF83:
 8825 1b0a 4F535F45 		.ascii	"OS_ERR_DELAYUS_INTERRUPT_DISABLED\000"
 8825      52525F44 
 8825      454C4159 
 8825      55535F49 
 8825      4E544552 
 8826              	.LASF154:
 8827 1b2c 4F535F45 		.ascii	"OS_ERR_UNALIGNED_IRQ_STACK\000"
 8827      52525F55 
 8827      4E414C49 
 8827      474E4544 
 8827      5F495251 
 8828              	.LASF45:
 8829 1b47 4F535F45 		.ascii	"OS_ERR_TLS_INIT\000"
 8829      52525F54 
 8829      4C535F49 
 8829      4E495400 
 8830              	.LASF218:
 8831 1b57 54696D65 		.ascii	"TimeSliceReload\000"
 8831      536C6963 
 8831      6552656C 
 8831      6F616400 
 8832              		.ident	"GCC: (GNU Tools for ARM Embedded Processors) 5.4.1 20160609 (release) [ARM/embedded-5-bran
