ARM GAS  C:\Users\ali\AppData\Local\Temp\ccvWVPc2.s 			page 1


   1              		.syntax unified
   2              		.cpu cortex-m3
   3              		.fpu softvfp
   4              		.eabi_attribute 20, 1
   5              		.eabi_attribute 21, 1
   6              		.eabi_attribute 23, 3
   7              		.eabi_attribute 24, 1
   8              		.eabi_attribute 25, 1
   9              		.eabi_attribute 26, 1
  10              		.eabi_attribute 30, 6
  11              		.eabi_attribute 34, 1
  12              		.eabi_attribute 18, 4
  13              		.thumb
  14              		.syntax unified
  15              		.file	"OS_Syscalls.c"
  16              		.text
  17              	.Ltext0:
  18              		.cfi_sections	.debug_frame
  19              		.global	__env
  20              		.bss
  21              		.align	2
  22              		.type	__env, %object
  23              		.size	__env, 4
  24              	__env:
  25 0000 00000000 		.space	4
  26              		.global	environ
  27              		.data
  28              		.align	2
  29              		.type	environ, %object
  30              		.size	environ, 4
  31              	environ:
  32 0000 00000000 		.word	__env
  33              		.section	.text._close,"ax",%progbits
  34              		.align	2
  35              		.weak	_close
  36              		.thumb
  37              		.thumb_func
  38              		.type	_close, %function
  39              	_close:
  40              	.LFB16:
  41              		.file 1 "..\\Setup\\OS_Syscalls.c"
   1:..\Setup/OS_Syscalls.c **** /*********************************************************************
   2:..\Setup/OS_Syscalls.c **** *                     SEGGER Microcontroller GmbH                    *
   3:..\Setup/OS_Syscalls.c **** *                        The Embedded Experts                        *
   4:..\Setup/OS_Syscalls.c **** **********************************************************************
   5:..\Setup/OS_Syscalls.c **** *                                                                    *
   6:..\Setup/OS_Syscalls.c **** *       (c) 1995 - 2022 SEGGER Microcontroller GmbH                  *
   7:..\Setup/OS_Syscalls.c **** *                                                                    *
   8:..\Setup/OS_Syscalls.c **** *       Internet: segger.com  Support: support_embos@segger.com      *
   9:..\Setup/OS_Syscalls.c **** *                                                                    *
  10:..\Setup/OS_Syscalls.c **** **********************************************************************
  11:..\Setup/OS_Syscalls.c **** *                                                                    *
  12:..\Setup/OS_Syscalls.c **** *       embOS * Real time operating system                           *
  13:..\Setup/OS_Syscalls.c **** *                                                                    *
  14:..\Setup/OS_Syscalls.c **** *       Please note:                                                 *
  15:..\Setup/OS_Syscalls.c **** *                                                                    *
  16:..\Setup/OS_Syscalls.c **** *       Knowledge of this file may under no circumstances            *
ARM GAS  C:\Users\ali\AppData\Local\Temp\ccvWVPc2.s 			page 2


  17:..\Setup/OS_Syscalls.c **** *       be used to write a similar product or a real-time            *
  18:..\Setup/OS_Syscalls.c **** *       operating system for in-house use.                           *
  19:..\Setup/OS_Syscalls.c **** *                                                                    *
  20:..\Setup/OS_Syscalls.c **** *       Thank you for your fairness !                                *
  21:..\Setup/OS_Syscalls.c **** *                                                                    *
  22:..\Setup/OS_Syscalls.c **** **********************************************************************
  23:..\Setup/OS_Syscalls.c **** *                                                                    *
  24:..\Setup/OS_Syscalls.c **** *       OS version: V5.16.1.0                                        *
  25:..\Setup/OS_Syscalls.c **** *                                                                    *
  26:..\Setup/OS_Syscalls.c **** **********************************************************************
  27:..\Setup/OS_Syscalls.c **** 
  28:..\Setup/OS_Syscalls.c **** -------------------------- END-OF-HEADER -----------------------------
  29:..\Setup/OS_Syscalls.c **** File    : OS_Syscalls.c
  30:..\Setup/OS_Syscalls.c **** Purpose : Newlib Syscalls callback functions.
  31:..\Setup/OS_Syscalls.c ****           Only _sbrk() implemented for embOS.
  32:..\Setup/OS_Syscalls.c ****           All others unchanged (default empty functions).
  33:..\Setup/OS_Syscalls.c **** --------  END-OF-HEADER  ---------------------------------------------
  34:..\Setup/OS_Syscalls.c **** */
  35:..\Setup/OS_Syscalls.c **** 
  36:..\Setup/OS_Syscalls.c **** #include <errno.h>
  37:..\Setup/OS_Syscalls.c **** #undef   errno
  38:..\Setup/OS_Syscalls.c **** #include <sys/stat.h>
  39:..\Setup/OS_Syscalls.c **** #include <sys/time.h>
  40:..\Setup/OS_Syscalls.c **** #include <sys/times.h>
  41:..\Setup/OS_Syscalls.c **** 
  42:..\Setup/OS_Syscalls.c **** /*********************************************************************
  43:..\Setup/OS_Syscalls.c **** *
  44:..\Setup/OS_Syscalls.c **** *       External data
  45:..\Setup/OS_Syscalls.c **** *
  46:..\Setup/OS_Syscalls.c **** **********************************************************************
  47:..\Setup/OS_Syscalls.c **** */
  48:..\Setup/OS_Syscalls.c **** extern int errno;
  49:..\Setup/OS_Syscalls.c **** 
  50:..\Setup/OS_Syscalls.c **** extern char __heap_start__;  // Has to be defined in the linker file.
  51:..\Setup/OS_Syscalls.c **** extern char __heap_end__;
  52:..\Setup/OS_Syscalls.c **** 
  53:..\Setup/OS_Syscalls.c **** /*********************************************************************
  54:..\Setup/OS_Syscalls.c **** *
  55:..\Setup/OS_Syscalls.c **** *       environ
  56:..\Setup/OS_Syscalls.c **** *
  57:..\Setup/OS_Syscalls.c **** *       A pointer to a list of environment variables and their values.
  58:..\Setup/OS_Syscalls.c **** *       Not needed (supported) by embOS, this empty list is adequate
  59:..\Setup/OS_Syscalls.c **** */
  60:..\Setup/OS_Syscalls.c **** char*  __env[1] = { 0 };
  61:..\Setup/OS_Syscalls.c **** char** environ  = __env;
  62:..\Setup/OS_Syscalls.c **** 
  63:..\Setup/OS_Syscalls.c **** /*********************************************************************
  64:..\Setup/OS_Syscalls.c **** *
  65:..\Setup/OS_Syscalls.c **** *       Function prototypes
  66:..\Setup/OS_Syscalls.c **** *
  67:..\Setup/OS_Syscalls.c **** **********************************************************************
  68:..\Setup/OS_Syscalls.c **** */
  69:..\Setup/OS_Syscalls.c **** int     _close        (int file)                                   __attribute__((weak));
  70:..\Setup/OS_Syscalls.c **** int     _execve       (char* pName, char** pArgv, char** pEnv)     __attribute__((weak));
  71:..\Setup/OS_Syscalls.c **** void    _exit         (int __status)                               __attribute__((weak));
  72:..\Setup/OS_Syscalls.c **** int     _fork         (void)                                       __attribute__((weak));
  73:..\Setup/OS_Syscalls.c **** int     _fstat        (int file, struct stat* pSt)                 __attribute__((weak));
ARM GAS  C:\Users\ali\AppData\Local\Temp\ccvWVPc2.s 			page 3


  74:..\Setup/OS_Syscalls.c **** int     _getpid       (void)                                       __attribute__((weak));
  75:..\Setup/OS_Syscalls.c **** int     _gettimeofday (struct timeval* pTp, struct timezone* pTzp) __attribute__((weak));
  76:..\Setup/OS_Syscalls.c **** int     _isatty       (int file)                                   __attribute__((weak));
  77:..\Setup/OS_Syscalls.c **** int     _kill         (int pid, int sig)                           __attribute__((weak));
  78:..\Setup/OS_Syscalls.c **** int     _link         (char* pOld, char* pNew)                     __attribute__((weak));
  79:..\Setup/OS_Syscalls.c **** int     _lseek        (int file, int ptr, int dir)                 __attribute__((weak));
  80:..\Setup/OS_Syscalls.c **** int     _open         (const char* pName, int flags, int mode)     __attribute__((weak));
  81:..\Setup/OS_Syscalls.c **** int     _read         (int file, char* p, int len)                 __attribute__((weak));
  82:..\Setup/OS_Syscalls.c **** caddr_t _sbrk         (int incr);
  83:..\Setup/OS_Syscalls.c **** int     _stat         (const char* pFile, struct stat* pSt)        __attribute__((weak));
  84:..\Setup/OS_Syscalls.c **** clock_t _times        (struct tms* pBuf)                           __attribute__((weak));
  85:..\Setup/OS_Syscalls.c **** int     _unlink       (char* pName)                                __attribute__((weak));
  86:..\Setup/OS_Syscalls.c **** int     _wait         (int* pStatus)                               __attribute__((weak));
  87:..\Setup/OS_Syscalls.c **** int     _write        (int file, char* p, int len)                 __attribute__((weak));
  88:..\Setup/OS_Syscalls.c **** 
  89:..\Setup/OS_Syscalls.c **** /*********************************************************************
  90:..\Setup/OS_Syscalls.c **** *
  91:..\Setup/OS_Syscalls.c **** *       Global functions
  92:..\Setup/OS_Syscalls.c **** *
  93:..\Setup/OS_Syscalls.c **** **********************************************************************
  94:..\Setup/OS_Syscalls.c **** */
  95:..\Setup/OS_Syscalls.c **** 
  96:..\Setup/OS_Syscalls.c **** /*********************************************************************
  97:..\Setup/OS_Syscalls.c **** *
  98:..\Setup/OS_Syscalls.c **** *       _close()
  99:..\Setup/OS_Syscalls.c **** *
 100:..\Setup/OS_Syscalls.c **** *  Function description
 101:..\Setup/OS_Syscalls.c **** *    Close a file.
 102:..\Setup/OS_Syscalls.c **** *    Not needed (supported) by embOS, minimal implementation
 103:..\Setup/OS_Syscalls.c **** */
 104:..\Setup/OS_Syscalls.c **** int _close(int file) {
  42              		.loc 1 104 0
  43              		.cfi_startproc
  44              		@ args = 0, pretend = 0, frame = 8
  45              		@ frame_needed = 1, uses_anonymous_args = 0
  46              		@ link register save eliminated.
  47 0000 80B4     		push	{r7}
  48              		.cfi_def_cfa_offset 4
  49              		.cfi_offset 7, -4
  50 0002 83B0     		sub	sp, sp, #12
  51              		.cfi_def_cfa_offset 16
  52 0004 00AF     		add	r7, sp, #0
  53              		.cfi_def_cfa_register 7
  54 0006 7860     		str	r0, [r7, #4]
 105:..\Setup/OS_Syscalls.c ****   (void) file;  /* Not used, avoid warning */
 106:..\Setup/OS_Syscalls.c ****   return -1;
  55              		.loc 1 106 0
  56 0008 4FF0FF33 		mov	r3, #-1
 107:..\Setup/OS_Syscalls.c **** }
  57              		.loc 1 107 0
  58 000c 1846     		mov	r0, r3
  59 000e 0C37     		adds	r7, r7, #12
  60              		.cfi_def_cfa_offset 4
  61 0010 BD46     		mov	sp, r7
  62              		.cfi_def_cfa_register 13
  63              		@ sp needed
  64 0012 80BC     		pop	{r7}
ARM GAS  C:\Users\ali\AppData\Local\Temp\ccvWVPc2.s 			page 4


  65              		.cfi_restore 7
  66              		.cfi_def_cfa_offset 0
  67 0014 7047     		bx	lr
  68              		.cfi_endproc
  69              	.LFE16:
  70              		.size	_close, .-_close
  71 0016 00BF     		.section	.text._execve,"ax",%progbits
  72              		.align	2
  73              		.weak	_execve
  74              		.thumb
  75              		.thumb_func
  76              		.type	_execve, %function
  77              	_execve:
  78              	.LFB17:
 108:..\Setup/OS_Syscalls.c **** 
 109:..\Setup/OS_Syscalls.c **** /*********************************************************************
 110:..\Setup/OS_Syscalls.c **** *
 111:..\Setup/OS_Syscalls.c **** *       _execve()
 112:..\Setup/OS_Syscalls.c **** *
 113:..\Setup/OS_Syscalls.c **** *  Function description
 114:..\Setup/OS_Syscalls.c **** *    Transfer control to a new process.
 115:..\Setup/OS_Syscalls.c **** *    Not needed (supported) by embOS, minimal implementation
 116:..\Setup/OS_Syscalls.c **** */
 117:..\Setup/OS_Syscalls.c **** int _execve(char* pName, char** pArgv, char** pEnv) {
  79              		.loc 1 117 0
  80              		.cfi_startproc
  81              		@ args = 0, pretend = 0, frame = 16
  82              		@ frame_needed = 1, uses_anonymous_args = 0
  83              		@ link register save eliminated.
  84 0000 80B4     		push	{r7}
  85              		.cfi_def_cfa_offset 4
  86              		.cfi_offset 7, -4
  87 0002 85B0     		sub	sp, sp, #20
  88              		.cfi_def_cfa_offset 24
  89 0004 00AF     		add	r7, sp, #0
  90              		.cfi_def_cfa_register 7
  91 0006 F860     		str	r0, [r7, #12]
  92 0008 B960     		str	r1, [r7, #8]
  93 000a 7A60     		str	r2, [r7, #4]
 118:..\Setup/OS_Syscalls.c ****   (void) pName;  /* Not used, avoid warning */
 119:..\Setup/OS_Syscalls.c ****   (void) pArgv;  /* Not used, avoid warning */
 120:..\Setup/OS_Syscalls.c ****   (void) pEnv;   /* Not used, avoid warning */
 121:..\Setup/OS_Syscalls.c ****   errno = ENOMEM;
  94              		.loc 1 121 0
  95 000c 044B     		ldr	r3, .L5
  96 000e 0C22     		movs	r2, #12
  97 0010 1A60     		str	r2, [r3]
 122:..\Setup/OS_Syscalls.c ****   return -1;
  98              		.loc 1 122 0
  99 0012 4FF0FF33 		mov	r3, #-1
 123:..\Setup/OS_Syscalls.c **** }
 100              		.loc 1 123 0
 101 0016 1846     		mov	r0, r3
 102 0018 1437     		adds	r7, r7, #20
 103              		.cfi_def_cfa_offset 4
 104 001a BD46     		mov	sp, r7
 105              		.cfi_def_cfa_register 13
ARM GAS  C:\Users\ali\AppData\Local\Temp\ccvWVPc2.s 			page 5


 106              		@ sp needed
 107 001c 80BC     		pop	{r7}
 108              		.cfi_restore 7
 109              		.cfi_def_cfa_offset 0
 110 001e 7047     		bx	lr
 111              	.L6:
 112              		.align	2
 113              	.L5:
 114 0020 00000000 		.word	errno
 115              		.cfi_endproc
 116              	.LFE17:
 117              		.size	_execve, .-_execve
 118              		.section	.text._exit,"ax",%progbits
 119              		.align	2
 120              		.weak	_exit
 121              		.thumb
 122              		.thumb_func
 123              		.type	_exit, %function
 124              	_exit:
 125              	.LFB18:
 124:..\Setup/OS_Syscalls.c **** 
 125:..\Setup/OS_Syscalls.c **** /*********************************************************************
 126:..\Setup/OS_Syscalls.c **** *
 127:..\Setup/OS_Syscalls.c **** *       _exit()
 128:..\Setup/OS_Syscalls.c **** *
 129:..\Setup/OS_Syscalls.c **** *  Function description
 130:..\Setup/OS_Syscalls.c **** *    Exit a program without cleaning up files.
 131:..\Setup/OS_Syscalls.c **** */
 132:..\Setup/OS_Syscalls.c **** void _exit(int __status) {
 126              		.loc 1 132 0
 127              		.cfi_startproc
 128              		@ args = 0, pretend = 0, frame = 8
 129              		@ frame_needed = 1, uses_anonymous_args = 0
 130              		@ link register save eliminated.
 131 0000 80B4     		push	{r7}
 132              		.cfi_def_cfa_offset 4
 133              		.cfi_offset 7, -4
 134 0002 83B0     		sub	sp, sp, #12
 135              		.cfi_def_cfa_offset 16
 136 0004 00AF     		add	r7, sp, #0
 137              		.cfi_def_cfa_register 7
 138 0006 7860     		str	r0, [r7, #4]
 139              	.L8:
 133:..\Setup/OS_Syscalls.c ****   (void) __status;  /* Not used, avoid warning */
 134:..\Setup/OS_Syscalls.c ****   while(1);
 140              		.loc 1 134 0 discriminator 1
 141 0008 FEE7     		b	.L8
 142              		.cfi_endproc
 143              	.LFE18:
 144              		.size	_exit, .-_exit
 145 000a 00BF     		.section	.text._fork,"ax",%progbits
 146              		.align	2
 147              		.weak	_fork
 148              		.thumb
 149              		.thumb_func
 150              		.type	_fork, %function
 151              	_fork:
ARM GAS  C:\Users\ali\AppData\Local\Temp\ccvWVPc2.s 			page 6


 152              	.LFB19:
 135:..\Setup/OS_Syscalls.c **** }
 136:..\Setup/OS_Syscalls.c **** 
 137:..\Setup/OS_Syscalls.c **** /*********************************************************************
 138:..\Setup/OS_Syscalls.c **** *
 139:..\Setup/OS_Syscalls.c **** *       _fork()
 140:..\Setup/OS_Syscalls.c **** *
 141:..\Setup/OS_Syscalls.c **** *  Function description
 142:..\Setup/OS_Syscalls.c **** *    Create a new process.
 143:..\Setup/OS_Syscalls.c **** *    Not needed (supported) by embOS, minimal implementation
 144:..\Setup/OS_Syscalls.c **** */
 145:..\Setup/OS_Syscalls.c **** int _fork(void) {
 153              		.loc 1 145 0
 154              		.cfi_startproc
 155              		@ args = 0, pretend = 0, frame = 0
 156              		@ frame_needed = 1, uses_anonymous_args = 0
 157              		@ link register save eliminated.
 158 0000 80B4     		push	{r7}
 159              		.cfi_def_cfa_offset 4
 160              		.cfi_offset 7, -4
 161 0002 00AF     		add	r7, sp, #0
 162              		.cfi_def_cfa_register 7
 146:..\Setup/OS_Syscalls.c ****   errno = EAGAIN;
 163              		.loc 1 146 0
 164 0004 044B     		ldr	r3, .L11
 165 0006 0B22     		movs	r2, #11
 166 0008 1A60     		str	r2, [r3]
 147:..\Setup/OS_Syscalls.c ****   return -1;
 167              		.loc 1 147 0
 168 000a 4FF0FF33 		mov	r3, #-1
 148:..\Setup/OS_Syscalls.c **** }
 169              		.loc 1 148 0
 170 000e 1846     		mov	r0, r3
 171 0010 BD46     		mov	sp, r7
 172              		.cfi_def_cfa_register 13
 173              		@ sp needed
 174 0012 80BC     		pop	{r7}
 175              		.cfi_restore 7
 176              		.cfi_def_cfa_offset 0
 177 0014 7047     		bx	lr
 178              	.L12:
 179 0016 00BF     		.align	2
 180              	.L11:
 181 0018 00000000 		.word	errno
 182              		.cfi_endproc
 183              	.LFE19:
 184              		.size	_fork, .-_fork
 185              		.section	.text._fstat,"ax",%progbits
 186              		.align	2
 187              		.weak	_fstat
 188              		.thumb
 189              		.thumb_func
 190              		.type	_fstat, %function
 191              	_fstat:
 192              	.LFB20:
 149:..\Setup/OS_Syscalls.c **** 
 150:..\Setup/OS_Syscalls.c **** /*********************************************************************
ARM GAS  C:\Users\ali\AppData\Local\Temp\ccvWVPc2.s 			page 7


 151:..\Setup/OS_Syscalls.c **** *
 152:..\Setup/OS_Syscalls.c **** *       _fstat()
 153:..\Setup/OS_Syscalls.c **** *
 154:..\Setup/OS_Syscalls.c **** *  Function description
 155:..\Setup/OS_Syscalls.c **** *    Status of an open file.
 156:..\Setup/OS_Syscalls.c **** *    Not needed (supported) by embOS, minimal implementation
 157:..\Setup/OS_Syscalls.c **** *    For consistency with other minimal implementations in these examples,
 158:..\Setup/OS_Syscalls.c **** *    all files are regarded as character special devices. The sys/stat.h header file
 159:..\Setup/OS_Syscalls.c **** *    required is distributed in the include subdirectory for this C library.
 160:..\Setup/OS_Syscalls.c **** */
 161:..\Setup/OS_Syscalls.c **** int _fstat(int file, struct stat* pSt) {
 193              		.loc 1 161 0
 194              		.cfi_startproc
 195              		@ args = 0, pretend = 0, frame = 8
 196              		@ frame_needed = 1, uses_anonymous_args = 0
 197              		@ link register save eliminated.
 198 0000 80B4     		push	{r7}
 199              		.cfi_def_cfa_offset 4
 200              		.cfi_offset 7, -4
 201 0002 83B0     		sub	sp, sp, #12
 202              		.cfi_def_cfa_offset 16
 203 0004 00AF     		add	r7, sp, #0
 204              		.cfi_def_cfa_register 7
 205 0006 7860     		str	r0, [r7, #4]
 206 0008 3960     		str	r1, [r7]
 162:..\Setup/OS_Syscalls.c ****   (void) file;  /* Not used, avoid warning */
 163:..\Setup/OS_Syscalls.c ****   pSt->st_mode = S_IFCHR;
 207              		.loc 1 163 0
 208 000a 3B68     		ldr	r3, [r7]
 209 000c 4FF40052 		mov	r2, #8192
 210 0010 5A60     		str	r2, [r3, #4]
 164:..\Setup/OS_Syscalls.c ****   return 0;
 211              		.loc 1 164 0
 212 0012 0023     		movs	r3, #0
 165:..\Setup/OS_Syscalls.c **** }
 213              		.loc 1 165 0
 214 0014 1846     		mov	r0, r3
 215 0016 0C37     		adds	r7, r7, #12
 216              		.cfi_def_cfa_offset 4
 217 0018 BD46     		mov	sp, r7
 218              		.cfi_def_cfa_register 13
 219              		@ sp needed
 220 001a 80BC     		pop	{r7}
 221              		.cfi_restore 7
 222              		.cfi_def_cfa_offset 0
 223 001c 7047     		bx	lr
 224              		.cfi_endproc
 225              	.LFE20:
 226              		.size	_fstat, .-_fstat
 227 001e 00BF     		.section	.text._getpid,"ax",%progbits
 228              		.align	2
 229              		.weak	_getpid
 230              		.thumb
 231              		.thumb_func
 232              		.type	_getpid, %function
 233              	_getpid:
 234              	.LFB21:
ARM GAS  C:\Users\ali\AppData\Local\Temp\ccvWVPc2.s 			page 8


 166:..\Setup/OS_Syscalls.c **** 
 167:..\Setup/OS_Syscalls.c **** /*********************************************************************
 168:..\Setup/OS_Syscalls.c **** *
 169:..\Setup/OS_Syscalls.c **** *       _getpid()
 170:..\Setup/OS_Syscalls.c **** *
 171:..\Setup/OS_Syscalls.c **** *  Function description
 172:..\Setup/OS_Syscalls.c **** *    Process-ID; this is sometimes used to generate strings unlikely to conflict with other process
 173:..\Setup/OS_Syscalls.c **** *    Not needed (supported) by embOS, minimal implementation
 174:..\Setup/OS_Syscalls.c **** */
 175:..\Setup/OS_Syscalls.c **** int _getpid(void) {
 235              		.loc 1 175 0
 236              		.cfi_startproc
 237              		@ args = 0, pretend = 0, frame = 0
 238              		@ frame_needed = 1, uses_anonymous_args = 0
 239              		@ link register save eliminated.
 240 0000 80B4     		push	{r7}
 241              		.cfi_def_cfa_offset 4
 242              		.cfi_offset 7, -4
 243 0002 00AF     		add	r7, sp, #0
 244              		.cfi_def_cfa_register 7
 176:..\Setup/OS_Syscalls.c ****   return 1;
 245              		.loc 1 176 0
 246 0004 0123     		movs	r3, #1
 177:..\Setup/OS_Syscalls.c **** }
 247              		.loc 1 177 0
 248 0006 1846     		mov	r0, r3
 249 0008 BD46     		mov	sp, r7
 250              		.cfi_def_cfa_register 13
 251              		@ sp needed
 252 000a 80BC     		pop	{r7}
 253              		.cfi_restore 7
 254              		.cfi_def_cfa_offset 0
 255 000c 7047     		bx	lr
 256              		.cfi_endproc
 257              	.LFE21:
 258              		.size	_getpid, .-_getpid
 259 000e 00BF     		.section	.text._gettimeofday,"ax",%progbits
 260              		.align	2
 261              		.weak	_gettimeofday
 262              		.thumb
 263              		.thumb_func
 264              		.type	_gettimeofday, %function
 265              	_gettimeofday:
 266              	.LFB22:
 178:..\Setup/OS_Syscalls.c **** 
 179:..\Setup/OS_Syscalls.c **** /*********************************************************************
 180:..\Setup/OS_Syscalls.c **** *
 181:..\Setup/OS_Syscalls.c **** *       _gettimeofday()
 182:..\Setup/OS_Syscalls.c **** *
 183:..\Setup/OS_Syscalls.c **** *  Function description
 184:..\Setup/OS_Syscalls.c **** *    Not supported by embOS, minimal implementation
 185:..\Setup/OS_Syscalls.c **** */
 186:..\Setup/OS_Syscalls.c **** int _gettimeofday(struct timeval* pTp, struct timezone* pTzp) {
 267              		.loc 1 186 0
 268              		.cfi_startproc
 269              		@ args = 0, pretend = 0, frame = 8
 270              		@ frame_needed = 1, uses_anonymous_args = 0
ARM GAS  C:\Users\ali\AppData\Local\Temp\ccvWVPc2.s 			page 9


 271              		@ link register save eliminated.
 272 0000 80B4     		push	{r7}
 273              		.cfi_def_cfa_offset 4
 274              		.cfi_offset 7, -4
 275 0002 83B0     		sub	sp, sp, #12
 276              		.cfi_def_cfa_offset 16
 277 0004 00AF     		add	r7, sp, #0
 278              		.cfi_def_cfa_register 7
 279 0006 7860     		str	r0, [r7, #4]
 280 0008 3960     		str	r1, [r7]
 187:..\Setup/OS_Syscalls.c ****   (void) pTp;   /* Not used, avoid warning */
 188:..\Setup/OS_Syscalls.c ****   (void) pTzp;  /* Not used, avoid warning */
 189:..\Setup/OS_Syscalls.c ****   errno = ENOSYS;
 281              		.loc 1 189 0
 282 000a 054B     		ldr	r3, .L19
 283 000c 5822     		movs	r2, #88
 284 000e 1A60     		str	r2, [r3]
 190:..\Setup/OS_Syscalls.c ****   return -1;
 285              		.loc 1 190 0
 286 0010 4FF0FF33 		mov	r3, #-1
 191:..\Setup/OS_Syscalls.c **** }
 287              		.loc 1 191 0
 288 0014 1846     		mov	r0, r3
 289 0016 0C37     		adds	r7, r7, #12
 290              		.cfi_def_cfa_offset 4
 291 0018 BD46     		mov	sp, r7
 292              		.cfi_def_cfa_register 13
 293              		@ sp needed
 294 001a 80BC     		pop	{r7}
 295              		.cfi_restore 7
 296              		.cfi_def_cfa_offset 0
 297 001c 7047     		bx	lr
 298              	.L20:
 299 001e 00BF     		.align	2
 300              	.L19:
 301 0020 00000000 		.word	errno
 302              		.cfi_endproc
 303              	.LFE22:
 304              		.size	_gettimeofday, .-_gettimeofday
 305              		.section	.text._isatty,"ax",%progbits
 306              		.align	2
 307              		.weak	_isatty
 308              		.thumb
 309              		.thumb_func
 310              		.type	_isatty, %function
 311              	_isatty:
 312              	.LFB23:
 192:..\Setup/OS_Syscalls.c **** 
 193:..\Setup/OS_Syscalls.c **** /*********************************************************************
 194:..\Setup/OS_Syscalls.c **** *
 195:..\Setup/OS_Syscalls.c **** *       _isatty()
 196:..\Setup/OS_Syscalls.c **** *
 197:..\Setup/OS_Syscalls.c **** *  Function description
 198:..\Setup/OS_Syscalls.c **** *    Query whether output stream is a terminal.
 199:..\Setup/OS_Syscalls.c **** *    Not needed (supported) by embOS, minimal implementation
 200:..\Setup/OS_Syscalls.c **** *    For consistency with the other minimal implementations, which only support output to stdout,
 201:..\Setup/OS_Syscalls.c **** *    this minimal implementation is suggested
ARM GAS  C:\Users\ali\AppData\Local\Temp\ccvWVPc2.s 			page 10


 202:..\Setup/OS_Syscalls.c **** */
 203:..\Setup/OS_Syscalls.c **** int _isatty(int file) {
 313              		.loc 1 203 0
 314              		.cfi_startproc
 315              		@ args = 0, pretend = 0, frame = 8
 316              		@ frame_needed = 1, uses_anonymous_args = 0
 317              		@ link register save eliminated.
 318 0000 80B4     		push	{r7}
 319              		.cfi_def_cfa_offset 4
 320              		.cfi_offset 7, -4
 321 0002 83B0     		sub	sp, sp, #12
 322              		.cfi_def_cfa_offset 16
 323 0004 00AF     		add	r7, sp, #0
 324              		.cfi_def_cfa_register 7
 325 0006 7860     		str	r0, [r7, #4]
 204:..\Setup/OS_Syscalls.c ****   (void) file;  /* Not used, avoid warning */
 205:..\Setup/OS_Syscalls.c **** 
 206:..\Setup/OS_Syscalls.c ****   return 1;
 326              		.loc 1 206 0
 327 0008 0123     		movs	r3, #1
 207:..\Setup/OS_Syscalls.c **** }
 328              		.loc 1 207 0
 329 000a 1846     		mov	r0, r3
 330 000c 0C37     		adds	r7, r7, #12
 331              		.cfi_def_cfa_offset 4
 332 000e BD46     		mov	sp, r7
 333              		.cfi_def_cfa_register 13
 334              		@ sp needed
 335 0010 80BC     		pop	{r7}
 336              		.cfi_restore 7
 337              		.cfi_def_cfa_offset 0
 338 0012 7047     		bx	lr
 339              		.cfi_endproc
 340              	.LFE23:
 341              		.size	_isatty, .-_isatty
 342              		.section	.text._kill,"ax",%progbits
 343              		.align	2
 344              		.weak	_kill
 345              		.thumb
 346              		.thumb_func
 347              		.type	_kill, %function
 348              	_kill:
 349              	.LFB24:
 208:..\Setup/OS_Syscalls.c **** 
 209:..\Setup/OS_Syscalls.c **** /*********************************************************************
 210:..\Setup/OS_Syscalls.c **** *
 211:..\Setup/OS_Syscalls.c **** *       _kill()
 212:..\Setup/OS_Syscalls.c **** *
 213:..\Setup/OS_Syscalls.c **** *  Function description
 214:..\Setup/OS_Syscalls.c **** *    Send a signal.
 215:..\Setup/OS_Syscalls.c **** *    Not needed (supported) by embOS, minimal implementation
 216:..\Setup/OS_Syscalls.c **** */
 217:..\Setup/OS_Syscalls.c **** int _kill(int pid, int sig) {
 350              		.loc 1 217 0
 351              		.cfi_startproc
 352              		@ args = 0, pretend = 0, frame = 8
 353              		@ frame_needed = 1, uses_anonymous_args = 0
ARM GAS  C:\Users\ali\AppData\Local\Temp\ccvWVPc2.s 			page 11


 354              		@ link register save eliminated.
 355 0000 80B4     		push	{r7}
 356              		.cfi_def_cfa_offset 4
 357              		.cfi_offset 7, -4
 358 0002 83B0     		sub	sp, sp, #12
 359              		.cfi_def_cfa_offset 16
 360 0004 00AF     		add	r7, sp, #0
 361              		.cfi_def_cfa_register 7
 362 0006 7860     		str	r0, [r7, #4]
 363 0008 3960     		str	r1, [r7]
 218:..\Setup/OS_Syscalls.c ****   (void) pid;  /* Not used, avoid warning */
 219:..\Setup/OS_Syscalls.c ****   (void) sig;  /* Not used, avoid warning */
 220:..\Setup/OS_Syscalls.c ****   errno = EINVAL;
 364              		.loc 1 220 0
 365 000a 054B     		ldr	r3, .L25
 366 000c 1622     		movs	r2, #22
 367 000e 1A60     		str	r2, [r3]
 221:..\Setup/OS_Syscalls.c ****   return -1;
 368              		.loc 1 221 0
 369 0010 4FF0FF33 		mov	r3, #-1
 222:..\Setup/OS_Syscalls.c **** }
 370              		.loc 1 222 0
 371 0014 1846     		mov	r0, r3
 372 0016 0C37     		adds	r7, r7, #12
 373              		.cfi_def_cfa_offset 4
 374 0018 BD46     		mov	sp, r7
 375              		.cfi_def_cfa_register 13
 376              		@ sp needed
 377 001a 80BC     		pop	{r7}
 378              		.cfi_restore 7
 379              		.cfi_def_cfa_offset 0
 380 001c 7047     		bx	lr
 381              	.L26:
 382 001e 00BF     		.align	2
 383              	.L25:
 384 0020 00000000 		.word	errno
 385              		.cfi_endproc
 386              	.LFE24:
 387              		.size	_kill, .-_kill
 388              		.section	.text._link,"ax",%progbits
 389              		.align	2
 390              		.weak	_link
 391              		.thumb
 392              		.thumb_func
 393              		.type	_link, %function
 394              	_link:
 395              	.LFB25:
 223:..\Setup/OS_Syscalls.c **** 
 224:..\Setup/OS_Syscalls.c **** /*********************************************************************
 225:..\Setup/OS_Syscalls.c **** *
 226:..\Setup/OS_Syscalls.c **** *       _link()
 227:..\Setup/OS_Syscalls.c **** *
 228:..\Setup/OS_Syscalls.c **** *  Function description
 229:..\Setup/OS_Syscalls.c **** *    Establish a new name for an existing file.
 230:..\Setup/OS_Syscalls.c **** *    Not needed (supported) by embOS, minimal implementation
 231:..\Setup/OS_Syscalls.c **** */
 232:..\Setup/OS_Syscalls.c **** int _link(char* pOld, char* pNew) {
ARM GAS  C:\Users\ali\AppData\Local\Temp\ccvWVPc2.s 			page 12


 396              		.loc 1 232 0
 397              		.cfi_startproc
 398              		@ args = 0, pretend = 0, frame = 8
 399              		@ frame_needed = 1, uses_anonymous_args = 0
 400              		@ link register save eliminated.
 401 0000 80B4     		push	{r7}
 402              		.cfi_def_cfa_offset 4
 403              		.cfi_offset 7, -4
 404 0002 83B0     		sub	sp, sp, #12
 405              		.cfi_def_cfa_offset 16
 406 0004 00AF     		add	r7, sp, #0
 407              		.cfi_def_cfa_register 7
 408 0006 7860     		str	r0, [r7, #4]
 409 0008 3960     		str	r1, [r7]
 233:..\Setup/OS_Syscalls.c ****   (void) pOld;  /* Not used, avoid warning */
 234:..\Setup/OS_Syscalls.c ****   (void) pNew;  /* Not used, avoid warning */
 235:..\Setup/OS_Syscalls.c ****   errno = EMLINK;
 410              		.loc 1 235 0
 411 000a 054B     		ldr	r3, .L29
 412 000c 1F22     		movs	r2, #31
 413 000e 1A60     		str	r2, [r3]
 236:..\Setup/OS_Syscalls.c ****   return -1;
 414              		.loc 1 236 0
 415 0010 4FF0FF33 		mov	r3, #-1
 237:..\Setup/OS_Syscalls.c **** }
 416              		.loc 1 237 0
 417 0014 1846     		mov	r0, r3
 418 0016 0C37     		adds	r7, r7, #12
 419              		.cfi_def_cfa_offset 4
 420 0018 BD46     		mov	sp, r7
 421              		.cfi_def_cfa_register 13
 422              		@ sp needed
 423 001a 80BC     		pop	{r7}
 424              		.cfi_restore 7
 425              		.cfi_def_cfa_offset 0
 426 001c 7047     		bx	lr
 427              	.L30:
 428 001e 00BF     		.align	2
 429              	.L29:
 430 0020 00000000 		.word	errno
 431              		.cfi_endproc
 432              	.LFE25:
 433              		.size	_link, .-_link
 434              		.section	.text._lseek,"ax",%progbits
 435              		.align	2
 436              		.weak	_lseek
 437              		.thumb
 438              		.thumb_func
 439              		.type	_lseek, %function
 440              	_lseek:
 441              	.LFB26:
 238:..\Setup/OS_Syscalls.c **** 
 239:..\Setup/OS_Syscalls.c **** /*********************************************************************
 240:..\Setup/OS_Syscalls.c **** *
 241:..\Setup/OS_Syscalls.c **** *       _lseek()
 242:..\Setup/OS_Syscalls.c **** *
 243:..\Setup/OS_Syscalls.c **** *  Function description
ARM GAS  C:\Users\ali\AppData\Local\Temp\ccvWVPc2.s 			page 13


 244:..\Setup/OS_Syscalls.c **** *    Set position in a file.
 245:..\Setup/OS_Syscalls.c **** *    Not needed (supported) by embOS, minimal implementation
 246:..\Setup/OS_Syscalls.c **** */
 247:..\Setup/OS_Syscalls.c **** int _lseek(int file, int ptr, int dir) {
 442              		.loc 1 247 0
 443              		.cfi_startproc
 444              		@ args = 0, pretend = 0, frame = 16
 445              		@ frame_needed = 1, uses_anonymous_args = 0
 446              		@ link register save eliminated.
 447 0000 80B4     		push	{r7}
 448              		.cfi_def_cfa_offset 4
 449              		.cfi_offset 7, -4
 450 0002 85B0     		sub	sp, sp, #20
 451              		.cfi_def_cfa_offset 24
 452 0004 00AF     		add	r7, sp, #0
 453              		.cfi_def_cfa_register 7
 454 0006 F860     		str	r0, [r7, #12]
 455 0008 B960     		str	r1, [r7, #8]
 456 000a 7A60     		str	r2, [r7, #4]
 248:..\Setup/OS_Syscalls.c ****   (void) file;  /* Not used, avoid warning */
 249:..\Setup/OS_Syscalls.c ****   (void) ptr;   /* Not used, avoid warning */
 250:..\Setup/OS_Syscalls.c ****   (void) dir;   /* Not used, avoid warning */
 251:..\Setup/OS_Syscalls.c ****   return 0;
 457              		.loc 1 251 0
 458 000c 0023     		movs	r3, #0
 252:..\Setup/OS_Syscalls.c **** }
 459              		.loc 1 252 0
 460 000e 1846     		mov	r0, r3
 461 0010 1437     		adds	r7, r7, #20
 462              		.cfi_def_cfa_offset 4
 463 0012 BD46     		mov	sp, r7
 464              		.cfi_def_cfa_register 13
 465              		@ sp needed
 466 0014 80BC     		pop	{r7}
 467              		.cfi_restore 7
 468              		.cfi_def_cfa_offset 0
 469 0016 7047     		bx	lr
 470              		.cfi_endproc
 471              	.LFE26:
 472              		.size	_lseek, .-_lseek
 473              		.section	.text._open,"ax",%progbits
 474              		.align	2
 475              		.weak	_open
 476              		.thumb
 477              		.thumb_func
 478              		.type	_open, %function
 479              	_open:
 480              	.LFB27:
 253:..\Setup/OS_Syscalls.c **** 
 254:..\Setup/OS_Syscalls.c **** /*********************************************************************
 255:..\Setup/OS_Syscalls.c **** *
 256:..\Setup/OS_Syscalls.c **** *       _open()
 257:..\Setup/OS_Syscalls.c **** *
 258:..\Setup/OS_Syscalls.c **** *  Function description
 259:..\Setup/OS_Syscalls.c **** *    Open a file.
 260:..\Setup/OS_Syscalls.c **** *    Not needed (supported) by embOS, minimal implementation
 261:..\Setup/OS_Syscalls.c **** */
ARM GAS  C:\Users\ali\AppData\Local\Temp\ccvWVPc2.s 			page 14


 262:..\Setup/OS_Syscalls.c **** int _open(const char* pName, int flags, int mode) {
 481              		.loc 1 262 0
 482              		.cfi_startproc
 483              		@ args = 0, pretend = 0, frame = 16
 484              		@ frame_needed = 1, uses_anonymous_args = 0
 485              		@ link register save eliminated.
 486 0000 80B4     		push	{r7}
 487              		.cfi_def_cfa_offset 4
 488              		.cfi_offset 7, -4
 489 0002 85B0     		sub	sp, sp, #20
 490              		.cfi_def_cfa_offset 24
 491 0004 00AF     		add	r7, sp, #0
 492              		.cfi_def_cfa_register 7
 493 0006 F860     		str	r0, [r7, #12]
 494 0008 B960     		str	r1, [r7, #8]
 495 000a 7A60     		str	r2, [r7, #4]
 263:..\Setup/OS_Syscalls.c ****   (void) pName;  /* Not used, avoid warning */
 264:..\Setup/OS_Syscalls.c ****   (void) flags;  /* Not used, avoid warning */
 265:..\Setup/OS_Syscalls.c ****   (void) mode;   /* Not used, avoid warning */
 266:..\Setup/OS_Syscalls.c ****   return -1;
 496              		.loc 1 266 0
 497 000c 4FF0FF33 		mov	r3, #-1
 267:..\Setup/OS_Syscalls.c **** }
 498              		.loc 1 267 0
 499 0010 1846     		mov	r0, r3
 500 0012 1437     		adds	r7, r7, #20
 501              		.cfi_def_cfa_offset 4
 502 0014 BD46     		mov	sp, r7
 503              		.cfi_def_cfa_register 13
 504              		@ sp needed
 505 0016 80BC     		pop	{r7}
 506              		.cfi_restore 7
 507              		.cfi_def_cfa_offset 0
 508 0018 7047     		bx	lr
 509              		.cfi_endproc
 510              	.LFE27:
 511              		.size	_open, .-_open
 512 001a 00BF     		.section	.text._read,"ax",%progbits
 513              		.align	2
 514              		.weak	_read
 515              		.thumb
 516              		.thumb_func
 517              		.type	_read, %function
 518              	_read:
 519              	.LFB28:
 268:..\Setup/OS_Syscalls.c **** 
 269:..\Setup/OS_Syscalls.c **** /*********************************************************************
 270:..\Setup/OS_Syscalls.c **** *
 271:..\Setup/OS_Syscalls.c **** *       _read()
 272:..\Setup/OS_Syscalls.c **** *
 273:..\Setup/OS_Syscalls.c **** *  Function description
 274:..\Setup/OS_Syscalls.c **** *    Read from a file.
 275:..\Setup/OS_Syscalls.c **** *    Not needed (supported) by embOS, minimal implementation
 276:..\Setup/OS_Syscalls.c **** */
 277:..\Setup/OS_Syscalls.c **** int _read(int file, char* p, int len) {
 520              		.loc 1 277 0
 521              		.cfi_startproc
ARM GAS  C:\Users\ali\AppData\Local\Temp\ccvWVPc2.s 			page 15


 522              		@ args = 0, pretend = 0, frame = 16
 523              		@ frame_needed = 1, uses_anonymous_args = 0
 524              		@ link register save eliminated.
 525 0000 80B4     		push	{r7}
 526              		.cfi_def_cfa_offset 4
 527              		.cfi_offset 7, -4
 528 0002 85B0     		sub	sp, sp, #20
 529              		.cfi_def_cfa_offset 24
 530 0004 00AF     		add	r7, sp, #0
 531              		.cfi_def_cfa_register 7
 532 0006 F860     		str	r0, [r7, #12]
 533 0008 B960     		str	r1, [r7, #8]
 534 000a 7A60     		str	r2, [r7, #4]
 278:..\Setup/OS_Syscalls.c ****   (void) file;  /* Not used, avoid warning */
 279:..\Setup/OS_Syscalls.c ****   (void) p;     /* Not used, avoid warning */
 280:..\Setup/OS_Syscalls.c ****   (void) len;   /* Not used, avoid warning */
 281:..\Setup/OS_Syscalls.c ****   return 0;
 535              		.loc 1 281 0
 536 000c 0023     		movs	r3, #0
 282:..\Setup/OS_Syscalls.c **** }
 537              		.loc 1 282 0
 538 000e 1846     		mov	r0, r3
 539 0010 1437     		adds	r7, r7, #20
 540              		.cfi_def_cfa_offset 4
 541 0012 BD46     		mov	sp, r7
 542              		.cfi_def_cfa_register 13
 543              		@ sp needed
 544 0014 80BC     		pop	{r7}
 545              		.cfi_restore 7
 546              		.cfi_def_cfa_offset 0
 547 0016 7047     		bx	lr
 548              		.cfi_endproc
 549              	.LFE28:
 550              		.size	_read, .-_read
 551              		.section	.text._sbrk,"ax",%progbits
 552              		.align	2
 553              		.global	_sbrk
 554              		.thumb
 555              		.thumb_func
 556              		.type	_sbrk, %function
 557              	_sbrk:
 558              	.LFB29:
 283:..\Setup/OS_Syscalls.c **** 
 284:..\Setup/OS_Syscalls.c **** /*********************************************************************
 285:..\Setup/OS_Syscalls.c **** *
 286:..\Setup/OS_Syscalls.c **** *       _sbrk()
 287:..\Setup/OS_Syscalls.c **** *
 288:..\Setup/OS_Syscalls.c **** *  Function description
 289:..\Setup/OS_Syscalls.c **** *    Increase program data space. As malloc and related functions depend on this,
 290:..\Setup/OS_Syscalls.c **** *    it is required to have a working implementation.
 291:..\Setup/OS_Syscalls.c **** *    __heap_start__ and __heap_end__ have to be defined in the linker file
 292:..\Setup/OS_Syscalls.c **** */
 293:..\Setup/OS_Syscalls.c **** caddr_t _sbrk(int incr) {
 559              		.loc 1 293 0
 560              		.cfi_startproc
 561              		@ args = 0, pretend = 0, frame = 16
 562              		@ frame_needed = 1, uses_anonymous_args = 0
ARM GAS  C:\Users\ali\AppData\Local\Temp\ccvWVPc2.s 			page 16


 563              		@ link register save eliminated.
 564 0000 80B4     		push	{r7}
 565              		.cfi_def_cfa_offset 4
 566              		.cfi_offset 7, -4
 567 0002 85B0     		sub	sp, sp, #20
 568              		.cfi_def_cfa_offset 24
 569 0004 00AF     		add	r7, sp, #0
 570              		.cfi_def_cfa_register 7
 571 0006 7860     		str	r0, [r7, #4]
 294:..\Setup/OS_Syscalls.c ****   static char* heap_end;
 295:..\Setup/OS_Syscalls.c ****   char*        prev_heap_end;
 296:..\Setup/OS_Syscalls.c **** 
 297:..\Setup/OS_Syscalls.c ****   if (heap_end == NULL) {
 572              		.loc 1 297 0
 573 0008 114B     		ldr	r3, .L41
 574 000a 1B68     		ldr	r3, [r3]
 575 000c 002B     		cmp	r3, #0
 576 000e 02D1     		bne	.L38
 298:..\Setup/OS_Syscalls.c ****     heap_end = & __heap_start__;
 577              		.loc 1 298 0
 578 0010 0F4B     		ldr	r3, .L41
 579 0012 104A     		ldr	r2, .L41+4
 580 0014 1A60     		str	r2, [r3]
 581              	.L38:
 299:..\Setup/OS_Syscalls.c ****   }
 300:..\Setup/OS_Syscalls.c ****   prev_heap_end = heap_end;
 582              		.loc 1 300 0
 583 0016 0E4B     		ldr	r3, .L41
 584 0018 1B68     		ldr	r3, [r3]
 585 001a FB60     		str	r3, [r7, #12]
 301:..\Setup/OS_Syscalls.c ****   if (heap_end + incr > &__heap_end__) {
 586              		.loc 1 301 0
 587 001c 0C4B     		ldr	r3, .L41
 588 001e 1A68     		ldr	r2, [r3]
 589 0020 7B68     		ldr	r3, [r7, #4]
 590 0022 1344     		add	r3, r3, r2
 591 0024 0C4A     		ldr	r2, .L41+8
 592 0026 9342     		cmp	r3, r2
 593 0028 05D9     		bls	.L39
 302:..\Setup/OS_Syscalls.c ****       /* Some of the libstdc++-v3 tests rely upon detecting
 303:..\Setup/OS_Syscalls.c ****          out of memory errors, so do not abort here. */
 304:..\Setup/OS_Syscalls.c ****       errno = ENOMEM;
 594              		.loc 1 304 0
 595 002a 0C4B     		ldr	r3, .L41+12
 596 002c 0C22     		movs	r2, #12
 597 002e 1A60     		str	r2, [r3]
 305:..\Setup/OS_Syscalls.c ****       return (caddr_t) -1;
 598              		.loc 1 305 0
 599 0030 4FF0FF33 		mov	r3, #-1
 600 0034 06E0     		b	.L40
 601              	.L39:
 306:..\Setup/OS_Syscalls.c ****   }
 307:..\Setup/OS_Syscalls.c ****   heap_end += incr;
 602              		.loc 1 307 0
 603 0036 064B     		ldr	r3, .L41
 604 0038 1A68     		ldr	r2, [r3]
 605 003a 7B68     		ldr	r3, [r7, #4]
ARM GAS  C:\Users\ali\AppData\Local\Temp\ccvWVPc2.s 			page 17


 606 003c 1344     		add	r3, r3, r2
 607 003e 044A     		ldr	r2, .L41
 608 0040 1360     		str	r3, [r2]
 308:..\Setup/OS_Syscalls.c ****   return (caddr_t) prev_heap_end;
 609              		.loc 1 308 0
 610 0042 FB68     		ldr	r3, [r7, #12]
 611              	.L40:
 309:..\Setup/OS_Syscalls.c **** }
 612              		.loc 1 309 0
 613 0044 1846     		mov	r0, r3
 614 0046 1437     		adds	r7, r7, #20
 615              		.cfi_def_cfa_offset 4
 616 0048 BD46     		mov	sp, r7
 617              		.cfi_def_cfa_register 13
 618              		@ sp needed
 619 004a 80BC     		pop	{r7}
 620              		.cfi_restore 7
 621              		.cfi_def_cfa_offset 0
 622 004c 7047     		bx	lr
 623              	.L42:
 624 004e 00BF     		.align	2
 625              	.L41:
 626 0050 04000000 		.word	heap_end.4801
 627 0054 00000000 		.word	__heap_start__
 628 0058 00000000 		.word	__heap_end__
 629 005c 00000000 		.word	errno
 630              		.cfi_endproc
 631              	.LFE29:
 632              		.size	_sbrk, .-_sbrk
 633              		.section	.text._stat,"ax",%progbits
 634              		.align	2
 635              		.weak	_stat
 636              		.thumb
 637              		.thumb_func
 638              		.type	_stat, %function
 639              	_stat:
 640              	.LFB30:
 310:..\Setup/OS_Syscalls.c **** 
 311:..\Setup/OS_Syscalls.c **** /*********************************************************************
 312:..\Setup/OS_Syscalls.c **** *
 313:..\Setup/OS_Syscalls.c **** *       _stat()
 314:..\Setup/OS_Syscalls.c **** *
 315:..\Setup/OS_Syscalls.c **** *  Function description
 316:..\Setup/OS_Syscalls.c **** *    Status of a file (by name).
 317:..\Setup/OS_Syscalls.c **** *    Not needed (supported) by embOS, minimal implementation
 318:..\Setup/OS_Syscalls.c **** */
 319:..\Setup/OS_Syscalls.c **** int _stat(const char* pFile, struct stat* pSt) {
 641              		.loc 1 319 0
 642              		.cfi_startproc
 643              		@ args = 0, pretend = 0, frame = 8
 644              		@ frame_needed = 1, uses_anonymous_args = 0
 645              		@ link register save eliminated.
 646 0000 80B4     		push	{r7}
 647              		.cfi_def_cfa_offset 4
 648              		.cfi_offset 7, -4
 649 0002 83B0     		sub	sp, sp, #12
 650              		.cfi_def_cfa_offset 16
ARM GAS  C:\Users\ali\AppData\Local\Temp\ccvWVPc2.s 			page 18


 651 0004 00AF     		add	r7, sp, #0
 652              		.cfi_def_cfa_register 7
 653 0006 7860     		str	r0, [r7, #4]
 654 0008 3960     		str	r1, [r7]
 320:..\Setup/OS_Syscalls.c ****   (void) pFile;  /* Not used, avoid warning */
 321:..\Setup/OS_Syscalls.c ****   pSt->st_mode = S_IFCHR;
 655              		.loc 1 321 0
 656 000a 3B68     		ldr	r3, [r7]
 657 000c 4FF40052 		mov	r2, #8192
 658 0010 5A60     		str	r2, [r3, #4]
 322:..\Setup/OS_Syscalls.c ****   return 0;
 659              		.loc 1 322 0
 660 0012 0023     		movs	r3, #0
 323:..\Setup/OS_Syscalls.c **** }
 661              		.loc 1 323 0
 662 0014 1846     		mov	r0, r3
 663 0016 0C37     		adds	r7, r7, #12
 664              		.cfi_def_cfa_offset 4
 665 0018 BD46     		mov	sp, r7
 666              		.cfi_def_cfa_register 13
 667              		@ sp needed
 668 001a 80BC     		pop	{r7}
 669              		.cfi_restore 7
 670              		.cfi_def_cfa_offset 0
 671 001c 7047     		bx	lr
 672              		.cfi_endproc
 673              	.LFE30:
 674              		.size	_stat, .-_stat
 675 001e 00BF     		.section	.text._times,"ax",%progbits
 676              		.align	2
 677              		.weak	_times
 678              		.thumb
 679              		.thumb_func
 680              		.type	_times, %function
 681              	_times:
 682              	.LFB31:
 324:..\Setup/OS_Syscalls.c **** 
 325:..\Setup/OS_Syscalls.c **** 
 326:..\Setup/OS_Syscalls.c **** /*********************************************************************
 327:..\Setup/OS_Syscalls.c **** *
 328:..\Setup/OS_Syscalls.c **** *       _times()
 329:..\Setup/OS_Syscalls.c **** *
 330:..\Setup/OS_Syscalls.c **** *  Function description
 331:..\Setup/OS_Syscalls.c **** *    Timing information for current process.
 332:..\Setup/OS_Syscalls.c **** *    Not needed (supported) by embOS, minimal implementation
 333:..\Setup/OS_Syscalls.c **** */
 334:..\Setup/OS_Syscalls.c **** clock_t _times(struct tms* pBuf) {
 683              		.loc 1 334 0
 684              		.cfi_startproc
 685              		@ args = 0, pretend = 0, frame = 8
 686              		@ frame_needed = 1, uses_anonymous_args = 0
 687              		@ link register save eliminated.
 688 0000 80B4     		push	{r7}
 689              		.cfi_def_cfa_offset 4
 690              		.cfi_offset 7, -4
 691 0002 83B0     		sub	sp, sp, #12
 692              		.cfi_def_cfa_offset 16
ARM GAS  C:\Users\ali\AppData\Local\Temp\ccvWVPc2.s 			page 19


 693 0004 00AF     		add	r7, sp, #0
 694              		.cfi_def_cfa_register 7
 695 0006 7860     		str	r0, [r7, #4]
 335:..\Setup/OS_Syscalls.c ****   (void) pBuf;  /* Not used, avoid warning */
 336:..\Setup/OS_Syscalls.c ****   return -1;
 696              		.loc 1 336 0
 697 0008 4FF0FF33 		mov	r3, #-1
 337:..\Setup/OS_Syscalls.c **** }
 698              		.loc 1 337 0
 699 000c 1846     		mov	r0, r3
 700 000e 0C37     		adds	r7, r7, #12
 701              		.cfi_def_cfa_offset 4
 702 0010 BD46     		mov	sp, r7
 703              		.cfi_def_cfa_register 13
 704              		@ sp needed
 705 0012 80BC     		pop	{r7}
 706              		.cfi_restore 7
 707              		.cfi_def_cfa_offset 0
 708 0014 7047     		bx	lr
 709              		.cfi_endproc
 710              	.LFE31:
 711              		.size	_times, .-_times
 712 0016 00BF     		.section	.text._unlink,"ax",%progbits
 713              		.align	2
 714              		.weak	_unlink
 715              		.thumb
 716              		.thumb_func
 717              		.type	_unlink, %function
 718              	_unlink:
 719              	.LFB32:
 338:..\Setup/OS_Syscalls.c **** 
 339:..\Setup/OS_Syscalls.c **** /*********************************************************************
 340:..\Setup/OS_Syscalls.c **** *
 341:..\Setup/OS_Syscalls.c **** *       _unlink()
 342:..\Setup/OS_Syscalls.c **** *
 343:..\Setup/OS_Syscalls.c **** *  Function description
 344:..\Setup/OS_Syscalls.c **** *    Remove a file's directory entry.
 345:..\Setup/OS_Syscalls.c **** *    Not needed (supported) by embOS, minimal implementation
 346:..\Setup/OS_Syscalls.c **** */
 347:..\Setup/OS_Syscalls.c **** int _unlink(char* pName) {
 720              		.loc 1 347 0
 721              		.cfi_startproc
 722              		@ args = 0, pretend = 0, frame = 8
 723              		@ frame_needed = 1, uses_anonymous_args = 0
 724              		@ link register save eliminated.
 725 0000 80B4     		push	{r7}
 726              		.cfi_def_cfa_offset 4
 727              		.cfi_offset 7, -4
 728 0002 83B0     		sub	sp, sp, #12
 729              		.cfi_def_cfa_offset 16
 730 0004 00AF     		add	r7, sp, #0
 731              		.cfi_def_cfa_register 7
 732 0006 7860     		str	r0, [r7, #4]
 348:..\Setup/OS_Syscalls.c ****   (void) pName;  /* Not used, avoid warning */
 349:..\Setup/OS_Syscalls.c ****   errno = ENOENT;
 733              		.loc 1 349 0
 734 0008 044B     		ldr	r3, .L49
ARM GAS  C:\Users\ali\AppData\Local\Temp\ccvWVPc2.s 			page 20


 735 000a 0222     		movs	r2, #2
 736 000c 1A60     		str	r2, [r3]
 350:..\Setup/OS_Syscalls.c ****   return -1;
 737              		.loc 1 350 0
 738 000e 4FF0FF33 		mov	r3, #-1
 351:..\Setup/OS_Syscalls.c **** }
 739              		.loc 1 351 0
 740 0012 1846     		mov	r0, r3
 741 0014 0C37     		adds	r7, r7, #12
 742              		.cfi_def_cfa_offset 4
 743 0016 BD46     		mov	sp, r7
 744              		.cfi_def_cfa_register 13
 745              		@ sp needed
 746 0018 80BC     		pop	{r7}
 747              		.cfi_restore 7
 748              		.cfi_def_cfa_offset 0
 749 001a 7047     		bx	lr
 750              	.L50:
 751              		.align	2
 752              	.L49:
 753 001c 00000000 		.word	errno
 754              		.cfi_endproc
 755              	.LFE32:
 756              		.size	_unlink, .-_unlink
 757              		.section	.text._wait,"ax",%progbits
 758              		.align	2
 759              		.weak	_wait
 760              		.thumb
 761              		.thumb_func
 762              		.type	_wait, %function
 763              	_wait:
 764              	.LFB33:
 352:..\Setup/OS_Syscalls.c **** 
 353:..\Setup/OS_Syscalls.c **** /*********************************************************************
 354:..\Setup/OS_Syscalls.c **** *
 355:..\Setup/OS_Syscalls.c **** *       _wait()
 356:..\Setup/OS_Syscalls.c **** *
 357:..\Setup/OS_Syscalls.c **** *  Function description
 358:..\Setup/OS_Syscalls.c **** *    Wait for a child process.
 359:..\Setup/OS_Syscalls.c **** *    Not needed (supported) by embOS, minimal implementation
 360:..\Setup/OS_Syscalls.c **** */
 361:..\Setup/OS_Syscalls.c **** int _wait(int* pStatus) {
 765              		.loc 1 361 0
 766              		.cfi_startproc
 767              		@ args = 0, pretend = 0, frame = 8
 768              		@ frame_needed = 1, uses_anonymous_args = 0
 769              		@ link register save eliminated.
 770 0000 80B4     		push	{r7}
 771              		.cfi_def_cfa_offset 4
 772              		.cfi_offset 7, -4
 773 0002 83B0     		sub	sp, sp, #12
 774              		.cfi_def_cfa_offset 16
 775 0004 00AF     		add	r7, sp, #0
 776              		.cfi_def_cfa_register 7
 777 0006 7860     		str	r0, [r7, #4]
 362:..\Setup/OS_Syscalls.c ****   (void) pStatus;  /* Not used, avoid warning */
 363:..\Setup/OS_Syscalls.c ****   errno = ECHILD;
ARM GAS  C:\Users\ali\AppData\Local\Temp\ccvWVPc2.s 			page 21


 778              		.loc 1 363 0
 779 0008 044B     		ldr	r3, .L53
 780 000a 0A22     		movs	r2, #10
 781 000c 1A60     		str	r2, [r3]
 364:..\Setup/OS_Syscalls.c ****   return -1;
 782              		.loc 1 364 0
 783 000e 4FF0FF33 		mov	r3, #-1
 365:..\Setup/OS_Syscalls.c **** }
 784              		.loc 1 365 0
 785 0012 1846     		mov	r0, r3
 786 0014 0C37     		adds	r7, r7, #12
 787              		.cfi_def_cfa_offset 4
 788 0016 BD46     		mov	sp, r7
 789              		.cfi_def_cfa_register 13
 790              		@ sp needed
 791 0018 80BC     		pop	{r7}
 792              		.cfi_restore 7
 793              		.cfi_def_cfa_offset 0
 794 001a 7047     		bx	lr
 795              	.L54:
 796              		.align	2
 797              	.L53:
 798 001c 00000000 		.word	errno
 799              		.cfi_endproc
 800              	.LFE33:
 801              		.size	_wait, .-_wait
 802              		.section	.text._write,"ax",%progbits
 803              		.align	2
 804              		.weak	_write
 805              		.thumb
 806              		.thumb_func
 807              		.type	_write, %function
 808              	_write:
 809              	.LFB34:
 366:..\Setup/OS_Syscalls.c **** 
 367:..\Setup/OS_Syscalls.c **** /*********************************************************************
 368:..\Setup/OS_Syscalls.c **** *
 369:..\Setup/OS_Syscalls.c **** *       _write()
 370:..\Setup/OS_Syscalls.c **** *
 371:..\Setup/OS_Syscalls.c **** *  Function description
 372:..\Setup/OS_Syscalls.c **** *    Write to a file.
 373:..\Setup/OS_Syscalls.c **** *    libc subroutines will use this system routine for output to all files,
 374:..\Setup/OS_Syscalls.c **** *    including stdouts if you need to generate any output,
 375:..\Setup/OS_Syscalls.c **** *    for example to a serial port for debugging, you should make your minimal write capable of doin
 376:..\Setup/OS_Syscalls.c **** *    The following minimal implementation is an incomplete example; it relies on a outbyte subrouti
 377:..\Setup/OS_Syscalls.c **** *    (not shown; typically, you must write this in assembler from examples provided by your hardwar
 378:..\Setup/OS_Syscalls.c **** *    to actually perform the output.
 379:..\Setup/OS_Syscalls.c **** *    Not needed (supported) by embOS, minimal implementation
 380:..\Setup/OS_Syscalls.c **** */
 381:..\Setup/OS_Syscalls.c **** int _write(int file, char* p, int len) {
 810              		.loc 1 381 0
 811              		.cfi_startproc
 812              		@ args = 0, pretend = 0, frame = 24
 813              		@ frame_needed = 1, uses_anonymous_args = 0
 814              		@ link register save eliminated.
 815 0000 80B4     		push	{r7}
 816              		.cfi_def_cfa_offset 4
ARM GAS  C:\Users\ali\AppData\Local\Temp\ccvWVPc2.s 			page 22


 817              		.cfi_offset 7, -4
 818 0002 87B0     		sub	sp, sp, #28
 819              		.cfi_def_cfa_offset 32
 820 0004 00AF     		add	r7, sp, #0
 821              		.cfi_def_cfa_register 7
 822 0006 F860     		str	r0, [r7, #12]
 823 0008 B960     		str	r1, [r7, #8]
 824 000a 7A60     		str	r2, [r7, #4]
 382:..\Setup/OS_Syscalls.c ****   int todo;
 383:..\Setup/OS_Syscalls.c **** 
 384:..\Setup/OS_Syscalls.c ****   (void) file;  /* Not used, avoid warning */
 385:..\Setup/OS_Syscalls.c ****   (void) p;     /* Not used, avoid warning */
 386:..\Setup/OS_Syscalls.c ****   (void) len;   /* Not used, avoid warning */
 387:..\Setup/OS_Syscalls.c ****   for (todo = 0; todo < len; todo++) {
 825              		.loc 1 387 0
 826 000c 0023     		movs	r3, #0
 827 000e 7B61     		str	r3, [r7, #20]
 828 0010 02E0     		b	.L56
 829              	.L57:
 830              		.loc 1 387 0 is_stmt 0 discriminator 3
 831 0012 7B69     		ldr	r3, [r7, #20]
 832 0014 0133     		adds	r3, r3, #1
 833 0016 7B61     		str	r3, [r7, #20]
 834              	.L56:
 835              		.loc 1 387 0 discriminator 1
 836 0018 7A69     		ldr	r2, [r7, #20]
 837 001a 7B68     		ldr	r3, [r7, #4]
 838 001c 9A42     		cmp	r2, r3
 839 001e F8DB     		blt	.L57
 388:..\Setup/OS_Syscalls.c ****     /* outbyte (*p++); */ /* Not supported, has to be implemented if needed */
 389:..\Setup/OS_Syscalls.c ****   }
 390:..\Setup/OS_Syscalls.c ****   return len;
 840              		.loc 1 390 0 is_stmt 1
 841 0020 7B68     		ldr	r3, [r7, #4]
 391:..\Setup/OS_Syscalls.c **** }
 842              		.loc 1 391 0
 843 0022 1846     		mov	r0, r3
 844 0024 1C37     		adds	r7, r7, #28
 845              		.cfi_def_cfa_offset 4
 846 0026 BD46     		mov	sp, r7
 847              		.cfi_def_cfa_register 13
 848              		@ sp needed
 849 0028 80BC     		pop	{r7}
 850              		.cfi_restore 7
 851              		.cfi_def_cfa_offset 0
 852 002a 7047     		bx	lr
 853              		.cfi_endproc
 854              	.LFE34:
 855              		.size	_write, .-_write
 856              		.bss
 857              		.align	2
 858              	heap_end.4801:
 859 0004 00000000 		.space	4
 860              		.text
 861              	.Letext0:
 862              		.file 2 "c:\\program files (x86)\\cypress\\psoc creator\\4.4\\psoc creator\\import\\gnu\\arm\\5.4.
 863              		.file 3 "c:\\program files (x86)\\cypress\\psoc creator\\4.4\\psoc creator\\import\\gnu\\arm\\5.4.
ARM GAS  C:\Users\ali\AppData\Local\Temp\ccvWVPc2.s 			page 23


 864              		.file 4 "c:\\program files (x86)\\cypress\\psoc creator\\4.4\\psoc creator\\import\\gnu\\arm\\5.4.
 865              		.file 5 "c:\\program files (x86)\\cypress\\psoc creator\\4.4\\psoc creator\\import\\gnu\\arm\\5.4.
 866              		.file 6 "c:\\program files (x86)\\cypress\\psoc creator\\4.4\\psoc creator\\import\\gnu\\arm\\5.4.
 867              		.file 7 "c:\\program files (x86)\\cypress\\psoc creator\\4.4\\psoc creator\\import\\gnu\\arm\\5.4.
 868              		.file 8 "c:\\program files (x86)\\cypress\\psoc creator\\4.4\\psoc creator\\import\\gnu\\arm\\5.4.