ARM GAS  C:\Users\ali\AppData\Local\Temp\ccTZGj7l.s 			page 1


   1              		.syntax unified
   2              		.cpu cortex-m3
   3              		.fpu softvfp
   4              		.eabi_attribute 20, 1
   5              		.eabi_attribute 21, 1
   6              		.eabi_attribute 23, 3
   7              		.eabi_attribute 24, 1
   8              		.eabi_attribute 25, 1
   9              		.eabi_attribute 26, 1
  10              		.eabi_attribute 30, 6
  11              		.eabi_attribute 34, 1
  12              		.eabi_attribute 18, 4
  13              		.thumb
  14              		.syntax unified
  15              		.file	"SEGGER_SYSVIEW_embOS.c"
  16              		.text
  17              	.Ltext0:
  18              		.cfi_sections	.debug_frame
  19              		.section	.text._cbSendTaskInfo,"ax",%progbits
  20              		.align	2
  21              		.thumb
  22              		.thumb_func
  23              		.type	_cbSendTaskInfo, %function
  24              	_cbSendTaskInfo:
  25              	.LFB0:
  26              		.file 1 "..\\SEGGER\\SEGGER_SYSVIEW_embOS.c"
   1:..\SEGGER/SEGGER_SYSVIEW_embOS.c **** /*********************************************************************
   2:..\SEGGER/SEGGER_SYSVIEW_embOS.c **** *                     SEGGER Microcontroller GmbH                    *
   3:..\SEGGER/SEGGER_SYSVIEW_embOS.c **** *                        The Embedded Experts                        *
   4:..\SEGGER/SEGGER_SYSVIEW_embOS.c **** **********************************************************************
   5:..\SEGGER/SEGGER_SYSVIEW_embOS.c **** *                                                                    *
   6:..\SEGGER/SEGGER_SYSVIEW_embOS.c **** *       (c) 1995 - 2022 SEGGER Microcontroller GmbH                  *
   7:..\SEGGER/SEGGER_SYSVIEW_embOS.c **** *                                                                    *
   8:..\SEGGER/SEGGER_SYSVIEW_embOS.c **** *       Internet: segger.com  Support: support_embos@segger.com      *
   9:..\SEGGER/SEGGER_SYSVIEW_embOS.c **** *                                                                    *
  10:..\SEGGER/SEGGER_SYSVIEW_embOS.c **** **********************************************************************
  11:..\SEGGER/SEGGER_SYSVIEW_embOS.c **** *                                                                    *
  12:..\SEGGER/SEGGER_SYSVIEW_embOS.c **** *       embOS * Real time operating system                           *
  13:..\SEGGER/SEGGER_SYSVIEW_embOS.c **** *                                                                    *
  14:..\SEGGER/SEGGER_SYSVIEW_embOS.c **** *       Please note:                                                 *
  15:..\SEGGER/SEGGER_SYSVIEW_embOS.c **** *                                                                    *
  16:..\SEGGER/SEGGER_SYSVIEW_embOS.c **** *       Knowledge of this file may under no circumstances            *
  17:..\SEGGER/SEGGER_SYSVIEW_embOS.c **** *       be used to write a similar product or a real-time            *
  18:..\SEGGER/SEGGER_SYSVIEW_embOS.c **** *       operating system for in-house use.                           *
  19:..\SEGGER/SEGGER_SYSVIEW_embOS.c **** *                                                                    *
  20:..\SEGGER/SEGGER_SYSVIEW_embOS.c **** *       Thank you for your fairness !                                *
  21:..\SEGGER/SEGGER_SYSVIEW_embOS.c **** *                                                                    *
  22:..\SEGGER/SEGGER_SYSVIEW_embOS.c **** **********************************************************************
  23:..\SEGGER/SEGGER_SYSVIEW_embOS.c **** *                                                                    *
  24:..\SEGGER/SEGGER_SYSVIEW_embOS.c **** *       OS version: V5.16.1.0                                        *
  25:..\SEGGER/SEGGER_SYSVIEW_embOS.c **** *                                                                    *
  26:..\SEGGER/SEGGER_SYSVIEW_embOS.c **** **********************************************************************
  27:..\SEGGER/SEGGER_SYSVIEW_embOS.c **** 
  28:..\SEGGER/SEGGER_SYSVIEW_embOS.c **** -------------------------- END-OF-HEADER -----------------------------
  29:..\SEGGER/SEGGER_SYSVIEW_embOS.c **** 
  30:..\SEGGER/SEGGER_SYSVIEW_embOS.c **** File    : SEGGER_SYSVIEW_embOS.c
  31:..\SEGGER/SEGGER_SYSVIEW_embOS.c **** Purpose : Interface between embOS and System View.
ARM GAS  C:\Users\ali\AppData\Local\Temp\ccTZGj7l.s 			page 2


  32:..\SEGGER/SEGGER_SYSVIEW_embOS.c **** Revision: $Rev: 25329 $
  33:..\SEGGER/SEGGER_SYSVIEW_embOS.c **** */
  34:..\SEGGER/SEGGER_SYSVIEW_embOS.c **** 
  35:..\SEGGER/SEGGER_SYSVIEW_embOS.c **** #include "RTOS.h"
  36:..\SEGGER/SEGGER_SYSVIEW_embOS.c **** #include "SEGGER_SYSVIEW.h"
  37:..\SEGGER/SEGGER_SYSVIEW_embOS.c **** #include "SEGGER_RTT.h"
  38:..\SEGGER/SEGGER_SYSVIEW_embOS.c **** #include "SEGGER_SYSVIEW_embOS.h"
  39:..\SEGGER/SEGGER_SYSVIEW_embOS.c **** 
  40:..\SEGGER/SEGGER_SYSVIEW_embOS.c **** #if (OS_VERSION < 41201)
  41:..\SEGGER/SEGGER_SYSVIEW_embOS.c ****   #error "SystemView is only supported in embOS V4.12a and later."
  42:..\SEGGER/SEGGER_SYSVIEW_embOS.c **** #endif
  43:..\SEGGER/SEGGER_SYSVIEW_embOS.c **** 
  44:..\SEGGER/SEGGER_SYSVIEW_embOS.c **** /*********************************************************************
  45:..\SEGGER/SEGGER_SYSVIEW_embOS.c **** *
  46:..\SEGGER/SEGGER_SYSVIEW_embOS.c **** *       Local functions
  47:..\SEGGER/SEGGER_SYSVIEW_embOS.c **** *
  48:..\SEGGER/SEGGER_SYSVIEW_embOS.c **** **********************************************************************
  49:..\SEGGER/SEGGER_SYSVIEW_embOS.c **** */
  50:..\SEGGER/SEGGER_SYSVIEW_embOS.c **** 
  51:..\SEGGER/SEGGER_SYSVIEW_embOS.c **** /*********************************************************************
  52:..\SEGGER/SEGGER_SYSVIEW_embOS.c **** *
  53:..\SEGGER/SEGGER_SYSVIEW_embOS.c **** *       _cbSendTaskInfo()
  54:..\SEGGER/SEGGER_SYSVIEW_embOS.c **** *
  55:..\SEGGER/SEGGER_SYSVIEW_embOS.c **** *  Function description
  56:..\SEGGER/SEGGER_SYSVIEW_embOS.c **** *    Sends task information to SystemView
  57:..\SEGGER/SEGGER_SYSVIEW_embOS.c **** */
  58:..\SEGGER/SEGGER_SYSVIEW_embOS.c **** static void _cbSendTaskInfo(const OS_TASK* pTask) {
  27              		.loc 1 58 0
  28              		.cfi_startproc
  29              		@ args = 0, pretend = 0, frame = 32
  30              		@ frame_needed = 1, uses_anonymous_args = 0
  31 0000 80B5     		push	{r7, lr}
  32              		.cfi_def_cfa_offset 8
  33              		.cfi_offset 7, -8
  34              		.cfi_offset 14, -4
  35 0002 88B0     		sub	sp, sp, #32
  36              		.cfi_def_cfa_offset 40
  37 0004 00AF     		add	r7, sp, #0
  38              		.cfi_def_cfa_register 7
  39 0006 7860     		str	r0, [r7, #4]
  59:..\SEGGER/SEGGER_SYSVIEW_embOS.c ****   SEGGER_SYSVIEW_TASKINFO Info;
  60:..\SEGGER/SEGGER_SYSVIEW_embOS.c **** 
  61:..\SEGGER/SEGGER_SYSVIEW_embOS.c ****   OS_EnterRegion();                // No scheduling to make sure the task list does not change whil
  40              		.loc 1 61 0
  41 0008 FFF7FEFF 		bl	OS_EnterRegionFunc
  62:..\SEGGER/SEGGER_SYSVIEW_embOS.c ****   memset(&Info, 0, sizeof(Info));  // Fill all elements with 0 to allow extending the structure in 
  42              		.loc 1 62 0
  43 000c 07F10C03 		add	r3, r7, #12
  44 0010 1422     		movs	r2, #20
  45 0012 0021     		movs	r1, #0
  46 0014 1846     		mov	r0, r3
  47 0016 FFF7FEFF 		bl	memset
  63:..\SEGGER/SEGGER_SYSVIEW_embOS.c ****   Info.TaskID = (U32)pTask;
  48              		.loc 1 63 0
  49 001a 7B68     		ldr	r3, [r7, #4]
  50 001c FB60     		str	r3, [r7, #12]
  64:..\SEGGER/SEGGER_SYSVIEW_embOS.c **** #if OS_TRACKNAME
ARM GAS  C:\Users\ali\AppData\Local\Temp\ccTZGj7l.s 			page 3


  65:..\SEGGER/SEGGER_SYSVIEW_embOS.c ****   Info.sName = OS_GetTaskName(pTask);
  51              		.loc 1 65 0
  52 001e 7868     		ldr	r0, [r7, #4]
  53 0020 FFF7FEFF 		bl	OS_TASK_GetName
  54 0024 0346     		mov	r3, r0
  55 0026 3B61     		str	r3, [r7, #16]
  66:..\SEGGER/SEGGER_SYSVIEW_embOS.c **** #endif
  67:..\SEGGER/SEGGER_SYSVIEW_embOS.c ****   Info.Prio = pTask->Priority;
  56              		.loc 1 67 0
  57 0028 7B68     		ldr	r3, [r7, #4]
  58 002a 1B69     		ldr	r3, [r3, #16]
  59 002c 7B61     		str	r3, [r7, #20]
  68:..\SEGGER/SEGGER_SYSVIEW_embOS.c **** #if OS_CHECKSTACK
  69:..\SEGGER/SEGGER_SYSVIEW_embOS.c ****   Info.StackBase = (U32)OS_GetStackBase(pTask);
  60              		.loc 1 69 0
  61 002e 7868     		ldr	r0, [r7, #4]
  62 0030 FFF7FEFF 		bl	OS_STACK_GetTaskStackBase
  63 0034 0346     		mov	r3, r0
  64 0036 BB61     		str	r3, [r7, #24]
  70:..\SEGGER/SEGGER_SYSVIEW_embOS.c ****   Info.StackSize = pTask->StackSize;
  65              		.loc 1 70 0
  66 0038 7B68     		ldr	r3, [r7, #4]
  67 003a 9B6A     		ldr	r3, [r3, #40]
  68 003c FB61     		str	r3, [r7, #28]
  71:..\SEGGER/SEGGER_SYSVIEW_embOS.c **** #endif
  72:..\SEGGER/SEGGER_SYSVIEW_embOS.c ****   SEGGER_SYSVIEW_SendTaskInfo(&Info);
  69              		.loc 1 72 0
  70 003e 07F10C03 		add	r3, r7, #12
  71 0042 1846     		mov	r0, r3
  72 0044 FFF7FEFF 		bl	SEGGER_SYSVIEW_SendTaskInfo
  73:..\SEGGER/SEGGER_SYSVIEW_embOS.c ****   OS_LeaveRegion();                // No scheduling to make sure the task list does not change whil
  73              		.loc 1 73 0
  74 0048 FFF7FEFF 		bl	OS_TASK_LeaveRegion
  74:..\SEGGER/SEGGER_SYSVIEW_embOS.c **** }
  75              		.loc 1 74 0
  76 004c 00BF     		nop
  77 004e 2037     		adds	r7, r7, #32
  78              		.cfi_def_cfa_offset 8
  79 0050 BD46     		mov	sp, r7
  80              		.cfi_def_cfa_register 13
  81              		@ sp needed
  82 0052 80BD     		pop	{r7, pc}
  83              		.cfi_endproc
  84              	.LFE0:
  85              		.size	_cbSendTaskInfo, .-_cbSendTaskInfo
  86              		.section	.text._cbSendTaskList,"ax",%progbits
  87              		.align	2
  88              		.thumb
  89              		.thumb_func
  90              		.type	_cbSendTaskList, %function
  91              	_cbSendTaskList:
  92              	.LFB1:
  75:..\SEGGER/SEGGER_SYSVIEW_embOS.c **** 
  76:..\SEGGER/SEGGER_SYSVIEW_embOS.c **** /*********************************************************************
  77:..\SEGGER/SEGGER_SYSVIEW_embOS.c **** *
  78:..\SEGGER/SEGGER_SYSVIEW_embOS.c **** *       _cbSendTaskList()
  79:..\SEGGER/SEGGER_SYSVIEW_embOS.c **** *
ARM GAS  C:\Users\ali\AppData\Local\Temp\ccTZGj7l.s 			page 4


  80:..\SEGGER/SEGGER_SYSVIEW_embOS.c **** *  Function description
  81:..\SEGGER/SEGGER_SYSVIEW_embOS.c **** *    This function is part of the link between embOS and SYSVIEW.
  82:..\SEGGER/SEGGER_SYSVIEW_embOS.c **** *    Called from SystemView when asked by the host, it uses SYSVIEW
  83:..\SEGGER/SEGGER_SYSVIEW_embOS.c **** *    functions to send the entire task list to the host.
  84:..\SEGGER/SEGGER_SYSVIEW_embOS.c **** */
  85:..\SEGGER/SEGGER_SYSVIEW_embOS.c **** static void _cbSendTaskList(void) {
  93              		.loc 1 85 0
  94              		.cfi_startproc
  95              		@ args = 0, pretend = 0, frame = 8
  96              		@ frame_needed = 1, uses_anonymous_args = 0
  97 0000 80B5     		push	{r7, lr}
  98              		.cfi_def_cfa_offset 8
  99              		.cfi_offset 7, -8
 100              		.cfi_offset 14, -4
 101 0002 82B0     		sub	sp, sp, #8
 102              		.cfi_def_cfa_offset 16
 103 0004 00AF     		add	r7, sp, #0
 104              		.cfi_def_cfa_register 7
  86:..\SEGGER/SEGGER_SYSVIEW_embOS.c ****   OS_TASK*    pTask;
  87:..\SEGGER/SEGGER_SYSVIEW_embOS.c **** 
  88:..\SEGGER/SEGGER_SYSVIEW_embOS.c ****   OS_EnterRegion();         // No scheduling to make sure the task list does not change while we ar
 105              		.loc 1 88 0
 106 0006 FFF7FEFF 		bl	OS_EnterRegionFunc
  89:..\SEGGER/SEGGER_SYSVIEW_embOS.c ****   for (pTask = OS_Global.pTask; pTask; pTask = pTask->pNext) {
 107              		.loc 1 89 0
 108 000a 134B     		ldr	r3, .L7
 109 000c 9B69     		ldr	r3, [r3, #24]
 110 000e 7B60     		str	r3, [r7, #4]
 111 0010 05E0     		b	.L3
 112              	.L4:
  90:..\SEGGER/SEGGER_SYSVIEW_embOS.c ****     _cbSendTaskInfo(pTask);
 113              		.loc 1 90 0 discriminator 3
 114 0012 7868     		ldr	r0, [r7, #4]
 115 0014 FFF7FEFF 		bl	_cbSendTaskInfo
  89:..\SEGGER/SEGGER_SYSVIEW_embOS.c ****   for (pTask = OS_Global.pTask; pTask; pTask = pTask->pNext) {
 116              		.loc 1 89 0 discriminator 3
 117 0018 7B68     		ldr	r3, [r7, #4]
 118 001a 1B68     		ldr	r3, [r3]
 119 001c 7B60     		str	r3, [r7, #4]
 120              	.L3:
  89:..\SEGGER/SEGGER_SYSVIEW_embOS.c ****   for (pTask = OS_Global.pTask; pTask; pTask = pTask->pNext) {
 121              		.loc 1 89 0 is_stmt 0 discriminator 1
 122 001e 7B68     		ldr	r3, [r7, #4]
 123 0020 002B     		cmp	r3, #0
 124 0022 F6D1     		bne	.L4
 125              	.LBB2:
  91:..\SEGGER/SEGGER_SYSVIEW_embOS.c ****   }
  92:..\SEGGER/SEGGER_SYSVIEW_embOS.c **** #if ((OS_VERSION >= 43800) && (OS_TRACKNAME != 0))  // Human readable object identifiers supported 
  93:..\SEGGER/SEGGER_SYSVIEW_embOS.c ****   {
  94:..\SEGGER/SEGGER_SYSVIEW_embOS.c ****     OS_OBJNAME* p;
  95:..\SEGGER/SEGGER_SYSVIEW_embOS.c **** #if (OS_VERSION >= 51600)
  96:..\SEGGER/SEGGER_SYSVIEW_embOS.c ****     for (p = OS_Global.pObjNameRoot; p != NULL; p = p->pNext) {
 126              		.loc 1 96 0 is_stmt 1
 127 0024 0C4B     		ldr	r3, .L7
 128 0026 5B6E     		ldr	r3, [r3, #100]
 129 0028 3B60     		str	r3, [r7]
 130 002a 0BE0     		b	.L5
ARM GAS  C:\Users\ali\AppData\Local\Temp\ccTZGj7l.s 			page 5


 131              	.L6:
  97:..\SEGGER/SEGGER_SYSVIEW_embOS.c **** #else
  98:..\SEGGER/SEGGER_SYSVIEW_embOS.c ****     for (p = OS_pObjNameRoot; p != NULL; p = p->pNext) {
  99:..\SEGGER/SEGGER_SYSVIEW_embOS.c **** #endif
 100:..\SEGGER/SEGGER_SYSVIEW_embOS.c ****       SEGGER_SYSVIEW_NameResource((OS_U32)p->pOSObjID, p->sName);
 132              		.loc 1 100 0 discriminator 3
 133 002c 3B68     		ldr	r3, [r7]
 134 002e 5B68     		ldr	r3, [r3, #4]
 135 0030 1A46     		mov	r2, r3
 136 0032 3B68     		ldr	r3, [r7]
 137 0034 9B68     		ldr	r3, [r3, #8]
 138 0036 1946     		mov	r1, r3
 139 0038 1046     		mov	r0, r2
 140 003a FFF7FEFF 		bl	SEGGER_SYSVIEW_NameResource
  96:..\SEGGER/SEGGER_SYSVIEW_embOS.c **** #else
 141              		.loc 1 96 0 discriminator 3
 142 003e 3B68     		ldr	r3, [r7]
 143 0040 1B68     		ldr	r3, [r3]
 144 0042 3B60     		str	r3, [r7]
 145              	.L5:
  96:..\SEGGER/SEGGER_SYSVIEW_embOS.c **** #else
 146              		.loc 1 96 0 is_stmt 0 discriminator 1
 147 0044 3B68     		ldr	r3, [r7]
 148 0046 002B     		cmp	r3, #0
 149 0048 F0D1     		bne	.L6
 150              	.LBE2:
 101:..\SEGGER/SEGGER_SYSVIEW_embOS.c ****     }
 102:..\SEGGER/SEGGER_SYSVIEW_embOS.c ****   }
 103:..\SEGGER/SEGGER_SYSVIEW_embOS.c **** #endif
 104:..\SEGGER/SEGGER_SYSVIEW_embOS.c ****   OS_LeaveRegion();         // No scheduling to make sure the task list does not change while we ar
 151              		.loc 1 104 0 is_stmt 1
 152 004a FFF7FEFF 		bl	OS_TASK_LeaveRegion
 105:..\SEGGER/SEGGER_SYSVIEW_embOS.c **** }
 153              		.loc 1 105 0
 154 004e 00BF     		nop
 155 0050 0837     		adds	r7, r7, #8
 156              		.cfi_def_cfa_offset 8
 157 0052 BD46     		mov	sp, r7
 158              		.cfi_def_cfa_register 13
 159              		@ sp needed
 160 0054 80BD     		pop	{r7, pc}
 161              	.L8:
 162 0056 00BF     		.align	2
 163              	.L7:
 164 0058 00000000 		.word	OS_Global
 165              		.cfi_endproc
 166              	.LFE1:
 167              		.size	_cbSendTaskList, .-_cbSendTaskList
 168              		.global	embOS_TraceAPI_SYSVIEW
 169              		.section	.rodata
 170              		.align	2
 171              		.type	embOS_TraceAPI_SYSVIEW, %object
 172              		.size	embOS_TraceAPI_SYSVIEW, 92
 173              	embOS_TraceAPI_SYSVIEW:
 174 0000 00000000 		.word	SEGGER_SYSVIEW_RecordEnterISR
 175 0004 00000000 		.word	SEGGER_SYSVIEW_RecordExitISR
 176 0008 00000000 		.word	SEGGER_SYSVIEW_RecordExitISRToScheduler
ARM GAS  C:\Users\ali\AppData\Local\Temp\ccTZGj7l.s 			page 6


 177 000c 00000000 		.word	_cbSendTaskInfo
 178 0010 00000000 		.word	SEGGER_SYSVIEW_OnTaskCreate
 179 0014 00000000 		.word	SEGGER_SYSVIEW_OnTaskStartExec
 180 0018 00000000 		.word	SEGGER_SYSVIEW_OnTaskStopExec
 181 001c 00000000 		.word	SEGGER_SYSVIEW_OnTaskStartReady
 182 0020 00000000 		.word	SEGGER_SYSVIEW_OnTaskStopReady
 183 0024 00000000 		.word	SEGGER_SYSVIEW_OnIdle
 184 0028 00000000 		.word	SEGGER_SYSVIEW_RecordVoid
 185 002c 00000000 		.word	SEGGER_SYSVIEW_RecordU32
 186 0030 00000000 		.word	SEGGER_SYSVIEW_RecordU32x2
 187 0034 00000000 		.word	SEGGER_SYSVIEW_RecordU32x3
 188 0038 00000000 		.word	SEGGER_SYSVIEW_RecordU32x4
 189 003c 00000000 		.word	SEGGER_SYSVIEW_ShrinkId
 190 0040 00000000 		.word	SEGGER_SYSVIEW_RecordEnterTimer
 191 0044 00000000 		.word	SEGGER_SYSVIEW_RecordExitTimer
 192 0048 00000000 		.word	SEGGER_SYSVIEW_RecordEndCall
 193 004c 00000000 		.word	SEGGER_SYSVIEW_RecordEndCallU32
 194 0050 00000000 		.word	SEGGER_SYSVIEW_OnTaskTerminate
 195 0054 00000000 		.word	SEGGER_SYSVIEW_RecordU32x5
 196 0058 00000000 		.word	SEGGER_SYSVIEW_NameResource
 197              		.global	SYSVIEW_X_OS_TraceAPI
 198              		.align	2
 199              		.type	SYSVIEW_X_OS_TraceAPI, %object
 200              		.size	SYSVIEW_X_OS_TraceAPI, 8
 201              	SYSVIEW_X_OS_TraceAPI:
 202 005c 00000000 		.word	OS_TIME_Get_us64
 203 0060 00000000 		.word	_cbSendTaskList
 204              		.text
 205              	.Letext0:
 206              		.file 2 "..\\..\\..\\..\\Inc/RTOS.h"
 207              		.file 3 "..\\SEGGER\\SEGGER_SYSVIEW.h"