ARM GAS  C:\Users\ali\AppData\Local\Temp\cckQBZ7R.s 			page 1


   1              		.syntax unified
   2              		.cpu cortex-m3
   3              		.fpu softvfp
   4              		.eabi_attribute 20, 1
   5              		.eabi_attribute 21, 1
   6              		.eabi_attribute 23, 3
   7              		.eabi_attribute 24, 1
   8              		.eabi_attribute 25, 1
   9              		.eabi_attribute 26, 1
  10              		.eabi_attribute 30, 6
  11              		.eabi_attribute 34, 1
  12              		.eabi_attribute 18, 4
  13              		.thumb
  14              		.syntax unified
  15              		.file	"SEGGER_RTT_Syscalls_GCC.c"
  16              		.text
  17              	.Ltext0:
  18              		.cfi_sections	.debug_frame
  19              		.section	.text._write,"ax",%progbits
  20              		.align	2
  21              		.global	_write
  22              		.thumb
  23              		.thumb_func
  24              		.type	_write, %function
  25              	_write:
  26              	.LFB0:
  27              		.file 1 "..\\SEGGER\\SEGGER_RTT_Syscalls_GCC.c"
   1:..\SEGGER/SEGGER_RTT_Syscalls_GCC.c **** /*********************************************************************
   2:..\SEGGER/SEGGER_RTT_Syscalls_GCC.c **** *                     SEGGER Microcontroller GmbH                    *
   3:..\SEGGER/SEGGER_RTT_Syscalls_GCC.c **** *                        The Embedded Experts                        *
   4:..\SEGGER/SEGGER_RTT_Syscalls_GCC.c **** **********************************************************************
   5:..\SEGGER/SEGGER_RTT_Syscalls_GCC.c **** *                                                                    *
   6:..\SEGGER/SEGGER_RTT_Syscalls_GCC.c **** *       (c) 1995 - 2022 SEGGER Microcontroller GmbH                  *
   7:..\SEGGER/SEGGER_RTT_Syscalls_GCC.c **** *                                                                    *
   8:..\SEGGER/SEGGER_RTT_Syscalls_GCC.c **** *       Internet: segger.com  Support: support_embos@segger.com      *
   9:..\SEGGER/SEGGER_RTT_Syscalls_GCC.c **** *                                                                    *
  10:..\SEGGER/SEGGER_RTT_Syscalls_GCC.c **** **********************************************************************
  11:..\SEGGER/SEGGER_RTT_Syscalls_GCC.c **** *                                                                    *
  12:..\SEGGER/SEGGER_RTT_Syscalls_GCC.c **** *       embOS * Real time operating system                           *
  13:..\SEGGER/SEGGER_RTT_Syscalls_GCC.c **** *                                                                    *
  14:..\SEGGER/SEGGER_RTT_Syscalls_GCC.c **** *       Please note:                                                 *
  15:..\SEGGER/SEGGER_RTT_Syscalls_GCC.c **** *                                                                    *
  16:..\SEGGER/SEGGER_RTT_Syscalls_GCC.c **** *       Knowledge of this file may under no circumstances            *
  17:..\SEGGER/SEGGER_RTT_Syscalls_GCC.c **** *       be used to write a similar product or a real-time            *
  18:..\SEGGER/SEGGER_RTT_Syscalls_GCC.c **** *       operating system for in-house use.                           *
  19:..\SEGGER/SEGGER_RTT_Syscalls_GCC.c **** *                                                                    *
  20:..\SEGGER/SEGGER_RTT_Syscalls_GCC.c **** *       Thank you for your fairness !                                *
  21:..\SEGGER/SEGGER_RTT_Syscalls_GCC.c **** *                                                                    *
  22:..\SEGGER/SEGGER_RTT_Syscalls_GCC.c **** **********************************************************************
  23:..\SEGGER/SEGGER_RTT_Syscalls_GCC.c **** *                                                                    *
  24:..\SEGGER/SEGGER_RTT_Syscalls_GCC.c **** *       OS version: V5.16.1.0                                        *
  25:..\SEGGER/SEGGER_RTT_Syscalls_GCC.c **** *                                                                    *
  26:..\SEGGER/SEGGER_RTT_Syscalls_GCC.c **** **********************************************************************
  27:..\SEGGER/SEGGER_RTT_Syscalls_GCC.c **** 
  28:..\SEGGER/SEGGER_RTT_Syscalls_GCC.c **** ---------------------------END-OF-HEADER------------------------------
  29:..\SEGGER/SEGGER_RTT_Syscalls_GCC.c **** File    : SEGGER_RTT_Syscalls_GCC.c
  30:..\SEGGER/SEGGER_RTT_Syscalls_GCC.c **** Purpose : Low-level functions for using printf() via RTT in GCC.
ARM GAS  C:\Users\ali\AppData\Local\Temp\cckQBZ7R.s 			page 2


  31:..\SEGGER/SEGGER_RTT_Syscalls_GCC.c ****           To use RTT for printf output, include this file in your 
  32:..\SEGGER/SEGGER_RTT_Syscalls_GCC.c ****           application.
  33:..\SEGGER/SEGGER_RTT_Syscalls_GCC.c **** Revision: $Rev: 24316 $
  34:..\SEGGER/SEGGER_RTT_Syscalls_GCC.c **** ----------------------------------------------------------------------
  35:..\SEGGER/SEGGER_RTT_Syscalls_GCC.c **** */
  36:..\SEGGER/SEGGER_RTT_Syscalls_GCC.c **** #if (defined __GNUC__) && !(defined __SES_ARM) && !(defined __CROSSWORKS_ARM) && !(defined __ARMCC_
  37:..\SEGGER/SEGGER_RTT_Syscalls_GCC.c **** 
  38:..\SEGGER/SEGGER_RTT_Syscalls_GCC.c **** #include <reent.h>  // required for _write_r
  39:..\SEGGER/SEGGER_RTT_Syscalls_GCC.c **** #include "SEGGER_RTT.h"
  40:..\SEGGER/SEGGER_RTT_Syscalls_GCC.c **** 
  41:..\SEGGER/SEGGER_RTT_Syscalls_GCC.c **** 
  42:..\SEGGER/SEGGER_RTT_Syscalls_GCC.c **** /*********************************************************************
  43:..\SEGGER/SEGGER_RTT_Syscalls_GCC.c **** *
  44:..\SEGGER/SEGGER_RTT_Syscalls_GCC.c **** *       Types
  45:..\SEGGER/SEGGER_RTT_Syscalls_GCC.c **** *
  46:..\SEGGER/SEGGER_RTT_Syscalls_GCC.c **** **********************************************************************
  47:..\SEGGER/SEGGER_RTT_Syscalls_GCC.c **** */
  48:..\SEGGER/SEGGER_RTT_Syscalls_GCC.c **** //
  49:..\SEGGER/SEGGER_RTT_Syscalls_GCC.c **** // If necessary define the _reent struct
  50:..\SEGGER/SEGGER_RTT_Syscalls_GCC.c **** // to match the one passed by the used standard library.
  51:..\SEGGER/SEGGER_RTT_Syscalls_GCC.c **** //
  52:..\SEGGER/SEGGER_RTT_Syscalls_GCC.c **** struct _reent;
  53:..\SEGGER/SEGGER_RTT_Syscalls_GCC.c **** 
  54:..\SEGGER/SEGGER_RTT_Syscalls_GCC.c **** /*********************************************************************
  55:..\SEGGER/SEGGER_RTT_Syscalls_GCC.c **** *
  56:..\SEGGER/SEGGER_RTT_Syscalls_GCC.c **** *       Function prototypes
  57:..\SEGGER/SEGGER_RTT_Syscalls_GCC.c **** *
  58:..\SEGGER/SEGGER_RTT_Syscalls_GCC.c **** **********************************************************************
  59:..\SEGGER/SEGGER_RTT_Syscalls_GCC.c **** */
  60:..\SEGGER/SEGGER_RTT_Syscalls_GCC.c **** _ssize_t _write  (int file, const void *ptr, size_t len);
  61:..\SEGGER/SEGGER_RTT_Syscalls_GCC.c **** _ssize_t _write_r(struct _reent *r, int file, const void *ptr, size_t len);
  62:..\SEGGER/SEGGER_RTT_Syscalls_GCC.c **** 
  63:..\SEGGER/SEGGER_RTT_Syscalls_GCC.c **** /*********************************************************************
  64:..\SEGGER/SEGGER_RTT_Syscalls_GCC.c **** *
  65:..\SEGGER/SEGGER_RTT_Syscalls_GCC.c **** *       Global functions
  66:..\SEGGER/SEGGER_RTT_Syscalls_GCC.c **** *
  67:..\SEGGER/SEGGER_RTT_Syscalls_GCC.c **** **********************************************************************
  68:..\SEGGER/SEGGER_RTT_Syscalls_GCC.c **** */
  69:..\SEGGER/SEGGER_RTT_Syscalls_GCC.c **** 
  70:..\SEGGER/SEGGER_RTT_Syscalls_GCC.c **** /*********************************************************************
  71:..\SEGGER/SEGGER_RTT_Syscalls_GCC.c **** *
  72:..\SEGGER/SEGGER_RTT_Syscalls_GCC.c **** *       _write()
  73:..\SEGGER/SEGGER_RTT_Syscalls_GCC.c **** *
  74:..\SEGGER/SEGGER_RTT_Syscalls_GCC.c **** * Function description
  75:..\SEGGER/SEGGER_RTT_Syscalls_GCC.c **** *   Low-level write function.
  76:..\SEGGER/SEGGER_RTT_Syscalls_GCC.c **** *   libc subroutines will use this system routine for output to all files,
  77:..\SEGGER/SEGGER_RTT_Syscalls_GCC.c **** *   including stdout.
  78:..\SEGGER/SEGGER_RTT_Syscalls_GCC.c **** *   Write data via RTT.
  79:..\SEGGER/SEGGER_RTT_Syscalls_GCC.c **** */
  80:..\SEGGER/SEGGER_RTT_Syscalls_GCC.c **** _ssize_t _write(int file, const void *ptr, size_t len) {
  28              		.loc 1 80 0
  29              		.cfi_startproc
  30              		@ args = 0, pretend = 0, frame = 16
  31              		@ frame_needed = 1, uses_anonymous_args = 0
  32 0000 80B5     		push	{r7, lr}
  33              		.cfi_def_cfa_offset 8
  34              		.cfi_offset 7, -8
ARM GAS  C:\Users\ali\AppData\Local\Temp\cckQBZ7R.s 			page 3


  35              		.cfi_offset 14, -4
  36 0002 84B0     		sub	sp, sp, #16
  37              		.cfi_def_cfa_offset 24
  38 0004 00AF     		add	r7, sp, #0
  39              		.cfi_def_cfa_register 7
  40 0006 F860     		str	r0, [r7, #12]
  41 0008 B960     		str	r1, [r7, #8]
  42 000a 7A60     		str	r2, [r7, #4]
  81:..\SEGGER/SEGGER_RTT_Syscalls_GCC.c ****   (void) file;  /* Not used, avoid warning */
  82:..\SEGGER/SEGGER_RTT_Syscalls_GCC.c ****   SEGGER_RTT_Write(0, ptr, len);
  43              		.loc 1 82 0
  44 000c 7A68     		ldr	r2, [r7, #4]
  45 000e B968     		ldr	r1, [r7, #8]
  46 0010 0020     		movs	r0, #0
  47 0012 FFF7FEFF 		bl	SEGGER_RTT_Write
  83:..\SEGGER/SEGGER_RTT_Syscalls_GCC.c ****   return len;
  48              		.loc 1 83 0
  49 0016 7B68     		ldr	r3, [r7, #4]
  84:..\SEGGER/SEGGER_RTT_Syscalls_GCC.c **** }
  50              		.loc 1 84 0
  51 0018 1846     		mov	r0, r3
  52 001a 1037     		adds	r7, r7, #16
  53              		.cfi_def_cfa_offset 8
  54 001c BD46     		mov	sp, r7
  55              		.cfi_def_cfa_register 13
  56              		@ sp needed
  57 001e 80BD     		pop	{r7, pc}
  58              		.cfi_endproc
  59              	.LFE0:
  60              		.size	_write, .-_write
  61              		.section	.text._write_r,"ax",%progbits
  62              		.align	2
  63              		.global	_write_r
  64              		.thumb
  65              		.thumb_func
  66              		.type	_write_r, %function
  67              	_write_r:
  68              	.LFB1:
  85:..\SEGGER/SEGGER_RTT_Syscalls_GCC.c **** 
  86:..\SEGGER/SEGGER_RTT_Syscalls_GCC.c **** /*********************************************************************
  87:..\SEGGER/SEGGER_RTT_Syscalls_GCC.c **** *
  88:..\SEGGER/SEGGER_RTT_Syscalls_GCC.c **** *       _write_r()
  89:..\SEGGER/SEGGER_RTT_Syscalls_GCC.c **** *
  90:..\SEGGER/SEGGER_RTT_Syscalls_GCC.c **** * Function description
  91:..\SEGGER/SEGGER_RTT_Syscalls_GCC.c **** *   Low-level reentrant write function.
  92:..\SEGGER/SEGGER_RTT_Syscalls_GCC.c **** *   libc subroutines will use this system routine for output to all files,
  93:..\SEGGER/SEGGER_RTT_Syscalls_GCC.c **** *   including stdout.
  94:..\SEGGER/SEGGER_RTT_Syscalls_GCC.c **** *   Write data via RTT.
  95:..\SEGGER/SEGGER_RTT_Syscalls_GCC.c **** */
  96:..\SEGGER/SEGGER_RTT_Syscalls_GCC.c **** _ssize_t _write_r(struct _reent *r, int file, const void *ptr, size_t len) {
  69              		.loc 1 96 0
  70              		.cfi_startproc
  71              		@ args = 0, pretend = 0, frame = 16
  72              		@ frame_needed = 1, uses_anonymous_args = 0
  73 0000 80B5     		push	{r7, lr}
  74              		.cfi_def_cfa_offset 8
  75              		.cfi_offset 7, -8
ARM GAS  C:\Users\ali\AppData\Local\Temp\cckQBZ7R.s 			page 4


  76              		.cfi_offset 14, -4
  77 0002 84B0     		sub	sp, sp, #16
  78              		.cfi_def_cfa_offset 24
  79 0004 00AF     		add	r7, sp, #0
  80              		.cfi_def_cfa_register 7
  81 0006 F860     		str	r0, [r7, #12]
  82 0008 B960     		str	r1, [r7, #8]
  83 000a 7A60     		str	r2, [r7, #4]
  84 000c 3B60     		str	r3, [r7]
  97:..\SEGGER/SEGGER_RTT_Syscalls_GCC.c ****   (void) file;  /* Not used, avoid warning */
  98:..\SEGGER/SEGGER_RTT_Syscalls_GCC.c ****   (void) r;     /* Not used, avoid warning */
  99:..\SEGGER/SEGGER_RTT_Syscalls_GCC.c ****   SEGGER_RTT_Write(0, ptr, len);
  85              		.loc 1 99 0
  86 000e 3A68     		ldr	r2, [r7]
  87 0010 7968     		ldr	r1, [r7, #4]
  88 0012 0020     		movs	r0, #0
  89 0014 FFF7FEFF 		bl	SEGGER_RTT_Write
 100:..\SEGGER/SEGGER_RTT_Syscalls_GCC.c ****   return len;
  90              		.loc 1 100 0
  91 0018 3B68     		ldr	r3, [r7]
 101:..\SEGGER/SEGGER_RTT_Syscalls_GCC.c **** }
  92              		.loc 1 101 0
  93 001a 1846     		mov	r0, r3
  94 001c 1037     		adds	r7, r7, #16
  95              		.cfi_def_cfa_offset 8
  96 001e BD46     		mov	sp, r7
  97              		.cfi_def_cfa_register 13
  98              		@ sp needed
  99 0020 80BD     		pop	{r7, pc}
 100              		.cfi_endproc
 101              	.LFE1:
 102              		.size	_write_r, .-_write_r
 103 0022 00BF     		.text
 104              	.Letext0:
 105              		.file 2 "c:\\program files (x86)\\cypress\\psoc creator\\4.4\\psoc creator\\import\\gnu\\arm\\5.4.
 106              		.file 3 "c:\\program files (x86)\\cypress\\psoc creator\\4.4\\psoc creator\\import\\gnu\\arm\\5.4.
 107              		.file 4 "c:\\program files (x86)\\cypress\\psoc creator\\4.4\\psoc creator\\import\\gnu\\arm\\5.4.
 108              		.file 5 "c:\\program files (x86)\\cypress\\psoc creator\\4.4\\psoc creator\\import\\gnu\\arm\\5.4.
 109              		.file 6 "c:\\program files (x86)\\cypress\\psoc creator\\4.4\\psoc creator\\import\\gnu\\arm\\5.4.