ARM GAS  C:\Users\ali\AppData\Local\Temp\ccbDqXFf.s 			page 1


   1              		.syntax unified
   2              		.cpu cortex-m3
   3              		.fpu softvfp
   4              		.eabi_attribute 20, 1
   5              		.eabi_attribute 21, 1
   6              		.eabi_attribute 23, 3
   7              		.eabi_attribute 24, 1
   8              		.eabi_attribute 25, 1
   9              		.eabi_attribute 26, 1
  10              		.eabi_attribute 30, 6
  11              		.eabi_attribute 34, 1
  12              		.eabi_attribute 18, 4
  13              		.thumb
  14              		.syntax unified
  15              		.file	"SEGGER_SYSVIEW_Config_embOS.c"
  16              		.text
  17              	.Ltext0:
  18              		.cfi_sections	.debug_frame
  19              		.section	.rodata
  20              		.align	2
  21              	.LC0:
  22 0000 4E3D656D 		.ascii	"N=embOS start project,O=embOS,D=CY8C5868\000"
  22      624F5320 
  22      73746172 
  22      74207072 
  22      6F6A6563 
  23 0029 000000   		.align	2
  24              	.LC1:
  25 002c 49233135 		.ascii	"I#15=SysTick\000"
  25      3D537973 
  25      5469636B 
  25      00
  26              		.section	.text._cbSendSystemDesc,"ax",%progbits
  27              		.align	2
  28              		.thumb
  29              		.thumb_func
  30              		.type	_cbSendSystemDesc, %function
  31              	_cbSendSystemDesc:
  32              	.LFB0:
  33              		.file 1 "..\\SEGGER\\SEGGER_SYSVIEW_Config_embOS.c"
   1:..\SEGGER/SEGGER_SYSVIEW_Config_embOS.c **** /*********************************************************************
   2:..\SEGGER/SEGGER_SYSVIEW_Config_embOS.c **** *                     SEGGER Microcontroller GmbH                    *
   3:..\SEGGER/SEGGER_SYSVIEW_Config_embOS.c **** *                        The Embedded Experts                        *
   4:..\SEGGER/SEGGER_SYSVIEW_Config_embOS.c **** **********************************************************************
   5:..\SEGGER/SEGGER_SYSVIEW_Config_embOS.c **** *                                                                    *
   6:..\SEGGER/SEGGER_SYSVIEW_Config_embOS.c **** *       (c) 1995 - 2022 SEGGER Microcontroller GmbH                  *
   7:..\SEGGER/SEGGER_SYSVIEW_Config_embOS.c **** *                                                                    *
   8:..\SEGGER/SEGGER_SYSVIEW_Config_embOS.c **** *       Internet: segger.com  Support: support_embos@segger.com      *
   9:..\SEGGER/SEGGER_SYSVIEW_Config_embOS.c **** *                                                                    *
  10:..\SEGGER/SEGGER_SYSVIEW_Config_embOS.c **** **********************************************************************
  11:..\SEGGER/SEGGER_SYSVIEW_Config_embOS.c **** *                                                                    *
  12:..\SEGGER/SEGGER_SYSVIEW_Config_embOS.c **** *       embOS * Real time operating system                           *
  13:..\SEGGER/SEGGER_SYSVIEW_Config_embOS.c **** *                                                                    *
  14:..\SEGGER/SEGGER_SYSVIEW_Config_embOS.c **** *       Please note:                                                 *
  15:..\SEGGER/SEGGER_SYSVIEW_Config_embOS.c **** *                                                                    *
  16:..\SEGGER/SEGGER_SYSVIEW_Config_embOS.c **** *       Knowledge of this file may under no circumstances            *
  17:..\SEGGER/SEGGER_SYSVIEW_Config_embOS.c **** *       be used to write a similar product or a real-time            *
ARM GAS  C:\Users\ali\AppData\Local\Temp\ccbDqXFf.s 			page 2


  18:..\SEGGER/SEGGER_SYSVIEW_Config_embOS.c **** *       operating system for in-house use.                           *
  19:..\SEGGER/SEGGER_SYSVIEW_Config_embOS.c **** *                                                                    *
  20:..\SEGGER/SEGGER_SYSVIEW_Config_embOS.c **** *       Thank you for your fairness !                                *
  21:..\SEGGER/SEGGER_SYSVIEW_Config_embOS.c **** *                                                                    *
  22:..\SEGGER/SEGGER_SYSVIEW_Config_embOS.c **** **********************************************************************
  23:..\SEGGER/SEGGER_SYSVIEW_Config_embOS.c **** *                                                                    *
  24:..\SEGGER/SEGGER_SYSVIEW_Config_embOS.c **** *       OS version: V5.16.1.0                                        *
  25:..\SEGGER/SEGGER_SYSVIEW_Config_embOS.c **** *                                                                    *
  26:..\SEGGER/SEGGER_SYSVIEW_Config_embOS.c **** **********************************************************************
  27:..\SEGGER/SEGGER_SYSVIEW_Config_embOS.c **** 
  28:..\SEGGER/SEGGER_SYSVIEW_Config_embOS.c **** -------------------------- END-OF-HEADER -----------------------------
  29:..\SEGGER/SEGGER_SYSVIEW_Config_embOS.c **** 
  30:..\SEGGER/SEGGER_SYSVIEW_Config_embOS.c **** File    : SEGGER_SYSVIEW_Config_embOS.c
  31:..\SEGGER/SEGGER_SYSVIEW_Config_embOS.c **** Purpose : Sample setup configuration of SystemView with embOS.
  32:..\SEGGER/SEGGER_SYSVIEW_Config_embOS.c **** Revision: $Rev: 21319 $
  33:..\SEGGER/SEGGER_SYSVIEW_Config_embOS.c **** */
  34:..\SEGGER/SEGGER_SYSVIEW_Config_embOS.c **** #include "RTOS.h"
  35:..\SEGGER/SEGGER_SYSVIEW_Config_embOS.c **** #include "SEGGER_SYSVIEW.h"
  36:..\SEGGER/SEGGER_SYSVIEW_Config_embOS.c **** #include "SEGGER_SYSVIEW_embOS.h"
  37:..\SEGGER/SEGGER_SYSVIEW_Config_embOS.c **** 
  38:..\SEGGER/SEGGER_SYSVIEW_Config_embOS.c **** /*********************************************************************
  39:..\SEGGER/SEGGER_SYSVIEW_Config_embOS.c **** *
  40:..\SEGGER/SEGGER_SYSVIEW_Config_embOS.c **** *       Defines, fixed
  41:..\SEGGER/SEGGER_SYSVIEW_Config_embOS.c **** *
  42:..\SEGGER/SEGGER_SYSVIEW_Config_embOS.c **** **********************************************************************
  43:..\SEGGER/SEGGER_SYSVIEW_Config_embOS.c **** */
  44:..\SEGGER/SEGGER_SYSVIEW_Config_embOS.c **** #define DEMCR         (*(volatile U32*) (0xE000EDFCuL))  // Debug Exception and Monitor Control Reg
  45:..\SEGGER/SEGGER_SYSVIEW_Config_embOS.c **** #define TRACEENA_BIT  (1uL << 24)                        // Trace enable bit
  46:..\SEGGER/SEGGER_SYSVIEW_Config_embOS.c **** #define DWT_CTRL      (*(volatile U32*) (0xE0001000uL))  // DWT Control Register
  47:..\SEGGER/SEGGER_SYSVIEW_Config_embOS.c **** #define NOCYCCNT_BIT  (1uL << 25)                        // Cycle counter support bit
  48:..\SEGGER/SEGGER_SYSVIEW_Config_embOS.c **** #define CYCCNTENA_BIT (1uL << 0)                         // Cycle counter enable bit
  49:..\SEGGER/SEGGER_SYSVIEW_Config_embOS.c **** //
  50:..\SEGGER/SEGGER_SYSVIEW_Config_embOS.c **** // If events will be recorded without a debug probe (J-Link) attached,
  51:..\SEGGER/SEGGER_SYSVIEW_Config_embOS.c **** // enable the cycle counter
  52:..\SEGGER/SEGGER_SYSVIEW_Config_embOS.c **** //
  53:..\SEGGER/SEGGER_SYSVIEW_Config_embOS.c **** #define ENABLE_DWT_CYCCNT (SEGGER_SYSVIEW_POST_MORTEM_MODE || SEGGER_SYSVIEW_USE_INTERNAL_RECORDER)
  54:..\SEGGER/SEGGER_SYSVIEW_Config_embOS.c **** 
  55:..\SEGGER/SEGGER_SYSVIEW_Config_embOS.c **** /*********************************************************************
  56:..\SEGGER/SEGGER_SYSVIEW_Config_embOS.c **** *
  57:..\SEGGER/SEGGER_SYSVIEW_Config_embOS.c **** *       Local functions
  58:..\SEGGER/SEGGER_SYSVIEW_Config_embOS.c **** *
  59:..\SEGGER/SEGGER_SYSVIEW_Config_embOS.c **** **********************************************************************
  60:..\SEGGER/SEGGER_SYSVIEW_Config_embOS.c **** */
  61:..\SEGGER/SEGGER_SYSVIEW_Config_embOS.c **** /*********************************************************************
  62:..\SEGGER/SEGGER_SYSVIEW_Config_embOS.c **** *
  63:..\SEGGER/SEGGER_SYSVIEW_Config_embOS.c **** *       _cbSendSystemDesc()
  64:..\SEGGER/SEGGER_SYSVIEW_Config_embOS.c **** *
  65:..\SEGGER/SEGGER_SYSVIEW_Config_embOS.c **** *  Function description
  66:..\SEGGER/SEGGER_SYSVIEW_Config_embOS.c **** *    Sends SystemView description strings.
  67:..\SEGGER/SEGGER_SYSVIEW_Config_embOS.c **** */
  68:..\SEGGER/SEGGER_SYSVIEW_Config_embOS.c **** static void _cbSendSystemDesc(void) {
  34              		.loc 1 68 0
  35              		.cfi_startproc
  36              		@ args = 0, pretend = 0, frame = 0
  37              		@ frame_needed = 1, uses_anonymous_args = 0
  38 0000 80B5     		push	{r7, lr}
  39              		.cfi_def_cfa_offset 8
ARM GAS  C:\Users\ali\AppData\Local\Temp\ccbDqXFf.s 			page 3


  40              		.cfi_offset 7, -8
  41              		.cfi_offset 14, -4
  42 0002 00AF     		add	r7, sp, #0
  43              		.cfi_def_cfa_register 7
  69:..\SEGGER/SEGGER_SYSVIEW_Config_embOS.c ****   SEGGER_SYSVIEW_SendSysDesc("N=" SEGGER_SYSVIEW_APP_NAME ",O=embOS,D=" SEGGER_SYSVIEW_DEVICE_NAME 
  44              		.loc 1 69 0
  45 0004 0348     		ldr	r0, .L2
  46 0006 FFF7FEFF 		bl	SEGGER_SYSVIEW_SendSysDesc
  70:..\SEGGER/SEGGER_SYSVIEW_Config_embOS.c **** #ifdef SEGGER_SYSVIEW_SYSDESC0
  71:..\SEGGER/SEGGER_SYSVIEW_Config_embOS.c ****   SEGGER_SYSVIEW_SendSysDesc(SEGGER_SYSVIEW_SYSDESC0);
  47              		.loc 1 71 0
  48 000a 0348     		ldr	r0, .L2+4
  49 000c FFF7FEFF 		bl	SEGGER_SYSVIEW_SendSysDesc
  72:..\SEGGER/SEGGER_SYSVIEW_Config_embOS.c **** #endif
  73:..\SEGGER/SEGGER_SYSVIEW_Config_embOS.c **** #ifdef SEGGER_SYSVIEW_SYSDESC1
  74:..\SEGGER/SEGGER_SYSVIEW_Config_embOS.c ****   SEGGER_SYSVIEW_SendSysDesc(SEGGER_SYSVIEW_SYSDESC1);
  75:..\SEGGER/SEGGER_SYSVIEW_Config_embOS.c **** #endif
  76:..\SEGGER/SEGGER_SYSVIEW_Config_embOS.c **** #ifdef SEGGER_SYSVIEW_SYSDESC2
  77:..\SEGGER/SEGGER_SYSVIEW_Config_embOS.c ****   SEGGER_SYSVIEW_SendSysDesc(SEGGER_SYSVIEW_SYSDESC2);
  78:..\SEGGER/SEGGER_SYSVIEW_Config_embOS.c **** #endif
  79:..\SEGGER/SEGGER_SYSVIEW_Config_embOS.c **** }
  50              		.loc 1 79 0
  51 0010 00BF     		nop
  52 0012 80BD     		pop	{r7, pc}
  53              	.L3:
  54              		.align	2
  55              	.L2:
  56 0014 00000000 		.word	.LC0
  57 0018 2C000000 		.word	.LC1
  58              		.cfi_endproc
  59              	.LFE0:
  60              		.size	_cbSendSystemDesc, .-_cbSendSystemDesc
  61              		.section	.text.SEGGER_SYSVIEW_Conf,"ax",%progbits
  62              		.align	2
  63              		.global	SEGGER_SYSVIEW_Conf
  64              		.thumb
  65              		.thumb_func
  66              		.type	SEGGER_SYSVIEW_Conf, %function
  67              	SEGGER_SYSVIEW_Conf:
  68              	.LFB1:
  80:..\SEGGER/SEGGER_SYSVIEW_Config_embOS.c **** 
  81:..\SEGGER/SEGGER_SYSVIEW_Config_embOS.c **** /*********************************************************************
  82:..\SEGGER/SEGGER_SYSVIEW_Config_embOS.c **** *
  83:..\SEGGER/SEGGER_SYSVIEW_Config_embOS.c **** *       Global functions
  84:..\SEGGER/SEGGER_SYSVIEW_Config_embOS.c **** *
  85:..\SEGGER/SEGGER_SYSVIEW_Config_embOS.c **** **********************************************************************
  86:..\SEGGER/SEGGER_SYSVIEW_Config_embOS.c **** */
  87:..\SEGGER/SEGGER_SYSVIEW_Config_embOS.c **** /*********************************************************************
  88:..\SEGGER/SEGGER_SYSVIEW_Config_embOS.c **** *
  89:..\SEGGER/SEGGER_SYSVIEW_Config_embOS.c **** *       SEGGER_SYSVIEW_Conf()
  90:..\SEGGER/SEGGER_SYSVIEW_Config_embOS.c **** *
  91:..\SEGGER/SEGGER_SYSVIEW_Config_embOS.c **** * Function description
  92:..\SEGGER/SEGGER_SYSVIEW_Config_embOS.c **** *   Configure and initialize SystemView and register it with embOS.
  93:..\SEGGER/SEGGER_SYSVIEW_Config_embOS.c **** *
  94:..\SEGGER/SEGGER_SYSVIEW_Config_embOS.c **** * Additional information
  95:..\SEGGER/SEGGER_SYSVIEW_Config_embOS.c **** *   If enabled, SEGGER_SYSVIEW_Conf() will also immediately start
  96:..\SEGGER/SEGGER_SYSVIEW_Config_embOS.c **** *   recording events with SystemView.
ARM GAS  C:\Users\ali\AppData\Local\Temp\ccbDqXFf.s 			page 4


  97:..\SEGGER/SEGGER_SYSVIEW_Config_embOS.c **** */
  98:..\SEGGER/SEGGER_SYSVIEW_Config_embOS.c **** void SEGGER_SYSVIEW_Conf(void) {
  69              		.loc 1 98 0
  70              		.cfi_startproc
  71              		@ args = 0, pretend = 0, frame = 0
  72              		@ frame_needed = 1, uses_anonymous_args = 0
  73 0000 80B5     		push	{r7, lr}
  74              		.cfi_def_cfa_offset 8
  75              		.cfi_offset 7, -8
  76              		.cfi_offset 14, -4
  77 0002 00AF     		add	r7, sp, #0
  78              		.cfi_def_cfa_register 7
  99:..\SEGGER/SEGGER_SYSVIEW_Config_embOS.c **** #if ENABLE_DWT_CYCCNT
 100:..\SEGGER/SEGGER_SYSVIEW_Config_embOS.c ****   //
 101:..\SEGGER/SEGGER_SYSVIEW_Config_embOS.c ****   // If no debugger is connected, the DWT must be enabled by the application
 102:..\SEGGER/SEGGER_SYSVIEW_Config_embOS.c ****   //
 103:..\SEGGER/SEGGER_SYSVIEW_Config_embOS.c ****   if ((DEMCR & TRACEENA_BIT) == 0) {
 104:..\SEGGER/SEGGER_SYSVIEW_Config_embOS.c ****     DEMCR |= TRACEENA_BIT;
 105:..\SEGGER/SEGGER_SYSVIEW_Config_embOS.c ****   }
 106:..\SEGGER/SEGGER_SYSVIEW_Config_embOS.c **** #endif
 107:..\SEGGER/SEGGER_SYSVIEW_Config_embOS.c ****   //
 108:..\SEGGER/SEGGER_SYSVIEW_Config_embOS.c ****   //  The cycle counter must be activated in order
 109:..\SEGGER/SEGGER_SYSVIEW_Config_embOS.c ****   //  to use time related functions.
 110:..\SEGGER/SEGGER_SYSVIEW_Config_embOS.c ****   //
 111:..\SEGGER/SEGGER_SYSVIEW_Config_embOS.c ****   if ((DWT_CTRL & NOCYCCNT_BIT) == 0) {       // Cycle counter supported?
  79              		.loc 1 111 0
  80 0004 0E4B     		ldr	r3, .L6
  81 0006 1B68     		ldr	r3, [r3]
  82 0008 03F00073 		and	r3, r3, #33554432
  83 000c 002B     		cmp	r3, #0
  84 000e 0BD1     		bne	.L5
 112:..\SEGGER/SEGGER_SYSVIEW_Config_embOS.c ****     if ((DWT_CTRL & CYCCNTENA_BIT) == 0) {    // Cycle counter not enabled?
  85              		.loc 1 112 0
  86 0010 0B4B     		ldr	r3, .L6
  87 0012 1B68     		ldr	r3, [r3]
  88 0014 03F00103 		and	r3, r3, #1
  89 0018 002B     		cmp	r3, #0
  90 001a 05D1     		bne	.L5
 113:..\SEGGER/SEGGER_SYSVIEW_Config_embOS.c ****       DWT_CTRL |= CYCCNTENA_BIT;              // Enable Cycle counter
  91              		.loc 1 113 0
  92 001c 084A     		ldr	r2, .L6
  93 001e 084B     		ldr	r3, .L6
  94 0020 1B68     		ldr	r3, [r3]
  95 0022 43F00103 		orr	r3, r3, #1
  96 0026 1360     		str	r3, [r2]
  97              	.L5:
 114:..\SEGGER/SEGGER_SYSVIEW_Config_embOS.c ****     }
 115:..\SEGGER/SEGGER_SYSVIEW_Config_embOS.c ****   }
 116:..\SEGGER/SEGGER_SYSVIEW_Config_embOS.c ****   SEGGER_SYSVIEW_Init(SEGGER_SYSVIEW_TIMESTAMP_FREQ, SEGGER_SYSVIEW_CPU_FREQ,
  98              		.loc 1 116 0
  99 0028 064B     		ldr	r3, .L6+4
 100 002a 074A     		ldr	r2, .L6+8
 101 002c 0749     		ldr	r1, .L6+12
 102 002e 0748     		ldr	r0, .L6+12
 103 0030 FFF7FEFF 		bl	SEGGER_SYSVIEW_Init
 117:..\SEGGER/SEGGER_SYSVIEW_Config_embOS.c ****                       &SYSVIEW_X_OS_TraceAPI, _cbSendSystemDesc);
 118:..\SEGGER/SEGGER_SYSVIEW_Config_embOS.c ****   OS_TRACE_SetAPI(&embOS_TraceAPI_SYSVIEW);  // Configure embOS to use SYSVIEW.
ARM GAS  C:\Users\ali\AppData\Local\Temp\ccbDqXFf.s 			page 5


 104              		.loc 1 118 0
 105 0034 0648     		ldr	r0, .L6+16
 106 0036 FFF7FEFF 		bl	OS_TRACE_SetAPI
 119:..\SEGGER/SEGGER_SYSVIEW_Config_embOS.c **** #if SEGGER_SYSVIEW_START_ON_INIT
 120:..\SEGGER/SEGGER_SYSVIEW_Config_embOS.c ****   SEGGER_SYSVIEW_Start();                    // Start recording to catch system initialization.
 121:..\SEGGER/SEGGER_SYSVIEW_Config_embOS.c **** #endif
 122:..\SEGGER/SEGGER_SYSVIEW_Config_embOS.c **** }
 107              		.loc 1 122 0
 108 003a 00BF     		nop
 109 003c 80BD     		pop	{r7, pc}
 110              	.L7:
 111 003e 00BF     		.align	2
 112              	.L6:
 113 0040 001000E0 		.word	-536866816
 114 0044 00000000 		.word	_cbSendSystemDesc
 115 0048 00000000 		.word	SYSVIEW_X_OS_TraceAPI
 116 004c 80F0FA02 		.word	50000000
 117 0050 00000000 		.word	embOS_TraceAPI_SYSVIEW
 118              		.cfi_endproc
 119              	.LFE1:
 120              		.size	SEGGER_SYSVIEW_Conf, .-SEGGER_SYSVIEW_Conf
 121              		.text
 122              	.Letext0:
 123              		.file 2 "..\\..\\..\\..\\Inc/RTOS.h"
 124              		.file 3 "..\\SEGGER\\SEGGER_SYSVIEW.h"
 125              		.file 4 "..\\SEGGER\\SEGGER_SYSVIEW_embOS.h"