ARM GAS  C:\Users\ali\AppData\Local\Temp\ccFHoTTu.s 			page 1


   1              		.syntax unified
   2              		.cpu cortex-m3
   3              		.fpu softvfp
   4              		.eabi_attribute 20, 1
   5              		.eabi_attribute 21, 1
   6              		.eabi_attribute 23, 3
   7              		.eabi_attribute 24, 1
   8              		.eabi_attribute 25, 1
   9              		.eabi_attribute 26, 1
  10              		.eabi_attribute 30, 6
  11              		.eabi_attribute 34, 1
  12              		.eabi_attribute 18, 4
  13              		.thumb
  14              		.syntax unified
  15              		.file	"UART_Linux_INT.c"
  16              		.text
  17              	.Ltext0:
  18              		.cfi_sections	.debug_frame
  19              		.section	.text.UART_Linux_RXISR,"ax",%progbits
  20              		.align	2
  21              		.global	UART_Linux_RXISR
  22              		.thumb
  23              		.thumb_func
  24              		.type	UART_Linux_RXISR, %function
  25              	UART_Linux_RXISR:
  26              	.LFB0:
  27              		.file 1 "Generated_Source\\PSoC5\\UART_Linux_INT.c"
   1:Generated_Source\PSoC5/UART_Linux_INT.c **** /*******************************************************************************
   2:Generated_Source\PSoC5/UART_Linux_INT.c **** * File Name: UART_LinuxINT.c
   3:Generated_Source\PSoC5/UART_Linux_INT.c **** * Version 2.50
   4:Generated_Source\PSoC5/UART_Linux_INT.c **** *
   5:Generated_Source\PSoC5/UART_Linux_INT.c **** * Description:
   6:Generated_Source\PSoC5/UART_Linux_INT.c **** *  This file provides all Interrupt Service functionality of the UART component
   7:Generated_Source\PSoC5/UART_Linux_INT.c **** *
   8:Generated_Source\PSoC5/UART_Linux_INT.c **** ********************************************************************************
   9:Generated_Source\PSoC5/UART_Linux_INT.c **** * Copyright 2008-2015, Cypress Semiconductor Corporation.  All rights reserved.
  10:Generated_Source\PSoC5/UART_Linux_INT.c **** * You may use this file only in accordance with the license, terms, conditions,
  11:Generated_Source\PSoC5/UART_Linux_INT.c **** * disclaimers, and limitations in the end user license agreement accompanying
  12:Generated_Source\PSoC5/UART_Linux_INT.c **** * the software package with which this file was provided.
  13:Generated_Source\PSoC5/UART_Linux_INT.c **** *******************************************************************************/
  14:Generated_Source\PSoC5/UART_Linux_INT.c **** 
  15:Generated_Source\PSoC5/UART_Linux_INT.c **** #include "UART_Linux.h"
  16:Generated_Source\PSoC5/UART_Linux_INT.c **** 
  17:Generated_Source\PSoC5/UART_Linux_INT.c **** 
  18:Generated_Source\PSoC5/UART_Linux_INT.c **** 
  19:Generated_Source\PSoC5/UART_Linux_INT.c **** /***************************************
  20:Generated_Source\PSoC5/UART_Linux_INT.c **** * Custom Declarations
  21:Generated_Source\PSoC5/UART_Linux_INT.c **** ***************************************/
  22:Generated_Source\PSoC5/UART_Linux_INT.c **** /* `#START CUSTOM_DECLARATIONS` Place your declaration here */
  23:Generated_Source\PSoC5/UART_Linux_INT.c **** 
  24:Generated_Source\PSoC5/UART_Linux_INT.c **** /* `#END` */
  25:Generated_Source\PSoC5/UART_Linux_INT.c **** 
  26:Generated_Source\PSoC5/UART_Linux_INT.c **** #if (UART_Linux_RX_INTERRUPT_ENABLED && (UART_Linux_RX_ENABLED || UART_Linux_HD_ENABLED))
  27:Generated_Source\PSoC5/UART_Linux_INT.c ****     /*******************************************************************************
  28:Generated_Source\PSoC5/UART_Linux_INT.c ****     * Function Name: UART_Linux_RXISR
  29:Generated_Source\PSoC5/UART_Linux_INT.c ****     ********************************************************************************
  30:Generated_Source\PSoC5/UART_Linux_INT.c ****     *
ARM GAS  C:\Users\ali\AppData\Local\Temp\ccFHoTTu.s 			page 2


  31:Generated_Source\PSoC5/UART_Linux_INT.c ****     * Summary:
  32:Generated_Source\PSoC5/UART_Linux_INT.c ****     *  Interrupt Service Routine for RX portion of the UART
  33:Generated_Source\PSoC5/UART_Linux_INT.c ****     *
  34:Generated_Source\PSoC5/UART_Linux_INT.c ****     * Parameters:
  35:Generated_Source\PSoC5/UART_Linux_INT.c ****     *  None.
  36:Generated_Source\PSoC5/UART_Linux_INT.c ****     *
  37:Generated_Source\PSoC5/UART_Linux_INT.c ****     * Return:
  38:Generated_Source\PSoC5/UART_Linux_INT.c ****     *  None.
  39:Generated_Source\PSoC5/UART_Linux_INT.c ****     *
  40:Generated_Source\PSoC5/UART_Linux_INT.c ****     * Global Variables:
  41:Generated_Source\PSoC5/UART_Linux_INT.c ****     *  UART_Linux_rxBuffer - RAM buffer pointer for save received data.
  42:Generated_Source\PSoC5/UART_Linux_INT.c ****     *  UART_Linux_rxBufferWrite - cyclic index for write to rxBuffer,
  43:Generated_Source\PSoC5/UART_Linux_INT.c ****     *     increments after each byte saved to buffer.
  44:Generated_Source\PSoC5/UART_Linux_INT.c ****     *  UART_Linux_rxBufferRead - cyclic index for read from rxBuffer,
  45:Generated_Source\PSoC5/UART_Linux_INT.c ****     *     checked to detect overflow condition.
  46:Generated_Source\PSoC5/UART_Linux_INT.c ****     *  UART_Linux_rxBufferOverflow - software overflow flag. Set to one
  47:Generated_Source\PSoC5/UART_Linux_INT.c ****     *     when UART_Linux_rxBufferWrite index overtakes
  48:Generated_Source\PSoC5/UART_Linux_INT.c ****     *     UART_Linux_rxBufferRead index.
  49:Generated_Source\PSoC5/UART_Linux_INT.c ****     *  UART_Linux_rxBufferLoopDetect - additional variable to detect overflow.
  50:Generated_Source\PSoC5/UART_Linux_INT.c ****     *     Set to one when UART_Linux_rxBufferWrite is equal to
  51:Generated_Source\PSoC5/UART_Linux_INT.c ****     *    UART_Linux_rxBufferRead
  52:Generated_Source\PSoC5/UART_Linux_INT.c ****     *  UART_Linux_rxAddressMode - this variable contains the Address mode,
  53:Generated_Source\PSoC5/UART_Linux_INT.c ****     *     selected in customizer or set by UART_SetRxAddressMode() API.
  54:Generated_Source\PSoC5/UART_Linux_INT.c ****     *  UART_Linux_rxAddressDetected - set to 1 when correct address received,
  55:Generated_Source\PSoC5/UART_Linux_INT.c ****     *     and analysed to store following addressed data bytes to the buffer.
  56:Generated_Source\PSoC5/UART_Linux_INT.c ****     *     When not correct address received, set to 0 to skip following data bytes.
  57:Generated_Source\PSoC5/UART_Linux_INT.c ****     *
  58:Generated_Source\PSoC5/UART_Linux_INT.c ****     *******************************************************************************/
  59:Generated_Source\PSoC5/UART_Linux_INT.c ****     CY_ISR(UART_Linux_RXISR)
  60:Generated_Source\PSoC5/UART_Linux_INT.c ****     {
  28              		.loc 1 60 0
  29              		.cfi_startproc
  30              		@ args = 0, pretend = 0, frame = 8
  31              		@ frame_needed = 1, uses_anonymous_args = 0
  32              		@ link register save eliminated.
  33 0000 80B4     		push	{r7}
  34              		.cfi_def_cfa_offset 4
  35              		.cfi_offset 7, -4
  36 0002 83B0     		sub	sp, sp, #12
  37              		.cfi_def_cfa_offset 16
  38 0004 00AF     		add	r7, sp, #0
  39              		.cfi_def_cfa_register 7
  61:Generated_Source\PSoC5/UART_Linux_INT.c ****         uint8 readData;
  62:Generated_Source\PSoC5/UART_Linux_INT.c ****         uint8 readStatus;
  63:Generated_Source\PSoC5/UART_Linux_INT.c ****         uint8 increment_pointer = 0u;
  40              		.loc 1 63 0
  41 0006 0023     		movs	r3, #0
  42 0008 FB71     		strb	r3, [r7, #7]
  43              	.L6:
  64:Generated_Source\PSoC5/UART_Linux_INT.c **** 
  65:Generated_Source\PSoC5/UART_Linux_INT.c ****     #if(CY_PSOC3)
  66:Generated_Source\PSoC5/UART_Linux_INT.c ****         uint8 int_en;
  67:Generated_Source\PSoC5/UART_Linux_INT.c ****     #endif /* (CY_PSOC3) */
  68:Generated_Source\PSoC5/UART_Linux_INT.c **** 
  69:Generated_Source\PSoC5/UART_Linux_INT.c ****     #ifdef UART_Linux_RXISR_ENTRY_CALLBACK
  70:Generated_Source\PSoC5/UART_Linux_INT.c ****         UART_Linux_RXISR_EntryCallback();
  71:Generated_Source\PSoC5/UART_Linux_INT.c ****     #endif /* UART_Linux_RXISR_ENTRY_CALLBACK */
ARM GAS  C:\Users\ali\AppData\Local\Temp\ccFHoTTu.s 			page 3


  72:Generated_Source\PSoC5/UART_Linux_INT.c **** 
  73:Generated_Source\PSoC5/UART_Linux_INT.c ****         /* User code required at start of ISR */
  74:Generated_Source\PSoC5/UART_Linux_INT.c ****         /* `#START UART_Linux_RXISR_START` */
  75:Generated_Source\PSoC5/UART_Linux_INT.c **** 
  76:Generated_Source\PSoC5/UART_Linux_INT.c ****         /* `#END` */
  77:Generated_Source\PSoC5/UART_Linux_INT.c **** 
  78:Generated_Source\PSoC5/UART_Linux_INT.c ****     #if(CY_PSOC3)   /* Make sure nested interrupt is enabled */
  79:Generated_Source\PSoC5/UART_Linux_INT.c ****         int_en = EA;
  80:Generated_Source\PSoC5/UART_Linux_INT.c ****         CyGlobalIntEnable;
  81:Generated_Source\PSoC5/UART_Linux_INT.c ****     #endif /* (CY_PSOC3) */
  82:Generated_Source\PSoC5/UART_Linux_INT.c **** 
  83:Generated_Source\PSoC5/UART_Linux_INT.c ****         do
  84:Generated_Source\PSoC5/UART_Linux_INT.c ****         {
  85:Generated_Source\PSoC5/UART_Linux_INT.c ****             /* Read receiver status register */
  86:Generated_Source\PSoC5/UART_Linux_INT.c ****             readStatus = UART_Linux_RXSTATUS_REG;
  44              		.loc 1 86 0
  45 000a 2C4B     		ldr	r3, .L7
  46 000c 1B78     		ldrb	r3, [r3]
  47 000e BB71     		strb	r3, [r7, #6]
  87:Generated_Source\PSoC5/UART_Linux_INT.c ****             /* Copy the same status to readData variable for backward compatibility support 
  88:Generated_Source\PSoC5/UART_Linux_INT.c ****             *  of the user code in UART_Linux_RXISR_ERROR` section. 
  89:Generated_Source\PSoC5/UART_Linux_INT.c ****             */
  90:Generated_Source\PSoC5/UART_Linux_INT.c ****             readData = readStatus;
  48              		.loc 1 90 0
  49 0010 BB79     		ldrb	r3, [r7, #6]
  50 0012 7B71     		strb	r3, [r7, #5]
  91:Generated_Source\PSoC5/UART_Linux_INT.c **** 
  92:Generated_Source\PSoC5/UART_Linux_INT.c ****             if((readStatus & (UART_Linux_RX_STS_BREAK | 
  93:Generated_Source\PSoC5/UART_Linux_INT.c ****                             UART_Linux_RX_STS_PAR_ERROR |
  94:Generated_Source\PSoC5/UART_Linux_INT.c ****                             UART_Linux_RX_STS_STOP_ERROR | 
  95:Generated_Source\PSoC5/UART_Linux_INT.c ****                             UART_Linux_RX_STS_OVERRUN)) != 0u)
  51              		.loc 1 95 0
  52 0014 BB79     		ldrb	r3, [r7, #6]	@ zero_extendqisi2
  53 0016 03F01E03 		and	r3, r3, #30
  92:Generated_Source\PSoC5/UART_Linux_INT.c ****                             UART_Linux_RX_STS_PAR_ERROR |
  54              		.loc 1 92 0
  55 001a 002B     		cmp	r3, #0
  56 001c 0CD0     		beq	.L2
  96:Generated_Source\PSoC5/UART_Linux_INT.c ****             {
  97:Generated_Source\PSoC5/UART_Linux_INT.c ****                 /* ERROR handling. */
  98:Generated_Source\PSoC5/UART_Linux_INT.c ****                 UART_Linux_errorStatus |= readStatus & ( UART_Linux_RX_STS_BREAK | 
  57              		.loc 1 98 0
  58 001e 97F90630 		ldrsb	r3, [r7, #6]
  59 0022 03F01E03 		and	r3, r3, #30
  60 0026 5AB2     		sxtb	r2, r3
  61 0028 254B     		ldr	r3, .L7+4
  62 002a 1B78     		ldrb	r3, [r3]	@ zero_extendqisi2
  63 002c 5BB2     		sxtb	r3, r3
  64 002e 1343     		orrs	r3, r3, r2
  65 0030 5BB2     		sxtb	r3, r3
  66 0032 DAB2     		uxtb	r2, r3
  67 0034 224B     		ldr	r3, .L7+4
  68 0036 1A70     		strb	r2, [r3]
  69              	.L2:
  99:Generated_Source\PSoC5/UART_Linux_INT.c ****                                                             UART_Linux_RX_STS_PAR_ERROR | 
 100:Generated_Source\PSoC5/UART_Linux_INT.c ****                                                             UART_Linux_RX_STS_STOP_ERROR | 
 101:Generated_Source\PSoC5/UART_Linux_INT.c ****                                                             UART_Linux_RX_STS_OVERRUN);
ARM GAS  C:\Users\ali\AppData\Local\Temp\ccFHoTTu.s 			page 4


 102:Generated_Source\PSoC5/UART_Linux_INT.c ****                 /* `#START UART_Linux_RXISR_ERROR` */
 103:Generated_Source\PSoC5/UART_Linux_INT.c **** 
 104:Generated_Source\PSoC5/UART_Linux_INT.c ****                 /* `#END` */
 105:Generated_Source\PSoC5/UART_Linux_INT.c ****                 
 106:Generated_Source\PSoC5/UART_Linux_INT.c ****             #ifdef UART_Linux_RXISR_ERROR_CALLBACK
 107:Generated_Source\PSoC5/UART_Linux_INT.c ****                 UART_Linux_RXISR_ERROR_Callback();
 108:Generated_Source\PSoC5/UART_Linux_INT.c ****             #endif /* UART_Linux_RXISR_ERROR_CALLBACK */
 109:Generated_Source\PSoC5/UART_Linux_INT.c ****             }
 110:Generated_Source\PSoC5/UART_Linux_INT.c ****             
 111:Generated_Source\PSoC5/UART_Linux_INT.c ****             if((readStatus & UART_Linux_RX_STS_FIFO_NOTEMPTY) != 0u)
  70              		.loc 1 111 0
  71 0038 BB79     		ldrb	r3, [r7, #6]	@ zero_extendqisi2
  72 003a 03F02003 		and	r3, r3, #32
  73 003e 002B     		cmp	r3, #0
  74 0040 31D0     		beq	.L3
 112:Generated_Source\PSoC5/UART_Linux_INT.c ****             {
 113:Generated_Source\PSoC5/UART_Linux_INT.c ****                 /* Read data from the RX data register */
 114:Generated_Source\PSoC5/UART_Linux_INT.c ****                 readData = UART_Linux_RXDATA_REG;
  75              		.loc 1 114 0
  76 0042 204B     		ldr	r3, .L7+8
  77 0044 1B78     		ldrb	r3, [r3]
  78 0046 7B71     		strb	r3, [r7, #5]
 115:Generated_Source\PSoC5/UART_Linux_INT.c ****             #if (UART_Linux_RXHW_ADDRESS_ENABLED)
 116:Generated_Source\PSoC5/UART_Linux_INT.c ****                 if(UART_Linux_rxAddressMode == (uint8)UART_Linux__B_UART__AM_SW_DETECT_TO_BUFFER)
 117:Generated_Source\PSoC5/UART_Linux_INT.c ****                 {
 118:Generated_Source\PSoC5/UART_Linux_INT.c ****                     if((readStatus & UART_Linux_RX_STS_MRKSPC) != 0u)
 119:Generated_Source\PSoC5/UART_Linux_INT.c ****                     {
 120:Generated_Source\PSoC5/UART_Linux_INT.c ****                         if ((readStatus & UART_Linux_RX_STS_ADDR_MATCH) != 0u)
 121:Generated_Source\PSoC5/UART_Linux_INT.c ****                         {
 122:Generated_Source\PSoC5/UART_Linux_INT.c ****                             UART_Linux_rxAddressDetected = 1u;
 123:Generated_Source\PSoC5/UART_Linux_INT.c ****                         }
 124:Generated_Source\PSoC5/UART_Linux_INT.c ****                         else
 125:Generated_Source\PSoC5/UART_Linux_INT.c ****                         {
 126:Generated_Source\PSoC5/UART_Linux_INT.c ****                             UART_Linux_rxAddressDetected = 0u;
 127:Generated_Source\PSoC5/UART_Linux_INT.c ****                         }
 128:Generated_Source\PSoC5/UART_Linux_INT.c ****                     }
 129:Generated_Source\PSoC5/UART_Linux_INT.c ****                     if(UART_Linux_rxAddressDetected != 0u)
 130:Generated_Source\PSoC5/UART_Linux_INT.c ****                     {   /* Store only addressed data */
 131:Generated_Source\PSoC5/UART_Linux_INT.c ****                         UART_Linux_rxBuffer[UART_Linux_rxBufferWrite] = readData;
 132:Generated_Source\PSoC5/UART_Linux_INT.c ****                         increment_pointer = 1u;
 133:Generated_Source\PSoC5/UART_Linux_INT.c ****                     }
 134:Generated_Source\PSoC5/UART_Linux_INT.c ****                 }
 135:Generated_Source\PSoC5/UART_Linux_INT.c ****                 else /* Without software addressing */
 136:Generated_Source\PSoC5/UART_Linux_INT.c ****                 {
 137:Generated_Source\PSoC5/UART_Linux_INT.c ****                     UART_Linux_rxBuffer[UART_Linux_rxBufferWrite] = readData;
 138:Generated_Source\PSoC5/UART_Linux_INT.c ****                     increment_pointer = 1u;
 139:Generated_Source\PSoC5/UART_Linux_INT.c ****                 }
 140:Generated_Source\PSoC5/UART_Linux_INT.c ****             #else  /* Without addressing */
 141:Generated_Source\PSoC5/UART_Linux_INT.c ****                 UART_Linux_rxBuffer[UART_Linux_rxBufferWrite] = readData;
  79              		.loc 1 141 0
  80 0048 1F4B     		ldr	r3, .L7+12
  81 004a 1B88     		ldrh	r3, [r3]	@ movhi
  82 004c 9BB2     		uxth	r3, r3
  83 004e 1946     		mov	r1, r3
  84 0050 1E4A     		ldr	r2, .L7+16
  85 0052 7B79     		ldrb	r3, [r7, #5]
  86 0054 5354     		strb	r3, [r2, r1]
ARM GAS  C:\Users\ali\AppData\Local\Temp\ccFHoTTu.s 			page 5


 142:Generated_Source\PSoC5/UART_Linux_INT.c ****                 increment_pointer = 1u;
  87              		.loc 1 142 0
  88 0056 0123     		movs	r3, #1
  89 0058 FB71     		strb	r3, [r7, #7]
 143:Generated_Source\PSoC5/UART_Linux_INT.c ****             #endif /* (UART_Linux_RXHW_ADDRESS_ENABLED) */
 144:Generated_Source\PSoC5/UART_Linux_INT.c **** 
 145:Generated_Source\PSoC5/UART_Linux_INT.c ****                 /* Do not increment buffer pointer when skip not addressed data */
 146:Generated_Source\PSoC5/UART_Linux_INT.c ****                 if(increment_pointer != 0u)
  90              		.loc 1 146 0
  91 005a FB79     		ldrb	r3, [r7, #7]	@ zero_extendqisi2
  92 005c 002B     		cmp	r3, #0
  93 005e 22D0     		beq	.L3
 147:Generated_Source\PSoC5/UART_Linux_INT.c ****                 {
 148:Generated_Source\PSoC5/UART_Linux_INT.c ****                     if(UART_Linux_rxBufferLoopDetect != 0u)
  94              		.loc 1 148 0
  95 0060 1B4B     		ldr	r3, .L7+20
  96 0062 1B78     		ldrb	r3, [r3]
  97 0064 DBB2     		uxtb	r3, r3
  98 0066 002B     		cmp	r3, #0
  99 0068 02D0     		beq	.L4
 149:Generated_Source\PSoC5/UART_Linux_INT.c ****                     {   /* Set Software Buffer status Overflow */
 150:Generated_Source\PSoC5/UART_Linux_INT.c ****                         UART_Linux_rxBufferOverflow = 1u;
 100              		.loc 1 150 0
 101 006a 1A4B     		ldr	r3, .L7+24
 102 006c 0122     		movs	r2, #1
 103 006e 1A70     		strb	r2, [r3]
 104              	.L4:
 151:Generated_Source\PSoC5/UART_Linux_INT.c ****                     }
 152:Generated_Source\PSoC5/UART_Linux_INT.c ****                     /* Set next pointer. */
 153:Generated_Source\PSoC5/UART_Linux_INT.c ****                     UART_Linux_rxBufferWrite++;
 105              		.loc 1 153 0
 106 0070 154B     		ldr	r3, .L7+12
 107 0072 1B88     		ldrh	r3, [r3]	@ movhi
 108 0074 9BB2     		uxth	r3, r3
 109 0076 0133     		adds	r3, r3, #1
 110 0078 9AB2     		uxth	r2, r3
 111 007a 134B     		ldr	r3, .L7+12
 112 007c 1A80     		strh	r2, [r3]	@ movhi
 154:Generated_Source\PSoC5/UART_Linux_INT.c **** 
 155:Generated_Source\PSoC5/UART_Linux_INT.c ****                     /* Check pointer for a loop condition */
 156:Generated_Source\PSoC5/UART_Linux_INT.c ****                     if(UART_Linux_rxBufferWrite >= UART_Linux_RX_BUFFER_SIZE)
 113              		.loc 1 156 0
 114 007e 124B     		ldr	r3, .L7+12
 115 0080 1B88     		ldrh	r3, [r3]	@ movhi
 116 0082 9BB2     		uxth	r3, r3
 117 0084 B3F5806F 		cmp	r3, #1024
 118 0088 02D3     		bcc	.L5
 157:Generated_Source\PSoC5/UART_Linux_INT.c ****                     {
 158:Generated_Source\PSoC5/UART_Linux_INT.c ****                         UART_Linux_rxBufferWrite = 0u;
 119              		.loc 1 158 0
 120 008a 0F4B     		ldr	r3, .L7+12
 121 008c 0022     		movs	r2, #0
 122 008e 1A80     		strh	r2, [r3]	@ movhi
 123              	.L5:
 159:Generated_Source\PSoC5/UART_Linux_INT.c ****                     }
 160:Generated_Source\PSoC5/UART_Linux_INT.c **** 
 161:Generated_Source\PSoC5/UART_Linux_INT.c ****                     /* Detect pre-overload condition and set flag */
ARM GAS  C:\Users\ali\AppData\Local\Temp\ccFHoTTu.s 			page 6


 162:Generated_Source\PSoC5/UART_Linux_INT.c ****                     if(UART_Linux_rxBufferWrite == UART_Linux_rxBufferRead)
 124              		.loc 1 162 0
 125 0090 0D4B     		ldr	r3, .L7+12
 126 0092 1B88     		ldrh	r3, [r3]	@ movhi
 127 0094 9AB2     		uxth	r2, r3
 128 0096 104B     		ldr	r3, .L7+28
 129 0098 1B88     		ldrh	r3, [r3]	@ movhi
 130 009a 9BB2     		uxth	r3, r3
 131 009c 9A42     		cmp	r2, r3
 132 009e 02D1     		bne	.L3
 163:Generated_Source\PSoC5/UART_Linux_INT.c ****                     {
 164:Generated_Source\PSoC5/UART_Linux_INT.c ****                         UART_Linux_rxBufferLoopDetect = 1u;
 133              		.loc 1 164 0
 134 00a0 0B4B     		ldr	r3, .L7+20
 135 00a2 0122     		movs	r2, #1
 136 00a4 1A70     		strb	r2, [r3]
 137              	.L3:
 165:Generated_Source\PSoC5/UART_Linux_INT.c ****                         /* When Hardware Flow Control selected */
 166:Generated_Source\PSoC5/UART_Linux_INT.c ****                         #if (UART_Linux_FLOW_CONTROL != 0u)
 167:Generated_Source\PSoC5/UART_Linux_INT.c ****                             /* Disable RX interrupt mask, it is enabled when user read data from th
 168:Generated_Source\PSoC5/UART_Linux_INT.c ****                             UART_Linux_RXSTATUS_MASK_REG  &= (uint8)~UART_Linux_RX_STS_FIFO_NOTEMPT
 169:Generated_Source\PSoC5/UART_Linux_INT.c ****                             CyIntClearPending(UART_Linux_RX_VECT_NUM);
 170:Generated_Source\PSoC5/UART_Linux_INT.c ****                             break; /* Break the reading of the FIFO loop, leave the data there for 
 171:Generated_Source\PSoC5/UART_Linux_INT.c ****                         #endif /* (UART_Linux_FLOW_CONTROL != 0u) */
 172:Generated_Source\PSoC5/UART_Linux_INT.c ****                     }
 173:Generated_Source\PSoC5/UART_Linux_INT.c ****                 }
 174:Generated_Source\PSoC5/UART_Linux_INT.c ****             }
 175:Generated_Source\PSoC5/UART_Linux_INT.c ****         }while((readStatus & UART_Linux_RX_STS_FIFO_NOTEMPTY) != 0u);
 138              		.loc 1 175 0
 139 00a6 BB79     		ldrb	r3, [r7, #6]	@ zero_extendqisi2
 140 00a8 03F02003 		and	r3, r3, #32
 141 00ac 002B     		cmp	r3, #0
 142 00ae ACD1     		bne	.L6
 176:Generated_Source\PSoC5/UART_Linux_INT.c **** 
 177:Generated_Source\PSoC5/UART_Linux_INT.c ****         /* User code required at end of ISR (Optional) */
 178:Generated_Source\PSoC5/UART_Linux_INT.c ****         /* `#START UART_Linux_RXISR_END` */
 179:Generated_Source\PSoC5/UART_Linux_INT.c **** 
 180:Generated_Source\PSoC5/UART_Linux_INT.c ****         /* `#END` */
 181:Generated_Source\PSoC5/UART_Linux_INT.c **** 
 182:Generated_Source\PSoC5/UART_Linux_INT.c ****     #ifdef UART_Linux_RXISR_EXIT_CALLBACK
 183:Generated_Source\PSoC5/UART_Linux_INT.c ****         UART_Linux_RXISR_ExitCallback();
 184:Generated_Source\PSoC5/UART_Linux_INT.c ****     #endif /* UART_Linux_RXISR_EXIT_CALLBACK */
 185:Generated_Source\PSoC5/UART_Linux_INT.c **** 
 186:Generated_Source\PSoC5/UART_Linux_INT.c ****     #if(CY_PSOC3)
 187:Generated_Source\PSoC5/UART_Linux_INT.c ****         EA = int_en;
 188:Generated_Source\PSoC5/UART_Linux_INT.c ****     #endif /* (CY_PSOC3) */
 189:Generated_Source\PSoC5/UART_Linux_INT.c ****     }
 143              		.loc 1 189 0
 144 00b0 00BF     		nop
 145 00b2 0C37     		adds	r7, r7, #12
 146              		.cfi_def_cfa_offset 4
 147 00b4 BD46     		mov	sp, r7
 148              		.cfi_def_cfa_register 13
 149              		@ sp needed
 150 00b6 80BC     		pop	{r7}
 151              		.cfi_restore 7
 152              		.cfi_def_cfa_offset 0
ARM GAS  C:\Users\ali\AppData\Local\Temp\ccFHoTTu.s 			page 7


 153 00b8 7047     		bx	lr
 154              	.L8:
 155 00ba 00BF     		.align	2
 156              	.L7:
 157 00bc 65640040 		.word	1073767525
 158 00c0 00000000 		.word	UART_Linux_errorStatus
 159 00c4 45640040 		.word	1073767493
 160 00c8 00000000 		.word	UART_Linux_rxBufferWrite
 161 00cc 00000000 		.word	UART_Linux_rxBuffer
 162 00d0 00000000 		.word	UART_Linux_rxBufferLoopDetect
 163 00d4 00000000 		.word	UART_Linux_rxBufferOverflow
 164 00d8 00000000 		.word	UART_Linux_rxBufferRead
 165              		.cfi_endproc
 166              	.LFE0:
 167              		.size	UART_Linux_RXISR, .-UART_Linux_RXISR
 168              		.section	.text.UART_Linux_TXISR,"ax",%progbits
 169              		.align	2
 170              		.global	UART_Linux_TXISR
 171              		.thumb
 172              		.thumb_func
 173              		.type	UART_Linux_TXISR, %function
 174              	UART_Linux_TXISR:
 175              	.LFB1:
 190:Generated_Source\PSoC5/UART_Linux_INT.c ****     
 191:Generated_Source\PSoC5/UART_Linux_INT.c **** #endif /* (UART_Linux_RX_INTERRUPT_ENABLED && (UART_Linux_RX_ENABLED || UART_Linux_HD_ENABLED)) */
 192:Generated_Source\PSoC5/UART_Linux_INT.c **** 
 193:Generated_Source\PSoC5/UART_Linux_INT.c **** 
 194:Generated_Source\PSoC5/UART_Linux_INT.c **** #if (UART_Linux_TX_INTERRUPT_ENABLED && UART_Linux_TX_ENABLED)
 195:Generated_Source\PSoC5/UART_Linux_INT.c ****     /*******************************************************************************
 196:Generated_Source\PSoC5/UART_Linux_INT.c ****     * Function Name: UART_Linux_TXISR
 197:Generated_Source\PSoC5/UART_Linux_INT.c ****     ********************************************************************************
 198:Generated_Source\PSoC5/UART_Linux_INT.c ****     *
 199:Generated_Source\PSoC5/UART_Linux_INT.c ****     * Summary:
 200:Generated_Source\PSoC5/UART_Linux_INT.c ****     * Interrupt Service Routine for the TX portion of the UART
 201:Generated_Source\PSoC5/UART_Linux_INT.c ****     *
 202:Generated_Source\PSoC5/UART_Linux_INT.c ****     * Parameters:
 203:Generated_Source\PSoC5/UART_Linux_INT.c ****     *  None.
 204:Generated_Source\PSoC5/UART_Linux_INT.c ****     *
 205:Generated_Source\PSoC5/UART_Linux_INT.c ****     * Return:
 206:Generated_Source\PSoC5/UART_Linux_INT.c ****     *  None.
 207:Generated_Source\PSoC5/UART_Linux_INT.c ****     *
 208:Generated_Source\PSoC5/UART_Linux_INT.c ****     * Global Variables:
 209:Generated_Source\PSoC5/UART_Linux_INT.c ****     *  UART_Linux_txBuffer - RAM buffer pointer for transmit data from.
 210:Generated_Source\PSoC5/UART_Linux_INT.c ****     *  UART_Linux_txBufferRead - cyclic index for read and transmit data
 211:Generated_Source\PSoC5/UART_Linux_INT.c ****     *     from txBuffer, increments after each transmitted byte.
 212:Generated_Source\PSoC5/UART_Linux_INT.c ****     *  UART_Linux_rxBufferWrite - cyclic index for write to txBuffer,
 213:Generated_Source\PSoC5/UART_Linux_INT.c ****     *     checked to detect available for transmission bytes.
 214:Generated_Source\PSoC5/UART_Linux_INT.c ****     *
 215:Generated_Source\PSoC5/UART_Linux_INT.c ****     *******************************************************************************/
 216:Generated_Source\PSoC5/UART_Linux_INT.c ****     CY_ISR(UART_Linux_TXISR)
 217:Generated_Source\PSoC5/UART_Linux_INT.c ****     {
 176              		.loc 1 217 0
 177              		.cfi_startproc
 178              		@ args = 0, pretend = 0, frame = 0
 179              		@ frame_needed = 1, uses_anonymous_args = 0
 180              		@ link register save eliminated.
 181 0000 80B4     		push	{r7}
ARM GAS  C:\Users\ali\AppData\Local\Temp\ccFHoTTu.s 			page 8


 182              		.cfi_def_cfa_offset 4
 183              		.cfi_offset 7, -4
 184 0002 00AF     		add	r7, sp, #0
 185              		.cfi_def_cfa_register 7
 218:Generated_Source\PSoC5/UART_Linux_INT.c ****     #if(CY_PSOC3)
 219:Generated_Source\PSoC5/UART_Linux_INT.c ****         uint8 int_en;
 220:Generated_Source\PSoC5/UART_Linux_INT.c ****     #endif /* (CY_PSOC3) */
 221:Generated_Source\PSoC5/UART_Linux_INT.c **** 
 222:Generated_Source\PSoC5/UART_Linux_INT.c ****     #ifdef UART_Linux_TXISR_ENTRY_CALLBACK
 223:Generated_Source\PSoC5/UART_Linux_INT.c ****         UART_Linux_TXISR_EntryCallback();
 224:Generated_Source\PSoC5/UART_Linux_INT.c ****     #endif /* UART_Linux_TXISR_ENTRY_CALLBACK */
 225:Generated_Source\PSoC5/UART_Linux_INT.c **** 
 226:Generated_Source\PSoC5/UART_Linux_INT.c ****         /* User code required at start of ISR */
 227:Generated_Source\PSoC5/UART_Linux_INT.c ****         /* `#START UART_Linux_TXISR_START` */
 228:Generated_Source\PSoC5/UART_Linux_INT.c **** 
 229:Generated_Source\PSoC5/UART_Linux_INT.c ****         /* `#END` */
 230:Generated_Source\PSoC5/UART_Linux_INT.c **** 
 231:Generated_Source\PSoC5/UART_Linux_INT.c ****     #if(CY_PSOC3)   /* Make sure nested interrupt is enabled */
 232:Generated_Source\PSoC5/UART_Linux_INT.c ****         int_en = EA;
 233:Generated_Source\PSoC5/UART_Linux_INT.c ****         CyGlobalIntEnable;
 234:Generated_Source\PSoC5/UART_Linux_INT.c ****     #endif /* (CY_PSOC3) */
 235:Generated_Source\PSoC5/UART_Linux_INT.c **** 
 236:Generated_Source\PSoC5/UART_Linux_INT.c ****         while((UART_Linux_txBufferRead != UART_Linux_txBufferWrite) &&
 186              		.loc 1 236 0
 187 0004 18E0     		b	.L10
 188              	.L13:
 237:Generated_Source\PSoC5/UART_Linux_INT.c ****              ((UART_Linux_TXSTATUS_REG & UART_Linux_TX_STS_FIFO_FULL) == 0u))
 238:Generated_Source\PSoC5/UART_Linux_INT.c ****         {
 239:Generated_Source\PSoC5/UART_Linux_INT.c ****             /* Check pointer wrap around */
 240:Generated_Source\PSoC5/UART_Linux_INT.c ****             if(UART_Linux_txBufferRead >= UART_Linux_TX_BUFFER_SIZE)
 189              		.loc 1 240 0
 190 0006 154B     		ldr	r3, .L15
 191 0008 1B88     		ldrh	r3, [r3]	@ movhi
 192 000a 9BB2     		uxth	r3, r3
 193 000c B3F5806F 		cmp	r3, #1024
 194 0010 02D3     		bcc	.L11
 241:Generated_Source\PSoC5/UART_Linux_INT.c ****             {
 242:Generated_Source\PSoC5/UART_Linux_INT.c ****                 UART_Linux_txBufferRead = 0u;
 195              		.loc 1 242 0
 196 0012 124B     		ldr	r3, .L15
 197 0014 0022     		movs	r2, #0
 198 0016 1A80     		strh	r2, [r3]	@ movhi
 199              	.L11:
 243:Generated_Source\PSoC5/UART_Linux_INT.c ****             }
 244:Generated_Source\PSoC5/UART_Linux_INT.c **** 
 245:Generated_Source\PSoC5/UART_Linux_INT.c ****             UART_Linux_TXDATA_REG = UART_Linux_txBuffer[UART_Linux_txBufferRead];
 200              		.loc 1 245 0
 201 0018 114B     		ldr	r3, .L15+4
 202 001a 104A     		ldr	r2, .L15
 203 001c 1288     		ldrh	r2, [r2]	@ movhi
 204 001e 92B2     		uxth	r2, r2
 205 0020 1146     		mov	r1, r2
 206 0022 104A     		ldr	r2, .L15+8
 207 0024 525C     		ldrb	r2, [r2, r1]
 208 0026 D2B2     		uxtb	r2, r2
 209 0028 1A70     		strb	r2, [r3]
 246:Generated_Source\PSoC5/UART_Linux_INT.c **** 
ARM GAS  C:\Users\ali\AppData\Local\Temp\ccFHoTTu.s 			page 9


 247:Generated_Source\PSoC5/UART_Linux_INT.c ****             /* Set next pointer */
 248:Generated_Source\PSoC5/UART_Linux_INT.c ****             UART_Linux_txBufferRead++;
 210              		.loc 1 248 0
 211 002a 0C4B     		ldr	r3, .L15
 212 002c 1B88     		ldrh	r3, [r3]	@ movhi
 213 002e 9BB2     		uxth	r3, r3
 214 0030 0133     		adds	r3, r3, #1
 215 0032 9AB2     		uxth	r2, r3
 216 0034 094B     		ldr	r3, .L15
 217 0036 1A80     		strh	r2, [r3]	@ movhi
 218              	.L10:
 236:Generated_Source\PSoC5/UART_Linux_INT.c ****              ((UART_Linux_TXSTATUS_REG & UART_Linux_TX_STS_FIFO_FULL) == 0u))
 219              		.loc 1 236 0
 220 0038 084B     		ldr	r3, .L15
 221 003a 1B88     		ldrh	r3, [r3]	@ movhi
 222 003c 9AB2     		uxth	r2, r3
 223 003e 0A4B     		ldr	r3, .L15+12
 224 0040 1B88     		ldrh	r3, [r3]
 225 0042 9A42     		cmp	r2, r3
 226 0044 06D0     		beq	.L14
 237:Generated_Source\PSoC5/UART_Linux_INT.c ****         {
 227              		.loc 1 237 0 discriminator 1
 228 0046 094B     		ldr	r3, .L15+16
 229 0048 1B78     		ldrb	r3, [r3]
 230 004a DBB2     		uxtb	r3, r3
 231 004c 03F00403 		and	r3, r3, #4
 236:Generated_Source\PSoC5/UART_Linux_INT.c ****              ((UART_Linux_TXSTATUS_REG & UART_Linux_TX_STS_FIFO_FULL) == 0u))
 232              		.loc 1 236 0 discriminator 1
 233 0050 002B     		cmp	r3, #0
 234 0052 D8D0     		beq	.L13
 235              	.L14:
 249:Generated_Source\PSoC5/UART_Linux_INT.c ****         }
 250:Generated_Source\PSoC5/UART_Linux_INT.c **** 
 251:Generated_Source\PSoC5/UART_Linux_INT.c ****         /* User code required at end of ISR (Optional) */
 252:Generated_Source\PSoC5/UART_Linux_INT.c ****         /* `#START UART_Linux_TXISR_END` */
 253:Generated_Source\PSoC5/UART_Linux_INT.c **** 
 254:Generated_Source\PSoC5/UART_Linux_INT.c ****         /* `#END` */
 255:Generated_Source\PSoC5/UART_Linux_INT.c **** 
 256:Generated_Source\PSoC5/UART_Linux_INT.c ****     #ifdef UART_Linux_TXISR_EXIT_CALLBACK
 257:Generated_Source\PSoC5/UART_Linux_INT.c ****         UART_Linux_TXISR_ExitCallback();
 258:Generated_Source\PSoC5/UART_Linux_INT.c ****     #endif /* UART_Linux_TXISR_EXIT_CALLBACK */
 259:Generated_Source\PSoC5/UART_Linux_INT.c **** 
 260:Generated_Source\PSoC5/UART_Linux_INT.c ****     #if(CY_PSOC3)
 261:Generated_Source\PSoC5/UART_Linux_INT.c ****         EA = int_en;
 262:Generated_Source\PSoC5/UART_Linux_INT.c ****     #endif /* (CY_PSOC3) */
 263:Generated_Source\PSoC5/UART_Linux_INT.c ****    }
 236              		.loc 1 263 0
 237 0054 00BF     		nop
 238 0056 BD46     		mov	sp, r7
 239              		.cfi_def_cfa_register 13
 240              		@ sp needed
 241 0058 80BC     		pop	{r7}
 242              		.cfi_restore 7
 243              		.cfi_def_cfa_offset 0
 244 005a 7047     		bx	lr
 245              	.L16:
 246              		.align	2
ARM GAS  C:\Users\ali\AppData\Local\Temp\ccFHoTTu.s 			page 10


 247              	.L15:
 248 005c 00000000 		.word	UART_Linux_txBufferRead
 249 0060 46650040 		.word	1073767750
 250 0064 00000000 		.word	UART_Linux_txBuffer
 251 0068 00000000 		.word	UART_Linux_txBufferWrite
 252 006c 66650040 		.word	1073767782
 253              		.cfi_endproc
 254              	.LFE1:
 255              		.size	UART_Linux_TXISR, .-UART_Linux_TXISR
 256              		.text
 257              	.Letext0:
 258              		.file 2 "Generated_Source\\PSoC5\\cytypes.h"
 259              		.file 3 "Generated_Source\\PSoC5\\UART_Linux.h"