ARM GAS  C:\Users\ali\AppData\Local\Temp\ccemZ3ju.s 			page 1


   1              		.syntax unified
   2              		.cpu cortex-m0
   3              		.fpu softvfp
   4              		.eabi_attribute 20, 1
   5              		.eabi_attribute 21, 1
   6              		.eabi_attribute 23, 3
   7              		.eabi_attribute 24, 1
   8              		.eabi_attribute 25, 1
   9              		.eabi_attribute 26, 1
  10              		.eabi_attribute 30, 6
  11              		.eabi_attribute 34, 0
  12              		.eabi_attribute 18, 4
  13              		.thumb
  14              		.syntax unified
  15              		.file	"I2C_Slave_I2C_BOOT.c"
  16              		.text
  17              	.Ltext0:
  18              		.cfi_sections	.debug_frame
  19              		.bss
  20              		.align	2
  21              	I2C_Slave_slReadBuf:
  22 0000 00000000 		.space	64
  22      00000000 
  22      00000000 
  22      00000000 
  22      00000000 
  23              		.align	2
  24              	I2C_Slave_slWriteBuf:
  25 0040 00000000 		.space	64
  25      00000000 
  25      00000000 
  25      00000000 
  25      00000000 
  26              		.align	2
  27              	I2C_Slave_applyBuffer:
  28 0080 00000000 		.space	4
  29              		.section	.text.I2C_Slave_I2CCyBtldrCommStart,"ax",%progbits
  30              		.align	2
  31              		.global	I2C_Slave_I2CCyBtldrCommStart
  32              		.code	16
  33              		.thumb_func
  34              		.type	I2C_Slave_I2CCyBtldrCommStart, %function
  35              	I2C_Slave_I2CCyBtldrCommStart:
  36              	.LFB0:
  37              		.file 1 "Generated_Source\\PSoC4\\I2C_Slave_I2C_BOOT.c"
   1:Generated_Source\PSoC4/I2C_Slave_I2C_BOOT.c **** /***************************************************************************//**
   2:Generated_Source\PSoC4/I2C_Slave_I2C_BOOT.c **** * \file I2C_Slave_I2C_BOOT.c
   3:Generated_Source\PSoC4/I2C_Slave_I2C_BOOT.c **** * \version 4.0
   4:Generated_Source\PSoC4/I2C_Slave_I2C_BOOT.c **** *
   5:Generated_Source\PSoC4/I2C_Slave_I2C_BOOT.c **** * \brief
   6:Generated_Source\PSoC4/I2C_Slave_I2C_BOOT.c **** *  This file provides the source code of the bootloader communication APIs
   7:Generated_Source\PSoC4/I2C_Slave_I2C_BOOT.c **** *  for the SCB Component I2C mode.
   8:Generated_Source\PSoC4/I2C_Slave_I2C_BOOT.c **** *
   9:Generated_Source\PSoC4/I2C_Slave_I2C_BOOT.c **** * Note:
  10:Generated_Source\PSoC4/I2C_Slave_I2C_BOOT.c **** *
  11:Generated_Source\PSoC4/I2C_Slave_I2C_BOOT.c **** ********************************************************************************
  12:Generated_Source\PSoC4/I2C_Slave_I2C_BOOT.c **** * \copyright
ARM GAS  C:\Users\ali\AppData\Local\Temp\ccemZ3ju.s 			page 2


  13:Generated_Source\PSoC4/I2C_Slave_I2C_BOOT.c **** * Copyright 2013-2017, Cypress Semiconductor Corporation.  All rights reserved.
  14:Generated_Source\PSoC4/I2C_Slave_I2C_BOOT.c **** * You may use this file only in accordance with the license, terms, conditions,
  15:Generated_Source\PSoC4/I2C_Slave_I2C_BOOT.c **** * disclaimers, and limitations in the end user license agreement accompanying
  16:Generated_Source\PSoC4/I2C_Slave_I2C_BOOT.c **** * the software package with which this file was provided.
  17:Generated_Source\PSoC4/I2C_Slave_I2C_BOOT.c **** *******************************************************************************/
  18:Generated_Source\PSoC4/I2C_Slave_I2C_BOOT.c **** 
  19:Generated_Source\PSoC4/I2C_Slave_I2C_BOOT.c **** #include "I2C_Slave_BOOT.h"
  20:Generated_Source\PSoC4/I2C_Slave_I2C_BOOT.c **** #include "I2C_Slave_I2C_PVT.h"
  21:Generated_Source\PSoC4/I2C_Slave_I2C_BOOT.c **** 
  22:Generated_Source\PSoC4/I2C_Slave_I2C_BOOT.c **** #if defined(CYDEV_BOOTLOADER_IO_COMP) && (I2C_Slave_I2C_BTLDR_COMM_ENABLED)
  23:Generated_Source\PSoC4/I2C_Slave_I2C_BOOT.c **** 
  24:Generated_Source\PSoC4/I2C_Slave_I2C_BOOT.c **** /***************************************
  25:Generated_Source\PSoC4/I2C_Slave_I2C_BOOT.c **** *    Private I/O Component Vars
  26:Generated_Source\PSoC4/I2C_Slave_I2C_BOOT.c **** ***************************************/
  27:Generated_Source\PSoC4/I2C_Slave_I2C_BOOT.c **** 
  28:Generated_Source\PSoC4/I2C_Slave_I2C_BOOT.c **** /* Writes to this buffer */
  29:Generated_Source\PSoC4/I2C_Slave_I2C_BOOT.c **** static uint8 I2C_Slave_slReadBuf[I2C_Slave_I2C_BTLDR_SIZEOF_READ_BUFFER];
  30:Generated_Source\PSoC4/I2C_Slave_I2C_BOOT.c **** 
  31:Generated_Source\PSoC4/I2C_Slave_I2C_BOOT.c **** /* Reads from this buffer */
  32:Generated_Source\PSoC4/I2C_Slave_I2C_BOOT.c **** static uint8 I2C_Slave_slWriteBuf[I2C_Slave_I2C_BTLDR_SIZEOF_WRITE_BUFFER];
  33:Generated_Source\PSoC4/I2C_Slave_I2C_BOOT.c **** 
  34:Generated_Source\PSoC4/I2C_Slave_I2C_BOOT.c **** /* Flag to release buffer to be read */
  35:Generated_Source\PSoC4/I2C_Slave_I2C_BOOT.c **** static uint32 I2C_Slave_applyBuffer;
  36:Generated_Source\PSoC4/I2C_Slave_I2C_BOOT.c **** 
  37:Generated_Source\PSoC4/I2C_Slave_I2C_BOOT.c **** 
  38:Generated_Source\PSoC4/I2C_Slave_I2C_BOOT.c **** /***************************************
  39:Generated_Source\PSoC4/I2C_Slave_I2C_BOOT.c **** *    Private Function Prototypes
  40:Generated_Source\PSoC4/I2C_Slave_I2C_BOOT.c **** ***************************************/
  41:Generated_Source\PSoC4/I2C_Slave_I2C_BOOT.c **** 
  42:Generated_Source\PSoC4/I2C_Slave_I2C_BOOT.c **** static void I2C_Slave_I2CResposeInsert(void);
  43:Generated_Source\PSoC4/I2C_Slave_I2C_BOOT.c **** 
  44:Generated_Source\PSoC4/I2C_Slave_I2C_BOOT.c **** 
  45:Generated_Source\PSoC4/I2C_Slave_I2C_BOOT.c **** /*******************************************************************************
  46:Generated_Source\PSoC4/I2C_Slave_I2C_BOOT.c **** * Function Name: I2C_Slave_I2CCyBtldrCommStart
  47:Generated_Source\PSoC4/I2C_Slave_I2C_BOOT.c **** ****************************************************************************//**
  48:Generated_Source\PSoC4/I2C_Slave_I2C_BOOT.c **** *
  49:Generated_Source\PSoC4/I2C_Slave_I2C_BOOT.c **** *  Starts the I2C component and enables its interrupt.
  50:Generated_Source\PSoC4/I2C_Slave_I2C_BOOT.c **** *  Every incoming I2C write transaction is treated as a command for the
  51:Generated_Source\PSoC4/I2C_Slave_I2C_BOOT.c **** *  bootloader.
  52:Generated_Source\PSoC4/I2C_Slave_I2C_BOOT.c **** *  Every incoming I2C read transaction returns 0xFF until the bootloader
  53:Generated_Source\PSoC4/I2C_Slave_I2C_BOOT.c **** *  provides a response to the executed command.
  54:Generated_Source\PSoC4/I2C_Slave_I2C_BOOT.c **** *
  55:Generated_Source\PSoC4/I2C_Slave_I2C_BOOT.c **** * \globalvars
  56:Generated_Source\PSoC4/I2C_Slave_I2C_BOOT.c **** *  I2C_Slave_applyBuffer - the flag to release the buffer with a response
  57:Generated_Source\PSoC4/I2C_Slave_I2C_BOOT.c **** *  to be read by the host.
  58:Generated_Source\PSoC4/I2C_Slave_I2C_BOOT.c **** *
  59:Generated_Source\PSoC4/I2C_Slave_I2C_BOOT.c **** *******************************************************************************/
  60:Generated_Source\PSoC4/I2C_Slave_I2C_BOOT.c **** void I2C_Slave_I2CCyBtldrCommStart(void)
  61:Generated_Source\PSoC4/I2C_Slave_I2C_BOOT.c **** {
  38              		.loc 1 61 0
  39              		.cfi_startproc
  40              		@ args = 0, pretend = 0, frame = 0
  41              		@ frame_needed = 1, uses_anonymous_args = 0
  42 0000 80B5     		push	{r7, lr}
  43              		.cfi_def_cfa_offset 8
  44              		.cfi_offset 7, -8
  45              		.cfi_offset 14, -4
ARM GAS  C:\Users\ali\AppData\Local\Temp\ccemZ3ju.s 			page 3


  46 0002 00AF     		add	r7, sp, #0
  47              		.cfi_def_cfa_register 7
  62:Generated_Source\PSoC4/I2C_Slave_I2C_BOOT.c ****     I2C_Slave_I2CSlaveInitWriteBuf(I2C_Slave_slWriteBuf, I2C_Slave_I2C_BTLDR_SIZEOF_WRITE_BUFFER);
  48              		.loc 1 62 0
  49 0004 0A4B     		ldr	r3, .L2
  50 0006 4021     		movs	r1, #64
  51 0008 1800     		movs	r0, r3
  52 000a FFF7FEFF 		bl	I2C_Slave_I2CSlaveInitWriteBuf
  63:Generated_Source\PSoC4/I2C_Slave_I2C_BOOT.c ****     I2C_Slave_I2CSlaveInitReadBuf (I2C_Slave_slReadBuf, 0u);
  53              		.loc 1 63 0
  54 000e 094B     		ldr	r3, .L2+4
  55 0010 0021     		movs	r1, #0
  56 0012 1800     		movs	r0, r3
  57 0014 FFF7FEFF 		bl	I2C_Slave_I2CSlaveInitReadBuf
  64:Generated_Source\PSoC4/I2C_Slave_I2C_BOOT.c **** 
  65:Generated_Source\PSoC4/I2C_Slave_I2C_BOOT.c ****     I2C_Slave_SetCustomInterruptHandler(&I2C_Slave_I2CResposeInsert);
  58              		.loc 1 65 0
  59 0018 074B     		ldr	r3, .L2+8
  60 001a 1800     		movs	r0, r3
  61 001c FFF7FEFF 		bl	I2C_Slave_SetCustomInterruptHandler
  66:Generated_Source\PSoC4/I2C_Slave_I2C_BOOT.c ****     I2C_Slave_applyBuffer = 0u;
  62              		.loc 1 66 0
  63 0020 064B     		ldr	r3, .L2+12
  64 0022 0022     		movs	r2, #0
  65 0024 1A60     		str	r2, [r3]
  67:Generated_Source\PSoC4/I2C_Slave_I2C_BOOT.c **** 
  68:Generated_Source\PSoC4/I2C_Slave_I2C_BOOT.c ****     I2C_Slave_Start();
  66              		.loc 1 68 0
  67 0026 FFF7FEFF 		bl	I2C_Slave_Start
  69:Generated_Source\PSoC4/I2C_Slave_I2C_BOOT.c **** }
  68              		.loc 1 69 0
  69 002a C046     		nop
  70 002c BD46     		mov	sp, r7
  71              		@ sp needed
  72 002e 80BD     		pop	{r7, pc}
  73              	.L3:
  74              		.align	2
  75              	.L2:
  76 0030 40000000 		.word	I2C_Slave_slWriteBuf
  77 0034 00000000 		.word	I2C_Slave_slReadBuf
  78 0038 00000000 		.word	I2C_Slave_I2CResposeInsert
  79 003c 80000000 		.word	I2C_Slave_applyBuffer
  80              		.cfi_endproc
  81              	.LFE0:
  82              		.size	I2C_Slave_I2CCyBtldrCommStart, .-I2C_Slave_I2CCyBtldrCommStart
  83              		.section	.text.I2C_Slave_I2CCyBtldrCommStop,"ax",%progbits
  84              		.align	2
  85              		.global	I2C_Slave_I2CCyBtldrCommStop
  86              		.code	16
  87              		.thumb_func
  88              		.type	I2C_Slave_I2CCyBtldrCommStop, %function
  89              	I2C_Slave_I2CCyBtldrCommStop:
  90              	.LFB1:
  70:Generated_Source\PSoC4/I2C_Slave_I2C_BOOT.c **** 
  71:Generated_Source\PSoC4/I2C_Slave_I2C_BOOT.c **** 
  72:Generated_Source\PSoC4/I2C_Slave_I2C_BOOT.c **** /*******************************************************************************
  73:Generated_Source\PSoC4/I2C_Slave_I2C_BOOT.c **** * Function Name: I2C_Slave_I2CCyBtldrCommStop
ARM GAS  C:\Users\ali\AppData\Local\Temp\ccemZ3ju.s 			page 4


  74:Generated_Source\PSoC4/I2C_Slave_I2C_BOOT.c **** ****************************************************************************//**
  75:Generated_Source\PSoC4/I2C_Slave_I2C_BOOT.c **** *
  76:Generated_Source\PSoC4/I2C_Slave_I2C_BOOT.c **** *  Disables the I2C component.
  77:Generated_Source\PSoC4/I2C_Slave_I2C_BOOT.c **** *
  78:Generated_Source\PSoC4/I2C_Slave_I2C_BOOT.c **** *******************************************************************************/
  79:Generated_Source\PSoC4/I2C_Slave_I2C_BOOT.c **** void I2C_Slave_I2CCyBtldrCommStop(void)
  80:Generated_Source\PSoC4/I2C_Slave_I2C_BOOT.c **** {
  91              		.loc 1 80 0
  92              		.cfi_startproc
  93              		@ args = 0, pretend = 0, frame = 0
  94              		@ frame_needed = 1, uses_anonymous_args = 0
  95 0000 80B5     		push	{r7, lr}
  96              		.cfi_def_cfa_offset 8
  97              		.cfi_offset 7, -8
  98              		.cfi_offset 14, -4
  99 0002 00AF     		add	r7, sp, #0
 100              		.cfi_def_cfa_register 7
  81:Generated_Source\PSoC4/I2C_Slave_I2C_BOOT.c ****     I2C_Slave_Stop();
 101              		.loc 1 81 0
 102 0004 FFF7FEFF 		bl	I2C_Slave_Stop
  82:Generated_Source\PSoC4/I2C_Slave_I2C_BOOT.c **** }
 103              		.loc 1 82 0
 104 0008 C046     		nop
 105 000a BD46     		mov	sp, r7
 106              		@ sp needed
 107 000c 80BD     		pop	{r7, pc}
 108              		.cfi_endproc
 109              	.LFE1:
 110              		.size	I2C_Slave_I2CCyBtldrCommStop, .-I2C_Slave_I2CCyBtldrCommStop
 111 000e C046     		.section	.text.I2C_Slave_I2CCyBtldrCommReset,"ax",%progbits
 112              		.align	2
 113              		.global	I2C_Slave_I2CCyBtldrCommReset
 114              		.code	16
 115              		.thumb_func
 116              		.type	I2C_Slave_I2CCyBtldrCommReset, %function
 117              	I2C_Slave_I2CCyBtldrCommReset:
 118              	.LFB2:
  83:Generated_Source\PSoC4/I2C_Slave_I2C_BOOT.c **** 
  84:Generated_Source\PSoC4/I2C_Slave_I2C_BOOT.c **** 
  85:Generated_Source\PSoC4/I2C_Slave_I2C_BOOT.c **** /*******************************************************************************
  86:Generated_Source\PSoC4/I2C_Slave_I2C_BOOT.c **** * Function Name: I2C_Slave_I2CCyBtldrCommReset
  87:Generated_Source\PSoC4/I2C_Slave_I2C_BOOT.c **** ****************************************************************************//**
  88:Generated_Source\PSoC4/I2C_Slave_I2C_BOOT.c **** *
  89:Generated_Source\PSoC4/I2C_Slave_I2C_BOOT.c **** *  Resets read and write I2C buffers to the initial state and resets the slave
  90:Generated_Source\PSoC4/I2C_Slave_I2C_BOOT.c **** *  status.
  91:Generated_Source\PSoC4/I2C_Slave_I2C_BOOT.c **** *
  92:Generated_Source\PSoC4/I2C_Slave_I2C_BOOT.c **** * \globalvars
  93:Generated_Source\PSoC4/I2C_Slave_I2C_BOOT.c **** *  I2C_Slave_slRdBufSize - used to store slave read buffer size.
  94:Generated_Source\PSoC4/I2C_Slave_I2C_BOOT.c **** *  I2C_Slave_slRdBufIndex - used to store the current index within the
  95:Generated_Source\PSoC4/I2C_Slave_I2C_BOOT.c **** *  slave read buffer.
  96:Generated_Source\PSoC4/I2C_Slave_I2C_BOOT.c **** *  I2C_Slave_slWrBufIndex - used to store current index within slave
  97:Generated_Source\PSoC4/I2C_Slave_I2C_BOOT.c **** *  write buffer.
  98:Generated_Source\PSoC4/I2C_Slave_I2C_BOOT.c **** *  I2C_Slave_slStatus  - used to store current status of I2C slave.
  99:Generated_Source\PSoC4/I2C_Slave_I2C_BOOT.c **** *
 100:Generated_Source\PSoC4/I2C_Slave_I2C_BOOT.c **** *******************************************************************************/
 101:Generated_Source\PSoC4/I2C_Slave_I2C_BOOT.c **** void I2C_Slave_I2CCyBtldrCommReset(void)
 102:Generated_Source\PSoC4/I2C_Slave_I2C_BOOT.c **** {
ARM GAS  C:\Users\ali\AppData\Local\Temp\ccemZ3ju.s 			page 5


 119              		.loc 1 102 0
 120              		.cfi_startproc
 121              		@ args = 0, pretend = 0, frame = 0
 122              		@ frame_needed = 1, uses_anonymous_args = 0
 123 0000 80B5     		push	{r7, lr}
 124              		.cfi_def_cfa_offset 8
 125              		.cfi_offset 7, -8
 126              		.cfi_offset 14, -4
 127 0002 00AF     		add	r7, sp, #0
 128              		.cfi_def_cfa_register 7
 103:Generated_Source\PSoC4/I2C_Slave_I2C_BOOT.c ****     /* Make read buffer full */
 104:Generated_Source\PSoC4/I2C_Slave_I2C_BOOT.c ****     I2C_Slave_slRdBufSize = 0u;
 129              		.loc 1 104 0
 130 0004 074B     		ldr	r3, .L6
 131 0006 0022     		movs	r2, #0
 132 0008 1A60     		str	r2, [r3]
 105:Generated_Source\PSoC4/I2C_Slave_I2C_BOOT.c **** 
 106:Generated_Source\PSoC4/I2C_Slave_I2C_BOOT.c ****     /* Reset write buffer and Read buffer */
 107:Generated_Source\PSoC4/I2C_Slave_I2C_BOOT.c ****     I2C_Slave_slRdBufIndex = 0u;
 133              		.loc 1 107 0
 134 000a 074B     		ldr	r3, .L6+4
 135 000c 0022     		movs	r2, #0
 136 000e 1A60     		str	r2, [r3]
 108:Generated_Source\PSoC4/I2C_Slave_I2C_BOOT.c ****     I2C_Slave_slWrBufIndex = 0u;
 137              		.loc 1 108 0
 138 0010 064B     		ldr	r3, .L6+8
 139 0012 0022     		movs	r2, #0
 140 0014 1A60     		str	r2, [r3]
 109:Generated_Source\PSoC4/I2C_Slave_I2C_BOOT.c **** 
 110:Generated_Source\PSoC4/I2C_Slave_I2C_BOOT.c ****     /* Clear read and write status */
 111:Generated_Source\PSoC4/I2C_Slave_I2C_BOOT.c ****     I2C_Slave_slStatus = 0u;
 141              		.loc 1 111 0
 142 0016 064B     		ldr	r3, .L6+12
 143 0018 0022     		movs	r2, #0
 144 001a 1A70     		strb	r2, [r3]
 112:Generated_Source\PSoC4/I2C_Slave_I2C_BOOT.c **** }
 145              		.loc 1 112 0
 146 001c C046     		nop
 147 001e BD46     		mov	sp, r7
 148              		@ sp needed
 149 0020 80BD     		pop	{r7, pc}
 150              	.L7:
 151 0022 C046     		.align	2
 152              	.L6:
 153 0024 00000000 		.word	I2C_Slave_slRdBufSize
 154 0028 00000000 		.word	I2C_Slave_slRdBufIndex
 155 002c 00000000 		.word	I2C_Slave_slWrBufIndex
 156 0030 00000000 		.word	I2C_Slave_slStatus
 157              		.cfi_endproc
 158              	.LFE2:
 159              		.size	I2C_Slave_I2CCyBtldrCommReset, .-I2C_Slave_I2CCyBtldrCommReset
 160              		.section	.text.I2C_Slave_I2CCyBtldrCommRead,"ax",%progbits
 161              		.align	2
 162              		.global	I2C_Slave_I2CCyBtldrCommRead
 163              		.code	16
 164              		.thumb_func
 165              		.type	I2C_Slave_I2CCyBtldrCommRead, %function
ARM GAS  C:\Users\ali\AppData\Local\Temp\ccemZ3ju.s 			page 6


 166              	I2C_Slave_I2CCyBtldrCommRead:
 167              	.LFB3:
 113:Generated_Source\PSoC4/I2C_Slave_I2C_BOOT.c **** 
 114:Generated_Source\PSoC4/I2C_Slave_I2C_BOOT.c **** 
 115:Generated_Source\PSoC4/I2C_Slave_I2C_BOOT.c **** /*******************************************************************************
 116:Generated_Source\PSoC4/I2C_Slave_I2C_BOOT.c **** * Function Name: I2C_Slave_I2CCyBtldrCommRead
 117:Generated_Source\PSoC4/I2C_Slave_I2C_BOOT.c **** ****************************************************************************//**
 118:Generated_Source\PSoC4/I2C_Slave_I2C_BOOT.c **** *
 119:Generated_Source\PSoC4/I2C_Slave_I2C_BOOT.c **** *  Allows the caller to read data from the bootloader host (the host writes the
 120:Generated_Source\PSoC4/I2C_Slave_I2C_BOOT.c **** *  data). The function handles polling to allow a block of data to be completely
 121:Generated_Source\PSoC4/I2C_Slave_I2C_BOOT.c **** *  received from the host device.
 122:Generated_Source\PSoC4/I2C_Slave_I2C_BOOT.c **** *
 123:Generated_Source\PSoC4/I2C_Slave_I2C_BOOT.c **** *  \param pData: Pointer to storage for the block of data to be read from the
 124:Generated_Source\PSoC4/I2C_Slave_I2C_BOOT.c **** *   bootloader host
 125:Generated_Source\PSoC4/I2C_Slave_I2C_BOOT.c **** *  \param size: Number of bytes to be read.
 126:Generated_Source\PSoC4/I2C_Slave_I2C_BOOT.c **** *  \param count: Pointer to the variable to write the number of bytes actually
 127:Generated_Source\PSoC4/I2C_Slave_I2C_BOOT.c **** *   read.
 128:Generated_Source\PSoC4/I2C_Slave_I2C_BOOT.c **** *  \param timeOut: Number of units in 10 ms to wait before returning
 129:Generated_Source\PSoC4/I2C_Slave_I2C_BOOT.c **** *   because of a timeout.
 130:Generated_Source\PSoC4/I2C_Slave_I2C_BOOT.c **** *
 131:Generated_Source\PSoC4/I2C_Slave_I2C_BOOT.c **** *  \return
 132:Generated_Source\PSoC4/I2C_Slave_I2C_BOOT.c **** *   Returns CYRET_SUCCESS if no problem was encountered or returns the value
 133:Generated_Source\PSoC4/I2C_Slave_I2C_BOOT.c **** *   that best describes the problem. For more information refer to the
 134:Generated_Source\PSoC4/I2C_Slave_I2C_BOOT.c **** *   "Return Codes" section of the System Reference Guide.
 135:Generated_Source\PSoC4/I2C_Slave_I2C_BOOT.c **** *
 136:Generated_Source\PSoC4/I2C_Slave_I2C_BOOT.c **** * \globalvars
 137:Generated_Source\PSoC4/I2C_Slave_I2C_BOOT.c **** *  I2C_Slave_slStatus  - used to store current status of I2C slave.
 138:Generated_Source\PSoC4/I2C_Slave_I2C_BOOT.c **** *  I2C_Slave_slWriteBuf - used to store received command.
 139:Generated_Source\PSoC4/I2C_Slave_I2C_BOOT.c **** *  I2C_Slave_slWrBufIndex - used to store current index within slave
 140:Generated_Source\PSoC4/I2C_Slave_I2C_BOOT.c **** *  write buffer.
 141:Generated_Source\PSoC4/I2C_Slave_I2C_BOOT.c **** *
 142:Generated_Source\PSoC4/I2C_Slave_I2C_BOOT.c **** *******************************************************************************/
 143:Generated_Source\PSoC4/I2C_Slave_I2C_BOOT.c **** cystatus I2C_Slave_I2CCyBtldrCommRead(uint8 pData[], uint16 size, uint16 * count, uint8 timeOut)
 144:Generated_Source\PSoC4/I2C_Slave_I2C_BOOT.c **** {
 168              		.loc 1 144 0
 169              		.cfi_startproc
 170              		@ args = 0, pretend = 0, frame = 24
 171              		@ frame_needed = 1, uses_anonymous_args = 0
 172 0000 80B5     		push	{r7, lr}
 173              		.cfi_def_cfa_offset 8
 174              		.cfi_offset 7, -8
 175              		.cfi_offset 14, -4
 176 0002 86B0     		sub	sp, sp, #24
 177              		.cfi_def_cfa_offset 32
 178 0004 00AF     		add	r7, sp, #0
 179              		.cfi_def_cfa_register 7
 180 0006 F860     		str	r0, [r7, #12]
 181 0008 0800     		movs	r0, r1
 182 000a 7A60     		str	r2, [r7, #4]
 183 000c 1900     		movs	r1, r3
 184 000e 0A23     		movs	r3, #10
 185 0010 FB18     		adds	r3, r7, r3
 186 0012 021C     		adds	r2, r0, #0
 187 0014 1A80     		strh	r2, [r3]
 188 0016 0923     		movs	r3, #9
 189 0018 FB18     		adds	r3, r7, r3
 190 001a 0A1C     		adds	r2, r1, #0
ARM GAS  C:\Users\ali\AppData\Local\Temp\ccemZ3ju.s 			page 7


 191 001c 1A70     		strb	r2, [r3]
 145:Generated_Source\PSoC4/I2C_Slave_I2C_BOOT.c ****     cystatus status;
 146:Generated_Source\PSoC4/I2C_Slave_I2C_BOOT.c ****     uint32 timeoutMs;
 147:Generated_Source\PSoC4/I2C_Slave_I2C_BOOT.c **** 
 148:Generated_Source\PSoC4/I2C_Slave_I2C_BOOT.c ****     status = CYRET_BAD_PARAM;
 192              		.loc 1 148 0
 193 001e 0123     		movs	r3, #1
 194 0020 7B61     		str	r3, [r7, #20]
 149:Generated_Source\PSoC4/I2C_Slave_I2C_BOOT.c **** 
 150:Generated_Source\PSoC4/I2C_Slave_I2C_BOOT.c ****     if ((NULL != pData) && (size > 0u))
 195              		.loc 1 150 0
 196 0022 FB68     		ldr	r3, [r7, #12]
 197 0024 002B     		cmp	r3, #0
 198 0026 40D0     		beq	.L9
 199              		.loc 1 150 0 is_stmt 0 discriminator 1
 200 0028 0A23     		movs	r3, #10
 201 002a FB18     		adds	r3, r7, r3
 202 002c 1B88     		ldrh	r3, [r3]
 203 002e 002B     		cmp	r3, #0
 204 0030 3BD0     		beq	.L9
 151:Generated_Source\PSoC4/I2C_Slave_I2C_BOOT.c ****     {
 152:Generated_Source\PSoC4/I2C_Slave_I2C_BOOT.c ****         status = CYRET_TIMEOUT;
 205              		.loc 1 152 0 is_stmt 1
 206 0032 1023     		movs	r3, #16
 207 0034 7B61     		str	r3, [r7, #20]
 153:Generated_Source\PSoC4/I2C_Slave_I2C_BOOT.c ****         timeoutMs = ((uint32) 10u * timeOut); /* Convert from 10mS check to 1mS checks */
 208              		.loc 1 153 0
 209 0036 0923     		movs	r3, #9
 210 0038 FB18     		adds	r3, r7, r3
 211 003a 1A78     		ldrb	r2, [r3]
 212 003c 1300     		movs	r3, r2
 213 003e 9B00     		lsls	r3, r3, #2
 214 0040 9B18     		adds	r3, r3, r2
 215 0042 5B00     		lsls	r3, r3, #1
 216 0044 3B61     		str	r3, [r7, #16]
 154:Generated_Source\PSoC4/I2C_Slave_I2C_BOOT.c **** 
 155:Generated_Source\PSoC4/I2C_Slave_I2C_BOOT.c ****         while (0u != timeoutMs)
 217              		.loc 1 155 0
 218 0046 2DE0     		b	.L10
 219              	.L13:
 156:Generated_Source\PSoC4/I2C_Slave_I2C_BOOT.c ****         {
 157:Generated_Source\PSoC4/I2C_Slave_I2C_BOOT.c ****             /* Check if host complete write */
 158:Generated_Source\PSoC4/I2C_Slave_I2C_BOOT.c ****             if (0u != (I2C_Slave_I2C_SSTAT_WR_CMPLT & I2C_Slave_slStatus))
 220              		.loc 1 158 0
 221 0048 1A4B     		ldr	r3, .L15
 222 004a 1B78     		ldrb	r3, [r3]
 223 004c DBB2     		uxtb	r3, r3
 224 004e 1022     		movs	r2, #16
 225 0050 1340     		ands	r3, r2
 226 0052 DBB2     		uxtb	r3, r3
 227 0054 002B     		cmp	r3, #0
 228 0056 1FD0     		beq	.L11
 159:Generated_Source\PSoC4/I2C_Slave_I2C_BOOT.c ****             {
 160:Generated_Source\PSoC4/I2C_Slave_I2C_BOOT.c ****                 /* Copy number of written bytes */
 161:Generated_Source\PSoC4/I2C_Slave_I2C_BOOT.c ****                 *count = (uint16) I2C_Slave_slWrBufIndex;
 229              		.loc 1 161 0
 230 0058 174B     		ldr	r3, .L15+4
ARM GAS  C:\Users\ali\AppData\Local\Temp\ccemZ3ju.s 			page 8


 231 005a 1B68     		ldr	r3, [r3]
 232 005c 9AB2     		uxth	r2, r3
 233 005e 7B68     		ldr	r3, [r7, #4]
 234 0060 1A80     		strh	r2, [r3]
 162:Generated_Source\PSoC4/I2C_Slave_I2C_BOOT.c **** 
 163:Generated_Source\PSoC4/I2C_Slave_I2C_BOOT.c ****                 /* Clear slave status and write index */
 164:Generated_Source\PSoC4/I2C_Slave_I2C_BOOT.c ****                 I2C_Slave_slStatus = 0u;
 235              		.loc 1 164 0
 236 0062 144B     		ldr	r3, .L15
 237 0064 0022     		movs	r2, #0
 238 0066 1A70     		strb	r2, [r3]
 165:Generated_Source\PSoC4/I2C_Slave_I2C_BOOT.c ****                 I2C_Slave_slWrBufIndex = 0u;
 239              		.loc 1 165 0
 240 0068 134B     		ldr	r3, .L15+4
 241 006a 0022     		movs	r2, #0
 242 006c 1A60     		str	r2, [r3]
 166:Generated_Source\PSoC4/I2C_Slave_I2C_BOOT.c **** 
 167:Generated_Source\PSoC4/I2C_Slave_I2C_BOOT.c ****                 /* Copy command into bootloader buffer */
 168:Generated_Source\PSoC4/I2C_Slave_I2C_BOOT.c ****                 (void) memcpy((void *) pData, (const void *) I2C_Slave_slWriteBuf,
 169:Generated_Source\PSoC4/I2C_Slave_I2C_BOOT.c ****                                               I2C_Slave_BYTES_TO_COPY(*count, size));
 243              		.loc 1 169 0
 244 006e 7B68     		ldr	r3, [r7, #4]
 245 0070 1A88     		ldrh	r2, [r3]
 246 0072 0A23     		movs	r3, #10
 247 0074 FB18     		adds	r3, r7, r3
 248 0076 1988     		ldrh	r1, [r3]
 249 0078 101C     		adds	r0, r2, #0
 250 007a 82B2     		uxth	r2, r0
 251 007c 8BB2     		uxth	r3, r1
 252 007e 9A42     		cmp	r2, r3
 253 0080 00D9     		bls	.L12
 254 0082 081C     		adds	r0, r1, #0
 255              	.L12:
 256 0084 83B2     		uxth	r3, r0
 168:Generated_Source\PSoC4/I2C_Slave_I2C_BOOT.c ****                                               I2C_Slave_BYTES_TO_COPY(*count, size));
 257              		.loc 1 168 0
 258 0086 1A00     		movs	r2, r3
 259 0088 0C49     		ldr	r1, .L15+8
 260 008a FB68     		ldr	r3, [r7, #12]
 261 008c 1800     		movs	r0, r3
 262 008e FFF7FEFF 		bl	memcpy
 170:Generated_Source\PSoC4/I2C_Slave_I2C_BOOT.c **** 
 171:Generated_Source\PSoC4/I2C_Slave_I2C_BOOT.c ****                 status = CYRET_SUCCESS;
 263              		.loc 1 171 0
 264 0092 0023     		movs	r3, #0
 265 0094 7B61     		str	r3, [r7, #20]
 172:Generated_Source\PSoC4/I2C_Slave_I2C_BOOT.c ****                 break;
 266              		.loc 1 172 0
 267 0096 08E0     		b	.L9
 268              	.L11:
 173:Generated_Source\PSoC4/I2C_Slave_I2C_BOOT.c ****             }
 174:Generated_Source\PSoC4/I2C_Slave_I2C_BOOT.c **** 
 175:Generated_Source\PSoC4/I2C_Slave_I2C_BOOT.c ****             CyDelay(I2C_Slave_WAIT_1_MS);
 269              		.loc 1 175 0
 270 0098 0120     		movs	r0, #1
 271 009a FFF7FEFF 		bl	CyDelay
 176:Generated_Source\PSoC4/I2C_Slave_I2C_BOOT.c ****             --timeoutMs;
ARM GAS  C:\Users\ali\AppData\Local\Temp\ccemZ3ju.s 			page 9


 272              		.loc 1 176 0
 273 009e 3B69     		ldr	r3, [r7, #16]
 274 00a0 013B     		subs	r3, r3, #1
 275 00a2 3B61     		str	r3, [r7, #16]
 276              	.L10:
 155:Generated_Source\PSoC4/I2C_Slave_I2C_BOOT.c ****         {
 277              		.loc 1 155 0
 278 00a4 3B69     		ldr	r3, [r7, #16]
 279 00a6 002B     		cmp	r3, #0
 280 00a8 CED1     		bne	.L13
 281              	.L9:
 177:Generated_Source\PSoC4/I2C_Slave_I2C_BOOT.c ****         }
 178:Generated_Source\PSoC4/I2C_Slave_I2C_BOOT.c ****     }
 179:Generated_Source\PSoC4/I2C_Slave_I2C_BOOT.c **** 
 180:Generated_Source\PSoC4/I2C_Slave_I2C_BOOT.c ****     return(status);
 282              		.loc 1 180 0
 283 00aa 7B69     		ldr	r3, [r7, #20]
 181:Generated_Source\PSoC4/I2C_Slave_I2C_BOOT.c **** }
 284              		.loc 1 181 0
 285 00ac 1800     		movs	r0, r3
 286 00ae BD46     		mov	sp, r7
 287 00b0 06B0     		add	sp, sp, #24
 288              		@ sp needed
 289 00b2 80BD     		pop	{r7, pc}
 290              	.L16:
 291              		.align	2
 292              	.L15:
 293 00b4 00000000 		.word	I2C_Slave_slStatus
 294 00b8 00000000 		.word	I2C_Slave_slWrBufIndex
 295 00bc 40000000 		.word	I2C_Slave_slWriteBuf
 296              		.cfi_endproc
 297              	.LFE3:
 298              		.size	I2C_Slave_I2CCyBtldrCommRead, .-I2C_Slave_I2CCyBtldrCommRead
 299              		.section	.text.I2C_Slave_I2CCyBtldrCommWrite,"ax",%progbits
 300              		.align	2
 301              		.global	I2C_Slave_I2CCyBtldrCommWrite
 302              		.code	16
 303              		.thumb_func
 304              		.type	I2C_Slave_I2CCyBtldrCommWrite, %function
 305              	I2C_Slave_I2CCyBtldrCommWrite:
 306              	.LFB4:
 182:Generated_Source\PSoC4/I2C_Slave_I2C_BOOT.c **** 
 183:Generated_Source\PSoC4/I2C_Slave_I2C_BOOT.c **** 
 184:Generated_Source\PSoC4/I2C_Slave_I2C_BOOT.c **** /*******************************************************************************
 185:Generated_Source\PSoC4/I2C_Slave_I2C_BOOT.c **** * Function Name: I2C_Slave_I2CCyBtldrCommWrite
 186:Generated_Source\PSoC4/I2C_Slave_I2C_BOOT.c **** ****************************************************************************//**
 187:Generated_Source\PSoC4/I2C_Slave_I2C_BOOT.c **** *
 188:Generated_Source\PSoC4/I2C_Slave_I2C_BOOT.c **** *  Allows the caller to write data to the bootloader host (the host reads the
 189:Generated_Source\PSoC4/I2C_Slave_I2C_BOOT.c **** *  data). The function does not use timeout and returns after data has been
 190:Generated_Source\PSoC4/I2C_Slave_I2C_BOOT.c **** *  copied into the slave read buffer. This data is available to be read by the
 191:Generated_Source\PSoC4/I2C_Slave_I2C_BOOT.c **** *  bootloader host until following host data write.
 192:Generated_Source\PSoC4/I2C_Slave_I2C_BOOT.c **** *
 193:Generated_Source\PSoC4/I2C_Slave_I2C_BOOT.c **** *  \param pData: Pointer to the block of data to be written to the bootloader
 194:Generated_Source\PSoC4/I2C_Slave_I2C_BOOT.c **** *   host.
 195:Generated_Source\PSoC4/I2C_Slave_I2C_BOOT.c **** *  \param size: Number of bytes to be written.
 196:Generated_Source\PSoC4/I2C_Slave_I2C_BOOT.c **** *  \param count: Pointer to the variable to write the number of bytes actually
 197:Generated_Source\PSoC4/I2C_Slave_I2C_BOOT.c **** *   written.
ARM GAS  C:\Users\ali\AppData\Local\Temp\ccemZ3ju.s 			page 10


 198:Generated_Source\PSoC4/I2C_Slave_I2C_BOOT.c **** *  \param timeOut: Number of units in 10 ms to wait before returning
 199:Generated_Source\PSoC4/I2C_Slave_I2C_BOOT.c **** *   because of a timeout.
 200:Generated_Source\PSoC4/I2C_Slave_I2C_BOOT.c **** *
 201:Generated_Source\PSoC4/I2C_Slave_I2C_BOOT.c **** *  \return
 202:Generated_Source\PSoC4/I2C_Slave_I2C_BOOT.c **** *   Returns CYRET_SUCCESS if no problem was encountered or returns the value
 203:Generated_Source\PSoC4/I2C_Slave_I2C_BOOT.c **** *   that best describes the problem. For more information refer to the
 204:Generated_Source\PSoC4/I2C_Slave_I2C_BOOT.c **** *   "Return Codes" section of the System Reference Guide.
 205:Generated_Source\PSoC4/I2C_Slave_I2C_BOOT.c **** *
 206:Generated_Source\PSoC4/I2C_Slave_I2C_BOOT.c **** * \globalvars
 207:Generated_Source\PSoC4/I2C_Slave_I2C_BOOT.c **** *  I2C_Slave_applyBuffer - the flag to release the buffer with
 208:Generated_Source\PSoC4/I2C_Slave_I2C_BOOT.c **** *  to be read by the host.
 209:Generated_Source\PSoC4/I2C_Slave_I2C_BOOT.c **** *
 210:Generated_Source\PSoC4/I2C_Slave_I2C_BOOT.c **** *******************************************************************************/
 211:Generated_Source\PSoC4/I2C_Slave_I2C_BOOT.c **** cystatus I2C_Slave_I2CCyBtldrCommWrite(const uint8 pData[], uint16 size, uint16 * count, uint8 time
 212:Generated_Source\PSoC4/I2C_Slave_I2C_BOOT.c **** {
 307              		.loc 1 212 0
 308              		.cfi_startproc
 309              		@ args = 0, pretend = 0, frame = 24
 310              		@ frame_needed = 1, uses_anonymous_args = 0
 311 0000 80B5     		push	{r7, lr}
 312              		.cfi_def_cfa_offset 8
 313              		.cfi_offset 7, -8
 314              		.cfi_offset 14, -4
 315 0002 86B0     		sub	sp, sp, #24
 316              		.cfi_def_cfa_offset 32
 317 0004 00AF     		add	r7, sp, #0
 318              		.cfi_def_cfa_register 7
 319 0006 F860     		str	r0, [r7, #12]
 320 0008 0800     		movs	r0, r1
 321 000a 7A60     		str	r2, [r7, #4]
 322 000c 1900     		movs	r1, r3
 323 000e 0A23     		movs	r3, #10
 324 0010 FB18     		adds	r3, r7, r3
 325 0012 021C     		adds	r2, r0, #0
 326 0014 1A80     		strh	r2, [r3]
 327 0016 0923     		movs	r3, #9
 328 0018 FB18     		adds	r3, r7, r3
 329 001a 0A1C     		adds	r2, r1, #0
 330 001c 1A70     		strb	r2, [r3]
 213:Generated_Source\PSoC4/I2C_Slave_I2C_BOOT.c ****     cystatus status;
 214:Generated_Source\PSoC4/I2C_Slave_I2C_BOOT.c **** 
 215:Generated_Source\PSoC4/I2C_Slave_I2C_BOOT.c ****     status = CYRET_BAD_PARAM;
 331              		.loc 1 215 0
 332 001e 0123     		movs	r3, #1
 333 0020 7B61     		str	r3, [r7, #20]
 216:Generated_Source\PSoC4/I2C_Slave_I2C_BOOT.c **** 
 217:Generated_Source\PSoC4/I2C_Slave_I2C_BOOT.c ****     if ((NULL != pData) && (size > 0u))
 334              		.loc 1 217 0
 335 0022 FB68     		ldr	r3, [r7, #12]
 336 0024 002B     		cmp	r3, #0
 337 0026 18D0     		beq	.L18
 338              		.loc 1 217 0 is_stmt 0 discriminator 1
 339 0028 0A23     		movs	r3, #10
 340 002a FB18     		adds	r3, r7, r3
 341 002c 1B88     		ldrh	r3, [r3]
 342 002e 002B     		cmp	r3, #0
 343 0030 13D0     		beq	.L18
ARM GAS  C:\Users\ali\AppData\Local\Temp\ccemZ3ju.s 			page 11


 218:Generated_Source\PSoC4/I2C_Slave_I2C_BOOT.c ****     {
 219:Generated_Source\PSoC4/I2C_Slave_I2C_BOOT.c ****         /* Copy response into read buffer */
 220:Generated_Source\PSoC4/I2C_Slave_I2C_BOOT.c ****         *count = size;
 344              		.loc 1 220 0 is_stmt 1
 345 0032 7B68     		ldr	r3, [r7, #4]
 346 0034 0A22     		movs	r2, #10
 347 0036 BA18     		adds	r2, r7, r2
 348 0038 1288     		ldrh	r2, [r2]
 349 003a 1A80     		strh	r2, [r3]
 221:Generated_Source\PSoC4/I2C_Slave_I2C_BOOT.c ****         (void) memcpy((void *) I2C_Slave_slReadBuf, (const void *) pData, (uint32) size);
 350              		.loc 1 221 0
 351 003c 0A23     		movs	r3, #10
 352 003e FB18     		adds	r3, r7, r3
 353 0040 1A88     		ldrh	r2, [r3]
 354 0042 F968     		ldr	r1, [r7, #12]
 355 0044 074B     		ldr	r3, .L20
 356 0046 1800     		movs	r0, r3
 357 0048 FFF7FEFF 		bl	memcpy
 222:Generated_Source\PSoC4/I2C_Slave_I2C_BOOT.c **** 
 223:Generated_Source\PSoC4/I2C_Slave_I2C_BOOT.c ****         /* Read buffer is ready to be released to host */
 224:Generated_Source\PSoC4/I2C_Slave_I2C_BOOT.c ****         I2C_Slave_applyBuffer = (uint32) size;
 358              		.loc 1 224 0
 359 004c 0A23     		movs	r3, #10
 360 004e FB18     		adds	r3, r7, r3
 361 0050 1A88     		ldrh	r2, [r3]
 362 0052 054B     		ldr	r3, .L20+4
 363 0054 1A60     		str	r2, [r3]
 225:Generated_Source\PSoC4/I2C_Slave_I2C_BOOT.c **** 
 226:Generated_Source\PSoC4/I2C_Slave_I2C_BOOT.c ****         if (0u != timeOut)
 227:Generated_Source\PSoC4/I2C_Slave_I2C_BOOT.c ****         {
 228:Generated_Source\PSoC4/I2C_Slave_I2C_BOOT.c ****             /* Suppress compiler warning */
 229:Generated_Source\PSoC4/I2C_Slave_I2C_BOOT.c ****         }
 230:Generated_Source\PSoC4/I2C_Slave_I2C_BOOT.c **** 
 231:Generated_Source\PSoC4/I2C_Slave_I2C_BOOT.c ****         status = CYRET_SUCCESS;
 364              		.loc 1 231 0
 365 0056 0023     		movs	r3, #0
 366 0058 7B61     		str	r3, [r7, #20]
 367              	.L18:
 232:Generated_Source\PSoC4/I2C_Slave_I2C_BOOT.c ****     }
 233:Generated_Source\PSoC4/I2C_Slave_I2C_BOOT.c **** 
 234:Generated_Source\PSoC4/I2C_Slave_I2C_BOOT.c ****     return(status);
 368              		.loc 1 234 0
 369 005a 7B69     		ldr	r3, [r7, #20]
 235:Generated_Source\PSoC4/I2C_Slave_I2C_BOOT.c **** }
 370              		.loc 1 235 0
 371 005c 1800     		movs	r0, r3
 372 005e BD46     		mov	sp, r7
 373 0060 06B0     		add	sp, sp, #24
 374              		@ sp needed
 375 0062 80BD     		pop	{r7, pc}
 376              	.L21:
 377              		.align	2
 378              	.L20:
 379 0064 00000000 		.word	I2C_Slave_slReadBuf
 380 0068 80000000 		.word	I2C_Slave_applyBuffer
 381              		.cfi_endproc
 382              	.LFE4:
ARM GAS  C:\Users\ali\AppData\Local\Temp\ccemZ3ju.s 			page 12


 383              		.size	I2C_Slave_I2CCyBtldrCommWrite, .-I2C_Slave_I2CCyBtldrCommWrite
 384              		.section	.text.I2C_Slave_I2CResposeInsert,"ax",%progbits
 385              		.align	2
 386              		.code	16
 387              		.thumb_func
 388              		.type	I2C_Slave_I2CResposeInsert, %function
 389              	I2C_Slave_I2CResposeInsert:
 390              	.LFB5:
 236:Generated_Source\PSoC4/I2C_Slave_I2C_BOOT.c **** 
 237:Generated_Source\PSoC4/I2C_Slave_I2C_BOOT.c **** 
 238:Generated_Source\PSoC4/I2C_Slave_I2C_BOOT.c **** /*******************************************************************************
 239:Generated_Source\PSoC4/I2C_Slave_I2C_BOOT.c **** * Function Name: I2C_Slave_I2CResposeInsert
 240:Generated_Source\PSoC4/I2C_Slave_I2C_BOOT.c **** ****************************************************************************//**
 241:Generated_Source\PSoC4/I2C_Slave_I2C_BOOT.c **** *
 242:Generated_Source\PSoC4/I2C_Slave_I2C_BOOT.c **** *  Releases the read buffer to be read when a response is copied to the buffer
 243:Generated_Source\PSoC4/I2C_Slave_I2C_BOOT.c **** *  and a new read transaction starts.
 244:Generated_Source\PSoC4/I2C_Slave_I2C_BOOT.c **** *  Closes the read buffer when write transaction is started.
 245:Generated_Source\PSoC4/I2C_Slave_I2C_BOOT.c **** *
 246:Generated_Source\PSoC4/I2C_Slave_I2C_BOOT.c **** * \globalvars
 247:Generated_Source\PSoC4/I2C_Slave_I2C_BOOT.c **** *  I2C_Slave_applyBuffer - the flag to release the buffer with a response
 248:Generated_Source\PSoC4/I2C_Slave_I2C_BOOT.c **** *  to be read by the host.
 249:Generated_Source\PSoC4/I2C_Slave_I2C_BOOT.c **** *
 250:Generated_Source\PSoC4/I2C_Slave_I2C_BOOT.c **** *******************************************************************************/
 251:Generated_Source\PSoC4/I2C_Slave_I2C_BOOT.c **** static void I2C_Slave_I2CResposeInsert(void)
 252:Generated_Source\PSoC4/I2C_Slave_I2C_BOOT.c **** {
 391              		.loc 1 252 0
 392              		.cfi_startproc
 393              		@ args = 0, pretend = 0, frame = 0
 394              		@ frame_needed = 1, uses_anonymous_args = 0
 395 0000 80B5     		push	{r7, lr}
 396              		.cfi_def_cfa_offset 8
 397              		.cfi_offset 7, -8
 398              		.cfi_offset 14, -4
 399 0002 00AF     		add	r7, sp, #0
 400              		.cfi_def_cfa_register 7
 253:Generated_Source\PSoC4/I2C_Slave_I2C_BOOT.c ****     if (I2C_Slave_CHECK_INTR_SLAVE_MASKED(I2C_Slave_INTR_SLAVE_I2C_ADDR_MATCH))
 401              		.loc 1 253 0
 402 0004 124B     		ldr	r3, .L27
 403 0006 1B68     		ldr	r3, [r3]
 404 0008 4022     		movs	r2, #64
 405 000a 1340     		ands	r3, r2
 406 000c 1DD0     		beq	.L26
 254:Generated_Source\PSoC4/I2C_Slave_I2C_BOOT.c ****     {
 255:Generated_Source\PSoC4/I2C_Slave_I2C_BOOT.c ****         if (I2C_Slave_CHECK_I2C_STATUS(I2C_Slave_I2C_STATUS_S_READ))
 407              		.loc 1 255 0
 408 000e 114B     		ldr	r3, .L27+4
 409 0010 1B68     		ldr	r3, [r3]
 410 0012 1022     		movs	r2, #16
 411 0014 1340     		ands	r3, r2
 412 0016 0ED0     		beq	.L24
 256:Generated_Source\PSoC4/I2C_Slave_I2C_BOOT.c ****         {
 257:Generated_Source\PSoC4/I2C_Slave_I2C_BOOT.c ****             /* Address phase, host reads: release read buffer */
 258:Generated_Source\PSoC4/I2C_Slave_I2C_BOOT.c ****             if (0u != I2C_Slave_applyBuffer)
 413              		.loc 1 258 0
 414 0018 0F4B     		ldr	r3, .L27+8
 415 001a 1B68     		ldr	r3, [r3]
 416 001c 002B     		cmp	r3, #0
ARM GAS  C:\Users\ali\AppData\Local\Temp\ccemZ3ju.s 			page 13


 417 001e 14D0     		beq	.L26
 259:Generated_Source\PSoC4/I2C_Slave_I2C_BOOT.c ****             {
 260:Generated_Source\PSoC4/I2C_Slave_I2C_BOOT.c ****                 I2C_Slave_slRdBufSize  = I2C_Slave_applyBuffer;
 418              		.loc 1 260 0
 419 0020 0D4B     		ldr	r3, .L27+8
 420 0022 1A68     		ldr	r2, [r3]
 421 0024 0D4B     		ldr	r3, .L27+12
 422 0026 1A60     		str	r2, [r3]
 261:Generated_Source\PSoC4/I2C_Slave_I2C_BOOT.c ****                 I2C_Slave_slRdBufIndex = 0u;
 423              		.loc 1 261 0
 424 0028 0D4B     		ldr	r3, .L27+16
 425 002a 0022     		movs	r2, #0
 426 002c 1A60     		str	r2, [r3]
 262:Generated_Source\PSoC4/I2C_Slave_I2C_BOOT.c ****                 I2C_Slave_applyBuffer  = 0u;
 427              		.loc 1 262 0
 428 002e 0A4B     		ldr	r3, .L27+8
 429 0030 0022     		movs	r2, #0
 430 0032 1A60     		str	r2, [r3]
 263:Generated_Source\PSoC4/I2C_Slave_I2C_BOOT.c ****             }
 264:Generated_Source\PSoC4/I2C_Slave_I2C_BOOT.c ****         }
 265:Generated_Source\PSoC4/I2C_Slave_I2C_BOOT.c ****         else
 266:Generated_Source\PSoC4/I2C_Slave_I2C_BOOT.c ****         {
 267:Generated_Source\PSoC4/I2C_Slave_I2C_BOOT.c ****             /* Address phase, host writes: close read buffer */
 268:Generated_Source\PSoC4/I2C_Slave_I2C_BOOT.c ****             if (I2C_Slave_slRdBufIndex != I2C_Slave_slRdBufSize)
 269:Generated_Source\PSoC4/I2C_Slave_I2C_BOOT.c ****             {
 270:Generated_Source\PSoC4/I2C_Slave_I2C_BOOT.c ****                 I2C_Slave_slRdBufIndex = I2C_Slave_slRdBufSize;
 271:Generated_Source\PSoC4/I2C_Slave_I2C_BOOT.c ****             }
 272:Generated_Source\PSoC4/I2C_Slave_I2C_BOOT.c ****         }
 273:Generated_Source\PSoC4/I2C_Slave_I2C_BOOT.c ****     }
 274:Generated_Source\PSoC4/I2C_Slave_I2C_BOOT.c **** }
 431              		.loc 1 274 0
 432 0034 09E0     		b	.L26
 433              	.L24:
 268:Generated_Source\PSoC4/I2C_Slave_I2C_BOOT.c ****             {
 434              		.loc 1 268 0
 435 0036 0A4B     		ldr	r3, .L27+16
 436 0038 1A68     		ldr	r2, [r3]
 437 003a 084B     		ldr	r3, .L27+12
 438 003c 1B68     		ldr	r3, [r3]
 439 003e 9A42     		cmp	r2, r3
 440 0040 03D0     		beq	.L26
 270:Generated_Source\PSoC4/I2C_Slave_I2C_BOOT.c ****             }
 441              		.loc 1 270 0
 442 0042 064B     		ldr	r3, .L27+12
 443 0044 1A68     		ldr	r2, [r3]
 444 0046 064B     		ldr	r3, .L27+16
 445 0048 1A60     		str	r2, [r3]
 446              	.L26:
 447              		.loc 1 274 0
 448 004a C046     		nop
 449 004c BD46     		mov	sp, r7
 450              		@ sp needed
 451 004e 80BD     		pop	{r7, pc}
 452              	.L28:
 453              		.align	2
 454              	.L27:
 455 0050 4C0F0740 		.word	1074204492
ARM GAS  C:\Users\ali\AppData\Local\Temp\ccemZ3ju.s 			page 14


 456 0054 64000740 		.word	1074200676
 457 0058 80000000 		.word	I2C_Slave_applyBuffer
 458 005c 00000000 		.word	I2C_Slave_slRdBufSize
 459 0060 00000000 		.word	I2C_Slave_slRdBufIndex
 460              		.cfi_endproc
 461              	.LFE5:
 462              		.size	I2C_Slave_I2CResposeInsert, .-I2C_Slave_I2CResposeInsert
 463              		.text
 464              	.Letext0:
 465              		.file 2 "Generated_Source\\PSoC4/cytypes.h"
 466              		.file 3 "Generated_Source\\PSoC4\\I2C_Slave_I2C_PVT.h"