ARM GAS  C:\Users\IroTeam\AppData\Local\Temp\cc7EN6Cu.s 			page 1


   1              		.syntax unified
   2              		.cpu cortex-m3
   3              		.fpu softvfp
   4              		.eabi_attribute 20, 1
   5              		.eabi_attribute 21, 1
   6              		.eabi_attribute 23, 3
   7              		.eabi_attribute 24, 1
   8              		.eabi_attribute 25, 1
   9              		.eabi_attribute 26, 1
  10              		.eabi_attribute 30, 6
  11              		.eabi_attribute 34, 1
  12              		.eabi_attribute 18, 4
  13              		.thumb
  14              		.syntax unified
  15              		.file	"ChipUpdate.c"
  16              		.text
  17              	.Ltext0:
  18              		.cfi_sections	.debug_frame
  19              		.comm	TCB_Task_Main,84,4
  20              		.comm	Stack_Task_Main,8192,4
  21              		.global	line_num
  22              		.bss
  23              		.align	1
  24              		.type	line_num, %object
  25              		.size	line_num, 2
  26              	line_num:
  27 0000 0000     		.space	2
  28              		.global	i2c_counter
  29              		.align	1
  30              		.type	i2c_counter, %object
  31              		.size	i2c_counter, 2
  32              	i2c_counter:
  33 0002 0000     		.space	2
  34              		.global	data_length
  35              		.align	2
  36              		.type	data_length, %object
  37              		.size	data_length, 4
  38              	data_length:
  39 0004 00000000 		.space	4
  40              		.comm	fota_data_bytes,262,4
  41              		.global	fota_data_index
  42              		.align	1
  43              		.type	fota_data_index, %object
  44              		.size	fota_data_index, 2
  45              	fota_data_index:
  46 0008 0000     		.space	2
  47              		.global	data_index
  48 000a 0000     		.align	2
  49              		.type	data_index, %object
  50              		.size	data_index, 4
  51              	data_index:
  52 000c 00000000 		.space	4
  53              		.global	last_percent
  54              		.type	last_percent, %object
  55              		.size	last_percent, 1
  56              	last_percent:
  57 0010 00       		.space	1
ARM GAS  C:\Users\IroTeam\AppData\Local\Temp\cc7EN6Cu.s 			page 2


  58              		.section	.text.proc_reset_chip,"ax",%progbits
  59              		.align	2
  60              		.global	proc_reset_chip
  61              		.thumb
  62              		.thumb_func
  63              		.type	proc_reset_chip, %function
  64              	proc_reset_chip:
  65              	.LFB64:
  66              		.file 1 "ChipUpdate.c"
   1:ChipUpdate.c  **** /*
   2:ChipUpdate.c  ****  * proc.c
   3:ChipUpdate.c  ****  *
   4:ChipUpdate.c  ****  *  Created on: Jul 22, 2023
   5:ChipUpdate.c  ****  *      Author: IroTeam
   6:ChipUpdate.c  ****  */
   7:ChipUpdate.c  **** #include "ChipUpdate.h"
   8:ChipUpdate.c  **** #include "IO.h"
   9:ChipUpdate.c  **** 
  10:ChipUpdate.c  **** uint16_t line_num = 0;
  11:ChipUpdate.c  **** uint16_t i2c_counter = 0;
  12:ChipUpdate.c  **** 
  13:ChipUpdate.c  **** unsigned int data_length = 0;
  14:ChipUpdate.c  **** uint8_t fota_data_bytes[FOTA_ROW_SIZE * FOTA_MAX_FILE_LINE];
  15:ChipUpdate.c  **** uint16_t fota_data_index = 0;
  16:ChipUpdate.c  **** int	data_index = 0;
  17:ChipUpdate.c  **** 
  18:ChipUpdate.c  **** 
  19:ChipUpdate.c  **** uint8_t last_percent = 0;
  20:ChipUpdate.c  **** // ###################################################### Init Functions ##########################
  21:ChipUpdate.c  **** //void proc_init()
  22:ChipUpdate.c  **** //{
  23:ChipUpdate.c  **** //    df_init_vars_all();
  24:ChipUpdate.c  **** //
  25:ChipUpdate.c  **** //    uint8_t byte = 0;
  26:ChipUpdate.c  **** //	if(ee2_read_byte(EE2_1_CHIP_ADDR, &byte, 0x00) == HAL_OK){
  27:ChipUpdate.c  **** //		if(byte == 0xFF){
  28:ChipUpdate.c  **** //			ee2_write_init(0, 1024);
  29:ChipUpdate.c  **** //		}
  30:ChipUpdate.c  **** //		else{
  31:ChipUpdate.c  **** //			UART_Debug_PutString("External EEPROM is OK\r\n");
  32:ChipUpdate.c  **** //		}
  33:ChipUpdate.c  **** //	}
  34:ChipUpdate.c  **** //
  35:ChipUpdate.c  **** //
  36:ChipUpdate.c  **** //    // check if wdt
  37:ChipUpdate.c  **** //
  38:ChipUpdate.c  **** ////    init_info(0x0000, 0x07D0);
  39:ChipUpdate.c  **** //
  40:ChipUpdate.c  **** ////    proc_wdt();
  41:ChipUpdate.c  **** //    UART_Debug_PutString("\r\n");
  42:ChipUpdate.c  **** //
  43:ChipUpdate.c  **** //
  44:ChipUpdate.c  **** //    UART_Debug_PutString("\r\n ############################ Configurations Set ##################
  45:ChipUpdate.c  **** //
  46:ChipUpdate.c  **** //    led_set_color(CYA);
  47:ChipUpdate.c  **** //
  48:ChipUpdate.c  **** //    return;
ARM GAS  C:\Users\IroTeam\AppData\Local\Temp\cc7EN6Cu.s 			page 3


  49:ChipUpdate.c  **** //}
  50:ChipUpdate.c  **** 
  51:ChipUpdate.c  **** //void proc_wdt()
  52:ChipUpdate.c  **** //{
  53:ChipUpdate.c  **** //
  54:ChipUpdate.c  **** //	if(ee2_read_wdt() == 1 && ee2_read_swt() == 1){
  55:ChipUpdate.c  **** //
  56:ChipUpdate.c  **** //		uint8_t res = cm_get_last_wtd();
  57:ChipUpdate.c  **** //
  58:ChipUpdate.c  **** //		if(res == 1){
  59:ChipUpdate.c  **** //			cm_wtd_cnt++;
  60:ChipUpdate.c  **** //
  61:ChipUpdate.c  **** //			char bf[100];
  62:ChipUpdate.c  **** //			sprintf(bf, "proc_wdt: watchdog counter = %05lu \r\n", cm_wtd_cnt);
  63:ChipUpdate.c  **** //			UART_Debug_PutString(bf, 0);
  64:ChipUpdate.c  **** //
  65:ChipUpdate.c  **** //			ee2_write_wdt();
  66:ChipUpdate.c  **** //		}
  67:ChipUpdate.c  **** //		else if(res == 2){
  68:ChipUpdate.c  **** //			cm_swt_cnt++;
  69:ChipUpdate.c  **** //
  70:ChipUpdate.c  **** //			char bf[100];
  71:ChipUpdate.c  **** //			sprintf(bf, "proc_swt: software counter = %05lu \r\n", cm_swt_cnt);
  72:ChipUpdate.c  **** //			UART_Debug_PutString(bf, 0);
  73:ChipUpdate.c  **** //
  74:ChipUpdate.c  **** //			ee2_write_swt();
  75:ChipUpdate.c  **** //		}
  76:ChipUpdate.c  **** //	}
  77:ChipUpdate.c  **** //
  78:ChipUpdate.c  **** //    return;
  79:ChipUpdate.c  **** //}
  80:ChipUpdate.c  **** 
  81:ChipUpdate.c  **** // ################################################################################################
  82:ChipUpdate.c  **** // ################################################################################################
  83:ChipUpdate.c  **** // ###################################################### For DAS #################################
  84:ChipUpdate.c  **** 
  85:ChipUpdate.c  **** // ------------------------------------------------------ OTHER func ------------------------------
  86:ChipUpdate.c  **** //void proc_reset_wdt(uint8_t reset)
  87:ChipUpdate.c  **** //{
  88:ChipUpdate.c  **** //    if(reset){
  89:ChipUpdate.c  **** //        cm_wtd_cnt = 0;
  90:ChipUpdate.c  **** //        cm_swt_cnt = 0;
  91:ChipUpdate.c  **** //        ee2_write_swt();
  92:ChipUpdate.c  **** //        ee2_write_wdt();
  93:ChipUpdate.c  **** //    }
  94:ChipUpdate.c  **** //
  95:ChipUpdate.c  **** //    return;
  96:ChipUpdate.c  **** //}
  97:ChipUpdate.c  **** 
  98:ChipUpdate.c  **** 
  99:ChipUpdate.c  **** void proc_reset_chip(uint8_t reset_code)
 100:ChipUpdate.c  **** {
  67              		.loc 1 100 0
  68              		.cfi_startproc
  69              		@ args = 0, pretend = 0, frame = 8
  70              		@ frame_needed = 1, uses_anonymous_args = 0
  71 0000 80B5     		push	{r7, lr}
ARM GAS  C:\Users\IroTeam\AppData\Local\Temp\cc7EN6Cu.s 			page 4


  72              		.cfi_def_cfa_offset 8
  73              		.cfi_offset 7, -8
  74              		.cfi_offset 14, -4
  75 0002 82B0     		sub	sp, sp, #8
  76              		.cfi_def_cfa_offset 16
  77 0004 00AF     		add	r7, sp, #0
  78              		.cfi_def_cfa_register 7
  79 0006 0346     		mov	r3, r0
  80 0008 FB71     		strb	r3, [r7, #7]
 101:ChipUpdate.c  ****     ie2_write_byte(reset_code, IE2_Loc_Reset_Code_Address);
  81              		.loc 1 101 0
  82 000a FB79     		ldrb	r3, [r7, #7]	@ zero_extendqisi2
  83 000c 1321     		movs	r1, #19
  84 000e 1846     		mov	r0, r3
  85 0010 FFF7FEFF 		bl	ie2_write_byte
 102:ChipUpdate.c  ****     CyDelay(500);
  86              		.loc 1 102 0
  87 0014 4FF4FA70 		mov	r0, #500
  88 0018 FFF7FEFF 		bl	CyDelay
 103:ChipUpdate.c  **** //    cm_read_reset_code();
 104:ChipUpdate.c  **** //    CyDelay(500);
 105:ChipUpdate.c  ****     CyWdtClear();
  89              		.loc 1 105 0
  90 001c FFF7FEFF 		bl	CyWdtClear
 106:ChipUpdate.c  ****     CySoftwareReset();
  91              		.loc 1 106 0
  92 0020 FFF7FEFF 		bl	CySoftwareReset
 107:ChipUpdate.c  **** 
 108:ChipUpdate.c  ****     return;
  93              		.loc 1 108 0
  94 0024 00BF     		nop
 109:ChipUpdate.c  **** }
  95              		.loc 1 109 0
  96 0026 0837     		adds	r7, r7, #8
  97              		.cfi_def_cfa_offset 8
  98 0028 BD46     		mov	sp, r7
  99              		.cfi_def_cfa_register 13
 100              		@ sp needed
 101 002a 80BD     		pop	{r7, pc}
 102              		.cfi_endproc
 103              	.LFE64:
 104              		.size	proc_reset_chip, .-proc_reset_chip
 105              		.section	.rodata
 106              		.align	2
 107              	.LC0:
 108 0000 7B534554 		.ascii	"{SET_FOT}:\000"
 108      5F464F54 
 108      7D3A00
 109 000b 00       		.align	2
 110              	.LC1:
 111 000c 7B534554 		.ascii	"{SET_FOT}:{\"id\":\"%02d\",\"data\":[\000"
 111      5F464F54 
 111      7D3A7B22 
 111      6964223A 
 111      22253032 
 112              		.align	2
 113              	.LC2:
ARM GAS  C:\Users\IroTeam\AppData\Local\Temp\cc7EN6Cu.s 			page 5


 114 002c 0D0A2023 		.ascii	"\015\012 #### NOTE: FOTA procedure STOPPED ####\015"
 114      23232320 
 114      4E4F5445 
 114      3A20464F 
 114      54412070 
 115 0056 0A00     		.ascii	"\012\000"
 116              		.align	2
 117              	.LC3:
 118 0058 75706461 		.ascii	"update_check_packet: wrong msg: \000"
 118      74655F63 
 118      6865636B 
 118      5F706163 
 118      6B65743A 
 119 0079 000000   		.align	2
 120              	.LC4:
 121 007c 0D0A00   		.ascii	"\015\012\000"
 122              		.section	.text.update_check_packet,"ax",%progbits
 123              		.align	2
 124              		.global	update_check_packet
 125              		.thumb
 126              		.thumb_func
 127              		.type	update_check_packet, %function
 128              	update_check_packet:
 129              	.LFB65:
 110:ChipUpdate.c  **** // ################################################################################################
 111:ChipUpdate.c  **** // ################################################################################################
 112:ChipUpdate.c  **** // ------------------------------------------------------ UPDATE proc -----------------------------
 113:ChipUpdate.c  ****             void update_check_packet(char* msg)
 114:ChipUpdate.c  ****             {
 130              		.loc 1 114 0
 131              		.cfi_startproc
 132              		@ args = 0, pretend = 0, frame = 136
 133              		@ frame_needed = 1, uses_anonymous_args = 0
 134 0000 80B5     		push	{r7, lr}
 135              		.cfi_def_cfa_offset 8
 136              		.cfi_offset 7, -8
 137              		.cfi_offset 14, -4
 138 0002 A2B0     		sub	sp, sp, #136
 139              		.cfi_def_cfa_offset 144
 140 0004 00AF     		add	r7, sp, #0
 141              		.cfi_def_cfa_register 7
 142 0006 7860     		str	r0, [r7, #4]
 115:ChipUpdate.c  ****                 //from LINUX --> {SET_FOT}:{"id":"00","data":["-","???","--","--","--------"]}
 116:ChipUpdate.c  ****                 if((memcmp((char*)&msg[0], "{SET_FOT}:", 10) == 0)){
 143              		.loc 1 116 0
 144 0008 0A22     		movs	r2, #10
 145 000a 1A49     		ldr	r1, .L10
 146 000c 7868     		ldr	r0, [r7, #4]
 147 000e FFF7FEFF 		bl	memcmp
 148 0012 0346     		mov	r3, r0
 149 0014 002B     		cmp	r3, #0
 150 0016 1FD1     		bne	.L4
 151              	.LBB2:
 117:ChipUpdate.c  **** //                    OS_TIMER_Restart(&Timer_Update);
 118:ChipUpdate.c  ****                     char fota[128];
 119:ChipUpdate.c  ****                     sprintf(fota, "{SET_FOT}:{\"id\":\"%02d\",\"data\":[", (unsigned int)MAIN_ID);
 152              		.loc 1 119 0
ARM GAS  C:\Users\IroTeam\AppData\Local\Temp\cc7EN6Cu.s 			page 6


 153 0018 07F10803 		add	r3, r7, #8
 154 001c 0022     		movs	r2, #0
 155 001e 1649     		ldr	r1, .L10+4
 156 0020 1846     		mov	r0, r3
 157 0022 FFF7FEFF 		bl	sprintf
 120:ChipUpdate.c  ****                     if((memcmp((char*)&msg[0], fota, 29) == 0)){
 158              		.loc 1 120 0
 159 0026 07F10803 		add	r3, r7, #8
 160 002a 1D22     		movs	r2, #29
 161 002c 1946     		mov	r1, r3
 162 002e 7868     		ldr	r0, [r7, #4]
 163 0030 FFF7FEFF 		bl	memcmp
 164 0034 0346     		mov	r3, r0
 165 0036 002B     		cmp	r3, #0
 166 0038 18D1     		bne	.L9
 121:ChipUpdate.c  ****                         if(!fota_flag_start){
 167              		.loc 1 121 0
 168 003a 104B     		ldr	r3, .L10+8
 169 003c 1B78     		ldrb	r3, [r3]	@ zero_extendqisi2
 170 003e 002B     		cmp	r3, #0
 171 0040 06D1     		bne	.L6
 122:ChipUpdate.c  ****                             update_start(1, &((char*)msg)[29]);
 172              		.loc 1 122 0
 173 0042 7B68     		ldr	r3, [r7, #4]
 174 0044 1D33     		adds	r3, r3, #29
 175 0046 1946     		mov	r1, r3
 176 0048 0120     		movs	r0, #1
 177 004a FFF7FEFF 		bl	update_start
 178              	.LBE2:
 123:ChipUpdate.c  ****                         }
 124:ChipUpdate.c  ****                         // STOP & RESET FOTA STATE
 125:ChipUpdate.c  **** 						else{
 126:ChipUpdate.c  **** 							UART_Debug_PutString("\r\n #### NOTE: FOTA procedure STOPPED ####\r\n");
 127:ChipUpdate.c  **** //							qctl_ftp_reset();
 128:ChipUpdate.c  **** 						}
 129:ChipUpdate.c  ****                     }
 130:ChipUpdate.c  ****                 }
 131:ChipUpdate.c  ****                 //from LINUX --> {FOT_FOR}:{"[LINE_NUM]","[CHECKSUM"],"[DATA]"}
 132:ChipUpdate.c  **** //                else if((memcmp((char*)&msg[0], "{FOT_FOT}:", 10) == 0)){
 133:ChipUpdate.c  **** ////                    OS_TIMER_Restart(&osTimer_reset_state);
 134:ChipUpdate.c  **** //                    proc_fota_procedure(&((char*)msg)[10]);
 135:ChipUpdate.c  **** //                }
 136:ChipUpdate.c  ****                 else{
 137:ChipUpdate.c  ****                     UART_Debug_PutString("update_check_packet: wrong msg: ");
 138:ChipUpdate.c  ****                     UART_Debug_PutString(msg);
 139:ChipUpdate.c  ****                     UART_Debug_PutString("\r\n");
 140:ChipUpdate.c  ****                 }
 141:ChipUpdate.c  **** 
 142:ChipUpdate.c  ****                 return;
 179              		.loc 1 142 0
 180 004e 0DE0     		b	.L9
 181              	.L6:
 182              	.LBB3:
 126:ChipUpdate.c  **** //							qctl_ftp_reset();
 183              		.loc 1 126 0
 184 0050 0B48     		ldr	r0, .L10+12
 185 0052 FFF7FEFF 		bl	UART_Debug_PutString
ARM GAS  C:\Users\IroTeam\AppData\Local\Temp\cc7EN6Cu.s 			page 7


 186              	.LBE3:
 187              		.loc 1 142 0
 188 0056 09E0     		b	.L9
 189              	.L4:
 137:ChipUpdate.c  ****                     UART_Debug_PutString(msg);
 190              		.loc 1 137 0
 191 0058 0A48     		ldr	r0, .L10+16
 192 005a FFF7FEFF 		bl	UART_Debug_PutString
 138:ChipUpdate.c  ****                     UART_Debug_PutString("\r\n");
 193              		.loc 1 138 0
 194 005e 7868     		ldr	r0, [r7, #4]
 195 0060 FFF7FEFF 		bl	UART_Debug_PutString
 139:ChipUpdate.c  ****                 }
 196              		.loc 1 139 0
 197 0064 0848     		ldr	r0, .L10+20
 198 0066 FFF7FEFF 		bl	UART_Debug_PutString
 199              		.loc 1 142 0
 200 006a 00BF     		nop
 201              	.L9:
 202 006c 00BF     		nop
 143:ChipUpdate.c  ****             }
 203              		.loc 1 143 0
 204 006e 8837     		adds	r7, r7, #136
 205              		.cfi_def_cfa_offset 8
 206 0070 BD46     		mov	sp, r7
 207              		.cfi_def_cfa_register 13
 208              		@ sp needed
 209 0072 80BD     		pop	{r7, pc}
 210              	.L11:
 211              		.align	2
 212              	.L10:
 213 0074 00000000 		.word	.LC0
 214 0078 0C000000 		.word	.LC1
 215 007c 00000000 		.word	fota_flag_start
 216 0080 2C000000 		.word	.LC2
 217 0084 58000000 		.word	.LC3
 218 0088 7C000000 		.word	.LC4
 219              		.cfi_endproc
 220              	.LFE65:
 221              		.size	update_check_packet, .-update_check_packet
 222              		.section	.rodata
 223 007f 00       		.align	2
 224              	.LC5:
 225 0080 5B00     		.ascii	"[\000"
 226 0082 0000     		.align	2
 227              	.LC6:
 228 0084 2200     		.ascii	"\"\000"
 229 0086 0000     		.align	2
 230              	.LC7:
 231 0088 5D00     		.ascii	"]\000"
 232 008a 0000     		.align	2
 233              	.LC8:
 234 008c 7D00     		.ascii	"}\000"
 235 008e 0000     		.align	2
 236              	.LC9:
 237 0090 2C00     		.ascii	",\000"
 238 0092 0000     		.align	2
ARM GAS  C:\Users\IroTeam\AppData\Local\Temp\cc7EN6Cu.s 			page 8


 239              	.LC10:
 240 0094 666F7461 		.ascii	"fota_flag_start: %01X\015\012fota_folder_name: \000"
 240      5F666C61 
 240      675F7374 
 240      6172743A 
 240      20253031 
 241 00be 0000     		.align	2
 242              	.LC11:
 243 00c0 666F7461 		.ascii	"fota_file_numbers: %03d\015\012fota_App_lines: %03d"
 243      5F66696C 
 243      655F6E75 
 243      6D626572 
 243      733A2025 
 244 00ed 0D0A666F 		.ascii	"\015\012fota_App_size: %08lX\015\012fota_App_CRC: %"
 244      74615F41 
 244      70705F73 
 244      697A653A 
 244      20253038 
 245 0114 30386C58 		.ascii	"08lX\015\012\000"
 245      0D0A00
 246 011b 00       		.align	2
 247              	.LC12:
 248 011c 0D0A2023 		.ascii	"\015\012 #### Note: FOTA Procedure Started!!!\015\012"
 248      23232320 
 248      4E6F7465 
 248      3A20464F 
 248      54412050 
 249 0145 00       		.ascii	"\000"
 250 0146 0000     		.align	2
 251              	.LC13:
 252 0148 7B464F54 		.ascii	"{FOT_REQ}:{\"num\":\"001\"}\015\012\000"
 252      5F524551 
 252      7D3A7B22 
 252      6E756D22 
 252      3A223030 
 253 0162 0000     		.align	2
 254              	.LC14:
 255 0164 75706461 		.ascii	"update_procedure >> failed to put to _Queue_Send >>"
 255      74655F70 
 255      726F6365 
 255      64757265 
 255      203E3E20 
 256 0197 2000     		.ascii	" \000"
 257 0199 000000   		.align	2
 258              	.LC15:
 259 019c 0D0A2023 		.ascii	"\015\012 #### Note: FOTA Procedure FAILED!!!\015\012"
 259      23232320 
 259      4E6F7465 
 259      3A20464F 
 259      54412050 
 260 01c4 00       		.ascii	"\000"
 261 01c5 000000   		.align	2
 262              	.LC16:
 263 01c8 0D0A2023 		.ascii	"\015\012 #### Note: FOTA Procedure STOPPED!!!\015\012"
 263      23232320 
 263      4E6F7465 
 263      3A20464F 
ARM GAS  C:\Users\IroTeam\AppData\Local\Temp\cc7EN6Cu.s 			page 9


 263      54412050 
 264 01f1 00       		.ascii	"\000"
 265              		.section	.text.update_start,"ax",%progbits
 266              		.align	2
 267              		.global	update_start
 268              		.thumb
 269              		.thumb_func
 270              		.type	update_start, %function
 271              	update_start:
 272              	.LFB66:
 144:ChipUpdate.c  **** //-
 145:ChipUpdate.c  **** //--
 146:ChipUpdate.c  ****     //-
 147:ChipUpdate.c  ****     //--
 148:ChipUpdate.c  ****         //-
 149:ChipUpdate.c  ****         //--
 150:ChipUpdate.c  **** //-
 151:ChipUpdate.c  **** //--
 152:ChipUpdate.c  ****             // FYI >> WORKING
 153:ChipUpdate.c  ****             void update_start(uint8_t fota_flag, char* fota_data)
 154:ChipUpdate.c  ****             {
 273              		.loc 1 154 0
 274              		.cfi_startproc
 275              		@ args = 0, pretend = 0, frame = 216
 276              		@ frame_needed = 1, uses_anonymous_args = 0
 277 0000 90B5     		push	{r4, r7, lr}
 278              		.cfi_def_cfa_offset 12
 279              		.cfi_offset 4, -12
 280              		.cfi_offset 7, -8
 281              		.cfi_offset 14, -4
 282 0002 B9B0     		sub	sp, sp, #228
 283              		.cfi_def_cfa_offset 240
 284 0004 02AF     		add	r7, sp, #8
 285              		.cfi_def_cfa 7, 232
 286 0006 0346     		mov	r3, r0
 287 0008 3960     		str	r1, [r7]
 288 000a FB71     		strb	r3, [r7, #7]
 155:ChipUpdate.c  ****             //    [fota_status],[folder_name],[number_of_file],[number_of_all_lines],[Application_C
 156:ChipUpdate.c  ****             //    ["-","------------","---","---","--------"]}
 157:ChipUpdate.c  ****             	// get FOTA command from server and parse it
 158:ChipUpdate.c  ****             	strremove(fota_data, "[");
 289              		.loc 1 158 0
 290 000c 6B49     		ldr	r1, .L20
 291 000e 3868     		ldr	r0, [r7]
 292 0010 FFF7FEFF 		bl	strremove
 159:ChipUpdate.c  ****             	strremove(fota_data, "\"");
 293              		.loc 1 159 0
 294 0014 6A49     		ldr	r1, .L20+4
 295 0016 3868     		ldr	r0, [r7]
 296 0018 FFF7FEFF 		bl	strremove
 160:ChipUpdate.c  ****             	strremove(fota_data, "]");
 297              		.loc 1 160 0
 298 001c 6949     		ldr	r1, .L20+8
 299 001e 3868     		ldr	r0, [r7]
 300 0020 FFF7FEFF 		bl	strremove
 161:ChipUpdate.c  ****             	strremove(fota_data, "}");
 301              		.loc 1 161 0
ARM GAS  C:\Users\IroTeam\AppData\Local\Temp\cc7EN6Cu.s 			page 10


 302 0024 6849     		ldr	r1, .L20+12
 303 0026 3868     		ldr	r0, [r7]
 304 0028 FFF7FEFF 		bl	strremove
 162:ChipUpdate.c  **** 
 163:ChipUpdate.c  ****             	char* ret = NULL;
 305              		.loc 1 163 0
 306 002c 0023     		movs	r3, #0
 307 002e C7F8D430 		str	r3, [r7, #212]
 164:ChipUpdate.c  **** 
 165:ChipUpdate.c  ****             	ret = strtok(fota_data, ",");
 308              		.loc 1 165 0
 309 0032 6649     		ldr	r1, .L20+16
 310 0034 3868     		ldr	r0, [r7]
 311 0036 FFF7FEFF 		bl	strtok
 312 003a C7F8D400 		str	r0, [r7, #212]
 166:ChipUpdate.c  ****             	fota_flag_start = strtol(ret, NULL, 16);
 313              		.loc 1 166 0
 314 003e 1022     		movs	r2, #16
 315 0040 0021     		movs	r1, #0
 316 0042 D7F8D400 		ldr	r0, [r7, #212]
 317 0046 FFF7FEFF 		bl	strtol
 318 004a 0346     		mov	r3, r0
 319 004c DAB2     		uxtb	r2, r3
 320 004e 604B     		ldr	r3, .L20+20
 321 0050 1A70     		strb	r2, [r3]
 167:ChipUpdate.c  **** 
 168:ChipUpdate.c  ****                 if(fota_flag_start == 1){
 322              		.loc 1 168 0
 323 0052 5F4B     		ldr	r3, .L20+20
 324 0054 1B78     		ldrb	r3, [r3]	@ zero_extendqisi2
 325 0056 012B     		cmp	r3, #1
 326 0058 40F0A780 		bne	.L13
 169:ChipUpdate.c  **** 
 170:ChipUpdate.c  ****                     ret = strtok(NULL, ",");
 327              		.loc 1 170 0
 328 005c 5B49     		ldr	r1, .L20+16
 329 005e 0020     		movs	r0, #0
 330 0060 FFF7FEFF 		bl	strtok
 331 0064 C7F8D400 		str	r0, [r7, #212]
 171:ChipUpdate.c  ****                     strcpy(server_fota_folder_name, ret);
 332              		.loc 1 171 0
 333 0068 D7F8D410 		ldr	r1, [r7, #212]
 334 006c 5948     		ldr	r0, .L20+24
 335 006e FFF7FEFF 		bl	strcpy
 172:ChipUpdate.c  **** 
 173:ChipUpdate.c  ****                     ret = strtok(NULL, ",");
 336              		.loc 1 173 0
 337 0072 5649     		ldr	r1, .L20+16
 338 0074 0020     		movs	r0, #0
 339 0076 FFF7FEFF 		bl	strtok
 340 007a C7F8D400 		str	r0, [r7, #212]
 174:ChipUpdate.c  ****                     server_fota_file_numbers = strtol(ret, NULL, 10);
 341              		.loc 1 174 0
 342 007e 0A22     		movs	r2, #10
 343 0080 0021     		movs	r1, #0
 344 0082 D7F8D400 		ldr	r0, [r7, #212]
 345 0086 FFF7FEFF 		bl	strtol
ARM GAS  C:\Users\IroTeam\AppData\Local\Temp\cc7EN6Cu.s 			page 11


 346 008a 0346     		mov	r3, r0
 347 008c 9AB2     		uxth	r2, r3
 348 008e 524B     		ldr	r3, .L20+28
 349 0090 1A80     		strh	r2, [r3]	@ movhi
 175:ChipUpdate.c  **** 
 176:ChipUpdate.c  ****                     ret = strtok(NULL, ",");
 350              		.loc 1 176 0
 351 0092 4E49     		ldr	r1, .L20+16
 352 0094 0020     		movs	r0, #0
 353 0096 FFF7FEFF 		bl	strtok
 354 009a C7F8D400 		str	r0, [r7, #212]
 177:ChipUpdate.c  ****                     server_fota_App_size = strtoul(ret, NULL, 10);
 355              		.loc 1 177 0
 356 009e 0A22     		movs	r2, #10
 357 00a0 0021     		movs	r1, #0
 358 00a2 D7F8D400 		ldr	r0, [r7, #212]
 359 00a6 FFF7FEFF 		bl	strtoul
 360 00aa 0246     		mov	r2, r0
 361 00ac 4B4B     		ldr	r3, .L20+32
 362 00ae 1A60     		str	r2, [r3]
 178:ChipUpdate.c  **** 
 179:ChipUpdate.c  ****                     ret = strtok(NULL, ",");
 363              		.loc 1 179 0
 364 00b0 4649     		ldr	r1, .L20+16
 365 00b2 0020     		movs	r0, #0
 366 00b4 FFF7FEFF 		bl	strtok
 367 00b8 C7F8D400 		str	r0, [r7, #212]
 180:ChipUpdate.c  **** 
 181:ChipUpdate.c  ****                     server_fota_App_CRC = strtoul(ret, NULL, 16);
 368              		.loc 1 181 0
 369 00bc 1022     		movs	r2, #16
 370 00be 0021     		movs	r1, #0
 371 00c0 D7F8D400 		ldr	r0, [r7, #212]
 372 00c4 FFF7FEFF 		bl	strtoul
 373 00c8 0246     		mov	r2, r0
 374 00ca 454B     		ldr	r3, .L20+36
 375 00cc 1A60     		str	r2, [r3]
 182:ChipUpdate.c  **** 
 183:ChipUpdate.c  ****                     if(fota_flag_start && server_fota_file_numbers && server_fota_App_size && serve
 376              		.loc 1 183 0
 377 00ce 404B     		ldr	r3, .L20+20
 378 00d0 1B78     		ldrb	r3, [r3]	@ zero_extendqisi2
 379 00d2 002B     		cmp	r3, #0
 380 00d4 65D0     		beq	.L14
 381              		.loc 1 183 0 is_stmt 0 discriminator 1
 382 00d6 404B     		ldr	r3, .L20+28
 383 00d8 1B88     		ldrh	r3, [r3]
 384 00da 002B     		cmp	r3, #0
 385 00dc 61D0     		beq	.L14
 386              		.loc 1 183 0 discriminator 2
 387 00de 3F4B     		ldr	r3, .L20+32
 388 00e0 1B68     		ldr	r3, [r3]
 389 00e2 002B     		cmp	r3, #0
 390 00e4 5DD0     		beq	.L14
 391              		.loc 1 183 0 discriminator 3
 392 00e6 3E4B     		ldr	r3, .L20+36
 393 00e8 1B68     		ldr	r3, [r3]
ARM GAS  C:\Users\IroTeam\AppData\Local\Temp\cc7EN6Cu.s 			page 12


 394 00ea 002B     		cmp	r3, #0
 395 00ec 59D0     		beq	.L14
 396              	.LBB4:
 184:ChipUpdate.c  **** //                    	if(internal_flash_erase() == 1){
 185:ChipUpdate.c  ****                     		last_percent = 0;
 397              		.loc 1 185 0 is_stmt 1
 398 00ee 3D4B     		ldr	r3, .L20+40
 399 00f0 0022     		movs	r2, #0
 400 00f2 1A70     		strb	r2, [r3]
 186:ChipUpdate.c  ****                     		CyWdtClear();
 401              		.loc 1 186 0
 402 00f4 FFF7FEFF 		bl	CyWdtClear
 187:ChipUpdate.c  ****                     		char bf[200];
 188:ChipUpdate.c  ****             				sprintf(bf, "fota_flag_start: %01X\r\nfota_folder_name: ", fota_flag_start);
 403              		.loc 1 188 0
 404 00f8 354B     		ldr	r3, .L20+20
 405 00fa 1B78     		ldrb	r3, [r3]	@ zero_extendqisi2
 406 00fc 1A46     		mov	r2, r3
 407 00fe 07F10C03 		add	r3, r7, #12
 408 0102 3949     		ldr	r1, .L20+44
 409 0104 1846     		mov	r0, r3
 410 0106 FFF7FEFF 		bl	sprintf
 189:ChipUpdate.c  ****             				strcat(bf, server_fota_folder_name);
 411              		.loc 1 189 0
 412 010a 07F10C03 		add	r3, r7, #12
 413 010e 3149     		ldr	r1, .L20+24
 414 0110 1846     		mov	r0, r3
 415 0112 FFF7FEFF 		bl	strcat
 190:ChipUpdate.c  ****             				strcat(bf, "\r\n");
 416              		.loc 1 190 0
 417 0116 07F10C03 		add	r3, r7, #12
 418 011a 1846     		mov	r0, r3
 419 011c FFF7FEFF 		bl	strlen
 420 0120 0346     		mov	r3, r0
 421 0122 1A46     		mov	r2, r3
 422 0124 07F10C03 		add	r3, r7, #12
 423 0128 1344     		add	r3, r3, r2
 424 012a 304A     		ldr	r2, .L20+48
 425 012c 1188     		ldrh	r1, [r2]	@ unaligned
 426 012e 9278     		ldrb	r2, [r2, #2]
 427 0130 1980     		strh	r1, [r3]	@ unaligned
 428 0132 9A70     		strb	r2, [r3, #2]
 191:ChipUpdate.c  ****             				UART_Debug_PutString(bf);
 429              		.loc 1 191 0
 430 0134 07F10C03 		add	r3, r7, #12
 431 0138 1846     		mov	r0, r3
 432 013a FFF7FEFF 		bl	UART_Debug_PutString
 192:ChipUpdate.c  **** 
 193:ChipUpdate.c  ****             				sprintf(bf, "fota_file_numbers: %03d\r\nfota_App_lines: %03d\r\nfota_App_size: %08l
 433              		.loc 1 193 0
 434 013e 264B     		ldr	r3, .L20+28
 435 0140 1B88     		ldrh	r3, [r3]
 436 0142 1946     		mov	r1, r3
 437 0144 244B     		ldr	r3, .L20+28
 438 0146 1B88     		ldrh	r3, [r3]
 439 0148 1C46     		mov	r4, r3
 440 014a 244B     		ldr	r3, .L20+32
ARM GAS  C:\Users\IroTeam\AppData\Local\Temp\cc7EN6Cu.s 			page 13


 441 014c 1B68     		ldr	r3, [r3]
 442 014e 244A     		ldr	r2, .L20+36
 443 0150 1268     		ldr	r2, [r2]
 444 0152 07F10C00 		add	r0, r7, #12
 445 0156 0192     		str	r2, [sp, #4]
 446 0158 0093     		str	r3, [sp]
 447 015a 2346     		mov	r3, r4
 448 015c 0A46     		mov	r2, r1
 449 015e 2449     		ldr	r1, .L20+52
 450 0160 FFF7FEFF 		bl	sprintf
 194:ChipUpdate.c  ****             						server_fota_file_numbers,
 195:ChipUpdate.c  ****             						server_fota_file_numbers,
 196:ChipUpdate.c  ****             						server_fota_App_size,
 197:ChipUpdate.c  ****             						server_fota_App_CRC);
 198:ChipUpdate.c  ****             				UART_Debug_PutString(bf);
 451              		.loc 1 198 0
 452 0164 07F10C03 		add	r3, r7, #12
 453 0168 1846     		mov	r0, r3
 454 016a FFF7FEFF 		bl	UART_Debug_PutString
 199:ChipUpdate.c  **** 
 200:ChipUpdate.c  ****                     		UART_Debug_PutString("\r\n #### Note: FOTA Procedure Started!!!\r\n");
 455              		.loc 1 200 0
 456 016e 2148     		ldr	r0, .L20+56
 457 0170 FFF7FEFF 		bl	UART_Debug_PutString
 201:ChipUpdate.c  **** //                    		UART_Debug_PutString("{SET_FOT}:{\"status\":\"done\"}\r\n");
 202:ChipUpdate.c  **** //                    		UART_Linux_PutString("{SET_FOT}:{\"status\":\"done\"}\r\n");
 203:ChipUpdate.c  **** 
 204:ChipUpdate.c  ****                     		CyWdtClear();
 458              		.loc 1 204 0
 459 0174 FFF7FEFF 		bl	CyWdtClear
 205:ChipUpdate.c  ****                     		UART_Debug_PutString("{FOT_REQ}:{\"num\":\"001\"}\r\n");
 460              		.loc 1 205 0
 461 0178 1F48     		ldr	r0, .L20+60
 462 017a FFF7FEFF 		bl	UART_Debug_PutString
 206:ChipUpdate.c  **** //                			RGB_Color = 5;
 207:ChipUpdate.c  **** //                			RGB_Color_Old = 5;
 208:ChipUpdate.c  **** //                			RGB(RGB_Color); //Cypress run
 209:ChipUpdate.c  **** //                    		UART_Linux_PutString("{FOT_REQ}:{\"num\":\"001\"}\r\n");
 210:ChipUpdate.c  ****                     		if(!q_put_message(&_Queue_Send, "{FOT_REQ}:{\"num\":\"001\"}\r\n", strlen("{F
 463              		.loc 1 210 0
 464 017e 1A22     		movs	r2, #26
 465 0180 1D49     		ldr	r1, .L20+60
 466 0182 1E48     		ldr	r0, .L20+64
 467 0184 FFF7FEFF 		bl	q_put_message
 468 0188 0346     		mov	r3, r0
 469 018a 002B     		cmp	r3, #0
 470 018c 11D1     		bne	.L19
 211:ChipUpdate.c  **** 								UART_Debug_PutString("update_procedure >> failed to put to _Queue_Send >> ");
 471              		.loc 1 211 0
 472 018e 1C48     		ldr	r0, .L20+68
 473 0190 FFF7FEFF 		bl	UART_Debug_PutString
 212:ChipUpdate.c  **** 								UART_Debug_PutString("{FOT_REQ}:{\"num\":\"001\"}\r\n");
 474              		.loc 1 212 0
 475 0194 1848     		ldr	r0, .L20+60
 476 0196 FFF7FEFF 		bl	UART_Debug_PutString
 213:ChipUpdate.c  **** 								UART_Debug_PutString("\r\n");
 477              		.loc 1 213 0
ARM GAS  C:\Users\IroTeam\AppData\Local\Temp\cc7EN6Cu.s 			page 14


 478 019a 1448     		ldr	r0, .L20+48
 479 019c FFF7FEFF 		bl	UART_Debug_PutString
 480              	.LBE4:
 183:ChipUpdate.c  **** //                    	if(internal_flash_erase() == 1){
 481              		.loc 1 183 0
 482 01a0 07E0     		b	.L19
 483              	.L14:
 214:ChipUpdate.c  **** 							}
 215:ChipUpdate.c  **** 
 216:ChipUpdate.c  **** //                    	}
 217:ChipUpdate.c  **** //                    	else{
 218:ChipUpdate.c  **** //                        	UART_Debug_PutString("\r\n #### Note: FOTA Procedure FAILED!!!\r\n");
 219:ChipUpdate.c  **** //            //            	qctl_ftp_reset();
 220:ChipUpdate.c  **** //                    	}
 221:ChipUpdate.c  ****                     }
 222:ChipUpdate.c  ****                     else{
 223:ChipUpdate.c  ****                     	UART_Debug_PutString("\r\n #### Note: FOTA Procedure FAILED!!!\r\n");
 484              		.loc 1 223 0
 485 01a2 1848     		ldr	r0, .L20+72
 486 01a4 FFF7FEFF 		bl	UART_Debug_PutString
 224:ChipUpdate.c  ****             //        	qctl_ftp_reset();
 225:ChipUpdate.c  ****                     }
 226:ChipUpdate.c  **** 
 227:ChipUpdate.c  ****                 }
 228:ChipUpdate.c  ****                 else{
 229:ChipUpdate.c  ****                 	UART_Debug_PutString("\r\n #### Note: FOTA Procedure STOPPED!!!\r\n");
 230:ChipUpdate.c  ****             //    	qctl_ftp_reset();
 231:ChipUpdate.c  ****                 }
 232:ChipUpdate.c  **** 
 233:ChipUpdate.c  **** 
 234:ChipUpdate.c  ****                 return;
 487              		.loc 1 234 0
 488 01a8 05E0     		b	.L12
 489              	.L13:
 229:ChipUpdate.c  ****             //    	qctl_ftp_reset();
 490              		.loc 1 229 0
 491 01aa 1748     		ldr	r0, .L20+76
 492 01ac FFF7FEFF 		bl	UART_Debug_PutString
 493              		.loc 1 234 0
 494 01b0 00E0     		b	.L17
 495              	.L19:
 183:ChipUpdate.c  **** //                    	if(internal_flash_erase() == 1){
 496              		.loc 1 183 0
 497 01b2 00BF     		nop
 498              	.L17:
 499              		.loc 1 234 0 discriminator 2
 500 01b4 00BF     		nop
 501              	.L12:
 235:ChipUpdate.c  ****             }
 502              		.loc 1 235 0
 503 01b6 DC37     		adds	r7, r7, #220
 504              		.cfi_def_cfa_offset 12
 505 01b8 BD46     		mov	sp, r7
 506              		.cfi_def_cfa_register 13
 507              		@ sp needed
 508 01ba 90BD     		pop	{r4, r7, pc}
 509              	.L21:
ARM GAS  C:\Users\IroTeam\AppData\Local\Temp\cc7EN6Cu.s 			page 15


 510              		.align	2
 511              	.L20:
 512 01bc 80000000 		.word	.LC5
 513 01c0 84000000 		.word	.LC6
 514 01c4 88000000 		.word	.LC7
 515 01c8 8C000000 		.word	.LC8
 516 01cc 90000000 		.word	.LC9
 517 01d0 00000000 		.word	fota_flag_start
 518 01d4 00000000 		.word	server_fota_folder_name
 519 01d8 00000000 		.word	server_fota_file_numbers
 520 01dc 00000000 		.word	server_fota_App_size
 521 01e0 00000000 		.word	server_fota_App_CRC
 522 01e4 00000000 		.word	last_percent
 523 01e8 94000000 		.word	.LC10
 524 01ec 7C000000 		.word	.LC4
 525 01f0 C0000000 		.word	.LC11
 526 01f4 1C010000 		.word	.LC12
 527 01f8 48010000 		.word	.LC13
 528 01fc 00000000 		.word	_Queue_Send
 529 0200 64010000 		.word	.LC14
 530 0204 9C010000 		.word	.LC15
 531 0208 C8010000 		.word	.LC16
 532              		.cfi_endproc
 533              	.LFE66:
 534              		.size	update_start, .-update_start
 535              		.section	.rodata
 536 01f2 0000     		.align	2
 537              	.LC17:
 538 01f4 6F75725F 		.ascii	"our_checksum = %04X, data_checksum = %04X\015\012\000"
 538      63686563 
 538      6B73756D 
 538      203D2025 
 538      3034582C 
 539              		.section	.text.check_checksum,"ax",%progbits
 540              		.align	2
 541              		.global	check_checksum
 542              		.thumb
 543              		.thumb_func
 544              		.type	check_checksum, %function
 545              	check_checksum:
 546              	.LFB67:
 236:ChipUpdate.c  **** uint8_t check_checksum(char* data, uint16_t data_checksum)
 237:ChipUpdate.c  **** {
 547              		.loc 1 237 0
 548              		.cfi_startproc
 549              		@ args = 0, pretend = 0, frame = 120
 550              		@ frame_needed = 1, uses_anonymous_args = 0
 551 0000 90B5     		push	{r4, r7, lr}
 552              		.cfi_def_cfa_offset 12
 553              		.cfi_offset 4, -12
 554              		.cfi_offset 7, -8
 555              		.cfi_offset 14, -4
 556 0002 9FB0     		sub	sp, sp, #124
 557              		.cfi_def_cfa_offset 136
 558 0004 00AF     		add	r7, sp, #0
 559              		.cfi_def_cfa_register 7
 560 0006 7860     		str	r0, [r7, #4]
ARM GAS  C:\Users\IroTeam\AppData\Local\Temp\cc7EN6Cu.s 			page 16


 561 0008 0B46     		mov	r3, r1
 562 000a 7B80     		strh	r3, [r7, #2]	@ movhi
 238:ChipUpdate.c  **** 	uint8_t ret = 0;
 563              		.loc 1 238 0
 564 000c 0023     		movs	r3, #0
 565 000e 87F87730 		strb	r3, [r7, #119]
 239:ChipUpdate.c  **** 	uint16_t our_checksum = 0;
 566              		.loc 1 239 0
 567 0012 0023     		movs	r3, #0
 568 0014 A7F87430 		strh	r3, [r7, #116]	@ movhi
 240:ChipUpdate.c  **** 
 241:ChipUpdate.c  **** 	if(strlen(data) % 2 == 0){
 569              		.loc 1 241 0
 570 0018 7868     		ldr	r0, [r7, #4]
 571 001a FFF7FEFF 		bl	strlen
 572 001e 0346     		mov	r3, r0
 573 0020 03F00103 		and	r3, r3, #1
 574 0024 002B     		cmp	r3, #0
 575 0026 2CD1     		bne	.L23
 576              	.LBB5:
 242:ChipUpdate.c  **** 		for(uint16_t i = 0; i < strlen(data); i = i+2){
 577              		.loc 1 242 0
 578 0028 0023     		movs	r3, #0
 579 002a A7F87230 		strh	r3, [r7, #114]	@ movhi
 580 002e 20E0     		b	.L24
 581              	.L25:
 582              	.LBB6:
 243:ChipUpdate.c  **** 			uint16_t byte = 0;
 583              		.loc 1 243 0 discriminator 3
 584 0030 0023     		movs	r3, #0
 585 0032 A7F87030 		strh	r3, [r7, #112]	@ movhi
 244:ChipUpdate.c  **** 			byte = (uint16_t)data[i] << 8 | (uint16_t)data[i + 1];
 586              		.loc 1 244 0 discriminator 3
 587 0036 B7F87230 		ldrh	r3, [r7, #114]
 588 003a 7A68     		ldr	r2, [r7, #4]
 589 003c 1344     		add	r3, r3, r2
 590 003e 1B78     		ldrb	r3, [r3]	@ zero_extendqisi2
 591 0040 1B02     		lsls	r3, r3, #8
 592 0042 1AB2     		sxth	r2, r3
 593 0044 B7F87230 		ldrh	r3, [r7, #114]
 594 0048 0133     		adds	r3, r3, #1
 595 004a 7968     		ldr	r1, [r7, #4]
 596 004c 0B44     		add	r3, r3, r1
 597 004e 1B78     		ldrb	r3, [r3]	@ zero_extendqisi2
 598 0050 1BB2     		sxth	r3, r3
 599 0052 1343     		orrs	r3, r3, r2
 600 0054 1BB2     		sxth	r3, r3
 601 0056 A7F87030 		strh	r3, [r7, #112]	@ movhi
 245:ChipUpdate.c  **** 
 246:ChipUpdate.c  **** 			our_checksum ^= byte;
 602              		.loc 1 246 0 discriminator 3
 603 005a B7F87420 		ldrh	r2, [r7, #116]	@ movhi
 604 005e B7F87030 		ldrh	r3, [r7, #112]	@ movhi
 605 0062 5340     		eors	r3, r3, r2
 606 0064 A7F87430 		strh	r3, [r7, #116]	@ movhi
 607              	.LBE6:
 242:ChipUpdate.c  **** 			uint16_t byte = 0;
ARM GAS  C:\Users\IroTeam\AppData\Local\Temp\cc7EN6Cu.s 			page 17


 608              		.loc 1 242 0 discriminator 3
 609 0068 B7F87230 		ldrh	r3, [r7, #114]	@ movhi
 610 006c 0233     		adds	r3, r3, #2
 611 006e A7F87230 		strh	r3, [r7, #114]	@ movhi
 612              	.L24:
 242:ChipUpdate.c  **** 			uint16_t byte = 0;
 613              		.loc 1 242 0 is_stmt 0 discriminator 1
 614 0072 B7F87240 		ldrh	r4, [r7, #114]
 615 0076 7868     		ldr	r0, [r7, #4]
 616 0078 FFF7FEFF 		bl	strlen
 617 007c 0346     		mov	r3, r0
 618 007e 9C42     		cmp	r4, r3
 619 0080 D6D3     		bcc	.L25
 620              	.L23:
 621              	.LBE5:
 247:ChipUpdate.c  **** 		}
 248:ChipUpdate.c  **** 	}
 249:ChipUpdate.c  **** 
 250:ChipUpdate.c  **** 	if(our_checksum == data_checksum){
 622              		.loc 1 250 0 is_stmt 1
 623 0082 B7F87420 		ldrh	r2, [r7, #116]
 624 0086 7B88     		ldrh	r3, [r7, #2]
 625 0088 9A42     		cmp	r2, r3
 626 008a 03D1     		bne	.L26
 251:ChipUpdate.c  **** 		ret = 1;
 627              		.loc 1 251 0
 628 008c 0123     		movs	r3, #1
 629 008e 87F87730 		strb	r3, [r7, #119]
 630 0092 0CE0     		b	.L27
 631              	.L26:
 632              	.LBB7:
 252:ChipUpdate.c  **** 	}
 253:ChipUpdate.c  **** 	else{
 254:ChipUpdate.c  **** 		char print[100];
 255:ChipUpdate.c  **** 		sprintf(print, "our_checksum = %04X, data_checksum = %04X\r\n", our_checksum, data_checksum);
 633              		.loc 1 255 0
 634 0094 B7F87420 		ldrh	r2, [r7, #116]
 635 0098 7B88     		ldrh	r3, [r7, #2]
 636 009a 07F10C00 		add	r0, r7, #12
 637 009e 0749     		ldr	r1, .L29
 638 00a0 FFF7FEFF 		bl	sprintf
 256:ChipUpdate.c  **** 		UART_Debug_PutString(print);
 639              		.loc 1 256 0
 640 00a4 07F10C03 		add	r3, r7, #12
 641 00a8 1846     		mov	r0, r3
 642 00aa FFF7FEFF 		bl	UART_Debug_PutString
 643              	.L27:
 644              	.LBE7:
 257:ChipUpdate.c  **** 	}
 258:ChipUpdate.c  **** 
 259:ChipUpdate.c  **** 	return ret;
 645              		.loc 1 259 0
 646 00ae 97F87730 		ldrb	r3, [r7, #119]	@ zero_extendqisi2
 260:ChipUpdate.c  **** }
 647              		.loc 1 260 0
 648 00b2 1846     		mov	r0, r3
 649 00b4 7C37     		adds	r7, r7, #124
ARM GAS  C:\Users\IroTeam\AppData\Local\Temp\cc7EN6Cu.s 			page 18


 650              		.cfi_def_cfa_offset 12
 651 00b6 BD46     		mov	sp, r7
 652              		.cfi_def_cfa_register 13
 653              		@ sp needed
 654 00b8 90BD     		pop	{r4, r7, pc}
 655              	.L30:
 656 00ba 00BF     		.align	2
 657              	.L29:
 658 00bc F4010000 		.word	.LC17
 659              		.cfi_endproc
 660              	.LFE67:
 661              		.size	check_checksum, .-check_checksum
 662              		.section	.rodata
 663              		.align	2
 664              	.LC18:
 665 0220 7B00     		.ascii	"{\000"
 666 0222 0000     		.align	2
 667              	.LC19:
 668 0224 4C494E55 		.ascii	"LINUX_LINE_NUM: %03d >> CHECKSUM >> FAILED\015\012\000"
 668      585F4C49 
 668      4E455F4E 
 668      554D3A20 
 668      25303364 
 669 0251 000000   		.align	2
 670              	.LC20:
 671 0254 7B464F54 		.ascii	"{FOT_REQ}:{\"num\":\"%05d\"}\015\012\000"
 671      5F524551 
 671      7D3A7B22 
 671      6E756D22 
 671      3A222530 
 672 026f 00       		.align	2
 673              	.LC21:
 674 0270 52455155 		.ascii	"REQUESTED_LINE_NUM >> FALSE\015\012\000"
 674      45535445 
 674      445F4C49 
 674      4E455F4E 
 674      554D203E 
 675 028e 0000     		.align	2
 676              	.LC22:
 677 0290 75706461 		.ascii	"update_procedure >> wrong data >> odd \015\012\000"
 677      74655F70 
 677      726F6365 
 677      64757265 
 677      203E3E20 
 678 02b9 000000   		.align	2
 679              	.LC23:
 680 02bc 70726F63 		.ascii	"proc_Gw_fota_procedure >> written line: %d/%d\015\012"
 680      5F47775F 
 680      666F7461 
 680      5F70726F 
 680      63656475 
 681 02eb 00       		.ascii	"\000"
 682              		.align	2
 683              	.LC24:
 684 02ec 75706461 		.ascii	"update_procedure >> wrong data >> odd 2\015\012\000"
 684      74655F70 
 684      726F6365 
ARM GAS  C:\Users\IroTeam\AppData\Local\Temp\cc7EN6Cu.s 			page 19


 684      64757265 
 684      203E3E20 
 685              		.global	__aeabi_ui2d
 686              		.global	__aeabi_ddiv
 687              		.global	__aeabi_dmul
 688              		.global	__aeabi_d2uiz
 689 0316 0000     		.align	2
 690              	.LC25:
 691 0318 75706461 		.ascii	"update_procedure >> written lines : %d/%d\015\012\000"
 691      74655F70 
 691      726F6365 
 691      64757265 
 691      203E3E20 
 692              		.section	.text.update_procedure,"ax",%progbits
 693              		.align	2
 694              		.global	update_procedure
 695              		.thumb
 696              		.thumb_func
 697              		.type	update_procedure, %function
 698              	update_procedure:
 699              	.LFB68:
 261:ChipUpdate.c  **** 
 262:ChipUpdate.c  **** // ------------------------------------------------------ UPDATE proc -----------------------------
 263:ChipUpdate.c  **** // ------------------------------------------------------------------------------------------------
 264:ChipUpdate.c  **** // FYI >> WORKING
 265:ChipUpdate.c  **** void update_procedure(char* buff)
 266:ChipUpdate.c  **** {
 700              		.loc 1 266 0
 701              		.cfi_startproc
 702              		@ args = 0, pretend = 0, frame = 336
 703              		@ frame_needed = 1, uses_anonymous_args = 0
 704 0000 B0B5     		push	{r4, r5, r7, lr}
 705              		.cfi_def_cfa_offset 16
 706              		.cfi_offset 4, -16
 707              		.cfi_offset 5, -12
 708              		.cfi_offset 7, -8
 709              		.cfi_offset 14, -4
 710 0002 D4B0     		sub	sp, sp, #336
 711              		.cfi_def_cfa_offset 352
 712 0004 00AF     		add	r7, sp, #0
 713              		.cfi_def_cfa_register 7
 714 0006 3B1D     		adds	r3, r7, #4
 715 0008 1860     		str	r0, [r3]
 267:ChipUpdate.c  ****     // Gateway
 268:ChipUpdate.c  **** //	char data[50];
 269:ChipUpdate.c  **** //	sprintf(data, "proc_Gw_fota_procedure >> file length = %d\r\n", strlen(buff));
 270:ChipUpdate.c  **** 
 271:ChipUpdate.c  **** 	char*	linux_fotu_packet = buff;
 716              		.loc 1 271 0
 717 000a 3B1D     		adds	r3, r7, #4
 718 000c 1B68     		ldr	r3, [r3]
 719 000e C7F84831 		str	r3, [r7, #328]
 272:ChipUpdate.c  **** 	char*	ret = NULL;
 720              		.loc 1 272 0
 721 0012 0023     		movs	r3, #0
 722 0014 C7F84431 		str	r3, [r7, #324]
 273:ChipUpdate.c  **** 	char	req_line_buf[100] = {'\0'};
ARM GAS  C:\Users\IroTeam\AppData\Local\Temp\cc7EN6Cu.s 			page 20


 723              		.loc 1 273 0
 724 0018 07F1D403 		add	r3, r7, #212
 725 001c 6422     		movs	r2, #100
 726 001e 0021     		movs	r1, #0
 727 0020 1846     		mov	r0, r3
 728 0022 FFF7FEFF 		bl	memset
 274:ChipUpdate.c  **** 
 275:ChipUpdate.c  **** 	strremove(linux_fotu_packet, "[");
 729              		.loc 1 275 0
 730 0026 C949     		ldr	r1, .L60
 731 0028 D7F84801 		ldr	r0, [r7, #328]
 732 002c FFF7FEFF 		bl	strremove
 276:ChipUpdate.c  **** 	strremove(linux_fotu_packet, "\"");
 733              		.loc 1 276 0
 734 0030 C749     		ldr	r1, .L60+4
 735 0032 D7F84801 		ldr	r0, [r7, #328]
 736 0036 FFF7FEFF 		bl	strremove
 277:ChipUpdate.c  **** 	strremove(linux_fotu_packet, "]");
 737              		.loc 1 277 0
 738 003a C649     		ldr	r1, .L60+8
 739 003c D7F84801 		ldr	r0, [r7, #328]
 740 0040 FFF7FEFF 		bl	strremove
 278:ChipUpdate.c  **** 	strremove(linux_fotu_packet, "}");
 741              		.loc 1 278 0
 742 0044 C449     		ldr	r1, .L60+12
 743 0046 D7F84801 		ldr	r0, [r7, #328]
 744 004a FFF7FEFF 		bl	strremove
 279:ChipUpdate.c  **** 	strremove(linux_fotu_packet, "{");
 745              		.loc 1 279 0
 746 004e C349     		ldr	r1, .L60+16
 747 0050 D7F84801 		ldr	r0, [r7, #328]
 748 0054 FFF7FEFF 		bl	strremove
 280:ChipUpdate.c  **** 
 281:ChipUpdate.c  **** 	ret = strtok(linux_fotu_packet, ",");
 749              		.loc 1 281 0
 750 0058 C149     		ldr	r1, .L60+20
 751 005a D7F84801 		ldr	r0, [r7, #328]
 752 005e FFF7FEFF 		bl	strtok
 753 0062 C7F84401 		str	r0, [r7, #324]
 282:ChipUpdate.c  **** 	uint16_t linux_line_num = strtol(ret, NULL, 10);
 754              		.loc 1 282 0
 755 0066 0A22     		movs	r2, #10
 756 0068 0021     		movs	r1, #0
 757 006a D7F84401 		ldr	r0, [r7, #324]
 758 006e FFF7FEFF 		bl	strtol
 759 0072 0346     		mov	r3, r0
 760 0074 A7F84231 		strh	r3, [r7, #322]	@ movhi
 283:ChipUpdate.c  **** 
 284:ChipUpdate.c  **** 	ret = strtok(NULL, ",");
 761              		.loc 1 284 0
 762 0078 B949     		ldr	r1, .L60+20
 763 007a 0020     		movs	r0, #0
 764 007c FFF7FEFF 		bl	strtok
 765 0080 C7F84401 		str	r0, [r7, #324]
 285:ChipUpdate.c  **** 	uint16_t linux_data_checksum = strtol(ret, NULL, 16);
 766              		.loc 1 285 0
 767 0084 1022     		movs	r2, #16
ARM GAS  C:\Users\IroTeam\AppData\Local\Temp\cc7EN6Cu.s 			page 21


 768 0086 0021     		movs	r1, #0
 769 0088 D7F84401 		ldr	r0, [r7, #324]
 770 008c FFF7FEFF 		bl	strtol
 771 0090 0346     		mov	r3, r0
 772 0092 A7F84031 		strh	r3, [r7, #320]	@ movhi
 286:ChipUpdate.c  **** 
 287:ChipUpdate.c  **** 	ret = strtok(NULL, ",");
 773              		.loc 1 287 0
 774 0096 B249     		ldr	r1, .L60+20
 775 0098 0020     		movs	r0, #0
 776 009a FFF7FEFF 		bl	strtok
 777 009e C7F84401 		str	r0, [r7, #324]
 288:ChipUpdate.c  **** 	char* linux_update_data = ret;
 778              		.loc 1 288 0
 779 00a2 D7F84431 		ldr	r3, [r7, #324]
 780 00a6 C7F83C31 		str	r3, [r7, #316]
 289:ChipUpdate.c  **** 
 290:ChipUpdate.c  **** 	uint8_t checksum_rez = check_checksum(linux_update_data, linux_data_checksum);
 781              		.loc 1 290 0
 782 00aa B7F84031 		ldrh	r3, [r7, #320]
 783 00ae 1946     		mov	r1, r3
 784 00b0 D7F83C01 		ldr	r0, [r7, #316]
 785 00b4 FFF7FEFF 		bl	check_checksum
 786 00b8 0346     		mov	r3, r0
 787 00ba 87F83B31 		strb	r3, [r7, #315]
 291:ChipUpdate.c  **** 
 292:ChipUpdate.c  **** 	if(checksum_rez == 1){
 788              		.loc 1 292 0
 789 00be 97F83B31 		ldrb	r3, [r7, #315]	@ zero_extendqisi2
 790 00c2 012B     		cmp	r3, #1
 791 00c4 34D0     		beq	.L32
 792              	.LBB8:
 293:ChipUpdate.c  **** 		//char buf[100];
 294:ChipUpdate.c  **** 		//sprintf(buf, "LINUX_LINE_NUM: %03d >> CHECKSUM >> OK\r\n",linux_line_num);
 295:ChipUpdate.c  **** 		//UART_Debug_PutString(buf, 0);
 296:ChipUpdate.c  **** 	}else{
 297:ChipUpdate.c  **** 		char buf[100];
 298:ChipUpdate.c  **** 		sprintf(buf, "LINUX_LINE_NUM: %03d >> CHECKSUM >> FAILED\r\n",linux_line_num);
 793              		.loc 1 298 0
 794 00c6 B7F84221 		ldrh	r2, [r7, #322]
 795 00ca 07F10C03 		add	r3, r7, #12
 796 00ce A549     		ldr	r1, .L60+24
 797 00d0 1846     		mov	r0, r3
 798 00d2 FFF7FEFF 		bl	sprintf
 299:ChipUpdate.c  **** //		led_set_color(RED);
 300:ChipUpdate.c  **** 		sprintf(req_line_buf,"{FOT_REQ}:{\"num\":\"%05d\"}\r\n",fota_row_counter + 1);
 799              		.loc 1 300 0
 800 00d6 A44B     		ldr	r3, .L60+28
 801 00d8 1B88     		ldrh	r3, [r3]
 802 00da 5A1C     		adds	r2, r3, #1
 803 00dc 07F1D403 		add	r3, r7, #212
 804 00e0 A249     		ldr	r1, .L60+32
 805 00e2 1846     		mov	r0, r3
 806 00e4 FFF7FEFF 		bl	sprintf
 301:ChipUpdate.c  **** 		UART_Debug_PutString(req_line_buf);
 807              		.loc 1 301 0
 808 00e8 07F1D403 		add	r3, r7, #212
ARM GAS  C:\Users\IroTeam\AppData\Local\Temp\cc7EN6Cu.s 			page 22


 809 00ec 1846     		mov	r0, r3
 810 00ee FFF7FEFF 		bl	UART_Debug_PutString
 302:ChipUpdate.c  **** //		RGB_Color = 5;
 303:ChipUpdate.c  **** //		RGB_Color_Old = 5;
 304:ChipUpdate.c  **** //		RGB(RGB_Color); //Cypress run
 305:ChipUpdate.c  **** //		UART_Linux_PutString(req_line_buf);
 306:ChipUpdate.c  **** 		if(!q_put_message(&_Queue_Send, req_line_buf, strlen(req_line_buf) + 1)){
 811              		.loc 1 306 0
 812 00f2 07F1D403 		add	r3, r7, #212
 813 00f6 1846     		mov	r0, r3
 814 00f8 FFF7FEFF 		bl	strlen
 815 00fc 0346     		mov	r3, r0
 816 00fe 0133     		adds	r3, r3, #1
 817 0100 1A46     		mov	r2, r3
 818 0102 07F1D403 		add	r3, r7, #212
 819 0106 1946     		mov	r1, r3
 820 0108 9948     		ldr	r0, .L60+36
 821 010a FFF7FEFF 		bl	q_put_message
 822 010e 0346     		mov	r3, r0
 823 0110 002B     		cmp	r3, #0
 824 0112 40F02982 		bne	.L55
 307:ChipUpdate.c  **** 			UART_Debug_PutString("update_procedure >> failed to put to _Queue_Send >> ");
 825              		.loc 1 307 0
 826 0116 9748     		ldr	r0, .L60+40
 827 0118 FFF7FEFF 		bl	UART_Debug_PutString
 308:ChipUpdate.c  **** 			UART_Debug_PutString(req_line_buf);
 828              		.loc 1 308 0
 829 011c 07F1D403 		add	r3, r7, #212
 830 0120 1846     		mov	r0, r3
 831 0122 FFF7FEFF 		bl	UART_Debug_PutString
 309:ChipUpdate.c  **** 			UART_Debug_PutString("\r\n");
 832              		.loc 1 309 0
 833 0126 9448     		ldr	r0, .L60+44
 834 0128 FFF7FEFF 		bl	UART_Debug_PutString
 310:ChipUpdate.c  **** 		}
 311:ChipUpdate.c  **** 
 312:ChipUpdate.c  **** 		return;
 835              		.loc 1 312 0
 836 012c 00BF     		nop
 837 012e 1BE2     		b	.L55
 838              	.L32:
 839              	.LBE8:
 313:ChipUpdate.c  **** 	}
 314:ChipUpdate.c  **** 
 315:ChipUpdate.c  **** 
 316:ChipUpdate.c  **** 	if(linux_line_num != fota_file_numbers){
 840              		.loc 1 316 0
 841 0130 924B     		ldr	r3, .L60+48
 842 0132 1B88     		ldrh	r3, [r3]
 843 0134 B7F84221 		ldrh	r2, [r7, #322]
 844 0138 9A42     		cmp	r2, r3
 845 013a 2ED0     		beq	.L35
 317:ChipUpdate.c  **** 		UART_Debug_PutString("REQUESTED_LINE_NUM >> FALSE\r\n"); // file number is wrong, request the sam
 846              		.loc 1 317 0
 847 013c 9048     		ldr	r0, .L60+52
 848 013e FFF7FEFF 		bl	UART_Debug_PutString
 318:ChipUpdate.c  **** //		led_set_color(RED);
ARM GAS  C:\Users\IroTeam\AppData\Local\Temp\cc7EN6Cu.s 			page 23


 319:ChipUpdate.c  **** 		sprintf(req_line_buf,"{FOT_REQ}:{\"num\":\"%05d\"}\r\n",fota_row_counter + 1);
 849              		.loc 1 319 0
 850 0142 894B     		ldr	r3, .L60+28
 851 0144 1B88     		ldrh	r3, [r3]
 852 0146 5A1C     		adds	r2, r3, #1
 853 0148 07F1D403 		add	r3, r7, #212
 854 014c 8749     		ldr	r1, .L60+32
 855 014e 1846     		mov	r0, r3
 856 0150 FFF7FEFF 		bl	sprintf
 320:ChipUpdate.c  **** 		UART_Debug_PutString(req_line_buf);
 857              		.loc 1 320 0
 858 0154 07F1D403 		add	r3, r7, #212
 859 0158 1846     		mov	r0, r3
 860 015a FFF7FEFF 		bl	UART_Debug_PutString
 321:ChipUpdate.c  **** //		RGB_Color = 5;
 322:ChipUpdate.c  **** //		RGB_Color_Old = 5;
 323:ChipUpdate.c  **** //		RGB(RGB_Color); //Cypress run
 324:ChipUpdate.c  **** //		UART_Linux_PutString(req_line_buf);
 325:ChipUpdate.c  **** 		if(!q_put_message(&_Queue_Send, req_line_buf, strlen(req_line_buf) + 1)){
 861              		.loc 1 325 0
 862 015e 07F1D403 		add	r3, r7, #212
 863 0162 1846     		mov	r0, r3
 864 0164 FFF7FEFF 		bl	strlen
 865 0168 0346     		mov	r3, r0
 866 016a 0133     		adds	r3, r3, #1
 867 016c 1A46     		mov	r2, r3
 868 016e 07F1D403 		add	r3, r7, #212
 869 0172 1946     		mov	r1, r3
 870 0174 7E48     		ldr	r0, .L60+36
 871 0176 FFF7FEFF 		bl	q_put_message
 872 017a 0346     		mov	r3, r0
 873 017c 002B     		cmp	r3, #0
 874 017e 40F0F581 		bne	.L56
 326:ChipUpdate.c  **** 			UART_Debug_PutString("update_procedure >> failed to put to _Queue_Send >> ");
 875              		.loc 1 326 0
 876 0182 7C48     		ldr	r0, .L60+40
 877 0184 FFF7FEFF 		bl	UART_Debug_PutString
 327:ChipUpdate.c  **** 			UART_Debug_PutString(req_line_buf);
 878              		.loc 1 327 0
 879 0188 07F1D403 		add	r3, r7, #212
 880 018c 1846     		mov	r0, r3
 881 018e FFF7FEFF 		bl	UART_Debug_PutString
 328:ChipUpdate.c  **** 			UART_Debug_PutString("\r\n");
 882              		.loc 1 328 0
 883 0192 7948     		ldr	r0, .L60+44
 884 0194 FFF7FEFF 		bl	UART_Debug_PutString
 329:ChipUpdate.c  **** 		}
 330:ChipUpdate.c  **** 
 331:ChipUpdate.c  **** 
 332:ChipUpdate.c  **** 		return;
 885              		.loc 1 332 0
 886 0198 E8E1     		b	.L56
 887              	.L35:
 333:ChipUpdate.c  **** 	}
 334:ChipUpdate.c  **** 	else{
 335:ChipUpdate.c  **** 		// UART_Debug_PutString("REQUESTED_LINE_NUM >> TRUE\r\n", 0);
 336:ChipUpdate.c  **** //		led_set_color(OFF);
ARM GAS  C:\Users\IroTeam\AppData\Local\Temp\cc7EN6Cu.s 			page 24


 337:ChipUpdate.c  **** 	}
 338:ChipUpdate.c  **** 
 339:ChipUpdate.c  **** //	UART_Debug_PutString(linux_update_data);
 340:ChipUpdate.c  **** //	UART_Debug_PutString("\r\n");
 341:ChipUpdate.c  **** 	// convert a couple of FOTA data characters to a single byte
 342:ChipUpdate.c  **** 	fota_data_index = 0;
 888              		.loc 1 342 0
 889 019a 7A4B     		ldr	r3, .L60+56
 890 019c 0022     		movs	r2, #0
 891 019e 1A80     		strh	r2, [r3]	@ movhi
 343:ChipUpdate.c  **** 
 344:ChipUpdate.c  **** 	if(strlen(linux_update_data) % 2 == 0){
 892              		.loc 1 344 0
 893 01a0 D7F83C01 		ldr	r0, [r7, #316]
 894 01a4 FFF7FEFF 		bl	strlen
 895 01a8 0346     		mov	r3, r0
 896 01aa 03F00103 		and	r3, r3, #1
 897 01ae 002B     		cmp	r3, #0
 898 01b0 45D1     		bne	.L37
 899              	.LBB9:
 345:ChipUpdate.c  **** 		for (uint32_t i = 0; i < strlen(linux_update_data); i++){
 900              		.loc 1 345 0
 901 01b2 0023     		movs	r3, #0
 902 01b4 C7F84C31 		str	r3, [r7, #332]
 903 01b8 37E0     		b	.L38
 904              	.L40:
 346:ChipUpdate.c  **** 			CyWdtClear();
 905              		.loc 1 346 0
 906 01ba FFF7FEFF 		bl	CyWdtClear
 347:ChipUpdate.c  **** 
 348:ChipUpdate.c  **** 			int_byte = (int_byte << 4) | df_hexstring_hex(linux_update_data[i]);
 907              		.loc 1 348 0
 908 01be 724B     		ldr	r3, .L60+60
 909 01c0 1B78     		ldrb	r3, [r3]	@ zero_extendqisi2
 910 01c2 1B01     		lsls	r3, r3, #4
 911 01c4 5CB2     		sxtb	r4, r3
 912 01c6 D7F83C21 		ldr	r2, [r7, #316]
 913 01ca D7F84C31 		ldr	r3, [r7, #332]
 914 01ce 1344     		add	r3, r3, r2
 915 01d0 1B78     		ldrb	r3, [r3]	@ zero_extendqisi2
 916 01d2 1846     		mov	r0, r3
 917 01d4 FFF7FEFF 		bl	df_hexstring_hex
 918 01d8 0346     		mov	r3, r0
 919 01da 5BB2     		sxtb	r3, r3
 920 01dc 2343     		orrs	r3, r3, r4
 921 01de 5BB2     		sxtb	r3, r3
 922 01e0 DAB2     		uxtb	r2, r3
 923 01e2 694B     		ldr	r3, .L60+60
 924 01e4 1A70     		strb	r2, [r3]
 349:ChipUpdate.c  **** 			int_byte_ctr++;
 925              		.loc 1 349 0
 926 01e6 694B     		ldr	r3, .L60+64
 927 01e8 1B78     		ldrb	r3, [r3]	@ zero_extendqisi2
 928 01ea 0133     		adds	r3, r3, #1
 929 01ec DAB2     		uxtb	r2, r3
 930 01ee 674B     		ldr	r3, .L60+64
 931 01f0 1A70     		strb	r2, [r3]
ARM GAS  C:\Users\IroTeam\AppData\Local\Temp\cc7EN6Cu.s 			page 25


 350:ChipUpdate.c  **** 			if(int_byte_ctr == 2){
 932              		.loc 1 350 0
 933 01f2 664B     		ldr	r3, .L60+64
 934 01f4 1B78     		ldrb	r3, [r3]	@ zero_extendqisi2
 935 01f6 022B     		cmp	r3, #2
 936 01f8 12D1     		bne	.L39
 351:ChipUpdate.c  **** 				fota_data_bytes[fota_data_index] = int_byte;
 937              		.loc 1 351 0
 938 01fa 624B     		ldr	r3, .L60+56
 939 01fc 1B88     		ldrh	r3, [r3]
 940 01fe 1A46     		mov	r2, r3
 941 0200 614B     		ldr	r3, .L60+60
 942 0202 1978     		ldrb	r1, [r3]	@ zero_extendqisi2
 943 0204 624B     		ldr	r3, .L60+68
 944 0206 9954     		strb	r1, [r3, r2]
 352:ChipUpdate.c  **** 				fota_data_index++;
 945              		.loc 1 352 0
 946 0208 5E4B     		ldr	r3, .L60+56
 947 020a 1B88     		ldrh	r3, [r3]
 948 020c 0133     		adds	r3, r3, #1
 949 020e 9AB2     		uxth	r2, r3
 950 0210 5C4B     		ldr	r3, .L60+56
 951 0212 1A80     		strh	r2, [r3]	@ movhi
 353:ChipUpdate.c  **** 				int_byte = 0;
 952              		.loc 1 353 0
 953 0214 5C4B     		ldr	r3, .L60+60
 954 0216 0022     		movs	r2, #0
 955 0218 1A70     		strb	r2, [r3]
 354:ChipUpdate.c  **** 				int_byte_ctr = 0;
 956              		.loc 1 354 0
 957 021a 5C4B     		ldr	r3, .L60+64
 958 021c 0022     		movs	r2, #0
 959 021e 1A70     		strb	r2, [r3]
 960              	.L39:
 345:ChipUpdate.c  **** 			CyWdtClear();
 961              		.loc 1 345 0 discriminator 2
 962 0220 D7F84C31 		ldr	r3, [r7, #332]
 963 0224 0133     		adds	r3, r3, #1
 964 0226 C7F84C31 		str	r3, [r7, #332]
 965              	.L38:
 345:ChipUpdate.c  **** 			CyWdtClear();
 966              		.loc 1 345 0 is_stmt 0 discriminator 1
 967 022a D7F83C01 		ldr	r0, [r7, #316]
 968 022e FFF7FEFF 		bl	strlen
 969 0232 0246     		mov	r2, r0
 970 0234 D7F84C31 		ldr	r3, [r7, #332]
 971 0238 9A42     		cmp	r2, r3
 972 023a BED8     		bhi	.L40
 973 023c 2EE0     		b	.L53
 974              	.L37:
 975              	.LBE9:
 355:ChipUpdate.c  **** 			}
 356:ChipUpdate.c  **** 		}
 357:ChipUpdate.c  **** 	}
 358:ChipUpdate.c  **** 	else{
 359:ChipUpdate.c  **** 		UART_Debug_PutString("update_procedure >> wrong data >> odd \r\n");
 976              		.loc 1 359 0 is_stmt 1
ARM GAS  C:\Users\IroTeam\AppData\Local\Temp\cc7EN6Cu.s 			page 26


 977 023e 5548     		ldr	r0, .L60+72
 978 0240 FFF7FEFF 		bl	UART_Debug_PutString
 360:ChipUpdate.c  **** 		sprintf(req_line_buf,"{FOT_REQ}:{\"num\":\"%05d\"}\r\n",fota_row_counter + 1);
 979              		.loc 1 360 0
 980 0244 484B     		ldr	r3, .L60+28
 981 0246 1B88     		ldrh	r3, [r3]
 982 0248 5A1C     		adds	r2, r3, #1
 983 024a 07F1D403 		add	r3, r7, #212
 984 024e 4749     		ldr	r1, .L60+32
 985 0250 1846     		mov	r0, r3
 986 0252 FFF7FEFF 		bl	sprintf
 361:ChipUpdate.c  **** 		UART_Debug_PutString(req_line_buf);
 987              		.loc 1 361 0
 988 0256 07F1D403 		add	r3, r7, #212
 989 025a 1846     		mov	r0, r3
 990 025c FFF7FEFF 		bl	UART_Debug_PutString
 362:ChipUpdate.c  **** //		RGB_Color = 5;
 363:ChipUpdate.c  **** //		RGB_Color_Old = 5;
 364:ChipUpdate.c  **** //		RGB(RGB_Color); //Cypress run
 365:ChipUpdate.c  **** //		UART_Linux_PutString(req_line_buf);
 366:ChipUpdate.c  **** 		if(!q_put_message(&_Queue_Send, req_line_buf, strlen(req_line_buf) + 1)){
 991              		.loc 1 366 0
 992 0260 07F1D403 		add	r3, r7, #212
 993 0264 1846     		mov	r0, r3
 994 0266 FFF7FEFF 		bl	strlen
 995 026a 0346     		mov	r3, r0
 996 026c 0133     		adds	r3, r3, #1
 997 026e 1A46     		mov	r2, r3
 998 0270 07F1D403 		add	r3, r7, #212
 999 0274 1946     		mov	r1, r3
 1000 0276 3E48     		ldr	r0, .L60+36
 1001 0278 FFF7FEFF 		bl	q_put_message
 1002 027c 0346     		mov	r3, r0
 1003 027e 002B     		cmp	r3, #0
 1004 0280 40F07681 		bne	.L57
 367:ChipUpdate.c  **** 			UART_Debug_PutString("update_procedure >> failed to put to _Queue_Send >> ");
 1005              		.loc 1 367 0
 1006 0284 3B48     		ldr	r0, .L60+40
 1007 0286 FFF7FEFF 		bl	UART_Debug_PutString
 368:ChipUpdate.c  **** 			UART_Debug_PutString(req_line_buf);
 1008              		.loc 1 368 0
 1009 028a 07F1D403 		add	r3, r7, #212
 1010 028e 1846     		mov	r0, r3
 1011 0290 FFF7FEFF 		bl	UART_Debug_PutString
 369:ChipUpdate.c  **** 			UART_Debug_PutString("\r\n");
 1012              		.loc 1 369 0
 1013 0294 3848     		ldr	r0, .L60+44
 1014 0296 FFF7FEFF 		bl	UART_Debug_PutString
 370:ChipUpdate.c  **** 		}
 371:ChipUpdate.c  **** 		return;
 1015              		.loc 1 371 0
 1016 029a 69E1     		b	.L57
 1017              	.L53:
 372:ChipUpdate.c  **** 	}
 373:ChipUpdate.c  **** 
 374:ChipUpdate.c  **** 	// ##################################################
 375:ChipUpdate.c  **** 
ARM GAS  C:\Users\IroTeam\AppData\Local\Temp\cc7EN6Cu.s 			page 27


 376:ChipUpdate.c  ****     char data[100];
 377:ChipUpdate.c  ****     if(!internal_flash_write_row()){
 1018              		.loc 1 377 0
 1019 029c FFF7FEFF 		bl	internal_flash_write_row
 1020 02a0 0346     		mov	r3, r0
 1021 02a2 002B     		cmp	r3, #0
 1022 02a4 22D1     		bne	.L43
 378:ChipUpdate.c  **** //        led_set_color(StripLights_OFF);
 379:ChipUpdate.c  ****         fota_row_counter++;
 1023              		.loc 1 379 0
 1024 02a6 304B     		ldr	r3, .L60+28
 1025 02a8 1B88     		ldrh	r3, [r3]
 1026 02aa 0133     		adds	r3, r3, #1
 1027 02ac 9AB2     		uxth	r2, r3
 1028 02ae 2E4B     		ldr	r3, .L60+28
 1029 02b0 1A80     		strh	r2, [r3]	@ movhi
 380:ChipUpdate.c  ****         sprintf(data, "proc_Gw_fota_procedure >> written line: %d/%d\r\n", fota_row_counter, server
 1030              		.loc 1 380 0
 1031 02b2 2D4B     		ldr	r3, .L60+28
 1032 02b4 1B88     		ldrh	r3, [r3]
 1033 02b6 1A46     		mov	r2, r3
 1034 02b8 374B     		ldr	r3, .L60+76
 1035 02ba 1B88     		ldrh	r3, [r3]
 1036 02bc 07F17000 		add	r0, r7, #112
 1037 02c0 3649     		ldr	r1, .L60+80
 1038 02c2 FFF7FEFF 		bl	sprintf
 381:ChipUpdate.c  ****         UART_Debug_PutString(data);
 1039              		.loc 1 381 0
 1040 02c6 07F17003 		add	r3, r7, #112
 1041 02ca 1846     		mov	r0, r3
 1042 02cc FFF7FEFF 		bl	UART_Debug_PutString
 382:ChipUpdate.c  ****     }
 383:ChipUpdate.c  ****     else{
 384:ChipUpdate.c  ****         UART_Debug_PutString("update_procedure >> wrong data >> odd 2\r\n");
 385:ChipUpdate.c  **** 		sprintf(req_line_buf,"{FOT_REQ}:{\"num\":\"%05d\"}\r\n",fota_row_counter + 1);
 386:ChipUpdate.c  **** 		UART_Debug_PutString(req_line_buf);
 387:ChipUpdate.c  **** //		RGB_Color = 5;
 388:ChipUpdate.c  **** //		RGB_Color_Old = 5;
 389:ChipUpdate.c  **** //		RGB(RGB_Color); //Cypress run
 390:ChipUpdate.c  **** //		UART_Linux_PutString(req_line_buf);
 391:ChipUpdate.c  **** 		if(!q_put_message(&_Queue_Send, req_line_buf, strlen(req_line_buf) + 1)){
 392:ChipUpdate.c  **** 			UART_Debug_PutString("update_procedure >> failed to put to _Queue_Send >> ");
 393:ChipUpdate.c  **** 			UART_Debug_PutString(req_line_buf);
 394:ChipUpdate.c  **** 			UART_Debug_PutString("\r\n");
 395:ChipUpdate.c  **** 		}
 396:ChipUpdate.c  **** 		return;
 397:ChipUpdate.c  ****     }
 398:ChipUpdate.c  ****     
 399:ChipUpdate.c  ****     /*
 400:ChipUpdate.c  **** 	if(strlen(linux_update_data) % 2 == 0 && (strlen(linux_update_data) / 2) % 2 == 0){
 401:ChipUpdate.c  **** 		for(uint16_t k = 0; k < strlen(linux_update_data) / 2 ; k = k + 4){
 402:ChipUpdate.c  **** 			// must check size of FOTA Data and External E2 to change the Address if needed.
 403:ChipUpdate.c  **** 			CyWdtClear();
 404:ChipUpdate.c  **** 
 405:ChipUpdate.c  **** 			uint32_t four_bytes = fota_data_bytes[k + 3] << 24 | fota_data_bytes[k + 2] << 16 | fota_data_by
 406:ChipUpdate.c  **** 
 407:ChipUpdate.c  **** 			internal_flash_write_byte(IE2_FOTA_START_ADDRESS + data_index + k, four_bytes);
ARM GAS  C:\Users\IroTeam\AppData\Local\Temp\cc7EN6Cu.s 			page 28


 408:ChipUpdate.c  **** 
 409:ChipUpdate.c  **** 		}
 410:ChipUpdate.c  **** 	}
 411:ChipUpdate.c  **** 	else{
 412:ChipUpdate.c  **** 		UART_Debug_PutString("update_procedure >> wrong data >> odd 2\r\n");
 413:ChipUpdate.c  **** 		sprintf(req_line_buf,"{FOT_REQ}:{\"num\":\"%05d\"}\r\n",fota_row_counter + 1);
 414:ChipUpdate.c  **** 		UART_Debug_PutString(req_line_buf);
 415:ChipUpdate.c  **** //		RGB_Color = 5;
 416:ChipUpdate.c  **** //		RGB_Color_Old = 5;
 417:ChipUpdate.c  **** //		RGB(RGB_Color); //Cypress run
 418:ChipUpdate.c  **** //		UART_Linux_PutString(req_line_buf);
 419:ChipUpdate.c  **** 		if(!q_put_message(&_Queue_Send, req_line_buf, strlen(req_line_buf) + 1)){
 420:ChipUpdate.c  **** 			UART_Debug_PutString("update_procedure >> failed to put to _Queue_Send >> ");
 421:ChipUpdate.c  **** 			UART_Debug_PutString(req_line_buf);
 422:ChipUpdate.c  **** 			UART_Debug_PutString("\r\n");
 423:ChipUpdate.c  **** 		}
 424:ChipUpdate.c  **** 		return;
 425:ChipUpdate.c  **** 	}
 426:ChipUpdate.c  **** 
 427:ChipUpdate.c  **** 	data_index += (strlen(linux_update_data) / 2);
 428:ChipUpdate.c  ****     */
 429:ChipUpdate.c  **** 
 430:ChipUpdate.c  **** 	fota_row_counter++;
 1043              		.loc 1 430 0
 1044 02d0 254B     		ldr	r3, .L60+28
 1045 02d2 1B88     		ldrh	r3, [r3]
 1046 02d4 0133     		adds	r3, r3, #1
 1047 02d6 9AB2     		uxth	r2, r3
 1048 02d8 234B     		ldr	r3, .L60+28
 1049 02da 1A80     		strh	r2, [r3]	@ movhi
 431:ChipUpdate.c  **** 
 432:ChipUpdate.c  **** 	// ##################################################
 433:ChipUpdate.c  **** 
 434:ChipUpdate.c  **** 	if(fota_row_counter == server_fota_file_numbers){
 1050              		.loc 1 434 0
 1051 02dc 224B     		ldr	r3, .L60+28
 1052 02de 1A88     		ldrh	r2, [r3]
 1053 02e0 2F4B     		ldr	r3, .L60+84
 1054 02e2 1B88     		ldrh	r3, [r3]
 1055 02e4 9A42     		cmp	r2, r3
 1056 02e6 40F0AB80 		bne	.L46
 1057 02ea 5DE0     		b	.L54
 1058              	.L43:
 384:ChipUpdate.c  **** 		sprintf(req_line_buf,"{FOT_REQ}:{\"num\":\"%05d\"}\r\n",fota_row_counter + 1);
 1059              		.loc 1 384 0
 1060 02ec 2D48     		ldr	r0, .L60+88
 1061 02ee FFF7FEFF 		bl	UART_Debug_PutString
 385:ChipUpdate.c  **** 		UART_Debug_PutString(req_line_buf);
 1062              		.loc 1 385 0
 1063 02f2 1D4B     		ldr	r3, .L60+28
 1064 02f4 1B88     		ldrh	r3, [r3]
 1065 02f6 5A1C     		adds	r2, r3, #1
 1066 02f8 07F1D403 		add	r3, r7, #212
 1067 02fc 1B49     		ldr	r1, .L60+32
 1068 02fe 1846     		mov	r0, r3
 1069 0300 FFF7FEFF 		bl	sprintf
 386:ChipUpdate.c  **** //		RGB_Color = 5;
ARM GAS  C:\Users\IroTeam\AppData\Local\Temp\cc7EN6Cu.s 			page 29


 1070              		.loc 1 386 0
 1071 0304 07F1D403 		add	r3, r7, #212
 1072 0308 1846     		mov	r0, r3
 1073 030a FFF7FEFF 		bl	UART_Debug_PutString
 391:ChipUpdate.c  **** 			UART_Debug_PutString("update_procedure >> failed to put to _Queue_Send >> ");
 1074              		.loc 1 391 0
 1075 030e 07F1D403 		add	r3, r7, #212
 1076 0312 1846     		mov	r0, r3
 1077 0314 FFF7FEFF 		bl	strlen
 1078 0318 0346     		mov	r3, r0
 1079 031a 0133     		adds	r3, r3, #1
 1080 031c 1A46     		mov	r2, r3
 1081 031e 07F1D403 		add	r3, r7, #212
 1082 0322 1946     		mov	r1, r3
 1083 0324 1248     		ldr	r0, .L60+36
 1084 0326 FFF7FEFF 		bl	q_put_message
 1085 032a 0346     		mov	r3, r0
 1086 032c 002B     		cmp	r3, #0
 1087 032e 40F02181 		bne	.L58
 392:ChipUpdate.c  **** 			UART_Debug_PutString(req_line_buf);
 1088              		.loc 1 392 0
 1089 0332 1048     		ldr	r0, .L60+40
 1090 0334 FFF7FEFF 		bl	UART_Debug_PutString
 393:ChipUpdate.c  **** 			UART_Debug_PutString("\r\n");
 1091              		.loc 1 393 0
 1092 0338 07F1D403 		add	r3, r7, #212
 1093 033c 1846     		mov	r0, r3
 1094 033e FFF7FEFF 		bl	UART_Debug_PutString
 394:ChipUpdate.c  **** 		}
 1095              		.loc 1 394 0
 1096 0342 0D48     		ldr	r0, .L60+44
 1097 0344 FFF7FEFF 		bl	UART_Debug_PutString
 396:ChipUpdate.c  ****     }
 1098              		.loc 1 396 0
 1099 0348 14E1     		b	.L58
 1100              	.L61:
 1101 034a 00BF     		.align	2
 1102              	.L60:
 1103 034c 80000000 		.word	.LC5
 1104 0350 84000000 		.word	.LC6
 1105 0354 88000000 		.word	.LC7
 1106 0358 8C000000 		.word	.LC8
 1107 035c 20020000 		.word	.LC18
 1108 0360 90000000 		.word	.LC9
 1109 0364 24020000 		.word	.LC19
 1110 0368 00000000 		.word	fota_row_counter
 1111 036c 54020000 		.word	.LC20
 1112 0370 00000000 		.word	_Queue_Send
 1113 0374 64010000 		.word	.LC14
 1114 0378 7C000000 		.word	.LC4
 1115 037c 00000000 		.word	fota_file_numbers
 1116 0380 70020000 		.word	.LC21
 1117 0384 00000000 		.word	fota_data_index
 1118 0388 00000000 		.word	int_byte
 1119 038c 00000000 		.word	int_byte_ctr
 1120 0390 00000000 		.word	fota_data_bytes
 1121 0394 90020000 		.word	.LC22
ARM GAS  C:\Users\IroTeam\AppData\Local\Temp\cc7EN6Cu.s 			page 30


 1122 0398 00000000 		.word	server_fota_App_lines
 1123 039c BC020000 		.word	.LC23
 1124 03a0 00000000 		.word	server_fota_file_numbers
 1125 03a4 EC020000 		.word	.LC24
 1126              	.L54:
 435:ChipUpdate.c  **** 
 436:ChipUpdate.c  **** //		led_set_color(BLU);
 437:ChipUpdate.c  **** //	    OS_TIMER_Stop(&Timer_Update);
 438:ChipUpdate.c  **** 
 439:ChipUpdate.c  **** 		fota_row_sequence = 0;
 1127              		.loc 1 439 0
 1128 03a8 764B     		ldr	r3, .L62
 1129 03aa 0022     		movs	r2, #0
 1130 03ac 1A80     		strh	r2, [r3]	@ movhi
 440:ChipUpdate.c  **** 		fota_row_counter = 0;
 1131              		.loc 1 440 0
 1132 03ae 764B     		ldr	r3, .L62+4
 1133 03b0 0022     		movs	r2, #0
 1134 03b2 1A80     		strh	r2, [r3]	@ movhi
 441:ChipUpdate.c  **** 
 442:ChipUpdate.c  **** 		// set FOTA FLAG to E2PROM for Bootloader and Reset Application and go to Bootloader Mode
 443:ChipUpdate.c  **** //		ee2_write_byte(EE2_1_CHIP_ADDR, FOTA_START, EE2_Loc_FOTA_STATUS);
 444:ChipUpdate.c  **** //		ee2_write_byte(EE2_1_CHIP_ADDR, server_fota_App_CRC >> 0, EE2_Loc_FOTA_CRC_BYTE0);
 445:ChipUpdate.c  **** //		ee2_write_byte(EE2_1_CHIP_ADDR, server_fota_App_CRC >> 8, EE2_Loc_FOTA_CRC_BYTE1);
 446:ChipUpdate.c  **** //		ee2_write_byte(EE2_1_CHIP_ADDR, server_fota_App_CRC >> 16, EE2_Loc_FOTA_CRC_BYTE2);
 447:ChipUpdate.c  **** //		ee2_write_byte(EE2_1_CHIP_ADDR, server_fota_App_CRC >> 24, EE2_Loc_FOTA_CRC_BYTE3);
 448:ChipUpdate.c  **** //
 449:ChipUpdate.c  **** //		ee2_write_byte(EE2_1_CHIP_ADDR, server_fota_App_size >> 0, EE2_Loc_FOTA_App_SIZE_BYTE0);
 450:ChipUpdate.c  **** //		ee2_write_byte(EE2_1_CHIP_ADDR, server_fota_App_size >> 8, EE2_Loc_FOTA_App_SIZE_BYTE1);
 451:ChipUpdate.c  **** //		ee2_write_byte(EE2_1_CHIP_ADDR, server_fota_App_size >> 16, EE2_Loc_FOTA_App_SIZE_BYTE2);
 452:ChipUpdate.c  **** //		ee2_write_byte(EE2_1_CHIP_ADDR, server_fota_App_size >> 24, EE2_Loc_FOTA_App_SIZE_BYTE3);
 453:ChipUpdate.c  **** 
 454:ChipUpdate.c  **** //		UART_Debug_PutString("{SET_FOT}:{\"status\":\"install\"}\r\n");
 455:ChipUpdate.c  **** //		UART_Linux_PutString("{SET_FOT}:{\"status\":\"install\"}\r\n");
 456:ChipUpdate.c  ****         
 457:ChipUpdate.c  ****         ie2_write_byte(FOTA_START, IE2_Loc_FOTA_STATUS);
 1135              		.loc 1 457 0
 1136 03b4 7021     		movs	r1, #112
 1137 03b6 0120     		movs	r0, #1
 1138 03b8 FFF7FEFF 		bl	ie2_write_byte
 458:ChipUpdate.c  ****         ie2_write_byte(server_fota_App_CRC >> 0, IE2_Loc_FOTA_CRC_BYTE0);
 1139              		.loc 1 458 0
 1140 03bc 734B     		ldr	r3, .L62+8
 1141 03be 1B68     		ldr	r3, [r3]
 1142 03c0 DBB2     		uxtb	r3, r3
 1143 03c2 7121     		movs	r1, #113
 1144 03c4 1846     		mov	r0, r3
 1145 03c6 FFF7FEFF 		bl	ie2_write_byte
 459:ChipUpdate.c  ****         ie2_write_byte(server_fota_App_CRC >> 8, IE2_Loc_FOTA_CRC_BYTE1);
 1146              		.loc 1 459 0
 1147 03ca 704B     		ldr	r3, .L62+8
 1148 03cc 1B68     		ldr	r3, [r3]
 1149 03ce 1B0A     		lsrs	r3, r3, #8
 1150 03d0 DBB2     		uxtb	r3, r3
 1151 03d2 7221     		movs	r1, #114
 1152 03d4 1846     		mov	r0, r3
 1153 03d6 FFF7FEFF 		bl	ie2_write_byte
ARM GAS  C:\Users\IroTeam\AppData\Local\Temp\cc7EN6Cu.s 			page 31


 460:ChipUpdate.c  ****         ie2_write_byte(server_fota_App_CRC >> 16, IE2_Loc_FOTA_CRC_BYTE2);
 1154              		.loc 1 460 0
 1155 03da 6C4B     		ldr	r3, .L62+8
 1156 03dc 1B68     		ldr	r3, [r3]
 1157 03de 1B0C     		lsrs	r3, r3, #16
 1158 03e0 DBB2     		uxtb	r3, r3
 1159 03e2 7321     		movs	r1, #115
 1160 03e4 1846     		mov	r0, r3
 1161 03e6 FFF7FEFF 		bl	ie2_write_byte
 461:ChipUpdate.c  ****         ie2_write_byte(server_fota_App_CRC >> 24, IE2_Loc_FOTA_CRC_BYTE3);
 1162              		.loc 1 461 0
 1163 03ea 684B     		ldr	r3, .L62+8
 1164 03ec 1B68     		ldr	r3, [r3]
 1165 03ee 1B0E     		lsrs	r3, r3, #24
 1166 03f0 DBB2     		uxtb	r3, r3
 1167 03f2 7421     		movs	r1, #116
 1168 03f4 1846     		mov	r0, r3
 1169 03f6 FFF7FEFF 		bl	ie2_write_byte
 462:ChipUpdate.c  ****         ie2_write_byte(server_fota_App_size >> 0, IE2_Loc_FOTA_App_SIZE_BYTE0);
 1170              		.loc 1 462 0
 1171 03fa 654B     		ldr	r3, .L62+12
 1172 03fc 1B68     		ldr	r3, [r3]
 1173 03fe DBB2     		uxtb	r3, r3
 1174 0400 7521     		movs	r1, #117
 1175 0402 1846     		mov	r0, r3
 1176 0404 FFF7FEFF 		bl	ie2_write_byte
 463:ChipUpdate.c  ****         ie2_write_byte(server_fota_App_size >> 8, IE2_Loc_FOTA_App_SIZE_BYTE1);
 1177              		.loc 1 463 0
 1178 0408 614B     		ldr	r3, .L62+12
 1179 040a 1B68     		ldr	r3, [r3]
 1180 040c 1B0A     		lsrs	r3, r3, #8
 1181 040e DBB2     		uxtb	r3, r3
 1182 0410 7621     		movs	r1, #118
 1183 0412 1846     		mov	r0, r3
 1184 0414 FFF7FEFF 		bl	ie2_write_byte
 464:ChipUpdate.c  ****         ie2_write_byte(server_fota_App_size >> 16, IE2_Loc_FOTA_App_SIZE_BYTE2);
 1185              		.loc 1 464 0
 1186 0418 5D4B     		ldr	r3, .L62+12
 1187 041a 1B68     		ldr	r3, [r3]
 1188 041c 1B0C     		lsrs	r3, r3, #16
 1189 041e DBB2     		uxtb	r3, r3
 1190 0420 7721     		movs	r1, #119
 1191 0422 1846     		mov	r0, r3
 1192 0424 FFF7FEFF 		bl	ie2_write_byte
 465:ChipUpdate.c  ****         ie2_write_byte(server_fota_App_size >> 24, IE2_Loc_FOTA_App_SIZE_BYTE3);
 1193              		.loc 1 465 0
 1194 0428 594B     		ldr	r3, .L62+12
 1195 042a 1B68     		ldr	r3, [r3]
 1196 042c 1B0E     		lsrs	r3, r3, #24
 1197 042e DBB2     		uxtb	r3, r3
 1198 0430 7821     		movs	r1, #120
 1199 0432 1846     		mov	r0, r3
 1200 0434 FFF7FEFF 		bl	ie2_write_byte
 466:ChipUpdate.c  **** 
 467:ChipUpdate.c  **** 		proc_reset_chip(Reset_Code_FOTA_Done);
 1201              		.loc 1 467 0
 1202 0438 0220     		movs	r0, #2
ARM GAS  C:\Users\IroTeam\AppData\Local\Temp\cc7EN6Cu.s 			page 32


 1203 043a FFF7FEFF 		bl	proc_reset_chip
 468:ChipUpdate.c  **** 
 469:ChipUpdate.c  **** 		return;
 1204              		.loc 1 469 0
 1205 043e 9CE0     		b	.L31
 1206              	.L46:
 470:ChipUpdate.c  **** 	}
 471:ChipUpdate.c  **** 
 472:ChipUpdate.c  **** 	if(fota_file_numbers != server_fota_file_numbers){
 1207              		.loc 1 472 0
 1208 0440 544B     		ldr	r3, .L62+16
 1209 0442 1A88     		ldrh	r2, [r3]
 1210 0444 544B     		ldr	r3, .L62+20
 1211 0446 1B88     		ldrh	r3, [r3]
 1212 0448 9A42     		cmp	r2, r3
 1213 044a 00F09580 		beq	.L59
 1214              	.LBB10:
 473:ChipUpdate.c  **** 		fota_file_numbers++;
 1215              		.loc 1 473 0
 1216 044e 514B     		ldr	r3, .L62+16
 1217 0450 1B88     		ldrh	r3, [r3]
 1218 0452 0133     		adds	r3, r3, #1
 1219 0454 9AB2     		uxth	r2, r3
 1220 0456 4F4B     		ldr	r3, .L62+16
 1221 0458 1A80     		strh	r2, [r3]	@ movhi
 474:ChipUpdate.c  **** //		led_set_color(GRE);
 475:ChipUpdate.c  **** 
 476:ChipUpdate.c  **** 		sprintf(req_line_buf,"{FOT_REQ}:{\"num\":\"%05d\"}\r\n",fota_file_numbers);
 1222              		.loc 1 476 0
 1223 045a 4E4B     		ldr	r3, .L62+16
 1224 045c 1B88     		ldrh	r3, [r3]
 1225 045e 1A46     		mov	r2, r3
 1226 0460 07F1D403 		add	r3, r7, #212
 1227 0464 4D49     		ldr	r1, .L62+24
 1228 0466 1846     		mov	r0, r3
 1229 0468 FFF7FEFF 		bl	sprintf
 477:ChipUpdate.c  **** 
 478:ChipUpdate.c  **** 
 479:ChipUpdate.c  **** 		uint8_t percent = (((double)fota_file_numbers) / (double)server_fota_file_numbers) * 100;
 1230              		.loc 1 479 0
 1231 046c 494B     		ldr	r3, .L62+16
 1232 046e 1B88     		ldrh	r3, [r3]
 1233 0470 1846     		mov	r0, r3
 1234 0472 FFF7FEFF 		bl	__aeabi_ui2d
 1235 0476 0446     		mov	r4, r0
 1236 0478 0D46     		mov	r5, r1
 1237 047a 474B     		ldr	r3, .L62+20
 1238 047c 1B88     		ldrh	r3, [r3]
 1239 047e 1846     		mov	r0, r3
 1240 0480 FFF7FEFF 		bl	__aeabi_ui2d
 1241 0484 0246     		mov	r2, r0
 1242 0486 0B46     		mov	r3, r1
 1243 0488 2046     		mov	r0, r4
 1244 048a 2946     		mov	r1, r5
 1245 048c FFF7FEFF 		bl	__aeabi_ddiv
 1246 0490 0346     		mov	r3, r0
 1247 0492 0C46     		mov	r4, r1
ARM GAS  C:\Users\IroTeam\AppData\Local\Temp\cc7EN6Cu.s 			page 33


 1248 0494 1846     		mov	r0, r3
 1249 0496 2146     		mov	r1, r4
 1250 0498 4FF00002 		mov	r2, #0
 1251 049c 404B     		ldr	r3, .L62+28
 1252 049e FFF7FEFF 		bl	__aeabi_dmul
 1253 04a2 0346     		mov	r3, r0
 1254 04a4 0C46     		mov	r4, r1
 1255 04a6 1846     		mov	r0, r3
 1256 04a8 2146     		mov	r1, r4
 1257 04aa FFF7FEFF 		bl	__aeabi_d2uiz
 1258 04ae 0346     		mov	r3, r0
 1259 04b0 87F83A31 		strb	r3, [r7, #314]
 480:ChipUpdate.c  **** 		if(last_percent != percent){
 1260              		.loc 1 480 0
 1261 04b4 3B4B     		ldr	r3, .L62+32
 1262 04b6 1B78     		ldrb	r3, [r3]	@ zero_extendqisi2
 1263 04b8 97F83A21 		ldrb	r2, [r7, #314]	@ zero_extendqisi2
 1264 04bc 9A42     		cmp	r2, r3
 1265 04be 17D0     		beq	.L48
 1266              	.LBB11:
 481:ChipUpdate.c  **** 			last_percent = percent;
 1267              		.loc 1 481 0
 1268 04c0 384A     		ldr	r2, .L62+32
 1269 04c2 97F83A31 		ldrb	r3, [r7, #314]
 1270 04c6 1370     		strb	r3, [r2]
 482:ChipUpdate.c  **** 			char data[100];
 483:ChipUpdate.c  **** 			sprintf(data, "update_procedure >> written lines : %d/%d\r\n", fota_row_counter, server_fota_fil
 1271              		.loc 1 483 0
 1272 04c8 2F4B     		ldr	r3, .L62+4
 1273 04ca 1B88     		ldrh	r3, [r3]
 1274 04cc 1A46     		mov	r2, r3
 1275 04ce 324B     		ldr	r3, .L62+20
 1276 04d0 1B88     		ldrh	r3, [r3]
 1277 04d2 07F10C00 		add	r0, r7, #12
 1278 04d6 3449     		ldr	r1, .L62+36
 1279 04d8 FFF7FEFF 		bl	sprintf
 484:ChipUpdate.c  **** 			UART_Debug_PutString(data);
 1280              		.loc 1 484 0
 1281 04dc 07F10C03 		add	r3, r7, #12
 1282 04e0 1846     		mov	r0, r3
 1283 04e2 FFF7FEFF 		bl	UART_Debug_PutString
 485:ChipUpdate.c  **** 			UART_Debug_PutString(req_line_buf);
 1284              		.loc 1 485 0
 1285 04e6 07F1D403 		add	r3, r7, #212
 1286 04ea 1846     		mov	r0, r3
 1287 04ec FFF7FEFF 		bl	UART_Debug_PutString
 1288              	.L48:
 1289              	.LBE11:
 486:ChipUpdate.c  **** 		}
 487:ChipUpdate.c  **** 
 488:ChipUpdate.c  **** 		if(percent % 2 == 0){
 1290              		.loc 1 488 0
 1291 04f0 97F83A31 		ldrb	r3, [r7, #314]
 1292 04f4 03F00103 		and	r3, r3, #1
 1293 04f8 DBB2     		uxtb	r3, r3
 1294 04fa 002B     		cmp	r3, #0
 1295 04fc 0BD1     		bne	.L49
ARM GAS  C:\Users\IroTeam\AppData\Local\Temp\cc7EN6Cu.s 			page 34


 489:ChipUpdate.c  **** 			RGB_Color = 5;
 1296              		.loc 1 489 0
 1297 04fe 2B4B     		ldr	r3, .L62+40
 1298 0500 0522     		movs	r2, #5
 1299 0502 1A70     		strb	r2, [r3]
 490:ChipUpdate.c  **** 			RGB_Color_Old = 5;
 1300              		.loc 1 490 0
 1301 0504 2A4B     		ldr	r3, .L62+44
 1302 0506 0522     		movs	r2, #5
 1303 0508 1A70     		strb	r2, [r3]
 491:ChipUpdate.c  **** 			RGB(RGB_Color); //Cypress run
 1304              		.loc 1 491 0
 1305 050a 284B     		ldr	r3, .L62+40
 1306 050c 1B78     		ldrb	r3, [r3]	@ zero_extendqisi2
 1307 050e 1846     		mov	r0, r3
 1308 0510 FFF7FEFF 		bl	RGB
 1309 0514 0AE0     		b	.L50
 1310              	.L49:
 492:ChipUpdate.c  **** 		}
 493:ChipUpdate.c  **** 		else{
 494:ChipUpdate.c  **** 			RGB_Color = 6;
 1311              		.loc 1 494 0
 1312 0516 254B     		ldr	r3, .L62+40
 1313 0518 0622     		movs	r2, #6
 1314 051a 1A70     		strb	r2, [r3]
 495:ChipUpdate.c  **** 			RGB_Color_Old = 6;
 1315              		.loc 1 495 0
 1316 051c 244B     		ldr	r3, .L62+44
 1317 051e 0622     		movs	r2, #6
 1318 0520 1A70     		strb	r2, [r3]
 496:ChipUpdate.c  **** 			RGB(RGB_Color); //Cypress run
 1319              		.loc 1 496 0
 1320 0522 224B     		ldr	r3, .L62+40
 1321 0524 1B78     		ldrb	r3, [r3]	@ zero_extendqisi2
 1322 0526 1846     		mov	r0, r3
 1323 0528 FFF7FEFF 		bl	RGB
 1324              	.L50:
 497:ChipUpdate.c  **** 		}
 498:ChipUpdate.c  **** //		UART_Linux_PutString(req_line_buf);
 499:ChipUpdate.c  **** 		if(!q_put_message(&_Queue_Send, req_line_buf, strlen(req_line_buf) + 1)){
 1325              		.loc 1 499 0
 1326 052c 07F1D403 		add	r3, r7, #212
 1327 0530 1846     		mov	r0, r3
 1328 0532 FFF7FEFF 		bl	strlen
 1329 0536 0346     		mov	r3, r0
 1330 0538 0133     		adds	r3, r3, #1
 1331 053a 1A46     		mov	r2, r3
 1332 053c 07F1D403 		add	r3, r7, #212
 1333 0540 1946     		mov	r1, r3
 1334 0542 1C48     		ldr	r0, .L62+48
 1335 0544 FFF7FEFF 		bl	q_put_message
 1336 0548 0346     		mov	r3, r0
 1337 054a 002B     		cmp	r3, #0
 1338 054c 14D1     		bne	.L59
 500:ChipUpdate.c  **** 			UART_Debug_PutString("update_procedure >> failed to put to _Queue_Send >> ");
 1339              		.loc 1 500 0
 1340 054e 1A48     		ldr	r0, .L62+52
ARM GAS  C:\Users\IroTeam\AppData\Local\Temp\cc7EN6Cu.s 			page 35


 1341 0550 FFF7FEFF 		bl	UART_Debug_PutString
 501:ChipUpdate.c  **** 			UART_Debug_PutString(req_line_buf);
 1342              		.loc 1 501 0
 1343 0554 07F1D403 		add	r3, r7, #212
 1344 0558 1846     		mov	r0, r3
 1345 055a FFF7FEFF 		bl	UART_Debug_PutString
 502:ChipUpdate.c  **** 			UART_Debug_PutString("\r\n");
 1346              		.loc 1 502 0
 1347 055e 1748     		ldr	r0, .L62+56
 1348 0560 FFF7FEFF 		bl	UART_Debug_PutString
 1349              	.LBE10:
 503:ChipUpdate.c  **** 		}
 504:ChipUpdate.c  **** 	}
 505:ChipUpdate.c  **** 	else {
 506:ChipUpdate.c  **** //		qctl_ftp_state = FTP_STATE_IDLE; // CHANGE FTP_STATE to IDLE
 507:ChipUpdate.c  **** 	}
 508:ChipUpdate.c  **** 
 509:ChipUpdate.c  ****     return;
 1350              		.loc 1 509 0
 1351 0564 00BF     		nop
 1352 0566 07E0     		b	.L59
 1353              	.L55:
 1354              	.LBB12:
 312:ChipUpdate.c  **** 	}
 1355              		.loc 1 312 0
 1356 0568 00BF     		nop
 1357 056a 06E0     		b	.L31
 1358              	.L56:
 1359              	.LBE12:
 332:ChipUpdate.c  **** 	}
 1360              		.loc 1 332 0
 1361 056c 00BF     		nop
 1362 056e 04E0     		b	.L31
 1363              	.L57:
 371:ChipUpdate.c  **** 	}
 1364              		.loc 1 371 0
 1365 0570 00BF     		nop
 1366 0572 02E0     		b	.L31
 1367              	.L58:
 396:ChipUpdate.c  ****     }
 1368              		.loc 1 396 0
 1369 0574 00BF     		nop
 1370 0576 00E0     		b	.L31
 1371              	.L59:
 1372              		.loc 1 509 0
 1373 0578 00BF     		nop
 1374              	.L31:
 510:ChipUpdate.c  **** }
 1375              		.loc 1 510 0
 1376 057a 07F5A877 		add	r7, r7, #336
 1377              		.cfi_def_cfa_offset 16
 1378 057e BD46     		mov	sp, r7
 1379              		.cfi_def_cfa_register 13
 1380              		@ sp needed
 1381 0580 B0BD     		pop	{r4, r5, r7, pc}
 1382              	.L63:
 1383 0582 00BF     		.align	2
ARM GAS  C:\Users\IroTeam\AppData\Local\Temp\cc7EN6Cu.s 			page 36


 1384              	.L62:
 1385 0584 00000000 		.word	fota_row_sequence
 1386 0588 00000000 		.word	fota_row_counter
 1387 058c 00000000 		.word	server_fota_App_CRC
 1388 0590 00000000 		.word	server_fota_App_size
 1389 0594 00000000 		.word	fota_file_numbers
 1390 0598 00000000 		.word	server_fota_file_numbers
 1391 059c 54020000 		.word	.LC20
 1392 05a0 00005940 		.word	1079574528
 1393 05a4 00000000 		.word	last_percent
 1394 05a8 18030000 		.word	.LC25
 1395 05ac 00000000 		.word	RGB_Color
 1396 05b0 00000000 		.word	RGB_Color_Old
 1397 05b4 00000000 		.word	_Queue_Send
 1398 05b8 64010000 		.word	.LC14
 1399 05bc 7C000000 		.word	.LC4
 1400              		.cfi_endproc
 1401              	.LFE68:
 1402              		.size	update_procedure, .-update_procedure
 1403              		.global	rowAddress
 1404              		.bss
 1405 0011 00       		.align	1
 1406              		.type	rowAddress, %object
 1407              		.size	rowAddress, 2
 1408              	rowAddress:
 1409 0012 0000     		.space	2
 1410              		.global	arrayID
 1411              		.data
 1412              		.type	arrayID, %object
 1413              		.size	arrayID, 1
 1414              	arrayID:
 1415 0000 02       		.byte	2
 1416              		.section	.rodata
 1417              		.align	2
 1418              	.LC26:
 1419 0344 4A6F686E 		.ascii	"John Cena 1 is here! py chart again\015\012\000"
 1419      2043656E 
 1419      61203120 
 1419      69732068 
 1419      65726521 
 1420 036a 0000     		.align	2
 1421              	.LC27:
 1422 036c 202A2A2A 		.ascii	" *** John Cena 2 is here! py chart again *** \015\012"
 1422      204A6F68 
 1422      6E204365 
 1422      6E612032 
 1422      20697320 
 1423 039b 00       		.ascii	"\000"
 1424              		.align	2
 1425              	.LC28:
 1426 039c 202A2A2A 		.ascii	" *** First RowID = %04X ***\015\012\000"
 1426      20466972 
 1426      73742052 
 1426      6F774944 
 1426      203D2025 
 1427              		.section	.text.internal_flash_write_row,"ax",%progbits
 1428              		.align	2
ARM GAS  C:\Users\IroTeam\AppData\Local\Temp\cc7EN6Cu.s 			page 37


 1429              		.global	internal_flash_write_row
 1430              		.thumb
 1431              		.thumb_func
 1432              		.type	internal_flash_write_row, %function
 1433              	internal_flash_write_row:
 1434              	.LFB69:
 511:ChipUpdate.c  **** 
 512:ChipUpdate.c  **** uint16 rowAddress = 0;
 513:ChipUpdate.c  **** uint8  arrayID    = 0x02;
 514:ChipUpdate.c  **** 
 515:ChipUpdate.c  **** uint8 internal_flash_write_row()
 516:ChipUpdate.c  **** {
 1435              		.loc 1 516 0
 1436              		.cfi_startproc
 1437              		@ args = 0, pretend = 0, frame = 368
 1438              		@ frame_needed = 1, uses_anonymous_args = 0
 1439 0000 80B5     		push	{r7, lr}
 1440              		.cfi_def_cfa_offset 8
 1441              		.cfi_offset 7, -8
 1442              		.cfi_offset 14, -4
 1443 0002 DCB0     		sub	sp, sp, #368
 1444              		.cfi_def_cfa_offset 376
 1445 0004 00AF     		add	r7, sp, #0
 1446              		.cfi_def_cfa_register 7
 517:ChipUpdate.c  ****     uint8 fail = 0;
 1447              		.loc 1 517 0
 1448 0006 0023     		movs	r3, #0
 1449 0008 87F86F31 		strb	r3, [r7, #367]
 518:ChipUpdate.c  ****     uint8 dataBuff[CY_FLASH_SIZEOF_ROW];
 519:ChipUpdate.c  ****     uint8  crc        = fota_data_bytes[FOTA_ROW_SIZE - 1];
 1450              		.loc 1 519 0
 1451 000c 464B     		ldr	r3, .L76
 1452 000e 93F80531 		ldrb	r3, [r3, #261]
 1453 0012 87F86731 		strb	r3, [r7, #359]
 1454              	.LBB13:
 520:ChipUpdate.c  **** 
 521:ChipUpdate.c  ****     for(uint j = 0; j < CY_FLASH_SIZEOF_ROW; j++){  // 256
 1455              		.loc 1 521 0
 1456 0016 0023     		movs	r3, #0
 1457 0018 C7F86831 		str	r3, [r7, #360]
 1458 001c 10E0     		b	.L65
 1459              	.L66:
 522:ChipUpdate.c  ****         dataBuff[j] = fota_data_bytes[5 + j];
 1460              		.loc 1 522 0 discriminator 3
 1461 001e D7F86831 		ldr	r3, [r7, #360]
 1462 0022 0533     		adds	r3, r3, #5
 1463 0024 404A     		ldr	r2, .L76
 1464 0026 D15C     		ldrb	r1, [r2, r3]	@ zero_extendqisi2
 1465 0028 07F16402 		add	r2, r7, #100
 1466 002c D7F86831 		ldr	r3, [r7, #360]
 1467 0030 1344     		add	r3, r3, r2
 1468 0032 0A46     		mov	r2, r1
 1469 0034 1A70     		strb	r2, [r3]
 521:ChipUpdate.c  ****         dataBuff[j] = fota_data_bytes[5 + j];
 1470              		.loc 1 521 0 discriminator 3
 1471 0036 D7F86831 		ldr	r3, [r7, #360]
 1472 003a 0133     		adds	r3, r3, #1
ARM GAS  C:\Users\IroTeam\AppData\Local\Temp\cc7EN6Cu.s 			page 38


 1473 003c C7F86831 		str	r3, [r7, #360]
 1474              	.L65:
 521:ChipUpdate.c  ****         dataBuff[j] = fota_data_bytes[5 + j];
 1475              		.loc 1 521 0 is_stmt 0 discriminator 1
 1476 0040 D7F86831 		ldr	r3, [r7, #360]
 1477 0044 FF2B     		cmp	r3, #255
 1478 0046 EAD9     		bls	.L66
 1479              	.LBE13:
 523:ChipUpdate.c  ****     }
 524:ChipUpdate.c  ****     OS_TASK_Delay(25);
 1480              		.loc 1 524 0 is_stmt 1
 1481 0048 1920     		movs	r0, #25
 1482 004a FFF7FEFF 		bl	OS_TASK_Delay
 525:ChipUpdate.c  ****     
 526:ChipUpdate.c  ****     if(rowAddress == 0){
 1483              		.loc 1 526 0
 1484 004e 374B     		ldr	r3, .L76+4
 1485 0050 1B88     		ldrh	r3, [r3]
 1486 0052 002B     		cmp	r3, #0
 1487 0054 2DD1     		bne	.L67
 1488              	.LBB14:
 527:ChipUpdate.c  ****         if(!ie2_write_byte(fota_data_bytes[1], IE2_Loc_FOTA_ROW_START_BYTE0)){
 1489              		.loc 1 527 0
 1490 0056 344B     		ldr	r3, .L76
 1491 0058 5B78     		ldrb	r3, [r3, #1]	@ zero_extendqisi2
 1492 005a 7921     		movs	r1, #121
 1493 005c 1846     		mov	r0, r3
 1494 005e FFF7FEFF 		bl	ie2_write_byte
 1495 0062 0346     		mov	r3, r0
 1496 0064 002B     		cmp	r3, #0
 1497 0066 02D1     		bne	.L68
 528:ChipUpdate.c  ****             UART_Debug_PutString("John Cena 1 is here! py chart again\r\n");
 1498              		.loc 1 528 0
 1499 0068 3148     		ldr	r0, .L76+8
 1500 006a FFF7FEFF 		bl	UART_Debug_PutString
 1501              	.L68:
 529:ChipUpdate.c  ****         }
 530:ChipUpdate.c  ****         if(!ie2_write_byte(fota_data_bytes[2], IE2_Loc_FOTA_ROW_START_BYTE1)){
 1502              		.loc 1 530 0
 1503 006e 2E4B     		ldr	r3, .L76
 1504 0070 9B78     		ldrb	r3, [r3, #2]	@ zero_extendqisi2
 1505 0072 7A21     		movs	r1, #122
 1506 0074 1846     		mov	r0, r3
 1507 0076 FFF7FEFF 		bl	ie2_write_byte
 1508 007a 0346     		mov	r3, r0
 1509 007c 002B     		cmp	r3, #0
 1510 007e 02D1     		bne	.L69
 531:ChipUpdate.c  ****             UART_Debug_PutString(" *** John Cena 2 is here! py chart again *** \r\n");
 1511              		.loc 1 531 0
 1512 0080 2C48     		ldr	r0, .L76+12
 1513 0082 FFF7FEFF 		bl	UART_Debug_PutString
 1514              	.L69:
 532:ChipUpdate.c  ****         }
 533:ChipUpdate.c  ****         
 534:ChipUpdate.c  ****         uint16 add = fota_data_bytes[1] << 8 | fota_data_bytes[2] << 0;
 1515              		.loc 1 534 0
 1516 0086 284B     		ldr	r3, .L76
ARM GAS  C:\Users\IroTeam\AppData\Local\Temp\cc7EN6Cu.s 			page 39


 1517 0088 5B78     		ldrb	r3, [r3, #1]	@ zero_extendqisi2
 1518 008a 1B02     		lsls	r3, r3, #8
 1519 008c 1AB2     		sxth	r2, r3
 1520 008e 264B     		ldr	r3, .L76
 1521 0090 9B78     		ldrb	r3, [r3, #2]	@ zero_extendqisi2
 1522 0092 1BB2     		sxth	r3, r3
 1523 0094 1343     		orrs	r3, r3, r2
 1524 0096 1BB2     		sxth	r3, r3
 1525 0098 A7F86431 		strh	r3, [r7, #356]	@ movhi
 535:ChipUpdate.c  ****         char d[100];
 536:ChipUpdate.c  ****         sprintf(d, " *** First RowID = %04X ***\r\n", add);
 1526              		.loc 1 536 0
 1527 009c B7F86421 		ldrh	r2, [r7, #356]
 1528 00a0 3B46     		mov	r3, r7
 1529 00a2 2549     		ldr	r1, .L76+16
 1530 00a4 1846     		mov	r0, r3
 1531 00a6 FFF7FEFF 		bl	sprintf
 537:ChipUpdate.c  ****         UART_Debug_PutString(d);
 1532              		.loc 1 537 0
 1533 00aa 3B46     		mov	r3, r7
 1534 00ac 1846     		mov	r0, r3
 1535 00ae FFF7FEFF 		bl	UART_Debug_PutString
 1536              	.L67:
 1537              	.LBE14:
 538:ChipUpdate.c  ****     }
 539:ChipUpdate.c  ****         
 540:ChipUpdate.c  ****     if(CySetTemp() == CYRET_SUCCESS){
 1538              		.loc 1 540 0
 1539 00b2 FFF7FEFF 		bl	CySetTemp
 1540 00b6 0346     		mov	r3, r0
 1541 00b8 002B     		cmp	r3, #0
 1542 00ba 1DD1     		bne	.L70
 541:ChipUpdate.c  ****         if(internal_flash_handle_error(CyWriteRowData(arrayID, rowAddress, dataBuff))){
 1543              		.loc 1 541 0
 1544 00bc 1F4B     		ldr	r3, .L76+20
 1545 00be 1878     		ldrb	r0, [r3]	@ zero_extendqisi2
 1546 00c0 1A4B     		ldr	r3, .L76+4
 1547 00c2 1B88     		ldrh	r3, [r3]
 1548 00c4 07F16402 		add	r2, r7, #100
 1549 00c8 1946     		mov	r1, r3
 1550 00ca FFF7FEFF 		bl	CyWriteRowData
 1551 00ce 0346     		mov	r3, r0
 1552 00d0 1846     		mov	r0, r3
 1553 00d2 FFF7FEFF 		bl	internal_flash_handle_error
 1554 00d6 0346     		mov	r3, r0
 1555 00d8 002B     		cmp	r3, #0
 1556 00da 09D0     		beq	.L71
 542:ChipUpdate.c  ****             rowAddress++;
 1557              		.loc 1 542 0
 1558 00dc 134B     		ldr	r3, .L76+4
 1559 00de 1B88     		ldrh	r3, [r3]
 1560 00e0 0133     		adds	r3, r3, #1
 1561 00e2 9AB2     		uxth	r2, r3
 1562 00e4 114B     		ldr	r3, .L76+4
 1563 00e6 1A80     		strh	r2, [r3]	@ movhi
 543:ChipUpdate.c  ****             OS_TASK_Delay(10);
 1564              		.loc 1 543 0
ARM GAS  C:\Users\IroTeam\AppData\Local\Temp\cc7EN6Cu.s 			page 40


 1565 00e8 0A20     		movs	r0, #10
 1566 00ea FFF7FEFF 		bl	OS_TASK_Delay
 1567 00ee 06E0     		b	.L73
 1568              	.L71:
 544:ChipUpdate.c  ****         }
 545:ChipUpdate.c  ****         else{
 546:ChipUpdate.c  ****             fail = 1;
 1569              		.loc 1 546 0
 1570 00f0 0123     		movs	r3, #1
 1571 00f2 87F86F31 		strb	r3, [r7, #367]
 1572 00f6 02E0     		b	.L73
 1573              	.L70:
 547:ChipUpdate.c  ****         }
 548:ChipUpdate.c  ****     }
 549:ChipUpdate.c  ****     else{
 550:ChipUpdate.c  ****         fail = 2;
 1574              		.loc 1 550 0
 1575 00f8 0223     		movs	r3, #2
 1576 00fa 87F86F31 		strb	r3, [r7, #367]
 1577              	.L73:
 551:ChipUpdate.c  ****     }
 552:ChipUpdate.c  ****         
 553:ChipUpdate.c  ****     if(rowAddress == 0x0100){
 1578              		.loc 1 553 0
 1579 00fe 0B4B     		ldr	r3, .L76+4
 1580 0100 1B88     		ldrh	r3, [r3]
 1581 0102 B3F5807F 		cmp	r3, #256
 1582 0106 08D1     		bne	.L74
 554:ChipUpdate.c  ****         rowAddress = 0;
 1583              		.loc 1 554 0
 1584 0108 084B     		ldr	r3, .L76+4
 1585 010a 0022     		movs	r2, #0
 1586 010c 1A80     		strh	r2, [r3]	@ movhi
 555:ChipUpdate.c  ****         arrayID++;
 1587              		.loc 1 555 0
 1588 010e 0B4B     		ldr	r3, .L76+20
 1589 0110 1B78     		ldrb	r3, [r3]	@ zero_extendqisi2
 1590 0112 0133     		adds	r3, r3, #1
 1591 0114 DAB2     		uxtb	r2, r3
 1592 0116 094B     		ldr	r3, .L76+20
 1593 0118 1A70     		strb	r2, [r3]
 1594              	.L74:
 556:ChipUpdate.c  ****     }
 557:ChipUpdate.c  ****  
 558:ChipUpdate.c  ****     return fail;
 1595              		.loc 1 558 0
 1596 011a 97F86F31 		ldrb	r3, [r7, #367]	@ zero_extendqisi2
 559:ChipUpdate.c  **** }
 1597              		.loc 1 559 0
 1598 011e 1846     		mov	r0, r3
 1599 0120 07F5B877 		add	r7, r7, #368
 1600              		.cfi_def_cfa_offset 8
 1601 0124 BD46     		mov	sp, r7
 1602              		.cfi_def_cfa_register 13
 1603              		@ sp needed
 1604 0126 80BD     		pop	{r7, pc}
 1605              	.L77:
ARM GAS  C:\Users\IroTeam\AppData\Local\Temp\cc7EN6Cu.s 			page 41


 1606              		.align	2
 1607              	.L76:
 1608 0128 00000000 		.word	fota_data_bytes
 1609 012c 00000000 		.word	rowAddress
 1610 0130 44030000 		.word	.LC26
 1611 0134 6C030000 		.word	.LC27
 1612 0138 9C030000 		.word	.LC28
 1613 013c 00000000 		.word	arrayID
 1614              		.cfi_endproc
 1615              	.LFE69:
 1616              		.size	internal_flash_write_row, .-internal_flash_write_row
 1617              		.section	.rodata
 1618 03ba 0000     		.align	2
 1619              	.LC29:
 1620 03bc 466C6173 		.ascii	"Flash writing already in use\015\012\000"
 1620      68207772 
 1620      6974696E 
 1620      6720616C 
 1620      72656164 
 1621 03db 00       		.align	2
 1622              	.LC30:
 1623 03dc 436F6D6D 		.ascii	"Command not accepted\015\012\000"
 1623      616E6420 
 1623      6E6F7420 
 1623      61636365 
 1623      70746564 
 1624 03f3 00       		.align	2
 1625              	.LC31:
 1626 03f4 4661696C 		.ascii	"Failure\015\012\000"
 1626      7572650D 
 1626      0A00
 1627              		.section	.text.internal_flash_handle_error,"ax",%progbits
 1628              		.align	2
 1629              		.global	internal_flash_handle_error
 1630              		.thumb
 1631              		.thumb_func
 1632              		.type	internal_flash_handle_error, %function
 1633              	internal_flash_handle_error:
 1634              	.LFB70:
 560:ChipUpdate.c  **** 
 561:ChipUpdate.c  **** uint8 internal_flash_handle_error(cystatus value)
 562:ChipUpdate.c  **** {
 1635              		.loc 1 562 0
 1636              		.cfi_startproc
 1637              		@ args = 0, pretend = 0, frame = 16
 1638              		@ frame_needed = 1, uses_anonymous_args = 0
 1639 0000 80B5     		push	{r7, lr}
 1640              		.cfi_def_cfa_offset 8
 1641              		.cfi_offset 7, -8
 1642              		.cfi_offset 14, -4
 1643 0002 84B0     		sub	sp, sp, #16
 1644              		.cfi_def_cfa_offset 24
 1645 0004 00AF     		add	r7, sp, #0
 1646              		.cfi_def_cfa_register 7
 1647 0006 7860     		str	r0, [r7, #4]
 563:ChipUpdate.c  ****     uint8 ret = 0;
 1648              		.loc 1 563 0
ARM GAS  C:\Users\IroTeam\AppData\Local\Temp\cc7EN6Cu.s 			page 42


 1649 0008 0023     		movs	r3, #0
 1650 000a FB73     		strb	r3, [r7, #15]
 564:ChipUpdate.c  ****     if(value == CYRET_SUCCESS){
 1651              		.loc 1 564 0
 1652 000c 7B68     		ldr	r3, [r7, #4]
 1653 000e 002B     		cmp	r3, #0
 1654 0010 02D1     		bne	.L79
 565:ChipUpdate.c  ****         ret = 1;
 1655              		.loc 1 565 0
 1656 0012 0123     		movs	r3, #1
 1657 0014 FB73     		strb	r3, [r7, #15]
 1658 0016 10E0     		b	.L80
 1659              	.L79:
 566:ChipUpdate.c  ****     } 
 567:ChipUpdate.c  ****     else if(value == CYRET_LOCKED){
 1660              		.loc 1 567 0
 1661 0018 7B68     		ldr	r3, [r7, #4]
 1662 001a 042B     		cmp	r3, #4
 1663 001c 03D1     		bne	.L81
 568:ChipUpdate.c  ****         UART_Debug_PutString("Flash writing already in use\r\n");
 1664              		.loc 1 568 0
 1665 001e 0948     		ldr	r0, .L84
 1666 0020 FFF7FEFF 		bl	UART_Debug_PutString
 1667 0024 09E0     		b	.L80
 1668              	.L81:
 569:ChipUpdate.c  ****     } 
 570:ChipUpdate.c  ****     else if(value == CYRET_CANCELED){
 1669              		.loc 1 570 0
 1670 0026 7B68     		ldr	r3, [r7, #4]
 1671 0028 092B     		cmp	r3, #9
 1672 002a 03D1     		bne	.L82
 571:ChipUpdate.c  ****         UART_Debug_PutString("Command not accepted\r\n");
 1673              		.loc 1 571 0
 1674 002c 0648     		ldr	r0, .L84+4
 1675 002e FFF7FEFF 		bl	UART_Debug_PutString
 1676 0032 02E0     		b	.L80
 1677              	.L82:
 572:ChipUpdate.c  ****     } 
 573:ChipUpdate.c  ****     else{
 574:ChipUpdate.c  ****         UART_Debug_PutString("Failure\r\n");
 1678              		.loc 1 574 0
 1679 0034 0548     		ldr	r0, .L84+8
 1680 0036 FFF7FEFF 		bl	UART_Debug_PutString
 1681              	.L80:
 575:ChipUpdate.c  ****     }
 576:ChipUpdate.c  ****     
 577:ChipUpdate.c  ****     return ret;
 1682              		.loc 1 577 0
 1683 003a FB7B     		ldrb	r3, [r7, #15]	@ zero_extendqisi2
 578:ChipUpdate.c  **** }
 1684              		.loc 1 578 0
 1685 003c 1846     		mov	r0, r3
 1686 003e 1037     		adds	r7, r7, #16
 1687              		.cfi_def_cfa_offset 8
 1688 0040 BD46     		mov	sp, r7
 1689              		.cfi_def_cfa_register 13
 1690              		@ sp needed
ARM GAS  C:\Users\IroTeam\AppData\Local\Temp\cc7EN6Cu.s 			page 43


 1691 0042 80BD     		pop	{r7, pc}
 1692              	.L85:
 1693              		.align	2
 1694              	.L84:
 1695 0044 BC030000 		.word	.LC29
 1696 0048 DC030000 		.word	.LC30
 1697 004c F4030000 		.word	.LC31
 1698              		.cfi_endproc
 1699              	.LFE70:
 1700              		.size	internal_flash_handle_error, .-internal_flash_handle_error
 1701              		.text
 1702              	.Letext0:
 1703              		.file 2 "c:\\program files (x86)\\cypress\\psoc creator\\4.4\\psoc creator\\import\\gnu\\arm\\5.4.
 1704              		.file 3 "..\\..\\..\\..\\Inc/RTOS.h"
 1705              		.file 4 "c:\\program files (x86)\\cypress\\psoc creator\\4.4\\psoc creator\\import\\gnu\\arm\\5.4.
 1706              		.file 5 "Generated_Source\\PSoC5/cytypes.h"
 1707              		.file 6 "c:\\program files (x86)\\cypress\\psoc creator\\4.4\\psoc creator\\import\\gnu\\arm\\5.4.
 1708              		.file 7 "Generated_Source\\PSoC5/core_cm3.h"
 1709              		.file 8 "defines.h"
 1710              		.file 9 "OS_Main.h"