ARM GAS  C:\Users\IroTeam\AppData\Local\Temp\ccsYkOec.s 			page 1


   1              		.syntax unified
   2              		.cpu cortex-m3
   3              		.fpu softvfp
   4              		.eabi_attribute 20, 1
   5              		.eabi_attribute 21, 1
   6              		.eabi_attribute 23, 3
   7              		.eabi_attribute 24, 1
   8              		.eabi_attribute 25, 1
   9              		.eabi_attribute 26, 1
  10              		.eabi_attribute 30, 6
  11              		.eabi_attribute 34, 1
  12              		.eabi_attribute 18, 4
  13              		.thumb
  14              		.syntax unified
  15              		.file	"defines.c"
  16              		.text
  17              	.Ltext0:
  18              		.cfi_sections	.debug_frame
  19              		.global	fota_flag_start
  20              		.bss
  21              		.type	fota_flag_start, %object
  22              		.size	fota_flag_start, 1
  23              	fota_flag_start:
  24 0000 00       		.space	1
  25              		.global	fota_file_numbers
  26              		.data
  27              		.align	1
  28              		.type	fota_file_numbers, %object
  29              		.size	fota_file_numbers, 2
  30              	fota_file_numbers:
  31 0000 0100     		.short	1
  32              		.global	fota_row_counter
  33              		.bss
  34 0001 00       		.align	1
  35              		.type	fota_row_counter, %object
  36              		.size	fota_row_counter, 2
  37              	fota_row_counter:
  38 0002 0000     		.space	2
  39              		.global	fota_row_sequence
  40              		.align	1
  41              		.type	fota_row_sequence, %object
  42              		.size	fota_row_sequence, 2
  43              	fota_row_sequence:
  44 0004 0000     		.space	2
  45              		.global	fota_recv_byte_count
  46              		.align	1
  47              		.type	fota_recv_byte_count, %object
  48              		.size	fota_recv_byte_count, 2
  49              	fota_recv_byte_count:
  50 0006 0000     		.space	2
  51              		.global	server_fota_App_size
  52              		.align	2
  53              		.type	server_fota_App_size, %object
  54              		.size	server_fota_App_size, 4
  55              	server_fota_App_size:
  56 0008 00000000 		.space	4
  57              		.global	server_fota_App_CRC
ARM GAS  C:\Users\IroTeam\AppData\Local\Temp\ccsYkOec.s 			page 2


  58              		.align	2
  59              		.type	server_fota_App_CRC, %object
  60              		.size	server_fota_App_CRC, 4
  61              	server_fota_App_CRC:
  62 000c 00000000 		.space	4
  63              		.comm	server_fota_folder_name,15,4
  64              		.global	server_fota_file_numbers
  65              		.align	1
  66              		.type	server_fota_file_numbers, %object
  67              		.size	server_fota_file_numbers, 2
  68              	server_fota_file_numbers:
  69 0010 0000     		.space	2
  70              		.global	server_fota_App_lines
  71              		.align	1
  72              		.type	server_fota_App_lines, %object
  73              		.size	server_fota_App_lines, 2
  74              	server_fota_App_lines:
  75 0012 0000     		.space	2
  76              		.comm	server_fota_data,1500,4
  77              		.global	int_byte
  78              		.type	int_byte, %object
  79              		.size	int_byte, 1
  80              	int_byte:
  81 0014 00       		.space	1
  82              		.global	int_byte_ctr
  83              		.type	int_byte_ctr, %object
  84              		.size	int_byte_ctr, 1
  85              	int_byte_ctr:
  86 0015 00       		.space	1
  87              		.global	RGB_Color
  88              		.type	RGB_Color, %object
  89              		.size	RGB_Color, 1
  90              	RGB_Color:
  91 0016 00       		.space	1
  92              		.global	RGB_Color_Old
  93              		.type	RGB_Color_Old, %object
  94              		.size	RGB_Color_Old, 1
  95              	RGB_Color_Old:
  96 0017 00       		.space	1
  97              		.section	.text.strremove,"ax",%progbits
  98              		.align	2
  99              		.global	strremove
 100              		.thumb
 101              		.thumb_func
 102              		.type	strremove, %function
 103              	strremove:
 104              	.LFB64:
 105              		.file 1 "defines.c"
   1:defines.c     **** /* ========================================
   2:defines.c     ****  *
   3:defines.c     ****  * Copyright YOUR COMPANY, THE YEAR
   4:defines.c     ****  * All Rights Reserved
   5:defines.c     ****  * UNPUBLISHED, LICENSED SOFTWARE.
   6:defines.c     ****  *
   7:defines.c     ****  * CONFIDENTIAL AND PROPRIETARY INFORMATION
   8:defines.c     ****  * WHICH IS THE PROPERTY OF your company.
   9:defines.c     ****  *
ARM GAS  C:\Users\IroTeam\AppData\Local\Temp\ccsYkOec.s 			page 3


  10:defines.c     ****  * ========================================
  11:defines.c     **** */
  12:defines.c     **** // ###################################################### Includes ################################
  13:defines.c     **** #include "defines.h"
  14:defines.c     **** // ################################################################################################
  15:defines.c     **** 
  16:defines.c     **** uint8_t fota_flag_start = 0;
  17:defines.c     **** 
  18:defines.c     **** uint16 fota_file_numbers = 1;
  19:defines.c     **** uint16 fota_row_counter = 0;
  20:defines.c     **** uint16 fota_row_sequence = 0;
  21:defines.c     **** uint16 fota_recv_byte_count = 0;
  22:defines.c     **** 
  23:defines.c     **** uint32 server_fota_App_size = 0;
  24:defines.c     **** uint32 server_fota_App_CRC = 0;
  25:defines.c     **** char server_fota_folder_name[15];
  26:defines.c     **** uint16 server_fota_file_numbers = 0;
  27:defines.c     **** uint16 server_fota_App_lines = 0;
  28:defines.c     **** char server_fota_data[1500];
  29:defines.c     **** 
  30:defines.c     **** uint8 int_byte = 0;
  31:defines.c     **** uint8 int_byte_ctr = 0;
  32:defines.c     **** 
  33:defines.c     **** uint8 RGB_Color = 0;
  34:defines.c     **** uint8 RGB_Color_Old = 0;
  35:defines.c     **** 
  36:defines.c     **** // ###################################################### Functions ###############################
  37:defines.c     **** char* strremove(char *str, const char *sub)
  38:defines.c     **** {
 106              		.loc 1 38 0
 107              		.cfi_startproc
 108              		@ args = 0, pretend = 0, frame = 16
 109              		@ frame_needed = 1, uses_anonymous_args = 0
 110 0000 90B5     		push	{r4, r7, lr}
 111              		.cfi_def_cfa_offset 12
 112              		.cfi_offset 4, -12
 113              		.cfi_offset 7, -8
 114              		.cfi_offset 14, -4
 115 0002 85B0     		sub	sp, sp, #20
 116              		.cfi_def_cfa_offset 32
 117 0004 00AF     		add	r7, sp, #0
 118              		.cfi_def_cfa_register 7
 119 0006 7860     		str	r0, [r7, #4]
 120 0008 3960     		str	r1, [r7]
  39:defines.c     ****     size_t len = strlen(sub);
 121              		.loc 1 39 0
 122 000a 3868     		ldr	r0, [r7]
 123 000c FFF7FEFF 		bl	strlen
 124 0010 B860     		str	r0, [r7, #8]
  40:defines.c     ****     if(len > 0){
 125              		.loc 1 40 0
 126 0012 BB68     		ldr	r3, [r7, #8]
 127 0014 002B     		cmp	r3, #0
 128 0016 1AD0     		beq	.L2
 129              	.LBB2:
  41:defines.c     ****         char *p = str;
 130              		.loc 1 41 0
ARM GAS  C:\Users\IroTeam\AppData\Local\Temp\ccsYkOec.s 			page 4


 131 0018 7B68     		ldr	r3, [r7, #4]
 132 001a FB60     		str	r3, [r7, #12]
  42:defines.c     ****         while((p = strstr(p, sub)) != NULL){
 133              		.loc 1 42 0
 134 001c 0FE0     		b	.L3
 135              	.L4:
  43:defines.c     ****             memmove(p, p + len, strlen(p + len) + 1);
 136              		.loc 1 43 0
 137 001e FA68     		ldr	r2, [r7, #12]
 138 0020 BB68     		ldr	r3, [r7, #8]
 139 0022 D418     		adds	r4, r2, r3
 140 0024 FA68     		ldr	r2, [r7, #12]
 141 0026 BB68     		ldr	r3, [r7, #8]
 142 0028 1344     		add	r3, r3, r2
 143 002a 1846     		mov	r0, r3
 144 002c FFF7FEFF 		bl	strlen
 145 0030 0346     		mov	r3, r0
 146 0032 0133     		adds	r3, r3, #1
 147 0034 1A46     		mov	r2, r3
 148 0036 2146     		mov	r1, r4
 149 0038 F868     		ldr	r0, [r7, #12]
 150 003a FFF7FEFF 		bl	memmove
 151              	.L3:
  42:defines.c     ****         while((p = strstr(p, sub)) != NULL){
 152              		.loc 1 42 0
 153 003e 3968     		ldr	r1, [r7]
 154 0040 F868     		ldr	r0, [r7, #12]
 155 0042 FFF7FEFF 		bl	strstr
 156 0046 F860     		str	r0, [r7, #12]
 157 0048 FB68     		ldr	r3, [r7, #12]
 158 004a 002B     		cmp	r3, #0
 159 004c E7D1     		bne	.L4
 160              	.L2:
 161              	.LBE2:
  44:defines.c     ****         }
  45:defines.c     ****     }
  46:defines.c     ****     
  47:defines.c     ****     return str;
 162              		.loc 1 47 0
 163 004e 7B68     		ldr	r3, [r7, #4]
  48:defines.c     **** }
 164              		.loc 1 48 0
 165 0050 1846     		mov	r0, r3
 166 0052 1437     		adds	r7, r7, #20
 167              		.cfi_def_cfa_offset 12
 168 0054 BD46     		mov	sp, r7
 169              		.cfi_def_cfa_register 13
 170              		@ sp needed
 171 0056 90BD     		pop	{r4, r7, pc}
 172              		.cfi_endproc
 173              	.LFE64:
 174              		.size	strremove, .-strremove
 175              		.comm	_Queue_Main,36,4
 176              		.comm	_QBuffer_Queue_Main,792,4
 177              		.comm	_Queue_Send,36,4
 178              		.comm	_QBuffer_Queue_Send,792,4
 179              		.section	.text.q_put_message,"ax",%progbits
ARM GAS  C:\Users\IroTeam\AppData\Local\Temp\ccsYkOec.s 			page 5


 180              		.align	2
 181              		.global	q_put_message
 182              		.thumb
 183              		.thumb_func
 184              		.type	q_put_message, %function
 185              	q_put_message:
 186              	.LFB65:
  49:defines.c     **** 
  50:defines.c     **** OS_Q _Queue_Main;
  51:defines.c     **** char _QBuffer_Queue_Main[Queue_Size_Main];
  52:defines.c     **** 
  53:defines.c     **** OS_Q _Queue_Send;
  54:defines.c     **** char _QBuffer_Queue_Send[Queue_Size_Send];
  55:defines.c     **** 
  56:defines.c     **** uint8_t q_put_message(OS_QUEUE* queue, char* message, int lng)
  57:defines.c     **** {
 187              		.loc 1 57 0
 188              		.cfi_startproc
 189              		@ args = 0, pretend = 0, frame = 24
 190              		@ frame_needed = 1, uses_anonymous_args = 0
 191 0000 80B5     		push	{r7, lr}
 192              		.cfi_def_cfa_offset 8
 193              		.cfi_offset 7, -8
 194              		.cfi_offset 14, -4
 195 0002 86B0     		sub	sp, sp, #24
 196              		.cfi_def_cfa_offset 32
 197 0004 00AF     		add	r7, sp, #0
 198              		.cfi_def_cfa_register 7
 199 0006 F860     		str	r0, [r7, #12]
 200 0008 B960     		str	r1, [r7, #8]
 201 000a 7A60     		str	r2, [r7, #4]
  58:defines.c     ****     CyWdtClear();
 202              		.loc 1 58 0
 203 000c FFF7FEFF 		bl	CyWdtClear
  59:defines.c     **** 
  60:defines.c     ****     int res = OS_QUEUE_Put(queue, (void*)message, lng);
 204              		.loc 1 60 0
 205 0010 7B68     		ldr	r3, [r7, #4]
 206 0012 1A46     		mov	r2, r3
 207 0014 B968     		ldr	r1, [r7, #8]
 208 0016 F868     		ldr	r0, [r7, #12]
 209 0018 FFF7FEFF 		bl	OS_QUEUE_Put
 210 001c 7861     		str	r0, [r7, #20]
  61:defines.c     ****     if(res == 0){
 211              		.loc 1 61 0
 212 001e 7B69     		ldr	r3, [r7, #20]
 213 0020 002B     		cmp	r3, #0
 214 0022 01D1     		bne	.L7
  62:defines.c     ****         return 1;
 215              		.loc 1 62 0
 216 0024 0123     		movs	r3, #1
 217 0026 00E0     		b	.L8
 218              	.L7:
  63:defines.c     ****     }
  64:defines.c     ****     else{
  65:defines.c     **** //      char msg[] = "q_put_message >> failed to put message";
  66:defines.c     **** //      file_fill_log_buff(msg);
ARM GAS  C:\Users\IroTeam\AppData\Local\Temp\ccsYkOec.s 			page 6


  67:defines.c     **** 
  68:defines.c     ****         return 0;
 219              		.loc 1 68 0
 220 0028 0023     		movs	r3, #0
 221              	.L8:
  69:defines.c     ****     }
  70:defines.c     **** }
 222              		.loc 1 70 0
 223 002a 1846     		mov	r0, r3
 224 002c 1837     		adds	r7, r7, #24
 225              		.cfi_def_cfa_offset 8
 226 002e BD46     		mov	sp, r7
 227              		.cfi_def_cfa_register 13
 228              		@ sp needed
 229 0030 80BD     		pop	{r7, pc}
 230              		.cfi_endproc
 231              	.LFE65:
 232              		.size	q_put_message, .-q_put_message
 233 0032 00BF     		.section	.text.q_get_message,"ax",%progbits
 234              		.align	2
 235              		.global	q_get_message
 236              		.thumb
 237              		.thumb_func
 238              		.type	q_get_message, %function
 239              	q_get_message:
 240              	.LFB66:
  71:defines.c     **** 
  72:defines.c     **** void* q_get_message(OS_QUEUE* queue)
  73:defines.c     **** {
 241              		.loc 1 73 0
 242              		.cfi_startproc
 243              		@ args = 0, pretend = 0, frame = 16
 244              		@ frame_needed = 1, uses_anonymous_args = 0
 245 0000 80B5     		push	{r7, lr}
 246              		.cfi_def_cfa_offset 8
 247              		.cfi_offset 7, -8
 248              		.cfi_offset 14, -4
 249 0002 84B0     		sub	sp, sp, #16
 250              		.cfi_def_cfa_offset 24
 251 0004 00AF     		add	r7, sp, #0
 252              		.cfi_def_cfa_register 7
 253 0006 7860     		str	r0, [r7, #4]
  74:defines.c     ****     void* q_output = NULL;// must be static to return pointer!!!
 254              		.loc 1 74 0
 255 0008 0023     		movs	r3, #0
 256 000a FB60     		str	r3, [r7, #12]
  75:defines.c     ****     if(OS_QUEUE_GetPtr(queue, (void**)(&q_output))){
 257              		.loc 1 75 0
 258 000c 07F10C03 		add	r3, r7, #12
 259 0010 1946     		mov	r1, r3
 260 0012 7868     		ldr	r0, [r7, #4]
 261 0014 FFF7FEFF 		bl	OS_QUEUE_GetPtr
 262 0018 0346     		mov	r3, r0
 263 001a 002B     		cmp	r3, #0
 264 001c 01D1     		bne	.L10
  76:defines.c     **** //        OS_QUEUE_Purge(queue);
  77:defines.c     ****     }
ARM GAS  C:\Users\IroTeam\AppData\Local\Temp\ccsYkOec.s 			page 7


  78:defines.c     ****     else{
  79:defines.c     ****         q_output = NULL;
 265              		.loc 1 79 0
 266 001e 0023     		movs	r3, #0
 267 0020 FB60     		str	r3, [r7, #12]
 268              	.L10:
  80:defines.c     ****     }
  81:defines.c     **** 
  82:defines.c     ****     return q_output;
 269              		.loc 1 82 0
 270 0022 FB68     		ldr	r3, [r7, #12]
  83:defines.c     **** }
 271              		.loc 1 83 0
 272 0024 1846     		mov	r0, r3
 273 0026 1037     		adds	r7, r7, #16
 274              		.cfi_def_cfa_offset 8
 275 0028 BD46     		mov	sp, r7
 276              		.cfi_def_cfa_register 13
 277              		@ sp needed
 278 002a 80BD     		pop	{r7, pc}
 279              		.cfi_endproc
 280              	.LFE66:
 281              		.size	q_get_message, .-q_get_message
 282              		.section	.text.df_hexstring_hex,"ax",%progbits
 283              		.align	2
 284              		.global	df_hexstring_hex
 285              		.thumb
 286              		.thumb_func
 287              		.type	df_hexstring_hex, %function
 288              	df_hexstring_hex:
 289              	.LFB67:
  84:defines.c     **** 
  85:defines.c     **** // ###################################################### Functions ###############################
  86:defines.c     **** uint8_t df_hexstring_hex(char character)
  87:defines.c     **** {
 290              		.loc 1 87 0
 291              		.cfi_startproc
 292              		@ args = 0, pretend = 0, frame = 16
 293              		@ frame_needed = 1, uses_anonymous_args = 0
 294              		@ link register save eliminated.
 295 0000 80B4     		push	{r7}
 296              		.cfi_def_cfa_offset 4
 297              		.cfi_offset 7, -4
 298 0002 85B0     		sub	sp, sp, #20
 299              		.cfi_def_cfa_offset 24
 300 0004 00AF     		add	r7, sp, #0
 301              		.cfi_def_cfa_register 7
 302 0006 0346     		mov	r3, r0
 303 0008 FB71     		strb	r3, [r7, #7]
  88:defines.c     ****     uint8_t data = 255;
 304              		.loc 1 88 0
 305 000a FF23     		movs	r3, #255
 306 000c FB73     		strb	r3, [r7, #15]
  89:defines.c     **** 
  90:defines.c     ****     if(
 307              		.loc 1 90 0
 308 000e FB79     		ldrb	r3, [r7, #7]	@ zero_extendqisi2
ARM GAS  C:\Users\IroTeam\AppData\Local\Temp\ccsYkOec.s 			page 8


 309 0010 302B     		cmp	r3, #48
 310 0012 3FD0     		beq	.L13
  91:defines.c     ****         (character == '0') ||
 311              		.loc 1 91 0
 312 0014 FB79     		ldrb	r3, [r7, #7]	@ zero_extendqisi2
 313 0016 312B     		cmp	r3, #49
 314 0018 3CD0     		beq	.L13
  92:defines.c     ****         (character == '1') ||
 315              		.loc 1 92 0
 316 001a FB79     		ldrb	r3, [r7, #7]	@ zero_extendqisi2
 317 001c 322B     		cmp	r3, #50
 318 001e 39D0     		beq	.L13
  93:defines.c     ****         (character == '2') ||
 319              		.loc 1 93 0
 320 0020 FB79     		ldrb	r3, [r7, #7]	@ zero_extendqisi2
 321 0022 332B     		cmp	r3, #51
 322 0024 36D0     		beq	.L13
  94:defines.c     ****         (character == '3') ||
 323              		.loc 1 94 0
 324 0026 FB79     		ldrb	r3, [r7, #7]	@ zero_extendqisi2
 325 0028 342B     		cmp	r3, #52
 326 002a 33D0     		beq	.L13
  95:defines.c     ****         (character == '4') ||
 327              		.loc 1 95 0
 328 002c FB79     		ldrb	r3, [r7, #7]	@ zero_extendqisi2
 329 002e 352B     		cmp	r3, #53
 330 0030 30D0     		beq	.L13
  96:defines.c     ****         (character == '5') ||
 331              		.loc 1 96 0
 332 0032 FB79     		ldrb	r3, [r7, #7]	@ zero_extendqisi2
 333 0034 362B     		cmp	r3, #54
 334 0036 2DD0     		beq	.L13
  97:defines.c     ****         (character == '6') ||
 335              		.loc 1 97 0
 336 0038 FB79     		ldrb	r3, [r7, #7]	@ zero_extendqisi2
 337 003a 372B     		cmp	r3, #55
 338 003c 2AD0     		beq	.L13
  98:defines.c     ****         (character == '7') ||
 339              		.loc 1 98 0
 340 003e FB79     		ldrb	r3, [r7, #7]	@ zero_extendqisi2
 341 0040 382B     		cmp	r3, #56
 342 0042 27D0     		beq	.L13
  99:defines.c     ****         (character == '8') ||
 343              		.loc 1 99 0
 344 0044 FB79     		ldrb	r3, [r7, #7]	@ zero_extendqisi2
 345 0046 392B     		cmp	r3, #57
 346 0048 24D0     		beq	.L13
 100:defines.c     ****         (character == '9') ||
 347              		.loc 1 100 0
 348 004a FB79     		ldrb	r3, [r7, #7]	@ zero_extendqisi2
 349 004c 612B     		cmp	r3, #97
 350 004e 21D0     		beq	.L13
 101:defines.c     ****         (character == 'a') ||
 351              		.loc 1 101 0
 352 0050 FB79     		ldrb	r3, [r7, #7]	@ zero_extendqisi2
 353 0052 412B     		cmp	r3, #65
 354 0054 1ED0     		beq	.L13
ARM GAS  C:\Users\IroTeam\AppData\Local\Temp\ccsYkOec.s 			page 9


 102:defines.c     ****         (character == 'A') ||
 355              		.loc 1 102 0
 356 0056 FB79     		ldrb	r3, [r7, #7]	@ zero_extendqisi2
 357 0058 622B     		cmp	r3, #98
 358 005a 1BD0     		beq	.L13
 103:defines.c     ****         (character == 'b') ||
 359              		.loc 1 103 0
 360 005c FB79     		ldrb	r3, [r7, #7]	@ zero_extendqisi2
 361 005e 422B     		cmp	r3, #66
 362 0060 18D0     		beq	.L13
 104:defines.c     ****         (character == 'B') ||
 363              		.loc 1 104 0
 364 0062 FB79     		ldrb	r3, [r7, #7]	@ zero_extendqisi2
 365 0064 632B     		cmp	r3, #99
 366 0066 15D0     		beq	.L13
 105:defines.c     ****         (character == 'c') ||
 367              		.loc 1 105 0
 368 0068 FB79     		ldrb	r3, [r7, #7]	@ zero_extendqisi2
 369 006a 432B     		cmp	r3, #67
 370 006c 12D0     		beq	.L13
 106:defines.c     ****         (character == 'C') ||
 371              		.loc 1 106 0
 372 006e FB79     		ldrb	r3, [r7, #7]	@ zero_extendqisi2
 373 0070 642B     		cmp	r3, #100
 374 0072 0FD0     		beq	.L13
 107:defines.c     ****         (character == 'd') ||
 375              		.loc 1 107 0
 376 0074 FB79     		ldrb	r3, [r7, #7]	@ zero_extendqisi2
 377 0076 442B     		cmp	r3, #68
 378 0078 0CD0     		beq	.L13
 108:defines.c     ****         (character == 'D') ||
 379              		.loc 1 108 0
 380 007a FB79     		ldrb	r3, [r7, #7]	@ zero_extendqisi2
 381 007c 652B     		cmp	r3, #101
 382 007e 09D0     		beq	.L13
 109:defines.c     ****         (character == 'e') ||
 383              		.loc 1 109 0
 384 0080 FB79     		ldrb	r3, [r7, #7]	@ zero_extendqisi2
 385 0082 452B     		cmp	r3, #69
 386 0084 06D0     		beq	.L13
 110:defines.c     ****         (character == 'E') ||
 387              		.loc 1 110 0
 388 0086 FB79     		ldrb	r3, [r7, #7]	@ zero_extendqisi2
 389 0088 662B     		cmp	r3, #102
 390 008a 03D0     		beq	.L13
 111:defines.c     ****         (character == 'f') ||
 391              		.loc 1 111 0
 392 008c FB79     		ldrb	r3, [r7, #7]	@ zero_extendqisi2
 393 008e 462B     		cmp	r3, #70
 394 0090 40F0B980 		bne	.L14
 395              	.L13:
 112:defines.c     ****         (character == 'F')
 113:defines.c     ****     ){
 114:defines.c     ****         switch(character){
 396              		.loc 1 114 0
 397 0094 FB79     		ldrb	r3, [r7, #7]	@ zero_extendqisi2
 398 0096 303B     		subs	r3, r3, #48
ARM GAS  C:\Users\IroTeam\AppData\Local\Temp\ccsYkOec.s 			page 10


 399 0098 362B     		cmp	r3, #54
 400 009a 00F2B380 		bhi	.L40
 401 009e 01A2     		adr	r2, .L17
 402 00a0 52F823F0 		ldr	pc, [r2, r3, lsl #2]
 403              		.p2align 2
 404              	.L17:
 405 00a4 81010000 		.word	.L16+1
 406 00a8 87010000 		.word	.L18+1
 407 00ac 8D010000 		.word	.L19+1
 408 00b0 93010000 		.word	.L20+1
 409 00b4 99010000 		.word	.L21+1
 410 00b8 9F010000 		.word	.L22+1
 411 00bc A5010000 		.word	.L23+1
 412 00c0 AB010000 		.word	.L24+1
 413 00c4 B1010000 		.word	.L25+1
 414 00c8 B7010000 		.word	.L26+1
 415 00cc 05020000 		.word	.L40+1
 416 00d0 05020000 		.word	.L40+1
 417 00d4 05020000 		.word	.L40+1
 418 00d8 05020000 		.word	.L40+1
 419 00dc 05020000 		.word	.L40+1
 420 00e0 05020000 		.word	.L40+1
 421 00e4 05020000 		.word	.L40+1
 422 00e8 C3010000 		.word	.L27+1
 423 00ec CF010000 		.word	.L28+1
 424 00f0 DB010000 		.word	.L29+1
 425 00f4 E7010000 		.word	.L30+1
 426 00f8 F3010000 		.word	.L31+1
 427 00fc FF010000 		.word	.L32+1
 428 0100 05020000 		.word	.L40+1
 429 0104 05020000 		.word	.L40+1
 430 0108 05020000 		.word	.L40+1
 431 010c 05020000 		.word	.L40+1
 432 0110 05020000 		.word	.L40+1
 433 0114 05020000 		.word	.L40+1
 434 0118 05020000 		.word	.L40+1
 435 011c 05020000 		.word	.L40+1
 436 0120 05020000 		.word	.L40+1
 437 0124 05020000 		.word	.L40+1
 438 0128 05020000 		.word	.L40+1
 439 012c 05020000 		.word	.L40+1
 440 0130 05020000 		.word	.L40+1
 441 0134 05020000 		.word	.L40+1
 442 0138 05020000 		.word	.L40+1
 443 013c 05020000 		.word	.L40+1
 444 0140 05020000 		.word	.L40+1
 445 0144 05020000 		.word	.L40+1
 446 0148 05020000 		.word	.L40+1
 447 014c 05020000 		.word	.L40+1
 448 0150 05020000 		.word	.L40+1
 449 0154 05020000 		.word	.L40+1
 450 0158 05020000 		.word	.L40+1
 451 015c 05020000 		.word	.L40+1
 452 0160 05020000 		.word	.L40+1
 453 0164 05020000 		.word	.L40+1
 454 0168 BD010000 		.word	.L33+1
 455 016c C9010000 		.word	.L34+1
ARM GAS  C:\Users\IroTeam\AppData\Local\Temp\ccsYkOec.s 			page 11


 456 0170 D5010000 		.word	.L35+1
 457 0174 E1010000 		.word	.L36+1
 458 0178 ED010000 		.word	.L37+1
 459 017c F9010000 		.word	.L38+1
 460              		.p2align 1
 461              	.L16:
 115:defines.c     ****             case '0':
 116:defines.c     ****                 data = 0;
 462              		.loc 1 116 0
 463 0180 0023     		movs	r3, #0
 464 0182 FB73     		strb	r3, [r7, #15]
 117:defines.c     ****                 break;
 465              		.loc 1 117 0
 466 0184 3FE0     		b	.L14
 467              	.L18:
 118:defines.c     ****             case '1':
 119:defines.c     ****                 data = 1;
 468              		.loc 1 119 0
 469 0186 0123     		movs	r3, #1
 470 0188 FB73     		strb	r3, [r7, #15]
 120:defines.c     ****                 break;
 471              		.loc 1 120 0
 472 018a 3CE0     		b	.L14
 473              	.L19:
 121:defines.c     ****             case '2':
 122:defines.c     ****                 data = 2;
 474              		.loc 1 122 0
 475 018c 0223     		movs	r3, #2
 476 018e FB73     		strb	r3, [r7, #15]
 123:defines.c     ****                 break;
 477              		.loc 1 123 0
 478 0190 39E0     		b	.L14
 479              	.L20:
 124:defines.c     ****             case '3':
 125:defines.c     ****                 data = 3;
 480              		.loc 1 125 0
 481 0192 0323     		movs	r3, #3
 482 0194 FB73     		strb	r3, [r7, #15]
 126:defines.c     ****                 break;
 483              		.loc 1 126 0
 484 0196 36E0     		b	.L14
 485              	.L21:
 127:defines.c     ****             case '4':
 128:defines.c     ****                 data = 4;
 486              		.loc 1 128 0
 487 0198 0423     		movs	r3, #4
 488 019a FB73     		strb	r3, [r7, #15]
 129:defines.c     ****                 break;
 489              		.loc 1 129 0
 490 019c 33E0     		b	.L14
 491              	.L22:
 130:defines.c     ****             case '5':
 131:defines.c     ****                 data = 5;
 492              		.loc 1 131 0
 493 019e 0523     		movs	r3, #5
 494 01a0 FB73     		strb	r3, [r7, #15]
 132:defines.c     ****                 break;
ARM GAS  C:\Users\IroTeam\AppData\Local\Temp\ccsYkOec.s 			page 12


 495              		.loc 1 132 0
 496 01a2 30E0     		b	.L14
 497              	.L23:
 133:defines.c     ****             case '6':
 134:defines.c     ****                 data = 6;
 498              		.loc 1 134 0
 499 01a4 0623     		movs	r3, #6
 500 01a6 FB73     		strb	r3, [r7, #15]
 135:defines.c     ****                 break;
 501              		.loc 1 135 0
 502 01a8 2DE0     		b	.L14
 503              	.L24:
 136:defines.c     ****             case '7':
 137:defines.c     ****                 data = 7;
 504              		.loc 1 137 0
 505 01aa 0723     		movs	r3, #7
 506 01ac FB73     		strb	r3, [r7, #15]
 138:defines.c     ****                 break;
 507              		.loc 1 138 0
 508 01ae 2AE0     		b	.L14
 509              	.L25:
 139:defines.c     ****             case '8':
 140:defines.c     ****                 data = 8;
 510              		.loc 1 140 0
 511 01b0 0823     		movs	r3, #8
 512 01b2 FB73     		strb	r3, [r7, #15]
 141:defines.c     ****                 break;
 513              		.loc 1 141 0
 514 01b4 27E0     		b	.L14
 515              	.L26:
 142:defines.c     ****             case '9':
 143:defines.c     ****                 data = 9;
 516              		.loc 1 143 0
 517 01b6 0923     		movs	r3, #9
 518 01b8 FB73     		strb	r3, [r7, #15]
 144:defines.c     ****                 break;
 519              		.loc 1 144 0
 520 01ba 24E0     		b	.L14
 521              	.L33:
 145:defines.c     ****             case 'a':
 146:defines.c     ****                 data = 10;
 522              		.loc 1 146 0
 523 01bc 0A23     		movs	r3, #10
 524 01be FB73     		strb	r3, [r7, #15]
 147:defines.c     ****                 break;
 525              		.loc 1 147 0
 526 01c0 21E0     		b	.L14
 527              	.L27:
 148:defines.c     ****             case 'A':
 149:defines.c     ****                 data = 10;
 528              		.loc 1 149 0
 529 01c2 0A23     		movs	r3, #10
 530 01c4 FB73     		strb	r3, [r7, #15]
 150:defines.c     ****                 break;
 531              		.loc 1 150 0
 532 01c6 1EE0     		b	.L14
 533              	.L34:
ARM GAS  C:\Users\IroTeam\AppData\Local\Temp\ccsYkOec.s 			page 13


 151:defines.c     ****             case 'b':
 152:defines.c     ****                 data = 11;
 534              		.loc 1 152 0
 535 01c8 0B23     		movs	r3, #11
 536 01ca FB73     		strb	r3, [r7, #15]
 153:defines.c     ****                 break;
 537              		.loc 1 153 0
 538 01cc 1BE0     		b	.L14
 539              	.L28:
 154:defines.c     ****             case 'B':
 155:defines.c     ****                 data = 11;
 540              		.loc 1 155 0
 541 01ce 0B23     		movs	r3, #11
 542 01d0 FB73     		strb	r3, [r7, #15]
 156:defines.c     ****                 break;
 543              		.loc 1 156 0
 544 01d2 18E0     		b	.L14
 545              	.L35:
 157:defines.c     ****             case 'c':
 158:defines.c     ****                 data = 12;
 546              		.loc 1 158 0
 547 01d4 0C23     		movs	r3, #12
 548 01d6 FB73     		strb	r3, [r7, #15]
 159:defines.c     ****                 break;
 549              		.loc 1 159 0
 550 01d8 15E0     		b	.L14
 551              	.L29:
 160:defines.c     ****             case 'C':
 161:defines.c     ****                 data = 12;
 552              		.loc 1 161 0
 553 01da 0C23     		movs	r3, #12
 554 01dc FB73     		strb	r3, [r7, #15]
 162:defines.c     ****                 break;
 555              		.loc 1 162 0
 556 01de 12E0     		b	.L14
 557              	.L36:
 163:defines.c     ****             case 'd':
 164:defines.c     ****                 data = 13;
 558              		.loc 1 164 0
 559 01e0 0D23     		movs	r3, #13
 560 01e2 FB73     		strb	r3, [r7, #15]
 165:defines.c     ****                 break;
 561              		.loc 1 165 0
 562 01e4 0FE0     		b	.L14
 563              	.L30:
 166:defines.c     ****             case 'D':
 167:defines.c     ****                 data = 13;
 564              		.loc 1 167 0
 565 01e6 0D23     		movs	r3, #13
 566 01e8 FB73     		strb	r3, [r7, #15]
 168:defines.c     ****                 break;
 567              		.loc 1 168 0
 568 01ea 0CE0     		b	.L14
 569              	.L37:
 169:defines.c     ****             case 'e':
 170:defines.c     ****                 data = 14;
 570              		.loc 1 170 0
ARM GAS  C:\Users\IroTeam\AppData\Local\Temp\ccsYkOec.s 			page 14


 571 01ec 0E23     		movs	r3, #14
 572 01ee FB73     		strb	r3, [r7, #15]
 171:defines.c     ****                 break;
 573              		.loc 1 171 0
 574 01f0 09E0     		b	.L14
 575              	.L31:
 172:defines.c     ****             case 'E':
 173:defines.c     ****                 data = 14;
 576              		.loc 1 173 0
 577 01f2 0E23     		movs	r3, #14
 578 01f4 FB73     		strb	r3, [r7, #15]
 174:defines.c     ****                 break;
 579              		.loc 1 174 0
 580 01f6 06E0     		b	.L14
 581              	.L38:
 175:defines.c     ****             case 'f':
 176:defines.c     ****                 data = 15;
 582              		.loc 1 176 0
 583 01f8 0F23     		movs	r3, #15
 584 01fa FB73     		strb	r3, [r7, #15]
 177:defines.c     ****                 break;
 585              		.loc 1 177 0
 586 01fc 03E0     		b	.L14
 587              	.L32:
 178:defines.c     ****             case 'F':
 179:defines.c     ****                 data = 15;
 588              		.loc 1 179 0
 589 01fe 0F23     		movs	r3, #15
 590 0200 FB73     		strb	r3, [r7, #15]
 180:defines.c     ****                 break;
 591              		.loc 1 180 0
 592 0202 00E0     		b	.L14
 593              	.L40:
 181:defines.c     ****             default:
 182:defines.c     ****                 break;
 594              		.loc 1 182 0
 595 0204 00BF     		nop
 596              	.L14:
 183:defines.c     ****         }
 184:defines.c     ****     }
 185:defines.c     ****     return data;
 597              		.loc 1 185 0
 598 0206 FB7B     		ldrb	r3, [r7, #15]	@ zero_extendqisi2
 186:defines.c     **** }
 599              		.loc 1 186 0
 600 0208 1846     		mov	r0, r3
 601 020a 1437     		adds	r7, r7, #20
 602              		.cfi_def_cfa_offset 4
 603 020c BD46     		mov	sp, r7
 604              		.cfi_def_cfa_register 13
 605              		@ sp needed
 606 020e 80BC     		pop	{r7}
 607              		.cfi_restore 7
 608              		.cfi_def_cfa_offset 0
 609 0210 7047     		bx	lr
 610              		.cfi_endproc
 611              	.LFE67:
ARM GAS  C:\Users\IroTeam\AppData\Local\Temp\ccsYkOec.s 			page 15


 612              		.size	df_hexstring_hex, .-df_hexstring_hex
 613 0212 00BF     		.section	.text.df_hex_hexstring,"ax",%progbits
 614              		.align	2
 615              		.global	df_hex_hexstring
 616              		.thumb
 617              		.thumb_func
 618              		.type	df_hex_hexstring, %function
 619              	df_hex_hexstring:
 620              	.LFB68:
 187:defines.c     **** 
 188:defines.c     **** char df_hex_hexstring(uint8_t data)
 189:defines.c     **** {
 621              		.loc 1 189 0
 622              		.cfi_startproc
 623              		@ args = 0, pretend = 0, frame = 16
 624              		@ frame_needed = 1, uses_anonymous_args = 0
 625              		@ link register save eliminated.
 626 0000 80B4     		push	{r7}
 627              		.cfi_def_cfa_offset 4
 628              		.cfi_offset 7, -4
 629 0002 85B0     		sub	sp, sp, #20
 630              		.cfi_def_cfa_offset 24
 631 0004 00AF     		add	r7, sp, #0
 632              		.cfi_def_cfa_register 7
 633 0006 0346     		mov	r3, r0
 634 0008 FB71     		strb	r3, [r7, #7]
 190:defines.c     ****     char character = 0;
 635              		.loc 1 190 0
 636 000a 0023     		movs	r3, #0
 637 000c FB73     		strb	r3, [r7, #15]
 191:defines.c     **** 
 192:defines.c     **** 
 193:defines.c     ****     if((data >= 0) && (data <= 15)){
 638              		.loc 1 193 0
 639 000e FB79     		ldrb	r3, [r7, #7]	@ zero_extendqisi2
 640 0010 0F2B     		cmp	r3, #15
 641 0012 56D8     		bhi	.L42
 194:defines.c     ****         switch(data){
 642              		.loc 1 194 0
 643 0014 FB79     		ldrb	r3, [r7, #7]	@ zero_extendqisi2
 644 0016 0F2B     		cmp	r3, #15
 645 0018 52D8     		bhi	.L62
 646 001a 01A2     		adr	r2, .L45
 647 001c 52F823F0 		ldr	pc, [r2, r3, lsl #2]
 648              		.p2align 2
 649              	.L45:
 650 0020 61000000 		.word	.L44+1
 651 0024 67000000 		.word	.L46+1
 652 0028 6D000000 		.word	.L47+1
 653 002c 73000000 		.word	.L48+1
 654 0030 79000000 		.word	.L49+1
 655 0034 7F000000 		.word	.L50+1
 656 0038 85000000 		.word	.L51+1
 657 003c 8B000000 		.word	.L52+1
 658 0040 91000000 		.word	.L53+1
 659 0044 97000000 		.word	.L54+1
 660 0048 9D000000 		.word	.L55+1
ARM GAS  C:\Users\IroTeam\AppData\Local\Temp\ccsYkOec.s 			page 16


 661 004c A3000000 		.word	.L56+1
 662 0050 A9000000 		.word	.L57+1
 663 0054 AF000000 		.word	.L58+1
 664 0058 B5000000 		.word	.L59+1
 665 005c BB000000 		.word	.L60+1
 666              		.p2align 1
 667              	.L44:
 195:defines.c     ****             case 0:
 196:defines.c     ****                 character = '0';
 668              		.loc 1 196 0
 669 0060 3023     		movs	r3, #48
 670 0062 FB73     		strb	r3, [r7, #15]
 197:defines.c     ****                 break;
 671              		.loc 1 197 0
 672 0064 2DE0     		b	.L42
 673              	.L46:
 198:defines.c     ****             case 1:
 199:defines.c     ****                 character = '1';
 674              		.loc 1 199 0
 675 0066 3123     		movs	r3, #49
 676 0068 FB73     		strb	r3, [r7, #15]
 200:defines.c     ****                 break;
 677              		.loc 1 200 0
 678 006a 2AE0     		b	.L42
 679              	.L47:
 201:defines.c     ****             case 2:
 202:defines.c     ****                 character = '2';
 680              		.loc 1 202 0
 681 006c 3223     		movs	r3, #50
 682 006e FB73     		strb	r3, [r7, #15]
 203:defines.c     ****                 break;
 683              		.loc 1 203 0
 684 0070 27E0     		b	.L42
 685              	.L48:
 204:defines.c     ****             case 3:
 205:defines.c     ****                 character = '3';
 686              		.loc 1 205 0
 687 0072 3323     		movs	r3, #51
 688 0074 FB73     		strb	r3, [r7, #15]
 206:defines.c     ****                 break;
 689              		.loc 1 206 0
 690 0076 24E0     		b	.L42
 691              	.L49:
 207:defines.c     ****             case 4:
 208:defines.c     ****                 character = '4';
 692              		.loc 1 208 0
 693 0078 3423     		movs	r3, #52
 694 007a FB73     		strb	r3, [r7, #15]
 209:defines.c     ****                 break;
 695              		.loc 1 209 0
 696 007c 21E0     		b	.L42
 697              	.L50:
 210:defines.c     ****             case 5:
 211:defines.c     ****                 character = '5';
 698              		.loc 1 211 0
 699 007e 3523     		movs	r3, #53
 700 0080 FB73     		strb	r3, [r7, #15]
ARM GAS  C:\Users\IroTeam\AppData\Local\Temp\ccsYkOec.s 			page 17


 212:defines.c     ****                 break;
 701              		.loc 1 212 0
 702 0082 1EE0     		b	.L42
 703              	.L51:
 213:defines.c     ****             case 6:
 214:defines.c     ****                 character = '6';
 704              		.loc 1 214 0
 705 0084 3623     		movs	r3, #54
 706 0086 FB73     		strb	r3, [r7, #15]
 215:defines.c     ****                 break;
 707              		.loc 1 215 0
 708 0088 1BE0     		b	.L42
 709              	.L52:
 216:defines.c     ****             case 7:
 217:defines.c     ****                 data = '7';
 710              		.loc 1 217 0
 711 008a 3723     		movs	r3, #55
 712 008c FB71     		strb	r3, [r7, #7]
 218:defines.c     ****                 break;
 713              		.loc 1 218 0
 714 008e 18E0     		b	.L42
 715              	.L53:
 219:defines.c     ****             case 8:
 220:defines.c     ****                 character = '8';
 716              		.loc 1 220 0
 717 0090 3823     		movs	r3, #56
 718 0092 FB73     		strb	r3, [r7, #15]
 221:defines.c     ****                 break;
 719              		.loc 1 221 0
 720 0094 15E0     		b	.L42
 721              	.L54:
 222:defines.c     ****             case 9:
 223:defines.c     ****                 character = '9';
 722              		.loc 1 223 0
 723 0096 3923     		movs	r3, #57
 724 0098 FB73     		strb	r3, [r7, #15]
 224:defines.c     ****                 break;
 725              		.loc 1 224 0
 726 009a 12E0     		b	.L42
 727              	.L55:
 225:defines.c     ****             case 10:
 226:defines.c     ****                 character = 'A';
 728              		.loc 1 226 0
 729 009c 4123     		movs	r3, #65
 730 009e FB73     		strb	r3, [r7, #15]
 227:defines.c     ****                 break;
 731              		.loc 1 227 0
 732 00a0 0FE0     		b	.L42
 733              	.L56:
 228:defines.c     ****             case 11:
 229:defines.c     ****                 character = 'B';
 734              		.loc 1 229 0
 735 00a2 4223     		movs	r3, #66
 736 00a4 FB73     		strb	r3, [r7, #15]
 230:defines.c     ****                 break;
 737              		.loc 1 230 0
 738 00a6 0CE0     		b	.L42
ARM GAS  C:\Users\IroTeam\AppData\Local\Temp\ccsYkOec.s 			page 18


 739              	.L57:
 231:defines.c     ****             case 12:
 232:defines.c     ****                 character = 'C';
 740              		.loc 1 232 0
 741 00a8 4323     		movs	r3, #67
 742 00aa FB73     		strb	r3, [r7, #15]
 233:defines.c     ****                 break;
 743              		.loc 1 233 0
 744 00ac 09E0     		b	.L42
 745              	.L58:
 234:defines.c     ****             case 13:
 235:defines.c     ****                 character = 'D';
 746              		.loc 1 235 0
 747 00ae 4423     		movs	r3, #68
 748 00b0 FB73     		strb	r3, [r7, #15]
 236:defines.c     ****                 break;
 749              		.loc 1 236 0
 750 00b2 06E0     		b	.L42
 751              	.L59:
 237:defines.c     ****             case 14:
 238:defines.c     ****                 character = 'E';
 752              		.loc 1 238 0
 753 00b4 4523     		movs	r3, #69
 754 00b6 FB73     		strb	r3, [r7, #15]
 239:defines.c     ****                 break;
 755              		.loc 1 239 0
 756 00b8 03E0     		b	.L42
 757              	.L60:
 240:defines.c     ****             case 15:
 241:defines.c     ****                 character = 'F';
 758              		.loc 1 241 0
 759 00ba 4623     		movs	r3, #70
 760 00bc FB73     		strb	r3, [r7, #15]
 242:defines.c     ****                 break;
 761              		.loc 1 242 0
 762 00be 00E0     		b	.L42
 763              	.L62:
 243:defines.c     ****             default:
 244:defines.c     ****                 break;
 764              		.loc 1 244 0
 765 00c0 00BF     		nop
 766              	.L42:
 245:defines.c     ****         }
 246:defines.c     ****     }
 247:defines.c     **** 
 248:defines.c     ****     return character;
 767              		.loc 1 248 0
 768 00c2 FB7B     		ldrb	r3, [r7, #15]	@ zero_extendqisi2
 249:defines.c     **** }
 769              		.loc 1 249 0
 770 00c4 1846     		mov	r0, r3
 771 00c6 1437     		adds	r7, r7, #20
 772              		.cfi_def_cfa_offset 4
 773 00c8 BD46     		mov	sp, r7
 774              		.cfi_def_cfa_register 13
 775              		@ sp needed
 776 00ca 80BC     		pop	{r7}
ARM GAS  C:\Users\IroTeam\AppData\Local\Temp\ccsYkOec.s 			page 19


 777              		.cfi_restore 7
 778              		.cfi_def_cfa_offset 0
 779 00cc 7047     		bx	lr
 780              		.cfi_endproc
 781              	.LFE68:
 782              		.size	df_hex_hexstring, .-df_hex_hexstring
 783 00ce 00BF     		.section	.text.byte_to_binary,"ax",%progbits
 784              		.align	2
 785              		.global	byte_to_binary
 786              		.thumb
 787              		.thumb_func
 788              		.type	byte_to_binary, %function
 789              	byte_to_binary:
 790              	.LFB69:
 250:defines.c     **** 
 251:defines.c     **** void byte_to_binary(uint8_t byte, char* str_binary)
 252:defines.c     **** {
 791              		.loc 1 252 0
 792              		.cfi_startproc
 793              		@ args = 0, pretend = 0, frame = 16
 794              		@ frame_needed = 1, uses_anonymous_args = 0
 795              		@ link register save eliminated.
 796 0000 80B4     		push	{r7}
 797              		.cfi_def_cfa_offset 4
 798              		.cfi_offset 7, -4
 799 0002 85B0     		sub	sp, sp, #20
 800              		.cfi_def_cfa_offset 24
 801 0004 00AF     		add	r7, sp, #0
 802              		.cfi_def_cfa_register 7
 803 0006 0346     		mov	r3, r0
 804 0008 3960     		str	r1, [r7]
 805 000a FB71     		strb	r3, [r7, #7]
 253:defines.c     **** 	uint8_t i;
 254:defines.c     ****     str_binary[8] = '\0';
 806              		.loc 1 254 0
 807 000c 3B68     		ldr	r3, [r7]
 808 000e 0833     		adds	r3, r3, #8
 809 0010 0022     		movs	r2, #0
 810 0012 1A70     		strb	r2, [r3]
 255:defines.c     **** 
 256:defines.c     ****     uint8_t j = 0;
 811              		.loc 1 256 0
 812 0014 0023     		movs	r3, #0
 813 0016 BB73     		strb	r3, [r7, #14]
 257:defines.c     ****     for(i = 0x80; i!= 0; i >>= 1){
 814              		.loc 1 257 0
 815 0018 8023     		movs	r3, #128
 816 001a FB73     		strb	r3, [r7, #15]
 817 001c 12E0     		b	.L64
 818              	.L67:
 258:defines.c     ****         str_binary[j] = (byte & i) ? '1' : '0';
 819              		.loc 1 258 0
 820 001e BB7B     		ldrb	r3, [r7, #14]	@ zero_extendqisi2
 821 0020 3A68     		ldr	r2, [r7]
 822 0022 1344     		add	r3, r3, r2
 823 0024 F979     		ldrb	r1, [r7, #7]
 824 0026 FA7B     		ldrb	r2, [r7, #15]
ARM GAS  C:\Users\IroTeam\AppData\Local\Temp\ccsYkOec.s 			page 20


 825 0028 0A40     		ands	r2, r2, r1
 826 002a D2B2     		uxtb	r2, r2
 827 002c 002A     		cmp	r2, #0
 828 002e 01D0     		beq	.L65
 829              		.loc 1 258 0 is_stmt 0 discriminator 1
 830 0030 3122     		movs	r2, #49
 831 0032 00E0     		b	.L66
 832              	.L65:
 833              		.loc 1 258 0 discriminator 2
 834 0034 3022     		movs	r2, #48
 835              	.L66:
 836              		.loc 1 258 0 discriminator 4
 837 0036 1A70     		strb	r2, [r3]
 259:defines.c     ****         j++;
 838              		.loc 1 259 0 is_stmt 1 discriminator 4
 839 0038 BB7B     		ldrb	r3, [r7, #14]	@ zero_extendqisi2
 840 003a 0133     		adds	r3, r3, #1
 841 003c BB73     		strb	r3, [r7, #14]
 257:defines.c     ****     for(i = 0x80; i!= 0; i >>= 1){
 842              		.loc 1 257 0 discriminator 4
 843 003e FB7B     		ldrb	r3, [r7, #15]	@ zero_extendqisi2
 844 0040 5B08     		lsrs	r3, r3, #1
 845 0042 FB73     		strb	r3, [r7, #15]
 846              	.L64:
 257:defines.c     ****     for(i = 0x80; i!= 0; i >>= 1){
 847              		.loc 1 257 0 is_stmt 0 discriminator 2
 848 0044 FB7B     		ldrb	r3, [r7, #15]	@ zero_extendqisi2
 849 0046 002B     		cmp	r3, #0
 850 0048 E9D1     		bne	.L67
 260:defines.c     ****     }
 261:defines.c     **** 
 262:defines.c     ****     return;
 851              		.loc 1 262 0 is_stmt 1
 852 004a 00BF     		nop
 263:defines.c     **** }
 853              		.loc 1 263 0
 854 004c 1437     		adds	r7, r7, #20
 855              		.cfi_def_cfa_offset 4
 856 004e BD46     		mov	sp, r7
 857              		.cfi_def_cfa_register 13
 858              		@ sp needed
 859 0050 80BC     		pop	{r7}
 860              		.cfi_restore 7
 861              		.cfi_def_cfa_offset 0
 862 0052 7047     		bx	lr
 863              		.cfi_endproc
 864              	.LFE69:
 865              		.size	byte_to_binary, .-byte_to_binary
 866              		.section	.text.swap,"ax",%progbits
 867              		.align	2
 868              		.global	swap
 869              		.thumb
 870              		.thumb_func
 871              		.type	swap, %function
 872              	swap:
 873              	.LFB70:
 264:defines.c     **** 
ARM GAS  C:\Users\IroTeam\AppData\Local\Temp\ccsYkOec.s 			page 21


 265:defines.c     **** // SORTING ALGORITHM
 266:defines.c     **** void swap(uint8_t* xp, uint8_t* yp)
 267:defines.c     **** {
 874              		.loc 1 267 0
 875              		.cfi_startproc
 876              		@ args = 0, pretend = 0, frame = 16
 877              		@ frame_needed = 1, uses_anonymous_args = 0
 878              		@ link register save eliminated.
 879 0000 80B4     		push	{r7}
 880              		.cfi_def_cfa_offset 4
 881              		.cfi_offset 7, -4
 882 0002 85B0     		sub	sp, sp, #20
 883              		.cfi_def_cfa_offset 24
 884 0004 00AF     		add	r7, sp, #0
 885              		.cfi_def_cfa_register 7
 886 0006 7860     		str	r0, [r7, #4]
 887 0008 3960     		str	r1, [r7]
 268:defines.c     ****     int temp = *xp;
 888              		.loc 1 268 0
 889 000a 7B68     		ldr	r3, [r7, #4]
 890 000c 1B78     		ldrb	r3, [r3]	@ zero_extendqisi2
 891 000e FB60     		str	r3, [r7, #12]
 269:defines.c     ****     *xp = *yp;
 892              		.loc 1 269 0
 893 0010 3B68     		ldr	r3, [r7]
 894 0012 1A78     		ldrb	r2, [r3]	@ zero_extendqisi2
 895 0014 7B68     		ldr	r3, [r7, #4]
 896 0016 1A70     		strb	r2, [r3]
 270:defines.c     ****     *yp = temp;
 897              		.loc 1 270 0
 898 0018 FB68     		ldr	r3, [r7, #12]
 899 001a DAB2     		uxtb	r2, r3
 900 001c 3B68     		ldr	r3, [r7]
 901 001e 1A70     		strb	r2, [r3]
 271:defines.c     **** }
 902              		.loc 1 271 0
 903 0020 00BF     		nop
 904 0022 1437     		adds	r7, r7, #20
 905              		.cfi_def_cfa_offset 4
 906 0024 BD46     		mov	sp, r7
 907              		.cfi_def_cfa_register 13
 908              		@ sp needed
 909 0026 80BC     		pop	{r7}
 910              		.cfi_restore 7
 911              		.cfi_def_cfa_offset 0
 912 0028 7047     		bx	lr
 913              		.cfi_endproc
 914              	.LFE70:
 915              		.size	swap, .-swap
 916 002a 00BF     		.section	.text.selectionSort,"ax",%progbits
 917              		.align	2
 918              		.global	selectionSort
 919              		.thumb
 920              		.thumb_func
 921              		.type	selectionSort, %function
 922              	selectionSort:
 923              	.LFB71:
ARM GAS  C:\Users\IroTeam\AppData\Local\Temp\ccsYkOec.s 			page 22


 272:defines.c     **** 
 273:defines.c     **** // Function to perform Selection Sort
 274:defines.c     **** void selectionSort(uint8_t arr[], uint8_t arr_len)
 275:defines.c     **** {
 924              		.loc 1 275 0
 925              		.cfi_startproc
 926              		@ args = 0, pretend = 0, frame = 24
 927              		@ frame_needed = 1, uses_anonymous_args = 0
 928 0000 80B5     		push	{r7, lr}
 929              		.cfi_def_cfa_offset 8
 930              		.cfi_offset 7, -8
 931              		.cfi_offset 14, -4
 932 0002 86B0     		sub	sp, sp, #24
 933              		.cfi_def_cfa_offset 32
 934 0004 00AF     		add	r7, sp, #0
 935              		.cfi_def_cfa_register 7
 936 0006 7860     		str	r0, [r7, #4]
 937 0008 0B46     		mov	r3, r1
 938 000a FB70     		strb	r3, [r7, #3]
 276:defines.c     ****     int i, j, min_idx;
 277:defines.c     **** 
 278:defines.c     ****     // One by one move boundary of
 279:defines.c     ****     // unsorted subarray
 280:defines.c     ****     for (i = 0; i < arr_len - 1; i++){
 939              		.loc 1 280 0
 940 000c 0023     		movs	r3, #0
 941 000e 7B61     		str	r3, [r7, #20]
 942 0010 24E0     		b	.L71
 943              	.L75:
 281:defines.c     **** //    	HAL_IWDG_Refresh(&hiwdg);
 282:defines.c     **** 
 283:defines.c     ****         // Find the minimum element in
 284:defines.c     ****         // unsorted array
 285:defines.c     ****         min_idx = i;
 944              		.loc 1 285 0
 945 0012 7B69     		ldr	r3, [r7, #20]
 946 0014 FB60     		str	r3, [r7, #12]
 286:defines.c     ****         for (j = i + 1; j < arr_len; j++)
 947              		.loc 1 286 0
 948 0016 7B69     		ldr	r3, [r7, #20]
 949 0018 0133     		adds	r3, r3, #1
 950 001a 3B61     		str	r3, [r7, #16]
 951 001c 0EE0     		b	.L72
 952              	.L74:
 287:defines.c     ****             if (arr[j] < arr[min_idx])
 953              		.loc 1 287 0
 954 001e 3B69     		ldr	r3, [r7, #16]
 955 0020 7A68     		ldr	r2, [r7, #4]
 956 0022 1344     		add	r3, r3, r2
 957 0024 1A78     		ldrb	r2, [r3]	@ zero_extendqisi2
 958 0026 FB68     		ldr	r3, [r7, #12]
 959 0028 7968     		ldr	r1, [r7, #4]
 960 002a 0B44     		add	r3, r3, r1
 961 002c 1B78     		ldrb	r3, [r3]	@ zero_extendqisi2
 962 002e 9A42     		cmp	r2, r3
 963 0030 01D2     		bcs	.L73
 288:defines.c     ****                 min_idx = j;
ARM GAS  C:\Users\IroTeam\AppData\Local\Temp\ccsYkOec.s 			page 23


 964              		.loc 1 288 0
 965 0032 3B69     		ldr	r3, [r7, #16]
 966 0034 FB60     		str	r3, [r7, #12]
 967              	.L73:
 286:defines.c     ****         for (j = i + 1; j < arr_len; j++)
 968              		.loc 1 286 0 discriminator 2
 969 0036 3B69     		ldr	r3, [r7, #16]
 970 0038 0133     		adds	r3, r3, #1
 971 003a 3B61     		str	r3, [r7, #16]
 972              	.L72:
 286:defines.c     ****         for (j = i + 1; j < arr_len; j++)
 973              		.loc 1 286 0 is_stmt 0 discriminator 1
 974 003c FA78     		ldrb	r2, [r7, #3]	@ zero_extendqisi2
 975 003e 3B69     		ldr	r3, [r7, #16]
 976 0040 9A42     		cmp	r2, r3
 977 0042 ECDC     		bgt	.L74
 289:defines.c     **** 
 290:defines.c     ****         // Swap the found minimum element
 291:defines.c     ****         // with the first element
 292:defines.c     ****         swap(&arr[min_idx], &arr[i]);
 978              		.loc 1 292 0 is_stmt 1 discriminator 2
 979 0044 FB68     		ldr	r3, [r7, #12]
 980 0046 7A68     		ldr	r2, [r7, #4]
 981 0048 D018     		adds	r0, r2, r3
 982 004a 7B69     		ldr	r3, [r7, #20]
 983 004c 7A68     		ldr	r2, [r7, #4]
 984 004e 1344     		add	r3, r3, r2
 985 0050 1946     		mov	r1, r3
 986 0052 FFF7FEFF 		bl	swap
 280:defines.c     **** //    	HAL_IWDG_Refresh(&hiwdg);
 987              		.loc 1 280 0 discriminator 2
 988 0056 7B69     		ldr	r3, [r7, #20]
 989 0058 0133     		adds	r3, r3, #1
 990 005a 7B61     		str	r3, [r7, #20]
 991              	.L71:
 280:defines.c     **** //    	HAL_IWDG_Refresh(&hiwdg);
 992              		.loc 1 280 0 is_stmt 0 discriminator 1
 993 005c FB78     		ldrb	r3, [r7, #3]	@ zero_extendqisi2
 994 005e 5A1E     		subs	r2, r3, #1
 995 0060 7B69     		ldr	r3, [r7, #20]
 996 0062 9A42     		cmp	r2, r3
 997 0064 D5DC     		bgt	.L75
 293:defines.c     ****     }
 294:defines.c     **** }
 998              		.loc 1 294 0 is_stmt 1
 999 0066 00BF     		nop
 1000 0068 1837     		adds	r7, r7, #24
 1001              		.cfi_def_cfa_offset 8
 1002 006a BD46     		mov	sp, r7
 1003              		.cfi_def_cfa_register 13
 1004              		@ sp needed
 1005 006c 80BD     		pop	{r7, pc}
 1006              		.cfi_endproc
 1007              	.LFE71:
 1008              		.size	selectionSort, .-selectionSort
 1009 006e 00BF     		.text
 1010              	.Letext0:
ARM GAS  C:\Users\IroTeam\AppData\Local\Temp\ccsYkOec.s 			page 24


 1011              		.file 2 "c:\\program files (x86)\\cypress\\psoc creator\\4.4\\psoc creator\\import\\gnu\\arm\\5.4.
 1012              		.file 3 "c:\\program files (x86)\\cypress\\psoc creator\\4.4\\psoc creator\\import\\gnu\\arm\\5.4.
 1013              		.file 4 "..\\..\\..\\..\\Inc/RTOS.h"
 1014              		.file 5 "c:\\program files (x86)\\cypress\\psoc creator\\4.4\\psoc creator\\import\\gnu\\arm\\5.4.
 1015              		.file 6 "Generated_Source\\PSoC5/cytypes.h"
 1016              		.file 7 "Generated_Source\\PSoC5/core_cm3.h"