ARM GAS  C:\Users\IroTeam\AppData\Local\Temp\ccm3QAgb.s 			page 1


   1              		.syntax unified
   2              		.cpu cortex-m3
   3              		.fpu softvfp
   4              		.eabi_attribute 20, 1
   5              		.eabi_attribute 21, 1
   6              		.eabi_attribute 23, 3
   7              		.eabi_attribute 24, 1
   8              		.eabi_attribute 25, 1
   9              		.eabi_attribute 26, 1
  10              		.eabi_attribute 30, 6
  11              		.eabi_attribute 34, 1
  12              		.eabi_attribute 18, 4
  13              		.thumb
  14              		.syntax unified
  15              		.file	"JLINKMEM_Process.c"
  16              		.text
  17              	.Ltext0:
  18              		.cfi_sections	.debug_frame
  19              		.comm	_pfOnRx,4,4
  20              		.comm	_pfOnTx,4,4
  21              		.comm	_pfGetNextChar,4,4
  22              		.bss
  23              		.align	2
  24              	_BaseAddr:
  25 0000 00000000 		.space	4
  26              		.align	2
  27              	_TxIsPending:
  28 0004 00000000 		.space	4
  29              	_TxPendingData:
  30 0008 00       		.space	1
  31 0009 000000   		.align	2
  32              	_IsInited:
  33 000c 00000000 		.space	4
  34              		.align	2
  35              	_pRxBuf:
  36 0010 00000000 		.space	4
  37              		.align	2
  38              	_pTxBuf:
  39 0014 00000000 		.space	4
  40              		.align	2
  41              	_TxTimeout:
  42 0018 00000000 		.space	4
  43              		.align	2
  44              	_TxTimeoutTimer:
  45 001c 00000000 		.space	4
  46              		.align	2
  47              	_TxBufLocked:
  48 0020 00000000 		.space	4
  49              		.section	.text._RetriggerTimer,"ax",%progbits
  50              		.align	2
  51              		.thumb
  52              		.thumb_func
  53              		.type	_RetriggerTimer, %function
  54              	_RetriggerTimer:
  55              	.LFB0:
  56              		.file 1 "..\\Setup\\JLINKMEM_Process.c"
   1:..\Setup/JLINKMEM_Process.c **** /*********************************************************************
ARM GAS  C:\Users\IroTeam\AppData\Local\Temp\ccm3QAgb.s 			page 2


   2:..\Setup/JLINKMEM_Process.c **** *                     SEGGER Microcontroller GmbH                    *
   3:..\Setup/JLINKMEM_Process.c **** *                        The Embedded Experts                        *
   4:..\Setup/JLINKMEM_Process.c **** **********************************************************************
   5:..\Setup/JLINKMEM_Process.c **** *                                                                    *
   6:..\Setup/JLINKMEM_Process.c **** *       (c) 1995 - 2022 SEGGER Microcontroller GmbH                  *
   7:..\Setup/JLINKMEM_Process.c **** *                                                                    *
   8:..\Setup/JLINKMEM_Process.c **** *       Internet: segger.com  Support: support_embos@segger.com      *
   9:..\Setup/JLINKMEM_Process.c **** *                                                                    *
  10:..\Setup/JLINKMEM_Process.c **** **********************************************************************
  11:..\Setup/JLINKMEM_Process.c **** *                                                                    *
  12:..\Setup/JLINKMEM_Process.c **** *       embOS * Real time operating system                           *
  13:..\Setup/JLINKMEM_Process.c **** *                                                                    *
  14:..\Setup/JLINKMEM_Process.c **** *       Please note:                                                 *
  15:..\Setup/JLINKMEM_Process.c **** *                                                                    *
  16:..\Setup/JLINKMEM_Process.c **** *       Knowledge of this file may under no circumstances            *
  17:..\Setup/JLINKMEM_Process.c **** *       be used to write a similar product or a real-time            *
  18:..\Setup/JLINKMEM_Process.c **** *       operating system for in-house use.                           *
  19:..\Setup/JLINKMEM_Process.c **** *                                                                    *
  20:..\Setup/JLINKMEM_Process.c **** *       Thank you for your fairness !                                *
  21:..\Setup/JLINKMEM_Process.c **** *                                                                    *
  22:..\Setup/JLINKMEM_Process.c **** **********************************************************************
  23:..\Setup/JLINKMEM_Process.c **** *                                                                    *
  24:..\Setup/JLINKMEM_Process.c **** *       OS version: V5.16.1.0                                        *
  25:..\Setup/JLINKMEM_Process.c **** *                                                                    *
  26:..\Setup/JLINKMEM_Process.c **** **********************************************************************
  27:..\Setup/JLINKMEM_Process.c **** 
  28:..\Setup/JLINKMEM_Process.c **** ----------------------------------------------------------------------
  29:..\Setup/JLINKMEM_Process.c **** File    : JLINKMEM_Process.c
  30:..\Setup/JLINKMEM_Process.c **** Purpose : Data handler for ARM J-Link communication over memory
  31:..\Setup/JLINKMEM_Process.c **** 
  32:..\Setup/JLINKMEM_Process.c **** Layout of communication area:
  33:..\Setup/JLINKMEM_Process.c **** 
  34:..\Setup/JLINKMEM_Process.c ****   +----------+  TOS - TX_SIZE - RX_SIZE - 6
  35:..\Setup/JLINKMEM_Process.c ****   |          |
  36:..\Setup/JLINKMEM_Process.c ****   | RX_BUF   |
  37:..\Setup/JLINKMEM_Process.c ****   |          |
  38:..\Setup/JLINKMEM_Process.c ****   +----------+  TOS - TX_SIZE - 6
  39:..\Setup/JLINKMEM_Process.c ****   | RX_CNT   |
  40:..\Setup/JLINKMEM_Process.c ****   +----------+  TOS - TX_SIZE - 5
  41:..\Setup/JLINKMEM_Process.c ****   | HOST_ACT |
  42:..\Setup/JLINKMEM_Process.c ****   +----------+  TOS - TX_SIZE - 4
  43:..\Setup/JLINKMEM_Process.c ****   | TX_CNT   |
  44:..\Setup/JLINKMEM_Process.c ****   +----------+  TOS - TX_SIZE - 3
  45:..\Setup/JLINKMEM_Process.c ****   |          |
  46:..\Setup/JLINKMEM_Process.c ****   | TX_BUF   |
  47:..\Setup/JLINKMEM_Process.c ****   |          |
  48:..\Setup/JLINKMEM_Process.c ****   +----------+  TOS - 3
  49:..\Setup/JLINKMEM_Process.c ****   | TX_SIZE  |
  50:..\Setup/JLINKMEM_Process.c ****   +----------+  TOS - 2
  51:..\Setup/JLINKMEM_Process.c ****   | RX_SIZE  |
  52:..\Setup/JLINKMEM_Process.c ****   +----------+  TOS - 1
  53:..\Setup/JLINKMEM_Process.c ****   | PROT_ID  |
  54:..\Setup/JLINKMEM_Process.c ****   +----------+  TOS
  55:..\Setup/JLINKMEM_Process.c **** 
  56:..\Setup/JLINKMEM_Process.c **** TOS       Initial top of stack as defined by linker settings (top of CSTACK)
  57:..\Setup/JLINKMEM_Process.c **** PROT_ID   Magic number indicating the start of communication area
  58:..\Setup/JLINKMEM_Process.c **** RX_SIZE   Size of receiving buffer in bytes
ARM GAS  C:\Users\IroTeam\AppData\Local\Temp\ccm3QAgb.s 			page 3


  59:..\Setup/JLINKMEM_Process.c **** TX_SIZE   Size of sending buffer in bytes
  60:..\Setup/JLINKMEM_Process.c **** TX_BUF    Sending buffer
  61:..\Setup/JLINKMEM_Process.c **** TX_CNT    Number of bytes in sending buffer
  62:..\Setup/JLINKMEM_Process.c **** HOST_ACT  Set to one by host to indicate it is still active
  63:..\Setup/JLINKMEM_Process.c **** RX_CNT    Number of bytes in the receiving buffer
  64:..\Setup/JLINKMEM_Process.c **** RX_BUF    Receiving buffer
  65:..\Setup/JLINKMEM_Process.c **** 
  66:..\Setup/JLINKMEM_Process.c **** ---------------------------END-OF-HEADER------------------------------
  67:..\Setup/JLINKMEM_Process.c **** */
  68:..\Setup/JLINKMEM_Process.c **** 
  69:..\Setup/JLINKMEM_Process.c **** #include "RTOS.h"
  70:..\Setup/JLINKMEM_Process.c **** #include "JLINKMEM.h"
  71:..\Setup/JLINKMEM_Process.c **** 
  72:..\Setup/JLINKMEM_Process.c **** /*********************************************************************
  73:..\Setup/JLINKMEM_Process.c **** *
  74:..\Setup/JLINKMEM_Process.c **** *       Defines, configurable
  75:..\Setup/JLINKMEM_Process.c **** *
  76:..\Setup/JLINKMEM_Process.c **** **********************************************************************
  77:..\Setup/JLINKMEM_Process.c **** */
  78:..\Setup/JLINKMEM_Process.c **** 
  79:..\Setup/JLINKMEM_Process.c **** /*********************************************************************
  80:..\Setup/JLINKMEM_Process.c **** *
  81:..\Setup/JLINKMEM_Process.c **** *       Sizes of receiving and sending buffer.
  82:..\Setup/JLINKMEM_Process.c **** *
  83:..\Setup/JLINKMEM_Process.c **** * NOTE:
  84:..\Setup/JLINKMEM_Process.c **** *   Before you change any of these values make sure OS_Start()
  85:..\Setup/JLINKMEM_Process.c **** *   reserves enough bytes for the communication area.
  86:..\Setup/JLINKMEM_Process.c **** */
  87:..\Setup/JLINKMEM_Process.c **** #define RX_BUF_SIZE   8
  88:..\Setup/JLINKMEM_Process.c **** #define TX_BUF_SIZE   18
  89:..\Setup/JLINKMEM_Process.c **** 
  90:..\Setup/JLINKMEM_Process.c **** /*********************************************************************
  91:..\Setup/JLINKMEM_Process.c **** *
  92:..\Setup/JLINKMEM_Process.c **** *       Defines, non- configurable
  93:..\Setup/JLINKMEM_Process.c **** *
  94:..\Setup/JLINKMEM_Process.c **** **********************************************************************
  95:..\Setup/JLINKMEM_Process.c **** */
  96:..\Setup/JLINKMEM_Process.c **** 
  97:..\Setup/JLINKMEM_Process.c **** #define U8  unsigned char
  98:..\Setup/JLINKMEM_Process.c **** #define U16 unsigned short
  99:..\Setup/JLINKMEM_Process.c **** #define U32 unsigned int
 100:..\Setup/JLINKMEM_Process.c **** 
 101:..\Setup/JLINKMEM_Process.c **** #define MAGIC_NUM   0x52 /* Identifies the start of our communication area. */
 102:..\Setup/JLINKMEM_Process.c **** 
 103:..\Setup/JLINKMEM_Process.c **** #define PROT_ID     (*(volatile U8 *)(_BaseAddr - 1))  /* Id of the protocol. Always set to MAGIC_N
 104:..\Setup/JLINKMEM_Process.c **** #define RX_SIZE     (*(volatile U8 *)(_BaseAddr - 2))  /* Size of receiving buffer in bytes */
 105:..\Setup/JLINKMEM_Process.c **** #define TX_SIZE     (*(volatile U8 *)(_BaseAddr - 3))  /* Size of sending buffer in bytes */
 106:..\Setup/JLINKMEM_Process.c **** #define TX_CNT      (*(volatile U8 *)(_BaseAddr - TX_BUF_SIZE - 4))  /* Stores the number of bytes 
 107:..\Setup/JLINKMEM_Process.c **** /* Set by host to a non-null value when it connects to target.
 108:..\Setup/JLINKMEM_Process.c ****  * The target sets this to null when it detects a communication timeout.
 109:..\Setup/JLINKMEM_Process.c ****  */
 110:..\Setup/JLINKMEM_Process.c **** 
 111:..\Setup/JLINKMEM_Process.c **** #define HOST_CON    (*(volatile U8 *)(_BaseAddr - TX_BUF_SIZE - 5))
 112:..\Setup/JLINKMEM_Process.c **** #define RX_CNT      (*(volatile U8 *)(_BaseAddr - TX_BUF_SIZE - 6)) /* Stores the number of bytes t
 113:..\Setup/JLINKMEM_Process.c **** 
 114:..\Setup/JLINKMEM_Process.c **** #define TX_TIMEOUT  1000 /* Time to wait for host to fetch the data from sending buffer (in ms) */
 115:..\Setup/JLINKMEM_Process.c **** 
ARM GAS  C:\Users\IroTeam\AppData\Local\Temp\ccm3QAgb.s 			page 4


 116:..\Setup/JLINKMEM_Process.c **** #define VTOR_ADDR   (*(volatile OS_U32*) (0xE000ED08)) /* Vector table base register address */
 117:..\Setup/JLINKMEM_Process.c **** 
 118:..\Setup/JLINKMEM_Process.c **** /*********************************************************************
 119:..\Setup/JLINKMEM_Process.c **** *
 120:..\Setup/JLINKMEM_Process.c **** *       Static data
 121:..\Setup/JLINKMEM_Process.c **** *
 122:..\Setup/JLINKMEM_Process.c **** **********************************************************************
 123:..\Setup/JLINKMEM_Process.c **** */
 124:..\Setup/JLINKMEM_Process.c **** 
 125:..\Setup/JLINKMEM_Process.c **** /* Pointer to user callbacks */
 126:..\Setup/JLINKMEM_Process.c **** void (* _pfOnRx) (U8 Data);
 127:..\Setup/JLINKMEM_Process.c **** U8 (* _pfOnTx) (void);
 128:..\Setup/JLINKMEM_Process.c **** OS_INT (* _pfGetNextChar) (void);
 129:..\Setup/JLINKMEM_Process.c **** 
 130:..\Setup/JLINKMEM_Process.c **** static U32  _BaseAddr;
 131:..\Setup/JLINKMEM_Process.c **** static int  _TxIsPending;    /* Set when there is a character waiting to be sent */
 132:..\Setup/JLINKMEM_Process.c **** static U8   _TxPendingData;  /* Holds tha character waiting to be sent */
 133:..\Setup/JLINKMEM_Process.c **** static int  _IsInited;       /* Set when the communication is initialized */
 134:..\Setup/JLINKMEM_Process.c **** static U8*  _pRxBuf;         /* Start of receiving buffer */
 135:..\Setup/JLINKMEM_Process.c **** static U8*  _pTxBuf;         /* Start of sending buffer */
 136:..\Setup/JLINKMEM_Process.c **** 
 137:..\Setup/JLINKMEM_Process.c **** /* Supervises the connection to host */
 138:..\Setup/JLINKMEM_Process.c **** static int  _TxTimeout;      /* Set when the host fails to fetch our data */
 139:..\Setup/JLINKMEM_Process.c **** static int  _TxTimeoutTimer;
 140:..\Setup/JLINKMEM_Process.c **** static int  _TxBufLocked;    /* Serialises the access to our sending buffer */
 141:..\Setup/JLINKMEM_Process.c **** 
 142:..\Setup/JLINKMEM_Process.c **** /*********************************************************************
 143:..\Setup/JLINKMEM_Process.c **** *
 144:..\Setup/JLINKMEM_Process.c **** *       Static code
 145:..\Setup/JLINKMEM_Process.c **** *
 146:..\Setup/JLINKMEM_Process.c **** **********************************************************************
 147:..\Setup/JLINKMEM_Process.c **** */
 148:..\Setup/JLINKMEM_Process.c **** 
 149:..\Setup/JLINKMEM_Process.c **** /*********************************************************************
 150:..\Setup/JLINKMEM_Process.c **** *
 151:..\Setup/JLINKMEM_Process.c **** *       _RetriggerTimer
 152:..\Setup/JLINKMEM_Process.c **** *
 153:..\Setup/JLINKMEM_Process.c **** * Function description
 154:..\Setup/JLINKMEM_Process.c **** */
 155:..\Setup/JLINKMEM_Process.c **** static void _RetriggerTimer(void) {
  57              		.loc 1 155 0
  58              		.cfi_startproc
  59              		@ args = 0, pretend = 0, frame = 0
  60              		@ frame_needed = 1, uses_anonymous_args = 0
  61              		@ link register save eliminated.
  62 0000 80B4     		push	{r7}
  63              		.cfi_def_cfa_offset 4
  64              		.cfi_offset 7, -4
  65 0002 00AF     		add	r7, sp, #0
  66              		.cfi_def_cfa_register 7
 156:..\Setup/JLINKMEM_Process.c ****   _TxTimeoutTimer = TX_TIMEOUT;
  67              		.loc 1 156 0
  68 0004 034B     		ldr	r3, .L2
  69 0006 4FF47A72 		mov	r2, #1000
  70 000a 1A60     		str	r2, [r3]
 157:..\Setup/JLINKMEM_Process.c **** }
  71              		.loc 1 157 0
ARM GAS  C:\Users\IroTeam\AppData\Local\Temp\ccm3QAgb.s 			page 5


  72 000c 00BF     		nop
  73 000e BD46     		mov	sp, r7
  74              		.cfi_def_cfa_register 13
  75              		@ sp needed
  76 0010 80BC     		pop	{r7}
  77              		.cfi_restore 7
  78              		.cfi_def_cfa_offset 0
  79 0012 7047     		bx	lr
  80              	.L3:
  81              		.align	2
  82              	.L2:
  83 0014 1C000000 		.word	_TxTimeoutTimer
  84              		.cfi_endproc
  85              	.LFE0:
  86              		.size	_RetriggerTimer, .-_RetriggerTimer
  87              		.section	.text._StopTimer,"ax",%progbits
  88              		.align	2
  89              		.thumb
  90              		.thumb_func
  91              		.type	_StopTimer, %function
  92              	_StopTimer:
  93              	.LFB1:
 158:..\Setup/JLINKMEM_Process.c **** 
 159:..\Setup/JLINKMEM_Process.c **** /*********************************************************************
 160:..\Setup/JLINKMEM_Process.c **** *
 161:..\Setup/JLINKMEM_Process.c **** *       _HandleTxTimeout
 162:..\Setup/JLINKMEM_Process.c **** *
 163:..\Setup/JLINKMEM_Process.c **** * Function description
 164:..\Setup/JLINKMEM_Process.c **** *   Sets the connection to host to inactive when the host fails to
 165:..\Setup/JLINKMEM_Process.c **** *   fetch the data we send to it. Called when the send timeout
 166:..\Setup/JLINKMEM_Process.c **** *   expires.
 167:..\Setup/JLINKMEM_Process.c **** */
 168:..\Setup/JLINKMEM_Process.c **** static void _StopTimer(void) {
  94              		.loc 1 168 0
  95              		.cfi_startproc
  96              		@ args = 0, pretend = 0, frame = 0
  97              		@ frame_needed = 1, uses_anonymous_args = 0
  98              		@ link register save eliminated.
  99 0000 80B4     		push	{r7}
 100              		.cfi_def_cfa_offset 4
 101              		.cfi_offset 7, -4
 102 0002 00AF     		add	r7, sp, #0
 103              		.cfi_def_cfa_register 7
 169:..\Setup/JLINKMEM_Process.c ****   _TxTimeoutTimer = 0;
 104              		.loc 1 169 0
 105 0004 034B     		ldr	r3, .L5
 106 0006 0022     		movs	r2, #0
 107 0008 1A60     		str	r2, [r3]
 170:..\Setup/JLINKMEM_Process.c **** }
 108              		.loc 1 170 0
 109 000a 00BF     		nop
 110 000c BD46     		mov	sp, r7
 111              		.cfi_def_cfa_register 13
 112              		@ sp needed
 113 000e 80BC     		pop	{r7}
 114              		.cfi_restore 7
 115              		.cfi_def_cfa_offset 0
ARM GAS  C:\Users\IroTeam\AppData\Local\Temp\ccm3QAgb.s 			page 6


 116 0010 7047     		bx	lr
 117              	.L6:
 118 0012 00BF     		.align	2
 119              	.L5:
 120 0014 1C000000 		.word	_TxTimeoutTimer
 121              		.cfi_endproc
 122              	.LFE1:
 123              		.size	_StopTimer, .-_StopTimer
 124              		.section	.text._Init,"ax",%progbits
 125              		.align	2
 126              		.thumb
 127              		.thumb_func
 128              		.type	_Init, %function
 129              	_Init:
 130              	.LFB2:
 171:..\Setup/JLINKMEM_Process.c **** 
 172:..\Setup/JLINKMEM_Process.c **** /*********************************************************************
 173:..\Setup/JLINKMEM_Process.c **** *
 174:..\Setup/JLINKMEM_Process.c **** *       _Init
 175:..\Setup/JLINKMEM_Process.c **** *
 176:..\Setup/JLINKMEM_Process.c **** * Function description
 177:..\Setup/JLINKMEM_Process.c **** *   Performs initialization of memory locations used for communication.
 178:..\Setup/JLINKMEM_Process.c **** */
 179:..\Setup/JLINKMEM_Process.c **** static void _Init(void) {
 131              		.loc 1 179 0
 132              		.cfi_startproc
 133              		@ args = 0, pretend = 0, frame = 8
 134              		@ frame_needed = 1, uses_anonymous_args = 0
 135              		@ link register save eliminated.
 136 0000 80B4     		push	{r7}
 137              		.cfi_def_cfa_offset 4
 138              		.cfi_offset 7, -4
 139 0002 83B0     		sub	sp, sp, #12
 140              		.cfi_def_cfa_offset 16
 141 0004 00AF     		add	r7, sp, #0
 142              		.cfi_def_cfa_register 7
 180:..\Setup/JLINKMEM_Process.c ****   OS_U32 VectorTableBaseAddr;
 181:..\Setup/JLINKMEM_Process.c ****   /* On Cortex-M initial top of stack is stored at address defined by VTOR */
 182:..\Setup/JLINKMEM_Process.c ****   VectorTableBaseAddr  = VTOR_ADDR;
 143              		.loc 1 182 0
 144 0006 1E4B     		ldr	r3, .L8
 145 0008 1B68     		ldr	r3, [r3]
 146 000a 7B60     		str	r3, [r7, #4]
 183:..\Setup/JLINKMEM_Process.c ****   VectorTableBaseAddr &= ~(0x3FuL);  // Mask b6..b0 as those might not be zero ARM DDI 0403D chapte
 147              		.loc 1 183 0
 148 000c 7B68     		ldr	r3, [r7, #4]
 149 000e 23F03F03 		bic	r3, r3, #63
 150 0012 7B60     		str	r3, [r7, #4]
 184:..\Setup/JLINKMEM_Process.c ****   _BaseAddr = (*(OS_U32*)VectorTableBaseAddr);
 151              		.loc 1 184 0
 152 0014 7B68     		ldr	r3, [r7, #4]
 153 0016 1B68     		ldr	r3, [r3]
 154 0018 1A4A     		ldr	r2, .L8+4
 155 001a 1360     		str	r3, [r2]
 185:..\Setup/JLINKMEM_Process.c ****   HOST_CON  = 0;
 156              		.loc 1 185 0
 157 001c 194B     		ldr	r3, .L8+4
ARM GAS  C:\Users\IroTeam\AppData\Local\Temp\ccm3QAgb.s 			page 7


 158 001e 1B68     		ldr	r3, [r3]
 159 0020 173B     		subs	r3, r3, #23
 160 0022 0022     		movs	r2, #0
 161 0024 1A70     		strb	r2, [r3]
 186:..\Setup/JLINKMEM_Process.c ****   RX_SIZE   = RX_BUF_SIZE;
 162              		.loc 1 186 0
 163 0026 174B     		ldr	r3, .L8+4
 164 0028 1B68     		ldr	r3, [r3]
 165 002a 023B     		subs	r3, r3, #2
 166 002c 0822     		movs	r2, #8
 167 002e 1A70     		strb	r2, [r3]
 187:..\Setup/JLINKMEM_Process.c ****   TX_SIZE   = TX_BUF_SIZE;
 168              		.loc 1 187 0
 169 0030 144B     		ldr	r3, .L8+4
 170 0032 1B68     		ldr	r3, [r3]
 171 0034 033B     		subs	r3, r3, #3
 172 0036 1222     		movs	r2, #18
 173 0038 1A70     		strb	r2, [r3]
 188:..\Setup/JLINKMEM_Process.c ****   RX_CNT    = 0;
 174              		.loc 1 188 0
 175 003a 124B     		ldr	r3, .L8+4
 176 003c 1B68     		ldr	r3, [r3]
 177 003e 183B     		subs	r3, r3, #24
 178 0040 0022     		movs	r2, #0
 179 0042 1A70     		strb	r2, [r3]
 189:..\Setup/JLINKMEM_Process.c ****   TX_CNT    = 0;
 180              		.loc 1 189 0
 181 0044 0F4B     		ldr	r3, .L8+4
 182 0046 1B68     		ldr	r3, [r3]
 183 0048 163B     		subs	r3, r3, #22
 184 004a 0022     		movs	r2, #0
 185 004c 1A70     		strb	r2, [r3]
 190:..\Setup/JLINKMEM_Process.c ****   PROT_ID   = MAGIC_NUM;
 186              		.loc 1 190 0
 187 004e 0D4B     		ldr	r3, .L8+4
 188 0050 1B68     		ldr	r3, [r3]
 189 0052 013B     		subs	r3, r3, #1
 190 0054 5222     		movs	r2, #82
 191 0056 1A70     		strb	r2, [r3]
 191:..\Setup/JLINKMEM_Process.c ****   _pTxBuf   = (U8 *)(_BaseAddr - TX_BUF_SIZE - 3);
 192              		.loc 1 191 0
 193 0058 0A4B     		ldr	r3, .L8+4
 194 005a 1B68     		ldr	r3, [r3]
 195 005c 153B     		subs	r3, r3, #21
 196 005e 1A46     		mov	r2, r3
 197 0060 094B     		ldr	r3, .L8+8
 198 0062 1A60     		str	r2, [r3]
 192:..\Setup/JLINKMEM_Process.c ****   _pRxBuf   = (U8 *)(_BaseAddr - TX_BUF_SIZE - RX_BUF_SIZE - 6);
 199              		.loc 1 192 0
 200 0064 074B     		ldr	r3, .L8+4
 201 0066 1B68     		ldr	r3, [r3]
 202 0068 203B     		subs	r3, r3, #32
 203 006a 1A46     		mov	r2, r3
 204 006c 074B     		ldr	r3, .L8+12
 205 006e 1A60     		str	r2, [r3]
 193:..\Setup/JLINKMEM_Process.c ****   _TxIsPending = 0;
 206              		.loc 1 193 0
ARM GAS  C:\Users\IroTeam\AppData\Local\Temp\ccm3QAgb.s 			page 8


 207 0070 074B     		ldr	r3, .L8+16
 208 0072 0022     		movs	r2, #0
 209 0074 1A60     		str	r2, [r3]
 194:..\Setup/JLINKMEM_Process.c **** }
 210              		.loc 1 194 0
 211 0076 00BF     		nop
 212 0078 0C37     		adds	r7, r7, #12
 213              		.cfi_def_cfa_offset 4
 214 007a BD46     		mov	sp, r7
 215              		.cfi_def_cfa_register 13
 216              		@ sp needed
 217 007c 80BC     		pop	{r7}
 218              		.cfi_restore 7
 219              		.cfi_def_cfa_offset 0
 220 007e 7047     		bx	lr
 221              	.L9:
 222              		.align	2
 223              	.L8:
 224 0080 08ED00E0 		.word	-536810232
 225 0084 00000000 		.word	_BaseAddr
 226 0088 14000000 		.word	_pTxBuf
 227 008c 10000000 		.word	_pRxBuf
 228 0090 04000000 		.word	_TxIsPending
 229              		.cfi_endproc
 230              	.LFE2:
 231              		.size	_Init, .-_Init
 232              		.section	.text._LockTxBuf,"ax",%progbits
 233              		.align	2
 234              		.thumb
 235              		.thumb_func
 236              		.type	_LockTxBuf, %function
 237              	_LockTxBuf:
 238              	.LFB3:
 195:..\Setup/JLINKMEM_Process.c **** 
 196:..\Setup/JLINKMEM_Process.c **** /*********************************************************************
 197:..\Setup/JLINKMEM_Process.c **** *
 198:..\Setup/JLINKMEM_Process.c **** *       _LockTxBuf
 199:..\Setup/JLINKMEM_Process.c **** *
 200:..\Setup/JLINKMEM_Process.c **** * Function description
 201:..\Setup/JLINKMEM_Process.c **** *   Gains exclusive access to sending buffer.
 202:..\Setup/JLINKMEM_Process.c **** *
 203:..\Setup/JLINKMEM_Process.c **** * Return value
 204:..\Setup/JLINKMEM_Process.c **** *   1   Sending buffer locked
 205:..\Setup/JLINKMEM_Process.c **** *   0   Sending buffer couldn't be locked as already in use.
 206:..\Setup/JLINKMEM_Process.c **** */
 207:..\Setup/JLINKMEM_Process.c **** static int _LockTxBuf(void) {
 239              		.loc 1 207 0
 240              		.cfi_startproc
 241              		@ args = 0, pretend = 0, frame = 8
 242              		@ frame_needed = 1, uses_anonymous_args = 0
 243 0000 80B5     		push	{r7, lr}
 244              		.cfi_def_cfa_offset 8
 245              		.cfi_offset 7, -8
 246              		.cfi_offset 14, -4
 247 0002 82B0     		sub	sp, sp, #8
 248              		.cfi_def_cfa_offset 16
 249 0004 00AF     		add	r7, sp, #0
ARM GAS  C:\Users\IroTeam\AppData\Local\Temp\ccm3QAgb.s 			page 9


 250              		.cfi_def_cfa_register 7
 208:..\Setup/JLINKMEM_Process.c ****   int Locked = 0;
 251              		.loc 1 208 0
 252 0006 0023     		movs	r3, #0
 253 0008 7B60     		str	r3, [r7, #4]
 209:..\Setup/JLINKMEM_Process.c **** 
 210:..\Setup/JLINKMEM_Process.c ****   OS_INT_Disable();
 254              		.loc 1 210 0
 255              		.syntax unified
 256              	@ 210 "..\Setup\JLINKMEM_Process.c" 1
 257 000a 4FF08000 		mov  r0, #128    
 258 000e 80F31188 		msr  basepri, r0 
 259 0012 00BF     		nop              
 260 0014 00BF     		nop              
 261              		
 262              	@ 0 "" 2
 211:..\Setup/JLINKMEM_Process.c ****   if (!_TxBufLocked) {
 263              		.loc 1 211 0
 264              		.thumb
 265              		.syntax unified
 266 0016 0F4B     		ldr	r3, .L15
 267 0018 1B68     		ldr	r3, [r3]
 268 001a 002B     		cmp	r3, #0
 269 001c 04D1     		bne	.L11
 212:..\Setup/JLINKMEM_Process.c ****     _TxBufLocked = 1;
 270              		.loc 1 212 0
 271 001e 0D4B     		ldr	r3, .L15
 272 0020 0122     		movs	r2, #1
 273 0022 1A60     		str	r2, [r3]
 213:..\Setup/JLINKMEM_Process.c ****     Locked = 1;
 274              		.loc 1 213 0
 275 0024 0123     		movs	r3, #1
 276 0026 7B60     		str	r3, [r7, #4]
 277              	.L11:
 214:..\Setup/JLINKMEM_Process.c ****   }
 215:..\Setup/JLINKMEM_Process.c ****   OS_INT_EnableConditional();
 278              		.loc 1 215 0
 279 0028 0B4B     		ldr	r3, .L15+4
 280 002a 5B78     		ldrb	r3, [r3, #1]
 281 002c DBB2     		uxtb	r3, r3
 282 002e 0F2B     		cmp	r3, #15
 283 0030 02D9     		bls	.L12
 284              		.loc 1 215 0 is_stmt 0 discriminator 1
 285 0032 9920     		movs	r0, #153
 286 0034 FFF7FEFF 		bl	OS_Error
 287              	.L12:
 288              		.loc 1 215 0 discriminator 3
 289 0038 074B     		ldr	r3, .L15+4
 290 003a 5B78     		ldrb	r3, [r3, #1]
 291 003c DBB2     		uxtb	r3, r3
 292 003e 002B     		cmp	r3, #0
 293 0040 03D1     		bne	.L13
 294              		.loc 1 215 0 discriminator 4
 295              		.syntax unified
 296              	@ 215 "..\Setup\JLINKMEM_Process.c" 1
 297 0042 4FF00000 		mov  r0, #0      
 298 0046 80F31188 		msr  basepri, r0 
ARM GAS  C:\Users\IroTeam\AppData\Local\Temp\ccm3QAgb.s 			page 10


 299              		
 300              	@ 0 "" 2
 301              		.thumb
 302              		.syntax unified
 303              	.L13:
 216:..\Setup/JLINKMEM_Process.c ****   return Locked;
 304              		.loc 1 216 0 is_stmt 1
 305 004a 7B68     		ldr	r3, [r7, #4]
 217:..\Setup/JLINKMEM_Process.c **** }
 306              		.loc 1 217 0
 307 004c 1846     		mov	r0, r3
 308 004e 0837     		adds	r7, r7, #8
 309              		.cfi_def_cfa_offset 8
 310 0050 BD46     		mov	sp, r7
 311              		.cfi_def_cfa_register 13
 312              		@ sp needed
 313 0052 80BD     		pop	{r7, pc}
 314              	.L16:
 315              		.align	2
 316              	.L15:
 317 0054 20000000 		.word	_TxBufLocked
 318 0058 00000000 		.word	OS_Global
 319              		.cfi_endproc
 320              	.LFE3:
 321              		.size	_LockTxBuf, .-_LockTxBuf
 322              		.section	.text._UnlockTxBuf,"ax",%progbits
 323              		.align	2
 324              		.thumb
 325              		.thumb_func
 326              		.type	_UnlockTxBuf, %function
 327              	_UnlockTxBuf:
 328              	.LFB4:
 218:..\Setup/JLINKMEM_Process.c **** 
 219:..\Setup/JLINKMEM_Process.c **** /*********************************************************************
 220:..\Setup/JLINKMEM_Process.c **** *
 221:..\Setup/JLINKMEM_Process.c **** *       _UnlockTxBuf
 222:..\Setup/JLINKMEM_Process.c **** *
 223:..\Setup/JLINKMEM_Process.c **** * Function description
 224:..\Setup/JLINKMEM_Process.c **** *   Releases the exclusive access to sending buffer.
 225:..\Setup/JLINKMEM_Process.c **** */
 226:..\Setup/JLINKMEM_Process.c **** static void _UnlockTxBuf(void) {
 329              		.loc 1 226 0
 330              		.cfi_startproc
 331              		@ args = 0, pretend = 0, frame = 0
 332              		@ frame_needed = 1, uses_anonymous_args = 0
 333              		@ link register save eliminated.
 334 0000 80B4     		push	{r7}
 335              		.cfi_def_cfa_offset 4
 336              		.cfi_offset 7, -4
 337 0002 00AF     		add	r7, sp, #0
 338              		.cfi_def_cfa_register 7
 227:..\Setup/JLINKMEM_Process.c ****   _TxBufLocked = 0;
 339              		.loc 1 227 0
 340 0004 034B     		ldr	r3, .L18
 341 0006 0022     		movs	r2, #0
 342 0008 1A60     		str	r2, [r3]
 228:..\Setup/JLINKMEM_Process.c **** }
ARM GAS  C:\Users\IroTeam\AppData\Local\Temp\ccm3QAgb.s 			page 11


 343              		.loc 1 228 0
 344 000a 00BF     		nop
 345 000c BD46     		mov	sp, r7
 346              		.cfi_def_cfa_register 13
 347              		@ sp needed
 348 000e 80BC     		pop	{r7}
 349              		.cfi_restore 7
 350              		.cfi_def_cfa_offset 0
 351 0010 7047     		bx	lr
 352              	.L19:
 353 0012 00BF     		.align	2
 354              	.L18:
 355 0014 20000000 		.word	_TxBufLocked
 356              		.cfi_endproc
 357              	.LFE4:
 358              		.size	_UnlockTxBuf, .-_UnlockTxBuf
 359              		.section	.text._Receive,"ax",%progbits
 360              		.align	2
 361              		.thumb
 362              		.thumb_func
 363              		.type	_Receive, %function
 364              	_Receive:
 365              	.LFB5:
 229:..\Setup/JLINKMEM_Process.c **** 
 230:..\Setup/JLINKMEM_Process.c **** /*********************************************************************
 231:..\Setup/JLINKMEM_Process.c **** *
 232:..\Setup/JLINKMEM_Process.c **** *       _Receive
 233:..\Setup/JLINKMEM_Process.c **** *
 234:..\Setup/JLINKMEM_Process.c **** *  Function description
 235:..\Setup/JLINKMEM_Process.c **** *    Performs Command / data read from host
 236:..\Setup/JLINKMEM_Process.c **** */
 237:..\Setup/JLINKMEM_Process.c **** static void _Receive(void) {
 366              		.loc 1 237 0
 367              		.cfi_startproc
 368              		@ args = 0, pretend = 0, frame = 8
 369              		@ frame_needed = 1, uses_anonymous_args = 0
 370 0000 80B5     		push	{r7, lr}
 371              		.cfi_def_cfa_offset 8
 372              		.cfi_offset 7, -8
 373              		.cfi_offset 14, -4
 374 0002 82B0     		sub	sp, sp, #8
 375              		.cfi_def_cfa_offset 16
 376 0004 00AF     		add	r7, sp, #0
 377              		.cfi_def_cfa_register 7
 238:..\Setup/JLINKMEM_Process.c ****   int i;
 239:..\Setup/JLINKMEM_Process.c ****   U8 *pBuf;
 240:..\Setup/JLINKMEM_Process.c **** 
 241:..\Setup/JLINKMEM_Process.c ****   if (RX_CNT > 0) {    /* Data received ? */
 378              		.loc 1 241 0
 379 0006 1B4B     		ldr	r3, .L26
 380 0008 1B68     		ldr	r3, [r3]
 381 000a 183B     		subs	r3, r3, #24
 382 000c 1B78     		ldrb	r3, [r3]
 383 000e DBB2     		uxtb	r3, r3
 384 0010 002B     		cmp	r3, #0
 385 0012 2BD0     		beq	.L25
 242:..\Setup/JLINKMEM_Process.c ****     if (_pfOnRx != NULL) {
ARM GAS  C:\Users\IroTeam\AppData\Local\Temp\ccm3QAgb.s 			page 12


 386              		.loc 1 242 0
 387 0014 184B     		ldr	r3, .L26+4
 388 0016 1B68     		ldr	r3, [r3]
 389 0018 002B     		cmp	r3, #0
 390 001a 22D0     		beq	.L22
 243:..\Setup/JLINKMEM_Process.c ****       pBuf = _pRxBuf + (RX_BUF_SIZE - RX_CNT);
 391              		.loc 1 243 0
 392 001c 174B     		ldr	r3, .L26+8
 393 001e 1B68     		ldr	r3, [r3]
 394 0020 144A     		ldr	r2, .L26
 395 0022 1268     		ldr	r2, [r2]
 396 0024 183A     		subs	r2, r2, #24
 397 0026 1278     		ldrb	r2, [r2]
 398 0028 D2B2     		uxtb	r2, r2
 399 002a C2F10802 		rsb	r2, r2, #8
 400 002e 1344     		add	r3, r3, r2
 401 0030 3B60     		str	r3, [r7]
 244:..\Setup/JLINKMEM_Process.c ****       for (i = 0; i < RX_CNT; ++i) {
 402              		.loc 1 244 0
 403 0032 0023     		movs	r3, #0
 404 0034 7B60     		str	r3, [r7, #4]
 405 0036 0BE0     		b	.L23
 406              	.L24:
 245:..\Setup/JLINKMEM_Process.c ****         _pfOnRx(*pBuf);
 407              		.loc 1 245 0 discriminator 3
 408 0038 0F4B     		ldr	r3, .L26+4
 409 003a 1B68     		ldr	r3, [r3]
 410 003c 3A68     		ldr	r2, [r7]
 411 003e 1278     		ldrb	r2, [r2]	@ zero_extendqisi2
 412 0040 1046     		mov	r0, r2
 413 0042 9847     		blx	r3
 246:..\Setup/JLINKMEM_Process.c ****         ++pBuf;
 414              		.loc 1 246 0 discriminator 3
 415 0044 3B68     		ldr	r3, [r7]
 416 0046 0133     		adds	r3, r3, #1
 417 0048 3B60     		str	r3, [r7]
 244:..\Setup/JLINKMEM_Process.c ****       for (i = 0; i < RX_CNT; ++i) {
 418              		.loc 1 244 0 discriminator 3
 419 004a 7B68     		ldr	r3, [r7, #4]
 420 004c 0133     		adds	r3, r3, #1
 421 004e 7B60     		str	r3, [r7, #4]
 422              	.L23:
 244:..\Setup/JLINKMEM_Process.c ****       for (i = 0; i < RX_CNT; ++i) {
 423              		.loc 1 244 0 is_stmt 0 discriminator 1
 424 0050 084B     		ldr	r3, .L26
 425 0052 1B68     		ldr	r3, [r3]
 426 0054 183B     		subs	r3, r3, #24
 427 0056 1B78     		ldrb	r3, [r3]
 428 0058 DBB2     		uxtb	r3, r3
 429 005a 1A46     		mov	r2, r3
 430 005c 7B68     		ldr	r3, [r7, #4]
 431 005e 9A42     		cmp	r2, r3
 432 0060 EADC     		bgt	.L24
 433              	.L22:
 247:..\Setup/JLINKMEM_Process.c ****       }
 248:..\Setup/JLINKMEM_Process.c ****     }
 249:..\Setup/JLINKMEM_Process.c ****     RX_CNT = 0;
ARM GAS  C:\Users\IroTeam\AppData\Local\Temp\ccm3QAgb.s 			page 13


 434              		.loc 1 249 0 is_stmt 1
 435 0062 044B     		ldr	r3, .L26
 436 0064 1B68     		ldr	r3, [r3]
 437 0066 183B     		subs	r3, r3, #24
 438 0068 0022     		movs	r2, #0
 439 006a 1A70     		strb	r2, [r3]
 440              	.L25:
 250:..\Setup/JLINKMEM_Process.c ****   }
 251:..\Setup/JLINKMEM_Process.c **** }
 441              		.loc 1 251 0
 442 006c 00BF     		nop
 443 006e 0837     		adds	r7, r7, #8
 444              		.cfi_def_cfa_offset 8
 445 0070 BD46     		mov	sp, r7
 446              		.cfi_def_cfa_register 13
 447              		@ sp needed
 448 0072 80BD     		pop	{r7, pc}
 449              	.L27:
 450              		.align	2
 451              	.L26:
 452 0074 00000000 		.word	_BaseAddr
 453 0078 00000000 		.word	_pfOnRx
 454 007c 10000000 		.word	_pRxBuf
 455              		.cfi_endproc
 456              	.LFE5:
 457              		.size	_Receive, .-_Receive
 458              		.section	.text._FillTxBuf,"ax",%progbits
 459              		.align	2
 460              		.thumb
 461              		.thumb_func
 462              		.type	_FillTxBuf, %function
 463              	_FillTxBuf:
 464              	.LFB6:
 252:..\Setup/JLINKMEM_Process.c **** 
 253:..\Setup/JLINKMEM_Process.c **** /*********************************************************************
 254:..\Setup/JLINKMEM_Process.c **** *
 255:..\Setup/JLINKMEM_Process.c **** *       _FillTxBuf
 256:..\Setup/JLINKMEM_Process.c **** *
 257:..\Setup/JLINKMEM_Process.c **** *  Function description
 258:..\Setup/JLINKMEM_Process.c **** *    Stores bytes in the sending buffer.
 259:..\Setup/JLINKMEM_Process.c **** */
 260:..\Setup/JLINKMEM_Process.c **** static void _FillTxBuf(U8 Data) {
 465              		.loc 1 260 0
 466              		.cfi_startproc
 467              		@ args = 0, pretend = 0, frame = 24
 468              		@ frame_needed = 1, uses_anonymous_args = 0
 469 0000 80B5     		push	{r7, lr}
 470              		.cfi_def_cfa_offset 8
 471              		.cfi_offset 7, -8
 472              		.cfi_offset 14, -4
 473 0002 86B0     		sub	sp, sp, #24
 474              		.cfi_def_cfa_offset 32
 475 0004 00AF     		add	r7, sp, #0
 476              		.cfi_def_cfa_register 7
 477 0006 0346     		mov	r3, r0
 478 0008 FB71     		strb	r3, [r7, #7]
 261:..\Setup/JLINKMEM_Process.c ****   int Cnt = 0;
ARM GAS  C:\Users\IroTeam\AppData\Local\Temp\ccm3QAgb.s 			page 14


 479              		.loc 1 261 0
 480 000a 0023     		movs	r3, #0
 481 000c 7B61     		str	r3, [r7, #20]
 262:..\Setup/JLINKMEM_Process.c ****   OS_INT Byte;
 263:..\Setup/JLINKMEM_Process.c ****   U8 *pBuf;
 264:..\Setup/JLINKMEM_Process.c **** 
 265:..\Setup/JLINKMEM_Process.c ****   pBuf = _pTxBuf;
 482              		.loc 1 265 0
 483 000e 254B     		ldr	r3, .L38
 484 0010 1B68     		ldr	r3, [r3]
 485 0012 3B61     		str	r3, [r7, #16]
 266:..\Setup/JLINKMEM_Process.c ****   *pBuf = Data;
 486              		.loc 1 266 0
 487 0014 3B69     		ldr	r3, [r7, #16]
 488 0016 FA79     		ldrb	r2, [r7, #7]
 489 0018 1A70     		strb	r2, [r3]
 267:..\Setup/JLINKMEM_Process.c ****   ++pBuf;
 490              		.loc 1 267 0
 491 001a 3B69     		ldr	r3, [r7, #16]
 492 001c 0133     		adds	r3, r3, #1
 493 001e 3B61     		str	r3, [r7, #16]
 268:..\Setup/JLINKMEM_Process.c ****   ++Cnt;
 494              		.loc 1 268 0
 495 0020 7B69     		ldr	r3, [r7, #20]
 496 0022 0133     		adds	r3, r3, #1
 497 0024 7B61     		str	r3, [r7, #20]
 269:..\Setup/JLINKMEM_Process.c ****   if (_pfGetNextChar != NULL) {
 498              		.loc 1 269 0
 499 0026 204B     		ldr	r3, .L38+4
 500 0028 1B68     		ldr	r3, [r3]
 501 002a 002B     		cmp	r3, #0
 502 002c 17D0     		beq	.L29
 503              	.L32:
 270:..\Setup/JLINKMEM_Process.c ****     /* Get more bytes from the communication state machine
 271:..\Setup/JLINKMEM_Process.c ****      * until the sending buffer is full.
 272:..\Setup/JLINKMEM_Process.c ****      */
 273:..\Setup/JLINKMEM_Process.c ****     while (1) {
 274:..\Setup/JLINKMEM_Process.c ****       if (Cnt >= TX_BUF_SIZE) {
 504              		.loc 1 274 0
 505 002e 7B69     		ldr	r3, [r7, #20]
 506 0030 112B     		cmp	r3, #17
 507 0032 11DC     		bgt	.L35
 275:..\Setup/JLINKMEM_Process.c ****         break;
 276:..\Setup/JLINKMEM_Process.c ****       }
 277:..\Setup/JLINKMEM_Process.c ****       Byte = _pfGetNextChar();
 508              		.loc 1 277 0
 509 0034 1C4B     		ldr	r3, .L38+4
 510 0036 1B68     		ldr	r3, [r3]
 511 0038 9847     		blx	r3
 512 003a F860     		str	r0, [r7, #12]
 278:..\Setup/JLINKMEM_Process.c ****       if (Byte < 0) {
 513              		.loc 1 278 0
 514 003c FB68     		ldr	r3, [r7, #12]
 515 003e 002B     		cmp	r3, #0
 516 0040 0CDB     		blt	.L36
 279:..\Setup/JLINKMEM_Process.c ****         break;
 280:..\Setup/JLINKMEM_Process.c ****       }
ARM GAS  C:\Users\IroTeam\AppData\Local\Temp\ccm3QAgb.s 			page 15


 281:..\Setup/JLINKMEM_Process.c ****       *pBuf = (U8)Byte;
 517              		.loc 1 281 0
 518 0042 FB68     		ldr	r3, [r7, #12]
 519 0044 DAB2     		uxtb	r2, r3
 520 0046 3B69     		ldr	r3, [r7, #16]
 521 0048 1A70     		strb	r2, [r3]
 282:..\Setup/JLINKMEM_Process.c ****       ++pBuf;
 522              		.loc 1 282 0
 523 004a 3B69     		ldr	r3, [r7, #16]
 524 004c 0133     		adds	r3, r3, #1
 525 004e 3B61     		str	r3, [r7, #16]
 283:..\Setup/JLINKMEM_Process.c ****       ++Cnt;
 526              		.loc 1 283 0
 527 0050 7B69     		ldr	r3, [r7, #20]
 528 0052 0133     		adds	r3, r3, #1
 529 0054 7B61     		str	r3, [r7, #20]
 284:..\Setup/JLINKMEM_Process.c ****     }
 530              		.loc 1 284 0
 531 0056 EAE7     		b	.L32
 532              	.L35:
 275:..\Setup/JLINKMEM_Process.c ****       }
 533              		.loc 1 275 0
 534 0058 00BF     		nop
 535 005a 00E0     		b	.L29
 536              	.L36:
 279:..\Setup/JLINKMEM_Process.c ****       }
 537              		.loc 1 279 0
 538 005c 00BF     		nop
 539              	.L29:
 285:..\Setup/JLINKMEM_Process.c ****   }
 286:..\Setup/JLINKMEM_Process.c ****   OS_INT_Disable();
 540              		.loc 1 286 0
 541              		.syntax unified
 542              	@ 286 "..\Setup\JLINKMEM_Process.c" 1
 543 005e 4FF08000 		mov  r0, #128    
 544 0062 80F31188 		msr  basepri, r0 
 545 0066 00BF     		nop              
 546 0068 00BF     		nop              
 547              		
 548              	@ 0 "" 2
 287:..\Setup/JLINKMEM_Process.c ****   _RetriggerTimer();
 549              		.loc 1 287 0
 550              		.thumb
 551              		.syntax unified
 552 006a FFF7FEFF 		bl	_RetriggerTimer
 288:..\Setup/JLINKMEM_Process.c ****   TX_CNT = (U8)Cnt;
 553              		.loc 1 288 0
 554 006e 0F4B     		ldr	r3, .L38+8
 555 0070 1B68     		ldr	r3, [r3]
 556 0072 163B     		subs	r3, r3, #22
 557 0074 7A69     		ldr	r2, [r7, #20]
 558 0076 D2B2     		uxtb	r2, r2
 559 0078 1A70     		strb	r2, [r3]
 289:..\Setup/JLINKMEM_Process.c ****   OS_INT_EnableConditional();
 560              		.loc 1 289 0
 561 007a 0D4B     		ldr	r3, .L38+12
 562 007c 5B78     		ldrb	r3, [r3, #1]
ARM GAS  C:\Users\IroTeam\AppData\Local\Temp\ccm3QAgb.s 			page 16


 563 007e DBB2     		uxtb	r3, r3
 564 0080 0F2B     		cmp	r3, #15
 565 0082 02D9     		bls	.L33
 566              		.loc 1 289 0 is_stmt 0 discriminator 1
 567 0084 9920     		movs	r0, #153
 568 0086 FFF7FEFF 		bl	OS_Error
 569              	.L33:
 570              		.loc 1 289 0 discriminator 3
 571 008a 094B     		ldr	r3, .L38+12
 572 008c 5B78     		ldrb	r3, [r3, #1]
 573 008e DBB2     		uxtb	r3, r3
 574 0090 002B     		cmp	r3, #0
 575 0092 03D1     		bne	.L37
 576              		.loc 1 289 0 discriminator 4
 577              		.syntax unified
 578              	@ 289 "..\Setup\JLINKMEM_Process.c" 1
 579 0094 4FF00000 		mov  r0, #0      
 580 0098 80F31188 		msr  basepri, r0 
 581              		
 582              	@ 0 "" 2
 583              		.thumb
 584              		.syntax unified
 585              	.L37:
 290:..\Setup/JLINKMEM_Process.c **** }
 586              		.loc 1 290 0 is_stmt 1
 587 009c 00BF     		nop
 588 009e 1837     		adds	r7, r7, #24
 589              		.cfi_def_cfa_offset 8
 590 00a0 BD46     		mov	sp, r7
 591              		.cfi_def_cfa_register 13
 592              		@ sp needed
 593 00a2 80BD     		pop	{r7, pc}
 594              	.L39:
 595              		.align	2
 596              	.L38:
 597 00a4 14000000 		.word	_pTxBuf
 598 00a8 00000000 		.word	_pfGetNextChar
 599 00ac 00000000 		.word	_BaseAddr
 600 00b0 00000000 		.word	OS_Global
 601              		.cfi_endproc
 602              	.LFE6:
 603              		.size	_FillTxBuf, .-_FillTxBuf
 604              		.section	.text._DropTxData,"ax",%progbits
 605              		.align	2
 606              		.thumb
 607              		.thumb_func
 608              		.type	_DropTxData, %function
 609              	_DropTxData:
 610              	.LFB7:
 291:..\Setup/JLINKMEM_Process.c **** 
 292:..\Setup/JLINKMEM_Process.c **** /*********************************************************************
 293:..\Setup/JLINKMEM_Process.c **** *
 294:..\Setup/JLINKMEM_Process.c **** *       _DropTxData
 295:..\Setup/JLINKMEM_Process.c **** *
 296:..\Setup/JLINKMEM_Process.c **** *  Function description
 297:..\Setup/JLINKMEM_Process.c **** *    Empties the sending buffer of embOS.
 298:..\Setup/JLINKMEM_Process.c **** */
ARM GAS  C:\Users\IroTeam\AppData\Local\Temp\ccm3QAgb.s 			page 17


 299:..\Setup/JLINKMEM_Process.c **** static void _DropTxData(void) {
 611              		.loc 1 299 0
 612              		.cfi_startproc
 613              		@ args = 0, pretend = 0, frame = 0
 614              		@ frame_needed = 1, uses_anonymous_args = 0
 615 0000 80B5     		push	{r7, lr}
 616              		.cfi_def_cfa_offset 8
 617              		.cfi_offset 7, -8
 618              		.cfi_offset 14, -4
 619 0002 00AF     		add	r7, sp, #0
 620              		.cfi_def_cfa_register 7
 300:..\Setup/JLINKMEM_Process.c ****   if (_pfGetNextChar != NULL) {
 621              		.loc 1 300 0
 622 0004 064B     		ldr	r3, .L44
 623 0006 1B68     		ldr	r3, [r3]
 624 0008 002B     		cmp	r3, #0
 625 000a 06D0     		beq	.L43
 301:..\Setup/JLINKMEM_Process.c ****     while (_pfGetNextChar() >= 0) {
 626              		.loc 1 301 0
 627 000c 00BF     		nop
 628              	.L42:
 629              		.loc 1 301 0 is_stmt 0 discriminator 1
 630 000e 044B     		ldr	r3, .L44
 631 0010 1B68     		ldr	r3, [r3]
 632 0012 9847     		blx	r3
 633 0014 0346     		mov	r3, r0
 634 0016 002B     		cmp	r3, #0
 635 0018 F9DA     		bge	.L42
 636              	.L43:
 302:..\Setup/JLINKMEM_Process.c ****       ;
 303:..\Setup/JLINKMEM_Process.c ****     }
 304:..\Setup/JLINKMEM_Process.c ****   }
 305:..\Setup/JLINKMEM_Process.c **** }
 637              		.loc 1 305 0 is_stmt 1
 638 001a 00BF     		nop
 639 001c 80BD     		pop	{r7, pc}
 640              	.L45:
 641 001e 00BF     		.align	2
 642              	.L44:
 643 0020 00000000 		.word	_pfGetNextChar
 644              		.cfi_endproc
 645              	.LFE7:
 646              		.size	_DropTxData, .-_DropTxData
 647              		.section	.text._Send,"ax",%progbits
 648              		.align	2
 649              		.thumb
 650              		.thumb_func
 651              		.type	_Send, %function
 652              	_Send:
 653              	.LFB8:
 306:..\Setup/JLINKMEM_Process.c **** 
 307:..\Setup/JLINKMEM_Process.c **** /*********************************************************************
 308:..\Setup/JLINKMEM_Process.c **** *
 309:..\Setup/JLINKMEM_Process.c **** *       _Send
 310:..\Setup/JLINKMEM_Process.c **** *
 311:..\Setup/JLINKMEM_Process.c **** *  Function description
 312:..\Setup/JLINKMEM_Process.c **** *    Sends data back to host if embOSView is ready to receive data.
ARM GAS  C:\Users\IroTeam\AppData\Local\Temp\ccm3QAgb.s 			page 18


 313:..\Setup/JLINKMEM_Process.c **** */
 314:..\Setup/JLINKMEM_Process.c **** static void _Send(void) {
 654              		.loc 1 314 0
 655              		.cfi_startproc
 656              		@ args = 0, pretend = 0, frame = 0
 657              		@ frame_needed = 1, uses_anonymous_args = 0
 658 0000 80B5     		push	{r7, lr}
 659              		.cfi_def_cfa_offset 8
 660              		.cfi_offset 7, -8
 661              		.cfi_offset 14, -4
 662 0002 00AF     		add	r7, sp, #0
 663              		.cfi_def_cfa_register 7
 315:..\Setup/JLINKMEM_Process.c ****   if (TX_CNT == 0) {        /* Can we send data? */
 664              		.loc 1 315 0
 665 0004 124B     		ldr	r3, .L50
 666 0006 1B68     		ldr	r3, [r3]
 667 0008 163B     		subs	r3, r3, #22
 668 000a 1B78     		ldrb	r3, [r3]
 669 000c DBB2     		uxtb	r3, r3
 670 000e 002B     		cmp	r3, #0
 671 0010 1CD1     		bne	.L49
 316:..\Setup/JLINKMEM_Process.c ****     _StopTimer();
 672              		.loc 1 316 0
 673 0012 FFF7FEFF 		bl	_StopTimer
 317:..\Setup/JLINKMEM_Process.c ****     if (_TxIsPending) {
 674              		.loc 1 317 0
 675 0016 0F4B     		ldr	r3, .L50+4
 676 0018 1B68     		ldr	r3, [r3]
 677 001a 002B     		cmp	r3, #0
 678 001c 08D0     		beq	.L48
 318:..\Setup/JLINKMEM_Process.c ****       _FillTxBuf(_TxPendingData);
 679              		.loc 1 318 0
 680 001e 0E4B     		ldr	r3, .L50+8
 681 0020 1B78     		ldrb	r3, [r3]	@ zero_extendqisi2
 682 0022 1846     		mov	r0, r3
 683 0024 FFF7FEFF 		bl	_FillTxBuf
 319:..\Setup/JLINKMEM_Process.c ****       _TxIsPending = 0;
 684              		.loc 1 319 0
 685 0028 0A4B     		ldr	r3, .L50+4
 686 002a 0022     		movs	r2, #0
 687 002c 1A60     		str	r2, [r3]
 320:..\Setup/JLINKMEM_Process.c ****     } else {
 321:..\Setup/JLINKMEM_Process.c ****       if (_pfOnTx != NULL) {
 322:..\Setup/JLINKMEM_Process.c ****         if (_LockTxBuf()) {
 323:..\Setup/JLINKMEM_Process.c ****           _pfOnTx();
 324:..\Setup/JLINKMEM_Process.c ****           _UnlockTxBuf();
 325:..\Setup/JLINKMEM_Process.c ****         }
 326:..\Setup/JLINKMEM_Process.c ****       }
 327:..\Setup/JLINKMEM_Process.c ****     }
 328:..\Setup/JLINKMEM_Process.c ****   }
 329:..\Setup/JLINKMEM_Process.c **** }
 688              		.loc 1 329 0
 689 002e 0DE0     		b	.L49
 690              	.L48:
 321:..\Setup/JLINKMEM_Process.c ****         if (_LockTxBuf()) {
 691              		.loc 1 321 0
 692 0030 0A4B     		ldr	r3, .L50+12
ARM GAS  C:\Users\IroTeam\AppData\Local\Temp\ccm3QAgb.s 			page 19


 693 0032 1B68     		ldr	r3, [r3]
 694 0034 002B     		cmp	r3, #0
 695 0036 09D0     		beq	.L49
 322:..\Setup/JLINKMEM_Process.c ****           _pfOnTx();
 696              		.loc 1 322 0
 697 0038 FFF7FEFF 		bl	_LockTxBuf
 698 003c 0346     		mov	r3, r0
 699 003e 002B     		cmp	r3, #0
 700 0040 04D0     		beq	.L49
 323:..\Setup/JLINKMEM_Process.c ****           _UnlockTxBuf();
 701              		.loc 1 323 0
 702 0042 064B     		ldr	r3, .L50+12
 703 0044 1B68     		ldr	r3, [r3]
 704 0046 9847     		blx	r3
 324:..\Setup/JLINKMEM_Process.c ****         }
 705              		.loc 1 324 0
 706 0048 FFF7FEFF 		bl	_UnlockTxBuf
 707              	.L49:
 708              		.loc 1 329 0
 709 004c 00BF     		nop
 710 004e 80BD     		pop	{r7, pc}
 711              	.L51:
 712              		.align	2
 713              	.L50:
 714 0050 00000000 		.word	_BaseAddr
 715 0054 04000000 		.word	_TxIsPending
 716 0058 08000000 		.word	_TxPendingData
 717 005c 00000000 		.word	_pfOnTx
 718              		.cfi_endproc
 719              	.LFE8:
 720              		.size	_Send, .-_Send
 721              		.section	.text.JLINKMEM_Process,"ax",%progbits
 722              		.align	2
 723              		.global	JLINKMEM_Process
 724              		.thumb
 725              		.thumb_func
 726              		.type	JLINKMEM_Process, %function
 727              	JLINKMEM_Process:
 728              	.LFB9:
 330:..\Setup/JLINKMEM_Process.c **** 
 331:..\Setup/JLINKMEM_Process.c **** /*********************************************************************
 332:..\Setup/JLINKMEM_Process.c **** *
 333:..\Setup/JLINKMEM_Process.c **** *       Public code
 334:..\Setup/JLINKMEM_Process.c **** *
 335:..\Setup/JLINKMEM_Process.c **** **********************************************************************
 336:..\Setup/JLINKMEM_Process.c **** */
 337:..\Setup/JLINKMEM_Process.c **** 
 338:..\Setup/JLINKMEM_Process.c **** /*********************************************************************
 339:..\Setup/JLINKMEM_Process.c **** *
 340:..\Setup/JLINKMEM_Process.c **** *       JLINKMEM_Process
 341:..\Setup/JLINKMEM_Process.c **** *
 342:..\Setup/JLINKMEM_Process.c **** *  Function description
 343:..\Setup/JLINKMEM_Process.c **** *    This function should be called more or less regularily to allow
 344:..\Setup/JLINKMEM_Process.c **** *    memory reads while the application progam is running.
 345:..\Setup/JLINKMEM_Process.c **** *    The more often it is called, the higher the transfer speed.
 346:..\Setup/JLINKMEM_Process.c **** */
 347:..\Setup/JLINKMEM_Process.c **** void JLINKMEM_Process(void) {
ARM GAS  C:\Users\IroTeam\AppData\Local\Temp\ccm3QAgb.s 			page 20


 729              		.loc 1 347 0
 730              		.cfi_startproc
 731              		@ args = 0, pretend = 0, frame = 0
 732              		@ frame_needed = 1, uses_anonymous_args = 0
 733 0000 80B5     		push	{r7, lr}
 734              		.cfi_def_cfa_offset 8
 735              		.cfi_offset 7, -8
 736              		.cfi_offset 14, -4
 737 0002 00AF     		add	r7, sp, #0
 738              		.cfi_def_cfa_register 7
 348:..\Setup/JLINKMEM_Process.c ****   if (OS_IsRunning()) {         /* No communication until the embOS starts */
 739              		.loc 1 348 0
 740 0004 FFF7FEFF 		bl	OS_IsRunning
 741 0008 0346     		mov	r3, r0
 742 000a 002B     		cmp	r3, #0
 743 000c 3AD0     		beq	.L57
 349:..\Setup/JLINKMEM_Process.c ****     if (!_IsInited) {
 744              		.loc 1 349 0
 745 000e 1E4B     		ldr	r3, .L58
 746 0010 1B68     		ldr	r3, [r3]
 747 0012 002B     		cmp	r3, #0
 748 0014 04D1     		bne	.L54
 350:..\Setup/JLINKMEM_Process.c ****       _Init();
 749              		.loc 1 350 0
 750 0016 FFF7FEFF 		bl	_Init
 351:..\Setup/JLINKMEM_Process.c ****       _IsInited = 1;
 751              		.loc 1 351 0
 752 001a 1B4B     		ldr	r3, .L58
 753 001c 0122     		movs	r2, #1
 754 001e 1A60     		str	r2, [r3]
 755              	.L54:
 352:..\Setup/JLINKMEM_Process.c ****     }
 353:..\Setup/JLINKMEM_Process.c ****     if (HOST_CON) {             /* Do nothing until the host connects to us */
 756              		.loc 1 353 0
 757 0020 1A4B     		ldr	r3, .L58+4
 758 0022 1B68     		ldr	r3, [r3]
 759 0024 173B     		subs	r3, r3, #23
 760 0026 1B78     		ldrb	r3, [r3]
 761 0028 DBB2     		uxtb	r3, r3
 762 002a 002B     		cmp	r3, #0
 763 002c 2AD0     		beq	.L57
 354:..\Setup/JLINKMEM_Process.c ****       //
 355:..\Setup/JLINKMEM_Process.c ****       // Handle Timeout timer
 356:..\Setup/JLINKMEM_Process.c ****       //
 357:..\Setup/JLINKMEM_Process.c ****       if (_TxTimeoutTimer != 0) {
 764              		.loc 1 357 0
 765 002e 184B     		ldr	r3, .L58+8
 766 0030 1B68     		ldr	r3, [r3]
 767 0032 002B     		cmp	r3, #0
 768 0034 0BD0     		beq	.L55
 358:..\Setup/JLINKMEM_Process.c ****         _TxTimeoutTimer--;
 769              		.loc 1 358 0
 770 0036 164B     		ldr	r3, .L58+8
 771 0038 1B68     		ldr	r3, [r3]
 772 003a 013B     		subs	r3, r3, #1
 773 003c 144A     		ldr	r2, .L58+8
 774 003e 1360     		str	r3, [r2]
ARM GAS  C:\Users\IroTeam\AppData\Local\Temp\ccm3QAgb.s 			page 21


 359:..\Setup/JLINKMEM_Process.c ****         if (_TxTimeoutTimer == 0) {
 775              		.loc 1 359 0
 776 0040 134B     		ldr	r3, .L58+8
 777 0042 1B68     		ldr	r3, [r3]
 778 0044 002B     		cmp	r3, #0
 779 0046 02D1     		bne	.L55
 360:..\Setup/JLINKMEM_Process.c ****           _TxTimeout = 1;
 780              		.loc 1 360 0
 781 0048 124B     		ldr	r3, .L58+12
 782 004a 0122     		movs	r2, #1
 783 004c 1A60     		str	r2, [r3]
 784              	.L55:
 361:..\Setup/JLINKMEM_Process.c ****         }
 362:..\Setup/JLINKMEM_Process.c ****       }
 363:..\Setup/JLINKMEM_Process.c **** 
 364:..\Setup/JLINKMEM_Process.c ****       if (_TxTimeout) {
 785              		.loc 1 364 0
 786 004e 114B     		ldr	r3, .L58+12
 787 0050 1B68     		ldr	r3, [r3]
 788 0052 002B     		cmp	r3, #0
 789 0054 12D0     		beq	.L56
 365:..\Setup/JLINKMEM_Process.c ****         HOST_CON = 0;
 790              		.loc 1 365 0
 791 0056 0D4B     		ldr	r3, .L58+4
 792 0058 1B68     		ldr	r3, [r3]
 793 005a 173B     		subs	r3, r3, #23
 794 005c 0022     		movs	r2, #0
 795 005e 1A70     		strb	r2, [r3]
 366:..\Setup/JLINKMEM_Process.c ****         _TxTimeout = 0;
 796              		.loc 1 366 0
 797 0060 0C4B     		ldr	r3, .L58+12
 798 0062 0022     		movs	r2, #0
 799 0064 1A60     		str	r2, [r3]
 367:..\Setup/JLINKMEM_Process.c ****         _TxIsPending = 0;
 800              		.loc 1 367 0
 801 0066 0C4B     		ldr	r3, .L58+16
 802 0068 0022     		movs	r2, #0
 803 006a 1A60     		str	r2, [r3]
 368:..\Setup/JLINKMEM_Process.c ****         _DropTxData();
 804              		.loc 1 368 0
 805 006c FFF7FEFF 		bl	_DropTxData
 369:..\Setup/JLINKMEM_Process.c ****         RX_CNT = 0;               /* Drop all bytes form receiving buffer. */
 806              		.loc 1 369 0
 807 0070 064B     		ldr	r3, .L58+4
 808 0072 1B68     		ldr	r3, [r3]
 809 0074 183B     		subs	r3, r3, #24
 810 0076 0022     		movs	r2, #0
 811 0078 1A70     		strb	r2, [r3]
 370:..\Setup/JLINKMEM_Process.c ****       } else {
 371:..\Setup/JLINKMEM_Process.c ****         _Receive();
 372:..\Setup/JLINKMEM_Process.c ****         _Send();
 373:..\Setup/JLINKMEM_Process.c ****       }
 374:..\Setup/JLINKMEM_Process.c ****     }
 375:..\Setup/JLINKMEM_Process.c ****   }
 376:..\Setup/JLINKMEM_Process.c **** }
 812              		.loc 1 376 0
 813 007a 03E0     		b	.L57
ARM GAS  C:\Users\IroTeam\AppData\Local\Temp\ccm3QAgb.s 			page 22


 814              	.L56:
 371:..\Setup/JLINKMEM_Process.c ****         _Send();
 815              		.loc 1 371 0
 816 007c FFF7FEFF 		bl	_Receive
 372:..\Setup/JLINKMEM_Process.c ****       }
 817              		.loc 1 372 0
 818 0080 FFF7FEFF 		bl	_Send
 819              	.L57:
 820              		.loc 1 376 0
 821 0084 00BF     		nop
 822 0086 80BD     		pop	{r7, pc}
 823              	.L59:
 824              		.align	2
 825              	.L58:
 826 0088 0C000000 		.word	_IsInited
 827 008c 00000000 		.word	_BaseAddr
 828 0090 1C000000 		.word	_TxTimeoutTimer
 829 0094 18000000 		.word	_TxTimeout
 830 0098 04000000 		.word	_TxIsPending
 831              		.cfi_endproc
 832              	.LFE9:
 833              		.size	JLINKMEM_Process, .-JLINKMEM_Process
 834              		.section	.text.JLINKMEM_SendChar,"ax",%progbits
 835              		.align	2
 836              		.global	JLINKMEM_SendChar
 837              		.thumb
 838              		.thumb_func
 839              		.type	JLINKMEM_SendChar, %function
 840              	JLINKMEM_SendChar:
 841              	.LFB10:
 377:..\Setup/JLINKMEM_Process.c **** 
 378:..\Setup/JLINKMEM_Process.c **** /*********************************************************************
 379:..\Setup/JLINKMEM_Process.c **** *
 380:..\Setup/JLINKMEM_Process.c **** *       JLINKMEM_SendChar
 381:..\Setup/JLINKMEM_Process.c **** *
 382:..\Setup/JLINKMEM_Process.c **** *  Function description
 383:..\Setup/JLINKMEM_Process.c **** *    Send data to the host. This function is non-blocking.
 384:..\Setup/JLINKMEM_Process.c **** *    If data can not be send it is stored in a buffer
 385:..\Setup/JLINKMEM_Process.c **** *    and sent later, when the handler is called.
 386:..\Setup/JLINKMEM_Process.c **** */
 387:..\Setup/JLINKMEM_Process.c **** void JLINKMEM_SendChar(U8 Data) {
 842              		.loc 1 387 0
 843              		.cfi_startproc
 844              		@ args = 0, pretend = 0, frame = 8
 845              		@ frame_needed = 1, uses_anonymous_args = 0
 846 0000 80B5     		push	{r7, lr}
 847              		.cfi_def_cfa_offset 8
 848              		.cfi_offset 7, -8
 849              		.cfi_offset 14, -4
 850 0002 82B0     		sub	sp, sp, #8
 851              		.cfi_def_cfa_offset 16
 852 0004 00AF     		add	r7, sp, #0
 853              		.cfi_def_cfa_register 7
 854 0006 0346     		mov	r3, r0
 855 0008 FB71     		strb	r3, [r7, #7]
 388:..\Setup/JLINKMEM_Process.c ****   if (OS_IsRunning()) {         /* No communication until the embOS starts */
 856              		.loc 1 388 0
ARM GAS  C:\Users\IroTeam\AppData\Local\Temp\ccm3QAgb.s 			page 23


 857 000a FFF7FEFF 		bl	OS_IsRunning
 858 000e 0346     		mov	r3, r0
 859 0010 002B     		cmp	r3, #0
 860 0012 37D0     		beq	.L61
 389:..\Setup/JLINKMEM_Process.c ****     if (!_IsInited) {
 861              		.loc 1 389 0
 862 0014 204B     		ldr	r3, .L71
 863 0016 1B68     		ldr	r3, [r3]
 864 0018 002B     		cmp	r3, #0
 865 001a 04D1     		bne	.L62
 390:..\Setup/JLINKMEM_Process.c ****       _Init();
 866              		.loc 1 390 0
 867 001c FFF7FEFF 		bl	_Init
 391:..\Setup/JLINKMEM_Process.c ****       _IsInited = 1;
 868              		.loc 1 391 0
 869 0020 1D4B     		ldr	r3, .L71
 870 0022 0122     		movs	r2, #1
 871 0024 1A60     		str	r2, [r3]
 872              	.L62:
 392:..\Setup/JLINKMEM_Process.c ****     }
 393:..\Setup/JLINKMEM_Process.c ****     if (HOST_CON) {             /* Do nothing until embOSView connects to us */
 873              		.loc 1 393 0
 874 0026 1D4B     		ldr	r3, .L71+4
 875 0028 1B68     		ldr	r3, [r3]
 876 002a 173B     		subs	r3, r3, #23
 877 002c 1B78     		ldrb	r3, [r3]
 878 002e DBB2     		uxtb	r3, r3
 879 0030 002B     		cmp	r3, #0
 880 0032 20D0     		beq	.L63
 394:..\Setup/JLINKMEM_Process.c ****       if (TX_CNT == 0) {
 881              		.loc 1 394 0
 882 0034 194B     		ldr	r3, .L71+4
 883 0036 1B68     		ldr	r3, [r3]
 884 0038 163B     		subs	r3, r3, #22
 885 003a 1B78     		ldrb	r3, [r3]
 886 003c DBB2     		uxtb	r3, r3
 887 003e 002B     		cmp	r3, #0
 888 0040 12D1     		bne	.L64
 395:..\Setup/JLINKMEM_Process.c ****         if (_LockTxBuf()) {
 889              		.loc 1 395 0
 890 0042 FFF7FEFF 		bl	_LockTxBuf
 891 0046 0346     		mov	r3, r0
 892 0048 002B     		cmp	r3, #0
 893 004a 06D0     		beq	.L65
 396:..\Setup/JLINKMEM_Process.c ****           _FillTxBuf(Data);
 894              		.loc 1 396 0
 895 004c FB79     		ldrb	r3, [r7, #7]	@ zero_extendqisi2
 896 004e 1846     		mov	r0, r3
 897 0050 FFF7FEFF 		bl	_FillTxBuf
 397:..\Setup/JLINKMEM_Process.c ****           _UnlockTxBuf();
 898              		.loc 1 397 0
 899 0054 FFF7FEFF 		bl	_UnlockTxBuf
 398:..\Setup/JLINKMEM_Process.c ****         } else {
 399:..\Setup/JLINKMEM_Process.c ****           _TxIsPending = 1;
 400:..\Setup/JLINKMEM_Process.c ****           _TxPendingData = Data;
 401:..\Setup/JLINKMEM_Process.c ****         }
 402:..\Setup/JLINKMEM_Process.c ****       } else {
ARM GAS  C:\Users\IroTeam\AppData\Local\Temp\ccm3QAgb.s 			page 24


 403:..\Setup/JLINKMEM_Process.c ****         _TxIsPending = 1;
 404:..\Setup/JLINKMEM_Process.c ****         _TxPendingData = Data;
 405:..\Setup/JLINKMEM_Process.c ****       }
 406:..\Setup/JLINKMEM_Process.c ****     } else {
 407:..\Setup/JLINKMEM_Process.c ****       //
 408:..\Setup/JLINKMEM_Process.c ****       // Host not connected, drop characters
 409:..\Setup/JLINKMEM_Process.c ****       //
 410:..\Setup/JLINKMEM_Process.c ****       OS_TASK_EnterRegion();
 411:..\Setup/JLINKMEM_Process.c ****       OS_COM_ClearTxActive();
 412:..\Setup/JLINKMEM_Process.c ****       OS_TASK_LeaveRegion();
 413:..\Setup/JLINKMEM_Process.c ****     }
 414:..\Setup/JLINKMEM_Process.c ****   } else {
 415:..\Setup/JLINKMEM_Process.c ****     //
 416:..\Setup/JLINKMEM_Process.c ****     // embOS not started, drop characters
 417:..\Setup/JLINKMEM_Process.c ****     //
 418:..\Setup/JLINKMEM_Process.c ****     OS_TASK_EnterRegion();
 419:..\Setup/JLINKMEM_Process.c ****     OS_COM_ClearTxActive();
 420:..\Setup/JLINKMEM_Process.c ****     OS_TASK_LeaveRegion();
 421:..\Setup/JLINKMEM_Process.c ****   }
 422:..\Setup/JLINKMEM_Process.c **** }
 900              		.loc 1 422 0
 901 0058 1AE0     		b	.L70
 902              	.L65:
 399:..\Setup/JLINKMEM_Process.c ****           _TxPendingData = Data;
 903              		.loc 1 399 0
 904 005a 114B     		ldr	r3, .L71+8
 905 005c 0122     		movs	r2, #1
 906 005e 1A60     		str	r2, [r3]
 400:..\Setup/JLINKMEM_Process.c ****         }
 907              		.loc 1 400 0
 908 0060 104A     		ldr	r2, .L71+12
 909 0062 FB79     		ldrb	r3, [r7, #7]
 910 0064 1370     		strb	r3, [r2]
 911              		.loc 1 422 0
 912 0066 13E0     		b	.L70
 913              	.L64:
 403:..\Setup/JLINKMEM_Process.c ****         _TxPendingData = Data;
 914              		.loc 1 403 0
 915 0068 0D4B     		ldr	r3, .L71+8
 916 006a 0122     		movs	r2, #1
 917 006c 1A60     		str	r2, [r3]
 404:..\Setup/JLINKMEM_Process.c ****       }
 918              		.loc 1 404 0
 919 006e 0D4A     		ldr	r2, .L71+12
 920 0070 FB79     		ldrb	r3, [r7, #7]
 921 0072 1370     		strb	r3, [r2]
 922              		.loc 1 422 0
 923 0074 0CE0     		b	.L70
 924              	.L63:
 410:..\Setup/JLINKMEM_Process.c ****       OS_COM_ClearTxActive();
 925              		.loc 1 410 0
 926 0076 FFF7FEFF 		bl	OS_EnterRegionFunc
 411:..\Setup/JLINKMEM_Process.c ****       OS_TASK_LeaveRegion();
 927              		.loc 1 411 0
 928 007a FFF7FEFF 		bl	OS_COM_ClearTxActive
 412:..\Setup/JLINKMEM_Process.c ****     }
 929              		.loc 1 412 0
ARM GAS  C:\Users\IroTeam\AppData\Local\Temp\ccm3QAgb.s 			page 25


 930 007e FFF7FEFF 		bl	OS_TASK_LeaveRegion
 931              		.loc 1 422 0
 932 0082 05E0     		b	.L70
 933              	.L61:
 418:..\Setup/JLINKMEM_Process.c ****     OS_COM_ClearTxActive();
 934              		.loc 1 418 0
 935 0084 FFF7FEFF 		bl	OS_EnterRegionFunc
 419:..\Setup/JLINKMEM_Process.c ****     OS_TASK_LeaveRegion();
 936              		.loc 1 419 0
 937 0088 FFF7FEFF 		bl	OS_COM_ClearTxActive
 420:..\Setup/JLINKMEM_Process.c ****   }
 938              		.loc 1 420 0
 939 008c FFF7FEFF 		bl	OS_TASK_LeaveRegion
 940              	.L70:
 941              		.loc 1 422 0
 942 0090 00BF     		nop
 943 0092 0837     		adds	r7, r7, #8
 944              		.cfi_def_cfa_offset 8
 945 0094 BD46     		mov	sp, r7
 946              		.cfi_def_cfa_register 13
 947              		@ sp needed
 948 0096 80BD     		pop	{r7, pc}
 949              	.L72:
 950              		.align	2
 951              	.L71:
 952 0098 0C000000 		.word	_IsInited
 953 009c 00000000 		.word	_BaseAddr
 954 00a0 04000000 		.word	_TxIsPending
 955 00a4 08000000 		.word	_TxPendingData
 956              		.cfi_endproc
 957              	.LFE10:
 958              		.size	JLINKMEM_SendChar, .-JLINKMEM_SendChar
 959              		.section	.text.JLINKMEM_SetpfOnRx,"ax",%progbits
 960              		.align	2
 961              		.global	JLINKMEM_SetpfOnRx
 962              		.thumb
 963              		.thumb_func
 964              		.type	JLINKMEM_SetpfOnRx, %function
 965              	JLINKMEM_SetpfOnRx:
 966              	.LFB11:
 423:..\Setup/JLINKMEM_Process.c **** 
 424:..\Setup/JLINKMEM_Process.c **** /*********************************************************************
 425:..\Setup/JLINKMEM_Process.c **** *
 426:..\Setup/JLINKMEM_Process.c **** *       JLINKMEM_SetpfOnRx
 427:..\Setup/JLINKMEM_Process.c **** */
 428:..\Setup/JLINKMEM_Process.c **** void JLINKMEM_SetpfOnRx(void (* pf)(U8 Data)) {
 967              		.loc 1 428 0
 968              		.cfi_startproc
 969              		@ args = 0, pretend = 0, frame = 8
 970              		@ frame_needed = 1, uses_anonymous_args = 0
 971              		@ link register save eliminated.
 972 0000 80B4     		push	{r7}
 973              		.cfi_def_cfa_offset 4
 974              		.cfi_offset 7, -4
 975 0002 83B0     		sub	sp, sp, #12
 976              		.cfi_def_cfa_offset 16
 977 0004 00AF     		add	r7, sp, #0
ARM GAS  C:\Users\IroTeam\AppData\Local\Temp\ccm3QAgb.s 			page 26


 978              		.cfi_def_cfa_register 7
 979 0006 7860     		str	r0, [r7, #4]
 429:..\Setup/JLINKMEM_Process.c ****   _pfOnRx = pf;
 980              		.loc 1 429 0
 981 0008 034A     		ldr	r2, .L74
 982 000a 7B68     		ldr	r3, [r7, #4]
 983 000c 1360     		str	r3, [r2]
 430:..\Setup/JLINKMEM_Process.c **** }
 984              		.loc 1 430 0
 985 000e 00BF     		nop
 986 0010 0C37     		adds	r7, r7, #12
 987              		.cfi_def_cfa_offset 4
 988 0012 BD46     		mov	sp, r7
 989              		.cfi_def_cfa_register 13
 990              		@ sp needed
 991 0014 80BC     		pop	{r7}
 992              		.cfi_restore 7
 993              		.cfi_def_cfa_offset 0
 994 0016 7047     		bx	lr
 995              	.L75:
 996              		.align	2
 997              	.L74:
 998 0018 00000000 		.word	_pfOnRx
 999              		.cfi_endproc
 1000              	.LFE11:
 1001              		.size	JLINKMEM_SetpfOnRx, .-JLINKMEM_SetpfOnRx
 1002              		.section	.text.JLINKMEM_SetpfOnTx,"ax",%progbits
 1003              		.align	2
 1004              		.global	JLINKMEM_SetpfOnTx
 1005              		.thumb
 1006              		.thumb_func
 1007              		.type	JLINKMEM_SetpfOnTx, %function
 1008              	JLINKMEM_SetpfOnTx:
 1009              	.LFB12:
 431:..\Setup/JLINKMEM_Process.c **** 
 432:..\Setup/JLINKMEM_Process.c **** /*********************************************************************
 433:..\Setup/JLINKMEM_Process.c **** *
 434:..\Setup/JLINKMEM_Process.c **** *       JLINKMEM_SetpfOnTx
 435:..\Setup/JLINKMEM_Process.c **** */
 436:..\Setup/JLINKMEM_Process.c **** void JLINKMEM_SetpfOnTx(U8 (* pf)(void)) {
 1010              		.loc 1 436 0
 1011              		.cfi_startproc
 1012              		@ args = 0, pretend = 0, frame = 8
 1013              		@ frame_needed = 1, uses_anonymous_args = 0
 1014              		@ link register save eliminated.
 1015 0000 80B4     		push	{r7}
 1016              		.cfi_def_cfa_offset 4
 1017              		.cfi_offset 7, -4
 1018 0002 83B0     		sub	sp, sp, #12
 1019              		.cfi_def_cfa_offset 16
 1020 0004 00AF     		add	r7, sp, #0
 1021              		.cfi_def_cfa_register 7
 1022 0006 7860     		str	r0, [r7, #4]
 437:..\Setup/JLINKMEM_Process.c ****   _pfOnTx = pf;
 1023              		.loc 1 437 0
 1024 0008 034A     		ldr	r2, .L77
 1025 000a 7B68     		ldr	r3, [r7, #4]
ARM GAS  C:\Users\IroTeam\AppData\Local\Temp\ccm3QAgb.s 			page 27


 1026 000c 1360     		str	r3, [r2]
 438:..\Setup/JLINKMEM_Process.c **** }
 1027              		.loc 1 438 0
 1028 000e 00BF     		nop
 1029 0010 0C37     		adds	r7, r7, #12
 1030              		.cfi_def_cfa_offset 4
 1031 0012 BD46     		mov	sp, r7
 1032              		.cfi_def_cfa_register 13
 1033              		@ sp needed
 1034 0014 80BC     		pop	{r7}
 1035              		.cfi_restore 7
 1036              		.cfi_def_cfa_offset 0
 1037 0016 7047     		bx	lr
 1038              	.L78:
 1039              		.align	2
 1040              	.L77:
 1041 0018 00000000 		.word	_pfOnTx
 1042              		.cfi_endproc
 1043              	.LFE12:
 1044              		.size	JLINKMEM_SetpfOnTx, .-JLINKMEM_SetpfOnTx
 1045              		.section	.text.JLINKMEM_SetpfGetNextChar,"ax",%progbits
 1046              		.align	2
 1047              		.global	JLINKMEM_SetpfGetNextChar
 1048              		.thumb
 1049              		.thumb_func
 1050              		.type	JLINKMEM_SetpfGetNextChar, %function
 1051              	JLINKMEM_SetpfGetNextChar:
 1052              	.LFB13:
 439:..\Setup/JLINKMEM_Process.c **** 
 440:..\Setup/JLINKMEM_Process.c **** /*********************************************************************
 441:..\Setup/JLINKMEM_Process.c **** *
 442:..\Setup/JLINKMEM_Process.c **** *       JLINKMEM_SetpfGetNextChar
 443:..\Setup/JLINKMEM_Process.c **** */
 444:..\Setup/JLINKMEM_Process.c **** void JLINKMEM_SetpfGetNextChar(OS_INT (* pf)(void)) {
 1053              		.loc 1 444 0
 1054              		.cfi_startproc
 1055              		@ args = 0, pretend = 0, frame = 8
 1056              		@ frame_needed = 1, uses_anonymous_args = 0
 1057              		@ link register save eliminated.
 1058 0000 80B4     		push	{r7}
 1059              		.cfi_def_cfa_offset 4
 1060              		.cfi_offset 7, -4
 1061 0002 83B0     		sub	sp, sp, #12
 1062              		.cfi_def_cfa_offset 16
 1063 0004 00AF     		add	r7, sp, #0
 1064              		.cfi_def_cfa_register 7
 1065 0006 7860     		str	r0, [r7, #4]
 445:..\Setup/JLINKMEM_Process.c ****   _pfGetNextChar = pf;
 1066              		.loc 1 445 0
 1067 0008 034A     		ldr	r2, .L80
 1068 000a 7B68     		ldr	r3, [r7, #4]
 1069 000c 1360     		str	r3, [r2]
 446:..\Setup/JLINKMEM_Process.c **** }
 1070              		.loc 1 446 0
 1071 000e 00BF     		nop
 1072 0010 0C37     		adds	r7, r7, #12
 1073              		.cfi_def_cfa_offset 4
ARM GAS  C:\Users\IroTeam\AppData\Local\Temp\ccm3QAgb.s 			page 28


 1074 0012 BD46     		mov	sp, r7
 1075              		.cfi_def_cfa_register 13
 1076              		@ sp needed
 1077 0014 80BC     		pop	{r7}
 1078              		.cfi_restore 7
 1079              		.cfi_def_cfa_offset 0
 1080 0016 7047     		bx	lr
 1081              	.L81:
 1082              		.align	2
 1083              	.L80:
 1084 0018 00000000 		.word	_pfGetNextChar
 1085              		.cfi_endproc
 1086              	.LFE13:
 1087              		.size	JLINKMEM_SetpfGetNextChar, .-JLINKMEM_SetpfGetNextChar
 1088              		.text
 1089              	.Letext0:
 1090              		.file 2 "..\\..\\..\\..\\Inc/RTOS.h"