ARM GAS  C:\Users\IroTeam\AppData\Local\Temp\ccCBtlid.s 			page 1


   1              		.syntax unified
   2              		.cpu cortex-m3
   3              		.fpu softvfp
   4              		.eabi_attribute 20, 1
   5              		.eabi_attribute 21, 1
   6              		.eabi_attribute 23, 3
   7              		.eabi_attribute 24, 1
   8              		.eabi_attribute 25, 1
   9              		.eabi_attribute 26, 1
  10              		.eabi_attribute 30, 6
  11              		.eabi_attribute 34, 1
  12              		.eabi_attribute 18, 4
  13              		.thumb
  14              		.syntax unified
  15              		.file	"LED_RGB.c"
  16              		.text
  17              	.Ltext0:
  18              		.cfi_sections	.debug_frame
  19              		.section	.text.LED_RGB_Write,"ax",%progbits
  20              		.align	2
  21              		.global	LED_RGB_Write
  22              		.thumb
  23              		.thumb_func
  24              		.type	LED_RGB_Write, %function
  25              	LED_RGB_Write:
  26              	.LFB0:
  27              		.file 1 "Generated_Source\\PSoC5\\LED_RGB.c"
   1:Generated_Source\PSoC5/LED_RGB.c **** /*******************************************************************************
   2:Generated_Source\PSoC5/LED_RGB.c **** * File Name: LED_RGB.c  
   3:Generated_Source\PSoC5/LED_RGB.c **** * Version 2.20
   4:Generated_Source\PSoC5/LED_RGB.c **** *
   5:Generated_Source\PSoC5/LED_RGB.c **** * Description:
   6:Generated_Source\PSoC5/LED_RGB.c **** *  This file contains API to enable firmware control of a Pins component.
   7:Generated_Source\PSoC5/LED_RGB.c **** *
   8:Generated_Source\PSoC5/LED_RGB.c **** * Note:
   9:Generated_Source\PSoC5/LED_RGB.c **** *
  10:Generated_Source\PSoC5/LED_RGB.c **** ********************************************************************************
  11:Generated_Source\PSoC5/LED_RGB.c **** * Copyright 2008-2015, Cypress Semiconductor Corporation.  All rights reserved.
  12:Generated_Source\PSoC5/LED_RGB.c **** * You may use this file only in accordance with the license, terms, conditions, 
  13:Generated_Source\PSoC5/LED_RGB.c **** * disclaimers, and limitations in the end user license agreement accompanying 
  14:Generated_Source\PSoC5/LED_RGB.c **** * the software package with which this file was provided.
  15:Generated_Source\PSoC5/LED_RGB.c **** *******************************************************************************/
  16:Generated_Source\PSoC5/LED_RGB.c **** 
  17:Generated_Source\PSoC5/LED_RGB.c **** #include "cytypes.h"
  18:Generated_Source\PSoC5/LED_RGB.c **** #include "LED_RGB.h"
  19:Generated_Source\PSoC5/LED_RGB.c **** 
  20:Generated_Source\PSoC5/LED_RGB.c **** /* APIs are not generated for P15[7:6] on PSoC 5 */
  21:Generated_Source\PSoC5/LED_RGB.c **** #if !(CY_PSOC5A &&\
  22:Generated_Source\PSoC5/LED_RGB.c **** 	 LED_RGB__PORT == 15 && ((LED_RGB__MASK & 0xC0) != 0))
  23:Generated_Source\PSoC5/LED_RGB.c **** 
  24:Generated_Source\PSoC5/LED_RGB.c **** 
  25:Generated_Source\PSoC5/LED_RGB.c **** /*******************************************************************************
  26:Generated_Source\PSoC5/LED_RGB.c **** * Function Name: LED_RGB_Write
  27:Generated_Source\PSoC5/LED_RGB.c **** ****************************************************************************//**
  28:Generated_Source\PSoC5/LED_RGB.c **** *
  29:Generated_Source\PSoC5/LED_RGB.c **** * \brief Writes the value to the physical port (data output register), masking
  30:Generated_Source\PSoC5/LED_RGB.c **** *  and shifting the bits appropriately. 
ARM GAS  C:\Users\IroTeam\AppData\Local\Temp\ccCBtlid.s 			page 2


  31:Generated_Source\PSoC5/LED_RGB.c **** *
  32:Generated_Source\PSoC5/LED_RGB.c **** * The data output register controls the signal applied to the physical pin in 
  33:Generated_Source\PSoC5/LED_RGB.c **** * conjunction with the drive mode parameter. This function avoids changing 
  34:Generated_Source\PSoC5/LED_RGB.c **** * other bits in the port by using the appropriate method (read-modify-write or
  35:Generated_Source\PSoC5/LED_RGB.c **** * bit banding).
  36:Generated_Source\PSoC5/LED_RGB.c **** *
  37:Generated_Source\PSoC5/LED_RGB.c **** * <b>Note</b> This function should not be used on a hardware digital output pin 
  38:Generated_Source\PSoC5/LED_RGB.c **** * as it is driven by the hardware signal attached to it.
  39:Generated_Source\PSoC5/LED_RGB.c **** *
  40:Generated_Source\PSoC5/LED_RGB.c **** * \param value
  41:Generated_Source\PSoC5/LED_RGB.c **** *  Value to write to the component instance.
  42:Generated_Source\PSoC5/LED_RGB.c **** *
  43:Generated_Source\PSoC5/LED_RGB.c **** * \return 
  44:Generated_Source\PSoC5/LED_RGB.c **** *  None 
  45:Generated_Source\PSoC5/LED_RGB.c **** *
  46:Generated_Source\PSoC5/LED_RGB.c **** * \sideeffect
  47:Generated_Source\PSoC5/LED_RGB.c **** *  If you use read-modify-write operations that are not atomic; the Interrupt 
  48:Generated_Source\PSoC5/LED_RGB.c **** *  Service Routines (ISR) can cause corruption of this function. An ISR that 
  49:Generated_Source\PSoC5/LED_RGB.c **** *  interrupts this function and performs writes to the Pins component data 
  50:Generated_Source\PSoC5/LED_RGB.c **** *  register can cause corrupted port data. To avoid this issue, you should 
  51:Generated_Source\PSoC5/LED_RGB.c **** *  either use the Per-Pin APIs (primary method) or disable interrupts around 
  52:Generated_Source\PSoC5/LED_RGB.c **** *  this function.
  53:Generated_Source\PSoC5/LED_RGB.c **** *
  54:Generated_Source\PSoC5/LED_RGB.c **** * \funcusage
  55:Generated_Source\PSoC5/LED_RGB.c **** *  \snippet LED_RGB_SUT.c usage_LED_RGB_Write
  56:Generated_Source\PSoC5/LED_RGB.c **** *******************************************************************************/
  57:Generated_Source\PSoC5/LED_RGB.c **** void LED_RGB_Write(uint8 value)
  58:Generated_Source\PSoC5/LED_RGB.c **** {
  28              		.loc 1 58 0
  29              		.cfi_startproc
  30              		@ args = 0, pretend = 0, frame = 16
  31              		@ frame_needed = 1, uses_anonymous_args = 0
  32              		@ link register save eliminated.
  33 0000 80B4     		push	{r7}
  34              		.cfi_def_cfa_offset 4
  35              		.cfi_offset 7, -4
  36 0002 85B0     		sub	sp, sp, #20
  37              		.cfi_def_cfa_offset 24
  38 0004 00AF     		add	r7, sp, #0
  39              		.cfi_def_cfa_register 7
  40 0006 0346     		mov	r3, r0
  41 0008 FB71     		strb	r3, [r7, #7]
  59:Generated_Source\PSoC5/LED_RGB.c ****     uint8 staticBits = (LED_RGB_DR & (uint8)(~LED_RGB_MASK));
  42              		.loc 1 59 0
  43 000a 0B4B     		ldr	r3, .L2
  44 000c 1B78     		ldrb	r3, [r3]
  45 000e DBB2     		uxtb	r3, r3
  46 0010 23F07003 		bic	r3, r3, #112
  47 0014 FB73     		strb	r3, [r7, #15]
  60:Generated_Source\PSoC5/LED_RGB.c ****     LED_RGB_DR = staticBits | ((uint8)(value << LED_RGB_SHIFT) & LED_RGB_MASK);
  48              		.loc 1 60 0
  49 0016 0849     		ldr	r1, .L2
  50 0018 FB79     		ldrb	r3, [r7, #7]
  51 001a 1B01     		lsls	r3, r3, #4
  52 001c DBB2     		uxtb	r3, r3
  53 001e 03F07003 		and	r3, r3, #112
  54 0022 DAB2     		uxtb	r2, r3
ARM GAS  C:\Users\IroTeam\AppData\Local\Temp\ccCBtlid.s 			page 3


  55 0024 FB7B     		ldrb	r3, [r7, #15]
  56 0026 1343     		orrs	r3, r3, r2
  57 0028 DBB2     		uxtb	r3, r3
  58 002a 0B70     		strb	r3, [r1]
  61:Generated_Source\PSoC5/LED_RGB.c **** }
  59              		.loc 1 61 0
  60 002c 00BF     		nop
  61 002e 1437     		adds	r7, r7, #20
  62              		.cfi_def_cfa_offset 4
  63 0030 BD46     		mov	sp, r7
  64              		.cfi_def_cfa_register 13
  65              		@ sp needed
  66 0032 80BC     		pop	{r7}
  67              		.cfi_restore 7
  68              		.cfi_def_cfa_offset 0
  69 0034 7047     		bx	lr
  70              	.L3:
  71 0036 00BF     		.align	2
  72              	.L2:
  73 0038 00510040 		.word	1073762560
  74              		.cfi_endproc
  75              	.LFE0:
  76              		.size	LED_RGB_Write, .-LED_RGB_Write
  77              		.section	.text.LED_RGB_SetDriveMode,"ax",%progbits
  78              		.align	2
  79              		.global	LED_RGB_SetDriveMode
  80              		.thumb
  81              		.thumb_func
  82              		.type	LED_RGB_SetDriveMode, %function
  83              	LED_RGB_SetDriveMode:
  84              	.LFB1:
  62:Generated_Source\PSoC5/LED_RGB.c **** 
  63:Generated_Source\PSoC5/LED_RGB.c **** 
  64:Generated_Source\PSoC5/LED_RGB.c **** /*******************************************************************************
  65:Generated_Source\PSoC5/LED_RGB.c **** * Function Name: LED_RGB_SetDriveMode
  66:Generated_Source\PSoC5/LED_RGB.c **** ****************************************************************************//**
  67:Generated_Source\PSoC5/LED_RGB.c **** *
  68:Generated_Source\PSoC5/LED_RGB.c **** * \brief Sets the drive mode for each of the Pins component's pins.
  69:Generated_Source\PSoC5/LED_RGB.c **** * 
  70:Generated_Source\PSoC5/LED_RGB.c **** * <b>Note</b> This affects all pins in the Pins component instance. Use the
  71:Generated_Source\PSoC5/LED_RGB.c **** * Per-Pin APIs if you wish to control individual pin's drive modes.
  72:Generated_Source\PSoC5/LED_RGB.c **** *
  73:Generated_Source\PSoC5/LED_RGB.c **** * \param mode
  74:Generated_Source\PSoC5/LED_RGB.c **** *  Mode for the selected signals. Valid options are documented in 
  75:Generated_Source\PSoC5/LED_RGB.c **** *  \ref driveMode.
  76:Generated_Source\PSoC5/LED_RGB.c **** *
  77:Generated_Source\PSoC5/LED_RGB.c **** * \return
  78:Generated_Source\PSoC5/LED_RGB.c **** *  None
  79:Generated_Source\PSoC5/LED_RGB.c **** *
  80:Generated_Source\PSoC5/LED_RGB.c **** * \sideeffect
  81:Generated_Source\PSoC5/LED_RGB.c **** *  If you use read-modify-write operations that are not atomic, the ISR can
  82:Generated_Source\PSoC5/LED_RGB.c **** *  cause corruption of this function. An ISR that interrupts this function 
  83:Generated_Source\PSoC5/LED_RGB.c **** *  and performs writes to the Pins component Drive Mode registers can cause 
  84:Generated_Source\PSoC5/LED_RGB.c **** *  corrupted port data. To avoid this issue, you should either use the Per-Pin
  85:Generated_Source\PSoC5/LED_RGB.c **** *  APIs (primary method) or disable interrupts around this function.
  86:Generated_Source\PSoC5/LED_RGB.c **** *
  87:Generated_Source\PSoC5/LED_RGB.c **** * \funcusage
ARM GAS  C:\Users\IroTeam\AppData\Local\Temp\ccCBtlid.s 			page 4


  88:Generated_Source\PSoC5/LED_RGB.c **** *  \snippet LED_RGB_SUT.c usage_LED_RGB_SetDriveMode
  89:Generated_Source\PSoC5/LED_RGB.c **** *******************************************************************************/
  90:Generated_Source\PSoC5/LED_RGB.c **** void LED_RGB_SetDriveMode(uint8 mode)
  91:Generated_Source\PSoC5/LED_RGB.c **** {
  85              		.loc 1 91 0
  86              		.cfi_startproc
  87              		@ args = 0, pretend = 0, frame = 8
  88              		@ frame_needed = 1, uses_anonymous_args = 0
  89              		@ link register save eliminated.
  90 0000 80B4     		push	{r7}
  91              		.cfi_def_cfa_offset 4
  92              		.cfi_offset 7, -4
  93 0002 83B0     		sub	sp, sp, #12
  94              		.cfi_def_cfa_offset 16
  95 0004 00AF     		add	r7, sp, #0
  96              		.cfi_def_cfa_register 7
  97 0006 0346     		mov	r3, r0
  98 0008 FB71     		strb	r3, [r7, #7]
  92:Generated_Source\PSoC5/LED_RGB.c **** 	CyPins_SetPinDriveMode(LED_RGB_0, mode);
  99              		.loc 1 92 0
 100 000a 1C49     		ldr	r1, .L5
 101 000c 1B4B     		ldr	r3, .L5
 102 000e 1B78     		ldrb	r3, [r3]
 103 0010 DBB2     		uxtb	r3, r3
 104 0012 5BB2     		sxtb	r3, r3
 105 0014 23F00E03 		bic	r3, r3, #14
 106 0018 5AB2     		sxtb	r2, r3
 107 001a 97F90730 		ldrsb	r3, [r7, #7]
 108 001e 03F00E03 		and	r3, r3, #14
 109 0022 5BB2     		sxtb	r3, r3
 110 0024 1343     		orrs	r3, r3, r2
 111 0026 5BB2     		sxtb	r3, r3
 112 0028 DBB2     		uxtb	r3, r3
 113 002a 0B70     		strb	r3, [r1]
  93:Generated_Source\PSoC5/LED_RGB.c **** 	CyPins_SetPinDriveMode(LED_RGB_1, mode);
 114              		.loc 1 93 0
 115 002c 1449     		ldr	r1, .L5+4
 116 002e 144B     		ldr	r3, .L5+4
 117 0030 1B78     		ldrb	r3, [r3]
 118 0032 DBB2     		uxtb	r3, r3
 119 0034 5BB2     		sxtb	r3, r3
 120 0036 23F00E03 		bic	r3, r3, #14
 121 003a 5AB2     		sxtb	r2, r3
 122 003c 97F90730 		ldrsb	r3, [r7, #7]
 123 0040 03F00E03 		and	r3, r3, #14
 124 0044 5BB2     		sxtb	r3, r3
 125 0046 1343     		orrs	r3, r3, r2
 126 0048 5BB2     		sxtb	r3, r3
 127 004a DBB2     		uxtb	r3, r3
 128 004c 0B70     		strb	r3, [r1]
  94:Generated_Source\PSoC5/LED_RGB.c **** 	CyPins_SetPinDriveMode(LED_RGB_2, mode);
 129              		.loc 1 94 0
 130 004e 0D49     		ldr	r1, .L5+8
 131 0050 0C4B     		ldr	r3, .L5+8
 132 0052 1B78     		ldrb	r3, [r3]
 133 0054 DBB2     		uxtb	r3, r3
 134 0056 5BB2     		sxtb	r3, r3
ARM GAS  C:\Users\IroTeam\AppData\Local\Temp\ccCBtlid.s 			page 5


 135 0058 23F00E03 		bic	r3, r3, #14
 136 005c 5AB2     		sxtb	r2, r3
 137 005e 97F90730 		ldrsb	r3, [r7, #7]
 138 0062 03F00E03 		and	r3, r3, #14
 139 0066 5BB2     		sxtb	r3, r3
 140 0068 1343     		orrs	r3, r3, r2
 141 006a 5BB2     		sxtb	r3, r3
 142 006c DBB2     		uxtb	r3, r3
 143 006e 0B70     		strb	r3, [r1]
  95:Generated_Source\PSoC5/LED_RGB.c **** }
 144              		.loc 1 95 0
 145 0070 00BF     		nop
 146 0072 0C37     		adds	r7, r7, #12
 147              		.cfi_def_cfa_offset 4
 148 0074 BD46     		mov	sp, r7
 149              		.cfi_def_cfa_register 13
 150              		@ sp needed
 151 0076 80BC     		pop	{r7}
 152              		.cfi_restore 7
 153              		.cfi_def_cfa_offset 0
 154 0078 7047     		bx	lr
 155              	.L6:
 156 007a 00BF     		.align	2
 157              	.L5:
 158 007c 04500040 		.word	1073762308
 159 0080 05500040 		.word	1073762309
 160 0084 06500040 		.word	1073762310
 161              		.cfi_endproc
 162              	.LFE1:
 163              		.size	LED_RGB_SetDriveMode, .-LED_RGB_SetDriveMode
 164              		.section	.text.LED_RGB_Read,"ax",%progbits
 165              		.align	2
 166              		.global	LED_RGB_Read
 167              		.thumb
 168              		.thumb_func
 169              		.type	LED_RGB_Read, %function
 170              	LED_RGB_Read:
 171              	.LFB2:
  96:Generated_Source\PSoC5/LED_RGB.c **** 
  97:Generated_Source\PSoC5/LED_RGB.c **** 
  98:Generated_Source\PSoC5/LED_RGB.c **** /*******************************************************************************
  99:Generated_Source\PSoC5/LED_RGB.c **** * Function Name: LED_RGB_Read
 100:Generated_Source\PSoC5/LED_RGB.c **** ****************************************************************************//**
 101:Generated_Source\PSoC5/LED_RGB.c **** *
 102:Generated_Source\PSoC5/LED_RGB.c **** * \brief Reads the associated physical port (pin status register) and masks 
 103:Generated_Source\PSoC5/LED_RGB.c **** *  the required bits according to the width and bit position of the component
 104:Generated_Source\PSoC5/LED_RGB.c **** *  instance. 
 105:Generated_Source\PSoC5/LED_RGB.c **** *
 106:Generated_Source\PSoC5/LED_RGB.c **** * The pin's status register returns the current logic level present on the 
 107:Generated_Source\PSoC5/LED_RGB.c **** * physical pin.
 108:Generated_Source\PSoC5/LED_RGB.c **** *
 109:Generated_Source\PSoC5/LED_RGB.c **** * \return 
 110:Generated_Source\PSoC5/LED_RGB.c **** *  The current value for the pins in the component as a right justified number.
 111:Generated_Source\PSoC5/LED_RGB.c **** *
 112:Generated_Source\PSoC5/LED_RGB.c **** * \funcusage
 113:Generated_Source\PSoC5/LED_RGB.c **** *  \snippet LED_RGB_SUT.c usage_LED_RGB_Read  
 114:Generated_Source\PSoC5/LED_RGB.c **** *******************************************************************************/
ARM GAS  C:\Users\IroTeam\AppData\Local\Temp\ccCBtlid.s 			page 6


 115:Generated_Source\PSoC5/LED_RGB.c **** uint8 LED_RGB_Read(void)
 116:Generated_Source\PSoC5/LED_RGB.c **** {
 172              		.loc 1 116 0
 173              		.cfi_startproc
 174              		@ args = 0, pretend = 0, frame = 0
 175              		@ frame_needed = 1, uses_anonymous_args = 0
 176              		@ link register save eliminated.
 177 0000 80B4     		push	{r7}
 178              		.cfi_def_cfa_offset 4
 179              		.cfi_offset 7, -4
 180 0002 00AF     		add	r7, sp, #0
 181              		.cfi_def_cfa_register 7
 117:Generated_Source\PSoC5/LED_RGB.c ****     return (LED_RGB_PS & LED_RGB_MASK) >> LED_RGB_SHIFT;
 182              		.loc 1 117 0
 183 0004 054B     		ldr	r3, .L9
 184 0006 1B78     		ldrb	r3, [r3]
 185 0008 DBB2     		uxtb	r3, r3
 186 000a 03F07003 		and	r3, r3, #112
 187 000e 1B09     		lsrs	r3, r3, #4
 188 0010 DBB2     		uxtb	r3, r3
 118:Generated_Source\PSoC5/LED_RGB.c **** }
 189              		.loc 1 118 0
 190 0012 1846     		mov	r0, r3
 191 0014 BD46     		mov	sp, r7
 192              		.cfi_def_cfa_register 13
 193              		@ sp needed
 194 0016 80BC     		pop	{r7}
 195              		.cfi_restore 7
 196              		.cfi_def_cfa_offset 0
 197 0018 7047     		bx	lr
 198              	.L10:
 199 001a 00BF     		.align	2
 200              	.L9:
 201 001c 01510040 		.word	1073762561
 202              		.cfi_endproc
 203              	.LFE2:
 204              		.size	LED_RGB_Read, .-LED_RGB_Read
 205              		.section	.text.LED_RGB_ReadDataReg,"ax",%progbits
 206              		.align	2
 207              		.global	LED_RGB_ReadDataReg
 208              		.thumb
 209              		.thumb_func
 210              		.type	LED_RGB_ReadDataReg, %function
 211              	LED_RGB_ReadDataReg:
 212              	.LFB3:
 119:Generated_Source\PSoC5/LED_RGB.c **** 
 120:Generated_Source\PSoC5/LED_RGB.c **** 
 121:Generated_Source\PSoC5/LED_RGB.c **** /*******************************************************************************
 122:Generated_Source\PSoC5/LED_RGB.c **** * Function Name: LED_RGB_ReadDataReg
 123:Generated_Source\PSoC5/LED_RGB.c **** ****************************************************************************//**
 124:Generated_Source\PSoC5/LED_RGB.c **** *
 125:Generated_Source\PSoC5/LED_RGB.c **** * \brief Reads the associated physical port's data output register and masks 
 126:Generated_Source\PSoC5/LED_RGB.c **** *  the correct bits according to the width and bit position of the component 
 127:Generated_Source\PSoC5/LED_RGB.c **** *  instance. 
 128:Generated_Source\PSoC5/LED_RGB.c **** *
 129:Generated_Source\PSoC5/LED_RGB.c **** * The data output register controls the signal applied to the physical pin in 
 130:Generated_Source\PSoC5/LED_RGB.c **** * conjunction with the drive mode parameter. This is not the same as the 
ARM GAS  C:\Users\IroTeam\AppData\Local\Temp\ccCBtlid.s 			page 7


 131:Generated_Source\PSoC5/LED_RGB.c **** * preferred LED_RGB_Read() API because the 
 132:Generated_Source\PSoC5/LED_RGB.c **** * LED_RGB_ReadDataReg() reads the data register instead of the status 
 133:Generated_Source\PSoC5/LED_RGB.c **** * register. For output pins this is a useful function to determine the value 
 134:Generated_Source\PSoC5/LED_RGB.c **** * just written to the pin.
 135:Generated_Source\PSoC5/LED_RGB.c **** *
 136:Generated_Source\PSoC5/LED_RGB.c **** * \return 
 137:Generated_Source\PSoC5/LED_RGB.c **** *  The current value of the data register masked and shifted into a right 
 138:Generated_Source\PSoC5/LED_RGB.c **** *  justified number for the component instance.
 139:Generated_Source\PSoC5/LED_RGB.c **** *
 140:Generated_Source\PSoC5/LED_RGB.c **** * \funcusage
 141:Generated_Source\PSoC5/LED_RGB.c **** *  \snippet LED_RGB_SUT.c usage_LED_RGB_ReadDataReg 
 142:Generated_Source\PSoC5/LED_RGB.c **** *******************************************************************************/
 143:Generated_Source\PSoC5/LED_RGB.c **** uint8 LED_RGB_ReadDataReg(void)
 144:Generated_Source\PSoC5/LED_RGB.c **** {
 213              		.loc 1 144 0
 214              		.cfi_startproc
 215              		@ args = 0, pretend = 0, frame = 0
 216              		@ frame_needed = 1, uses_anonymous_args = 0
 217              		@ link register save eliminated.
 218 0000 80B4     		push	{r7}
 219              		.cfi_def_cfa_offset 4
 220              		.cfi_offset 7, -4
 221 0002 00AF     		add	r7, sp, #0
 222              		.cfi_def_cfa_register 7
 145:Generated_Source\PSoC5/LED_RGB.c ****     return (LED_RGB_DR & LED_RGB_MASK) >> LED_RGB_SHIFT;
 223              		.loc 1 145 0
 224 0004 054B     		ldr	r3, .L13
 225 0006 1B78     		ldrb	r3, [r3]
 226 0008 DBB2     		uxtb	r3, r3
 227 000a 03F07003 		and	r3, r3, #112
 228 000e 1B09     		lsrs	r3, r3, #4
 229 0010 DBB2     		uxtb	r3, r3
 146:Generated_Source\PSoC5/LED_RGB.c **** }
 230              		.loc 1 146 0
 231 0012 1846     		mov	r0, r3
 232 0014 BD46     		mov	sp, r7
 233              		.cfi_def_cfa_register 13
 234              		@ sp needed
 235 0016 80BC     		pop	{r7}
 236              		.cfi_restore 7
 237              		.cfi_def_cfa_offset 0
 238 0018 7047     		bx	lr
 239              	.L14:
 240 001a 00BF     		.align	2
 241              	.L13:
 242 001c 00510040 		.word	1073762560
 243              		.cfi_endproc
 244              	.LFE3:
 245              		.size	LED_RGB_ReadDataReg, .-LED_RGB_ReadDataReg
 246              		.text
 247              	.Letext0:
 248              		.file 2 "Generated_Source\\PSoC5\\cytypes.h"