ARM GAS  C:\Users\IroTeam\AppData\Local\Temp\cc6iqY6A.s 			page 1


   1              		.syntax unified
   2              		.cpu cortex-m3
   3              		.fpu softvfp
   4              		.eabi_attribute 20, 1
   5              		.eabi_attribute 21, 1
   6              		.eabi_attribute 23, 3
   7              		.eabi_attribute 24, 1
   8              		.eabi_attribute 25, 1
   9              		.eabi_attribute 26, 1
  10              		.eabi_attribute 30, 6
  11              		.eabi_attribute 34, 1
  12              		.eabi_attribute 18, 4
  13              		.thumb
  14              		.syntax unified
  15              		.file	"Pins_Port2.c"
  16              		.text
  17              	.Ltext0:
  18              		.cfi_sections	.debug_frame
  19              		.section	.text.Pins_Port2_Write,"ax",%progbits
  20              		.align	2
  21              		.global	Pins_Port2_Write
  22              		.thumb
  23              		.thumb_func
  24              		.type	Pins_Port2_Write, %function
  25              	Pins_Port2_Write:
  26              	.LFB0:
  27              		.file 1 "Generated_Source\\PSoC5\\Pins_Port2.c"
   1:Generated_Source\PSoC5/Pins_Port2.c **** /*******************************************************************************
   2:Generated_Source\PSoC5/Pins_Port2.c **** * File Name: Pins_Port2.c  
   3:Generated_Source\PSoC5/Pins_Port2.c **** * Version 2.20
   4:Generated_Source\PSoC5/Pins_Port2.c **** *
   5:Generated_Source\PSoC5/Pins_Port2.c **** * Description:
   6:Generated_Source\PSoC5/Pins_Port2.c **** *  This file contains API to enable firmware control of a Pins component.
   7:Generated_Source\PSoC5/Pins_Port2.c **** *
   8:Generated_Source\PSoC5/Pins_Port2.c **** * Note:
   9:Generated_Source\PSoC5/Pins_Port2.c **** *
  10:Generated_Source\PSoC5/Pins_Port2.c **** ********************************************************************************
  11:Generated_Source\PSoC5/Pins_Port2.c **** * Copyright 2008-2015, Cypress Semiconductor Corporation.  All rights reserved.
  12:Generated_Source\PSoC5/Pins_Port2.c **** * You may use this file only in accordance with the license, terms, conditions, 
  13:Generated_Source\PSoC5/Pins_Port2.c **** * disclaimers, and limitations in the end user license agreement accompanying 
  14:Generated_Source\PSoC5/Pins_Port2.c **** * the software package with which this file was provided.
  15:Generated_Source\PSoC5/Pins_Port2.c **** *******************************************************************************/
  16:Generated_Source\PSoC5/Pins_Port2.c **** 
  17:Generated_Source\PSoC5/Pins_Port2.c **** #include "cytypes.h"
  18:Generated_Source\PSoC5/Pins_Port2.c **** #include "Pins_Port2.h"
  19:Generated_Source\PSoC5/Pins_Port2.c **** 
  20:Generated_Source\PSoC5/Pins_Port2.c **** /* APIs are not generated for P15[7:6] on PSoC 5 */
  21:Generated_Source\PSoC5/Pins_Port2.c **** #if !(CY_PSOC5A &&\
  22:Generated_Source\PSoC5/Pins_Port2.c **** 	 Pins_Port2__PORT == 15 && ((Pins_Port2__MASK & 0xC0) != 0))
  23:Generated_Source\PSoC5/Pins_Port2.c **** 
  24:Generated_Source\PSoC5/Pins_Port2.c **** 
  25:Generated_Source\PSoC5/Pins_Port2.c **** /*******************************************************************************
  26:Generated_Source\PSoC5/Pins_Port2.c **** * Function Name: Pins_Port2_Write
  27:Generated_Source\PSoC5/Pins_Port2.c **** ****************************************************************************//**
  28:Generated_Source\PSoC5/Pins_Port2.c **** *
  29:Generated_Source\PSoC5/Pins_Port2.c **** * \brief Writes the value to the physical port (data output register), masking
  30:Generated_Source\PSoC5/Pins_Port2.c **** *  and shifting the bits appropriately. 
ARM GAS  C:\Users\IroTeam\AppData\Local\Temp\cc6iqY6A.s 			page 2


  31:Generated_Source\PSoC5/Pins_Port2.c **** *
  32:Generated_Source\PSoC5/Pins_Port2.c **** * The data output register controls the signal applied to the physical pin in 
  33:Generated_Source\PSoC5/Pins_Port2.c **** * conjunction with the drive mode parameter. This function avoids changing 
  34:Generated_Source\PSoC5/Pins_Port2.c **** * other bits in the port by using the appropriate method (read-modify-write or
  35:Generated_Source\PSoC5/Pins_Port2.c **** * bit banding).
  36:Generated_Source\PSoC5/Pins_Port2.c **** *
  37:Generated_Source\PSoC5/Pins_Port2.c **** * <b>Note</b> This function should not be used on a hardware digital output pin 
  38:Generated_Source\PSoC5/Pins_Port2.c **** * as it is driven by the hardware signal attached to it.
  39:Generated_Source\PSoC5/Pins_Port2.c **** *
  40:Generated_Source\PSoC5/Pins_Port2.c **** * \param value
  41:Generated_Source\PSoC5/Pins_Port2.c **** *  Value to write to the component instance.
  42:Generated_Source\PSoC5/Pins_Port2.c **** *
  43:Generated_Source\PSoC5/Pins_Port2.c **** * \return 
  44:Generated_Source\PSoC5/Pins_Port2.c **** *  None 
  45:Generated_Source\PSoC5/Pins_Port2.c **** *
  46:Generated_Source\PSoC5/Pins_Port2.c **** * \sideeffect
  47:Generated_Source\PSoC5/Pins_Port2.c **** *  If you use read-modify-write operations that are not atomic; the Interrupt 
  48:Generated_Source\PSoC5/Pins_Port2.c **** *  Service Routines (ISR) can cause corruption of this function. An ISR that 
  49:Generated_Source\PSoC5/Pins_Port2.c **** *  interrupts this function and performs writes to the Pins component data 
  50:Generated_Source\PSoC5/Pins_Port2.c **** *  register can cause corrupted port data. To avoid this issue, you should 
  51:Generated_Source\PSoC5/Pins_Port2.c **** *  either use the Per-Pin APIs (primary method) or disable interrupts around 
  52:Generated_Source\PSoC5/Pins_Port2.c **** *  this function.
  53:Generated_Source\PSoC5/Pins_Port2.c **** *
  54:Generated_Source\PSoC5/Pins_Port2.c **** * \funcusage
  55:Generated_Source\PSoC5/Pins_Port2.c **** *  \snippet Pins_Port2_SUT.c usage_Pins_Port2_Write
  56:Generated_Source\PSoC5/Pins_Port2.c **** *******************************************************************************/
  57:Generated_Source\PSoC5/Pins_Port2.c **** void Pins_Port2_Write(uint8 value)
  58:Generated_Source\PSoC5/Pins_Port2.c **** {
  28              		.loc 1 58 0
  29              		.cfi_startproc
  30              		@ args = 0, pretend = 0, frame = 16
  31              		@ frame_needed = 1, uses_anonymous_args = 0
  32              		@ link register save eliminated.
  33 0000 80B4     		push	{r7}
  34              		.cfi_def_cfa_offset 4
  35              		.cfi_offset 7, -4
  36 0002 85B0     		sub	sp, sp, #20
  37              		.cfi_def_cfa_offset 24
  38 0004 00AF     		add	r7, sp, #0
  39              		.cfi_def_cfa_register 7
  40 0006 0346     		mov	r3, r0
  41 0008 FB71     		strb	r3, [r7, #7]
  59:Generated_Source\PSoC5/Pins_Port2.c ****     uint8 staticBits = (Pins_Port2_DR & (uint8)(~Pins_Port2_MASK));
  42              		.loc 1 59 0
  43 000a 0B4B     		ldr	r3, .L2
  44 000c 1B78     		ldrb	r3, [r3]
  45 000e DBB2     		uxtb	r3, r3
  46 0010 23F07003 		bic	r3, r3, #112
  47 0014 FB73     		strb	r3, [r7, #15]
  60:Generated_Source\PSoC5/Pins_Port2.c ****     Pins_Port2_DR = staticBits | ((uint8)(value << Pins_Port2_SHIFT) & Pins_Port2_MASK);
  48              		.loc 1 60 0
  49 0016 0849     		ldr	r1, .L2
  50 0018 FB79     		ldrb	r3, [r7, #7]
  51 001a 1B01     		lsls	r3, r3, #4
  52 001c DBB2     		uxtb	r3, r3
  53 001e 03F07003 		and	r3, r3, #112
  54 0022 DAB2     		uxtb	r2, r3
ARM GAS  C:\Users\IroTeam\AppData\Local\Temp\cc6iqY6A.s 			page 3


  55 0024 FB7B     		ldrb	r3, [r7, #15]
  56 0026 1343     		orrs	r3, r3, r2
  57 0028 DBB2     		uxtb	r3, r3
  58 002a 0B70     		strb	r3, [r1]
  61:Generated_Source\PSoC5/Pins_Port2.c **** }
  59              		.loc 1 61 0
  60 002c 00BF     		nop
  61 002e 1437     		adds	r7, r7, #20
  62              		.cfi_def_cfa_offset 4
  63 0030 BD46     		mov	sp, r7
  64              		.cfi_def_cfa_register 13
  65              		@ sp needed
  66 0032 80BC     		pop	{r7}
  67              		.cfi_restore 7
  68              		.cfi_def_cfa_offset 0
  69 0034 7047     		bx	lr
  70              	.L3:
  71 0036 00BF     		.align	2
  72              	.L2:
  73 0038 60510040 		.word	1073762656
  74              		.cfi_endproc
  75              	.LFE0:
  76              		.size	Pins_Port2_Write, .-Pins_Port2_Write
  77              		.section	.text.Pins_Port2_SetDriveMode,"ax",%progbits
  78              		.align	2
  79              		.global	Pins_Port2_SetDriveMode
  80              		.thumb
  81              		.thumb_func
  82              		.type	Pins_Port2_SetDriveMode, %function
  83              	Pins_Port2_SetDriveMode:
  84              	.LFB1:
  62:Generated_Source\PSoC5/Pins_Port2.c **** 
  63:Generated_Source\PSoC5/Pins_Port2.c **** 
  64:Generated_Source\PSoC5/Pins_Port2.c **** /*******************************************************************************
  65:Generated_Source\PSoC5/Pins_Port2.c **** * Function Name: Pins_Port2_SetDriveMode
  66:Generated_Source\PSoC5/Pins_Port2.c **** ****************************************************************************//**
  67:Generated_Source\PSoC5/Pins_Port2.c **** *
  68:Generated_Source\PSoC5/Pins_Port2.c **** * \brief Sets the drive mode for each of the Pins component's pins.
  69:Generated_Source\PSoC5/Pins_Port2.c **** * 
  70:Generated_Source\PSoC5/Pins_Port2.c **** * <b>Note</b> This affects all pins in the Pins component instance. Use the
  71:Generated_Source\PSoC5/Pins_Port2.c **** * Per-Pin APIs if you wish to control individual pin's drive modes.
  72:Generated_Source\PSoC5/Pins_Port2.c **** *
  73:Generated_Source\PSoC5/Pins_Port2.c **** * \param mode
  74:Generated_Source\PSoC5/Pins_Port2.c **** *  Mode for the selected signals. Valid options are documented in 
  75:Generated_Source\PSoC5/Pins_Port2.c **** *  \ref driveMode.
  76:Generated_Source\PSoC5/Pins_Port2.c **** *
  77:Generated_Source\PSoC5/Pins_Port2.c **** * \return
  78:Generated_Source\PSoC5/Pins_Port2.c **** *  None
  79:Generated_Source\PSoC5/Pins_Port2.c **** *
  80:Generated_Source\PSoC5/Pins_Port2.c **** * \sideeffect
  81:Generated_Source\PSoC5/Pins_Port2.c **** *  If you use read-modify-write operations that are not atomic, the ISR can
  82:Generated_Source\PSoC5/Pins_Port2.c **** *  cause corruption of this function. An ISR that interrupts this function 
  83:Generated_Source\PSoC5/Pins_Port2.c **** *  and performs writes to the Pins component Drive Mode registers can cause 
  84:Generated_Source\PSoC5/Pins_Port2.c **** *  corrupted port data. To avoid this issue, you should either use the Per-Pin
  85:Generated_Source\PSoC5/Pins_Port2.c **** *  APIs (primary method) or disable interrupts around this function.
  86:Generated_Source\PSoC5/Pins_Port2.c **** *
  87:Generated_Source\PSoC5/Pins_Port2.c **** * \funcusage
ARM GAS  C:\Users\IroTeam\AppData\Local\Temp\cc6iqY6A.s 			page 4


  88:Generated_Source\PSoC5/Pins_Port2.c **** *  \snippet Pins_Port2_SUT.c usage_Pins_Port2_SetDriveMode
  89:Generated_Source\PSoC5/Pins_Port2.c **** *******************************************************************************/
  90:Generated_Source\PSoC5/Pins_Port2.c **** void Pins_Port2_SetDriveMode(uint8 mode)
  91:Generated_Source\PSoC5/Pins_Port2.c **** {
  85              		.loc 1 91 0
  86              		.cfi_startproc
  87              		@ args = 0, pretend = 0, frame = 8
  88              		@ frame_needed = 1, uses_anonymous_args = 0
  89              		@ link register save eliminated.
  90 0000 80B4     		push	{r7}
  91              		.cfi_def_cfa_offset 4
  92              		.cfi_offset 7, -4
  93 0002 83B0     		sub	sp, sp, #12
  94              		.cfi_def_cfa_offset 16
  95 0004 00AF     		add	r7, sp, #0
  96              		.cfi_def_cfa_register 7
  97 0006 0346     		mov	r3, r0
  98 0008 FB71     		strb	r3, [r7, #7]
  92:Generated_Source\PSoC5/Pins_Port2.c **** 	CyPins_SetPinDriveMode(Pins_Port2_0, mode);
  99              		.loc 1 92 0
 100 000a 1C49     		ldr	r1, .L5
 101 000c 1B4B     		ldr	r3, .L5
 102 000e 1B78     		ldrb	r3, [r3]
 103 0010 DBB2     		uxtb	r3, r3
 104 0012 5BB2     		sxtb	r3, r3
 105 0014 23F00E03 		bic	r3, r3, #14
 106 0018 5AB2     		sxtb	r2, r3
 107 001a 97F90730 		ldrsb	r3, [r7, #7]
 108 001e 03F00E03 		and	r3, r3, #14
 109 0022 5BB2     		sxtb	r3, r3
 110 0024 1343     		orrs	r3, r3, r2
 111 0026 5BB2     		sxtb	r3, r3
 112 0028 DBB2     		uxtb	r3, r3
 113 002a 0B70     		strb	r3, [r1]
  93:Generated_Source\PSoC5/Pins_Port2.c **** 	CyPins_SetPinDriveMode(Pins_Port2_1, mode);
 114              		.loc 1 93 0
 115 002c 1449     		ldr	r1, .L5+4
 116 002e 144B     		ldr	r3, .L5+4
 117 0030 1B78     		ldrb	r3, [r3]
 118 0032 DBB2     		uxtb	r3, r3
 119 0034 5BB2     		sxtb	r3, r3
 120 0036 23F00E03 		bic	r3, r3, #14
 121 003a 5AB2     		sxtb	r2, r3
 122 003c 97F90730 		ldrsb	r3, [r7, #7]
 123 0040 03F00E03 		and	r3, r3, #14
 124 0044 5BB2     		sxtb	r3, r3
 125 0046 1343     		orrs	r3, r3, r2
 126 0048 5BB2     		sxtb	r3, r3
 127 004a DBB2     		uxtb	r3, r3
 128 004c 0B70     		strb	r3, [r1]
  94:Generated_Source\PSoC5/Pins_Port2.c **** 	CyPins_SetPinDriveMode(Pins_Port2_2, mode);
 129              		.loc 1 94 0
 130 004e 0D49     		ldr	r1, .L5+8
 131 0050 0C4B     		ldr	r3, .L5+8
 132 0052 1B78     		ldrb	r3, [r3]
 133 0054 DBB2     		uxtb	r3, r3
 134 0056 5BB2     		sxtb	r3, r3
ARM GAS  C:\Users\IroTeam\AppData\Local\Temp\cc6iqY6A.s 			page 5


 135 0058 23F00E03 		bic	r3, r3, #14
 136 005c 5AB2     		sxtb	r2, r3
 137 005e 97F90730 		ldrsb	r3, [r7, #7]
 138 0062 03F00E03 		and	r3, r3, #14
 139 0066 5BB2     		sxtb	r3, r3
 140 0068 1343     		orrs	r3, r3, r2
 141 006a 5BB2     		sxtb	r3, r3
 142 006c DBB2     		uxtb	r3, r3
 143 006e 0B70     		strb	r3, [r1]
  95:Generated_Source\PSoC5/Pins_Port2.c **** }
 144              		.loc 1 95 0
 145 0070 00BF     		nop
 146 0072 0C37     		adds	r7, r7, #12
 147              		.cfi_def_cfa_offset 4
 148 0074 BD46     		mov	sp, r7
 149              		.cfi_def_cfa_register 13
 150              		@ sp needed
 151 0076 80BC     		pop	{r7}
 152              		.cfi_restore 7
 153              		.cfi_def_cfa_offset 0
 154 0078 7047     		bx	lr
 155              	.L6:
 156 007a 00BF     		.align	2
 157              	.L5:
 158 007c 34500040 		.word	1073762356
 159 0080 35500040 		.word	1073762357
 160 0084 36500040 		.word	1073762358
 161              		.cfi_endproc
 162              	.LFE1:
 163              		.size	Pins_Port2_SetDriveMode, .-Pins_Port2_SetDriveMode
 164              		.section	.text.Pins_Port2_Read,"ax",%progbits
 165              		.align	2
 166              		.global	Pins_Port2_Read
 167              		.thumb
 168              		.thumb_func
 169              		.type	Pins_Port2_Read, %function
 170              	Pins_Port2_Read:
 171              	.LFB2:
  96:Generated_Source\PSoC5/Pins_Port2.c **** 
  97:Generated_Source\PSoC5/Pins_Port2.c **** 
  98:Generated_Source\PSoC5/Pins_Port2.c **** /*******************************************************************************
  99:Generated_Source\PSoC5/Pins_Port2.c **** * Function Name: Pins_Port2_Read
 100:Generated_Source\PSoC5/Pins_Port2.c **** ****************************************************************************//**
 101:Generated_Source\PSoC5/Pins_Port2.c **** *
 102:Generated_Source\PSoC5/Pins_Port2.c **** * \brief Reads the associated physical port (pin status register) and masks 
 103:Generated_Source\PSoC5/Pins_Port2.c **** *  the required bits according to the width and bit position of the component
 104:Generated_Source\PSoC5/Pins_Port2.c **** *  instance. 
 105:Generated_Source\PSoC5/Pins_Port2.c **** *
 106:Generated_Source\PSoC5/Pins_Port2.c **** * The pin's status register returns the current logic level present on the 
 107:Generated_Source\PSoC5/Pins_Port2.c **** * physical pin.
 108:Generated_Source\PSoC5/Pins_Port2.c **** *
 109:Generated_Source\PSoC5/Pins_Port2.c **** * \return 
 110:Generated_Source\PSoC5/Pins_Port2.c **** *  The current value for the pins in the component as a right justified number.
 111:Generated_Source\PSoC5/Pins_Port2.c **** *
 112:Generated_Source\PSoC5/Pins_Port2.c **** * \funcusage
 113:Generated_Source\PSoC5/Pins_Port2.c **** *  \snippet Pins_Port2_SUT.c usage_Pins_Port2_Read  
 114:Generated_Source\PSoC5/Pins_Port2.c **** *******************************************************************************/
ARM GAS  C:\Users\IroTeam\AppData\Local\Temp\cc6iqY6A.s 			page 6


 115:Generated_Source\PSoC5/Pins_Port2.c **** uint8 Pins_Port2_Read(void)
 116:Generated_Source\PSoC5/Pins_Port2.c **** {
 172              		.loc 1 116 0
 173              		.cfi_startproc
 174              		@ args = 0, pretend = 0, frame = 0
 175              		@ frame_needed = 1, uses_anonymous_args = 0
 176              		@ link register save eliminated.
 177 0000 80B4     		push	{r7}
 178              		.cfi_def_cfa_offset 4
 179              		.cfi_offset 7, -4
 180 0002 00AF     		add	r7, sp, #0
 181              		.cfi_def_cfa_register 7
 117:Generated_Source\PSoC5/Pins_Port2.c ****     return (Pins_Port2_PS & Pins_Port2_MASK) >> Pins_Port2_SHIFT;
 182              		.loc 1 117 0
 183 0004 054B     		ldr	r3, .L9
 184 0006 1B78     		ldrb	r3, [r3]
 185 0008 DBB2     		uxtb	r3, r3
 186 000a 03F07003 		and	r3, r3, #112
 187 000e 1B09     		lsrs	r3, r3, #4
 188 0010 DBB2     		uxtb	r3, r3
 118:Generated_Source\PSoC5/Pins_Port2.c **** }
 189              		.loc 1 118 0
 190 0012 1846     		mov	r0, r3
 191 0014 BD46     		mov	sp, r7
 192              		.cfi_def_cfa_register 13
 193              		@ sp needed
 194 0016 80BC     		pop	{r7}
 195              		.cfi_restore 7
 196              		.cfi_def_cfa_offset 0
 197 0018 7047     		bx	lr
 198              	.L10:
 199 001a 00BF     		.align	2
 200              	.L9:
 201 001c 61510040 		.word	1073762657
 202              		.cfi_endproc
 203              	.LFE2:
 204              		.size	Pins_Port2_Read, .-Pins_Port2_Read
 205              		.section	.text.Pins_Port2_ReadDataReg,"ax",%progbits
 206              		.align	2
 207              		.global	Pins_Port2_ReadDataReg
 208              		.thumb
 209              		.thumb_func
 210              		.type	Pins_Port2_ReadDataReg, %function
 211              	Pins_Port2_ReadDataReg:
 212              	.LFB3:
 119:Generated_Source\PSoC5/Pins_Port2.c **** 
 120:Generated_Source\PSoC5/Pins_Port2.c **** 
 121:Generated_Source\PSoC5/Pins_Port2.c **** /*******************************************************************************
 122:Generated_Source\PSoC5/Pins_Port2.c **** * Function Name: Pins_Port2_ReadDataReg
 123:Generated_Source\PSoC5/Pins_Port2.c **** ****************************************************************************//**
 124:Generated_Source\PSoC5/Pins_Port2.c **** *
 125:Generated_Source\PSoC5/Pins_Port2.c **** * \brief Reads the associated physical port's data output register and masks 
 126:Generated_Source\PSoC5/Pins_Port2.c **** *  the correct bits according to the width and bit position of the component 
 127:Generated_Source\PSoC5/Pins_Port2.c **** *  instance. 
 128:Generated_Source\PSoC5/Pins_Port2.c **** *
 129:Generated_Source\PSoC5/Pins_Port2.c **** * The data output register controls the signal applied to the physical pin in 
 130:Generated_Source\PSoC5/Pins_Port2.c **** * conjunction with the drive mode parameter. This is not the same as the 
ARM GAS  C:\Users\IroTeam\AppData\Local\Temp\cc6iqY6A.s 			page 7


 131:Generated_Source\PSoC5/Pins_Port2.c **** * preferred Pins_Port2_Read() API because the 
 132:Generated_Source\PSoC5/Pins_Port2.c **** * Pins_Port2_ReadDataReg() reads the data register instead of the status 
 133:Generated_Source\PSoC5/Pins_Port2.c **** * register. For output pins this is a useful function to determine the value 
 134:Generated_Source\PSoC5/Pins_Port2.c **** * just written to the pin.
 135:Generated_Source\PSoC5/Pins_Port2.c **** *
 136:Generated_Source\PSoC5/Pins_Port2.c **** * \return 
 137:Generated_Source\PSoC5/Pins_Port2.c **** *  The current value of the data register masked and shifted into a right 
 138:Generated_Source\PSoC5/Pins_Port2.c **** *  justified number for the component instance.
 139:Generated_Source\PSoC5/Pins_Port2.c **** *
 140:Generated_Source\PSoC5/Pins_Port2.c **** * \funcusage
 141:Generated_Source\PSoC5/Pins_Port2.c **** *  \snippet Pins_Port2_SUT.c usage_Pins_Port2_ReadDataReg 
 142:Generated_Source\PSoC5/Pins_Port2.c **** *******************************************************************************/
 143:Generated_Source\PSoC5/Pins_Port2.c **** uint8 Pins_Port2_ReadDataReg(void)
 144:Generated_Source\PSoC5/Pins_Port2.c **** {
 213              		.loc 1 144 0
 214              		.cfi_startproc
 215              		@ args = 0, pretend = 0, frame = 0
 216              		@ frame_needed = 1, uses_anonymous_args = 0
 217              		@ link register save eliminated.
 218 0000 80B4     		push	{r7}
 219              		.cfi_def_cfa_offset 4
 220              		.cfi_offset 7, -4
 221 0002 00AF     		add	r7, sp, #0
 222              		.cfi_def_cfa_register 7
 145:Generated_Source\PSoC5/Pins_Port2.c ****     return (Pins_Port2_DR & Pins_Port2_MASK) >> Pins_Port2_SHIFT;
 223              		.loc 1 145 0
 224 0004 054B     		ldr	r3, .L13
 225 0006 1B78     		ldrb	r3, [r3]
 226 0008 DBB2     		uxtb	r3, r3
 227 000a 03F07003 		and	r3, r3, #112
 228 000e 1B09     		lsrs	r3, r3, #4
 229 0010 DBB2     		uxtb	r3, r3
 146:Generated_Source\PSoC5/Pins_Port2.c **** }
 230              		.loc 1 146 0
 231 0012 1846     		mov	r0, r3
 232 0014 BD46     		mov	sp, r7
 233              		.cfi_def_cfa_register 13
 234              		@ sp needed
 235 0016 80BC     		pop	{r7}
 236              		.cfi_restore 7
 237              		.cfi_def_cfa_offset 0
 238 0018 7047     		bx	lr
 239              	.L14:
 240 001a 00BF     		.align	2
 241              	.L13:
 242 001c 60510040 		.word	1073762656
 243              		.cfi_endproc
 244              	.LFE3:
 245              		.size	Pins_Port2_ReadDataReg, .-Pins_Port2_ReadDataReg
 246              		.section	.text.Pins_Port2_SetInterruptMode,"ax",%progbits
 247              		.align	2
 248              		.global	Pins_Port2_SetInterruptMode
 249              		.thumb
 250              		.thumb_func
 251              		.type	Pins_Port2_SetInterruptMode, %function
 252              	Pins_Port2_SetInterruptMode:
 253              	.LFB4:
ARM GAS  C:\Users\IroTeam\AppData\Local\Temp\cc6iqY6A.s 			page 8


 147:Generated_Source\PSoC5/Pins_Port2.c **** 
 148:Generated_Source\PSoC5/Pins_Port2.c **** 
 149:Generated_Source\PSoC5/Pins_Port2.c **** /* If interrupt is connected for this Pins component */ 
 150:Generated_Source\PSoC5/Pins_Port2.c **** #if defined(Pins_Port2_INTSTAT) 
 151:Generated_Source\PSoC5/Pins_Port2.c **** 
 152:Generated_Source\PSoC5/Pins_Port2.c ****     /*******************************************************************************
 153:Generated_Source\PSoC5/Pins_Port2.c ****     * Function Name: Pins_Port2_SetInterruptMode
 154:Generated_Source\PSoC5/Pins_Port2.c ****     ****************************************************************************//**
 155:Generated_Source\PSoC5/Pins_Port2.c ****     *
 156:Generated_Source\PSoC5/Pins_Port2.c ****     * \brief Configures the interrupt mode for each of the Pins component's
 157:Generated_Source\PSoC5/Pins_Port2.c ****     *  pins. Alternatively you may set the interrupt mode for all the pins
 158:Generated_Source\PSoC5/Pins_Port2.c ****     *  specified in the Pins component.
 159:Generated_Source\PSoC5/Pins_Port2.c ****     *
 160:Generated_Source\PSoC5/Pins_Port2.c ****     *  <b>Note</b> The interrupt is port-wide and therefore any enabled pin
 161:Generated_Source\PSoC5/Pins_Port2.c ****     *  interrupt may trigger it.
 162:Generated_Source\PSoC5/Pins_Port2.c ****     *
 163:Generated_Source\PSoC5/Pins_Port2.c ****     * \param position
 164:Generated_Source\PSoC5/Pins_Port2.c ****     *  The pin position as listed in the Pins component. You may OR these to be 
 165:Generated_Source\PSoC5/Pins_Port2.c ****     *  able to configure the interrupt mode of multiple pins within a Pins 
 166:Generated_Source\PSoC5/Pins_Port2.c ****     *  component. Or you may use Pins_Port2_INTR_ALL to configure the
 167:Generated_Source\PSoC5/Pins_Port2.c ****     *  interrupt mode of all the pins in the Pins component.       
 168:Generated_Source\PSoC5/Pins_Port2.c ****     *  - Pins_Port2_0_INTR       (First pin in the list)
 169:Generated_Source\PSoC5/Pins_Port2.c ****     *  - Pins_Port2_1_INTR       (Second pin in the list)
 170:Generated_Source\PSoC5/Pins_Port2.c ****     *  - ...
 171:Generated_Source\PSoC5/Pins_Port2.c ****     *  - Pins_Port2_INTR_ALL     (All pins in Pins component)
 172:Generated_Source\PSoC5/Pins_Port2.c ****     *
 173:Generated_Source\PSoC5/Pins_Port2.c ****     * \param mode
 174:Generated_Source\PSoC5/Pins_Port2.c ****     *  Interrupt mode for the selected pins. Valid options are documented in
 175:Generated_Source\PSoC5/Pins_Port2.c ****     *  \ref intrMode.
 176:Generated_Source\PSoC5/Pins_Port2.c ****     *
 177:Generated_Source\PSoC5/Pins_Port2.c ****     * \return 
 178:Generated_Source\PSoC5/Pins_Port2.c ****     *  None
 179:Generated_Source\PSoC5/Pins_Port2.c ****     *  
 180:Generated_Source\PSoC5/Pins_Port2.c ****     * \sideeffect
 181:Generated_Source\PSoC5/Pins_Port2.c ****     *  It is recommended that the interrupt be disabled before calling this 
 182:Generated_Source\PSoC5/Pins_Port2.c ****     *  function to avoid unintended interrupt requests. Note that the interrupt
 183:Generated_Source\PSoC5/Pins_Port2.c ****     *  type is port wide, and therefore will trigger for any enabled pin on the 
 184:Generated_Source\PSoC5/Pins_Port2.c ****     *  port.
 185:Generated_Source\PSoC5/Pins_Port2.c ****     *
 186:Generated_Source\PSoC5/Pins_Port2.c ****     * \funcusage
 187:Generated_Source\PSoC5/Pins_Port2.c ****     *  \snippet Pins_Port2_SUT.c usage_Pins_Port2_SetInterruptMode
 188:Generated_Source\PSoC5/Pins_Port2.c ****     *******************************************************************************/
 189:Generated_Source\PSoC5/Pins_Port2.c ****     void Pins_Port2_SetInterruptMode(uint16 position, uint16 mode)
 190:Generated_Source\PSoC5/Pins_Port2.c ****     {
 254              		.loc 1 190 0
 255              		.cfi_startproc
 256              		@ args = 0, pretend = 0, frame = 8
 257              		@ frame_needed = 1, uses_anonymous_args = 0
 258              		@ link register save eliminated.
 259 0000 80B4     		push	{r7}
 260              		.cfi_def_cfa_offset 4
 261              		.cfi_offset 7, -4
 262 0002 83B0     		sub	sp, sp, #12
 263              		.cfi_def_cfa_offset 16
 264 0004 00AF     		add	r7, sp, #0
 265              		.cfi_def_cfa_register 7
 266 0006 0346     		mov	r3, r0
ARM GAS  C:\Users\IroTeam\AppData\Local\Temp\cc6iqY6A.s 			page 9


 267 0008 0A46     		mov	r2, r1
 268 000a FB80     		strh	r3, [r7, #6]	@ movhi
 269 000c 1346     		mov	r3, r2	@ movhi
 270 000e BB80     		strh	r3, [r7, #4]	@ movhi
 191:Generated_Source\PSoC5/Pins_Port2.c **** 		if((position & Pins_Port2_0_INTR) != 0u) 
 271              		.loc 1 191 0
 272 0010 FB88     		ldrh	r3, [r7, #6]
 273 0012 03F01003 		and	r3, r3, #16
 274 0016 002B     		cmp	r3, #0
 275 0018 03D0     		beq	.L16
 192:Generated_Source\PSoC5/Pins_Port2.c **** 		{ 
 193:Generated_Source\PSoC5/Pins_Port2.c **** 			 Pins_Port2_0_INTTYPE_REG = (uint8)mode; 
 276              		.loc 1 193 0
 277 001a 0D4B     		ldr	r3, .L20
 278 001c BA88     		ldrh	r2, [r7, #4]	@ movhi
 279 001e D2B2     		uxtb	r2, r2
 280 0020 1A70     		strb	r2, [r3]
 281              	.L16:
 194:Generated_Source\PSoC5/Pins_Port2.c **** 		} 
 195:Generated_Source\PSoC5/Pins_Port2.c **** 		if((position & Pins_Port2_1_INTR) != 0u) 
 282              		.loc 1 195 0
 283 0022 FB88     		ldrh	r3, [r7, #6]
 284 0024 03F02003 		and	r3, r3, #32
 285 0028 002B     		cmp	r3, #0
 286 002a 03D0     		beq	.L17
 196:Generated_Source\PSoC5/Pins_Port2.c **** 		{ 
 197:Generated_Source\PSoC5/Pins_Port2.c **** 			 Pins_Port2_1_INTTYPE_REG = (uint8)mode; 
 287              		.loc 1 197 0
 288 002c 094B     		ldr	r3, .L20+4
 289 002e BA88     		ldrh	r2, [r7, #4]	@ movhi
 290 0030 D2B2     		uxtb	r2, r2
 291 0032 1A70     		strb	r2, [r3]
 292              	.L17:
 198:Generated_Source\PSoC5/Pins_Port2.c **** 		} 
 199:Generated_Source\PSoC5/Pins_Port2.c **** 		if((position & Pins_Port2_2_INTR) != 0u) 
 293              		.loc 1 199 0
 294 0034 FB88     		ldrh	r3, [r7, #6]
 295 0036 03F04003 		and	r3, r3, #64
 296 003a 002B     		cmp	r3, #0
 297 003c 03D0     		beq	.L19
 200:Generated_Source\PSoC5/Pins_Port2.c **** 		{ 
 201:Generated_Source\PSoC5/Pins_Port2.c **** 			 Pins_Port2_2_INTTYPE_REG = (uint8)mode; 
 298              		.loc 1 201 0
 299 003e 064B     		ldr	r3, .L20+8
 300 0040 BA88     		ldrh	r2, [r7, #4]	@ movhi
 301 0042 D2B2     		uxtb	r2, r2
 302 0044 1A70     		strb	r2, [r3]
 303              	.L19:
 202:Generated_Source\PSoC5/Pins_Port2.c **** 		}
 203:Generated_Source\PSoC5/Pins_Port2.c ****     }
 304              		.loc 1 203 0
 305 0046 00BF     		nop
 306 0048 0C37     		adds	r7, r7, #12
 307              		.cfi_def_cfa_offset 4
 308 004a BD46     		mov	sp, r7
 309              		.cfi_def_cfa_register 13
 310              		@ sp needed
ARM GAS  C:\Users\IroTeam\AppData\Local\Temp\cc6iqY6A.s 			page 10


 311 004c 80BC     		pop	{r7}
 312              		.cfi_restore 7
 313              		.cfi_def_cfa_offset 0
 314 004e 7047     		bx	lr
 315              	.L21:
 316              		.align	2
 317              	.L20:
 318 0050 34450040 		.word	1073759540
 319 0054 35450040 		.word	1073759541
 320 0058 36450040 		.word	1073759542
 321              		.cfi_endproc
 322              	.LFE4:
 323              		.size	Pins_Port2_SetInterruptMode, .-Pins_Port2_SetInterruptMode
 324              		.section	.text.Pins_Port2_ClearInterrupt,"ax",%progbits
 325              		.align	2
 326              		.global	Pins_Port2_ClearInterrupt
 327              		.thumb
 328              		.thumb_func
 329              		.type	Pins_Port2_ClearInterrupt, %function
 330              	Pins_Port2_ClearInterrupt:
 331              	.LFB5:
 204:Generated_Source\PSoC5/Pins_Port2.c ****     
 205:Generated_Source\PSoC5/Pins_Port2.c ****     
 206:Generated_Source\PSoC5/Pins_Port2.c ****     /*******************************************************************************
 207:Generated_Source\PSoC5/Pins_Port2.c ****     * Function Name: Pins_Port2_ClearInterrupt
 208:Generated_Source\PSoC5/Pins_Port2.c ****     ****************************************************************************//**
 209:Generated_Source\PSoC5/Pins_Port2.c ****     *
 210:Generated_Source\PSoC5/Pins_Port2.c ****     * \brief Clears any active interrupts attached with the component and returns 
 211:Generated_Source\PSoC5/Pins_Port2.c ****     *  the value of the interrupt status register allowing determination of which
 212:Generated_Source\PSoC5/Pins_Port2.c ****     *  pins generated an interrupt event.
 213:Generated_Source\PSoC5/Pins_Port2.c ****     *
 214:Generated_Source\PSoC5/Pins_Port2.c ****     * \return 
 215:Generated_Source\PSoC5/Pins_Port2.c ****     *  The right-shifted current value of the interrupt status register. Each pin 
 216:Generated_Source\PSoC5/Pins_Port2.c ****     *  has one bit set if it generated an interrupt event. For example, bit 0 is 
 217:Generated_Source\PSoC5/Pins_Port2.c ****     *  for pin 0 and bit 1 is for pin 1 of the Pins component.
 218:Generated_Source\PSoC5/Pins_Port2.c ****     *  
 219:Generated_Source\PSoC5/Pins_Port2.c ****     * \sideeffect
 220:Generated_Source\PSoC5/Pins_Port2.c ****     *  Clears all bits of the physical port's interrupt status register, not just
 221:Generated_Source\PSoC5/Pins_Port2.c ****     *  those associated with the Pins component.
 222:Generated_Source\PSoC5/Pins_Port2.c ****     *
 223:Generated_Source\PSoC5/Pins_Port2.c ****     * \funcusage
 224:Generated_Source\PSoC5/Pins_Port2.c ****     *  \snippet Pins_Port2_SUT.c usage_Pins_Port2_ClearInterrupt
 225:Generated_Source\PSoC5/Pins_Port2.c ****     *******************************************************************************/
 226:Generated_Source\PSoC5/Pins_Port2.c ****     uint8 Pins_Port2_ClearInterrupt(void)
 227:Generated_Source\PSoC5/Pins_Port2.c ****     {
 332              		.loc 1 227 0
 333              		.cfi_startproc
 334              		@ args = 0, pretend = 0, frame = 0
 335              		@ frame_needed = 1, uses_anonymous_args = 0
 336              		@ link register save eliminated.
 337 0000 80B4     		push	{r7}
 338              		.cfi_def_cfa_offset 4
 339              		.cfi_offset 7, -4
 340 0002 00AF     		add	r7, sp, #0
 341              		.cfi_def_cfa_register 7
 228:Generated_Source\PSoC5/Pins_Port2.c ****         return (Pins_Port2_INTSTAT & Pins_Port2_MASK) >> Pins_Port2_SHIFT;
 342              		.loc 1 228 0
ARM GAS  C:\Users\IroTeam\AppData\Local\Temp\cc6iqY6A.s 			page 11


 343 0004 054B     		ldr	r3, .L24
 344 0006 1B78     		ldrb	r3, [r3]
 345 0008 DBB2     		uxtb	r3, r3
 346 000a 03F07003 		and	r3, r3, #112
 347 000e 1B09     		lsrs	r3, r3, #4
 348 0010 DBB2     		uxtb	r3, r3
 229:Generated_Source\PSoC5/Pins_Port2.c ****     }
 349              		.loc 1 229 0
 350 0012 1846     		mov	r0, r3
 351 0014 BD46     		mov	sp, r7
 352              		.cfi_def_cfa_register 13
 353              		@ sp needed
 354 0016 80BC     		pop	{r7}
 355              		.cfi_restore 7
 356              		.cfi_def_cfa_offset 0
 357 0018 7047     		bx	lr
 358              	.L25:
 359 001a 00BF     		.align	2
 360              	.L24:
 361 001c 86450040 		.word	1073759622
 362              		.cfi_endproc
 363              	.LFE5:
 364              		.size	Pins_Port2_ClearInterrupt, .-Pins_Port2_ClearInterrupt
 365              		.text
 366              	.Letext0:
 367              		.file 2 "Generated_Source\\PSoC5\\cytypes.h"