ARM GAS  C:\Users\IroTeam\AppData\Local\Temp\cchG0HTi.s 			page 1


   1              		.syntax unified
   2              		.cpu cortex-m3
   3              		.fpu softvfp
   4              		.eabi_attribute 20, 1
   5              		.eabi_attribute 21, 1
   6              		.eabi_attribute 23, 3
   7              		.eabi_attribute 24, 1
   8              		.eabi_attribute 25, 1
   9              		.eabi_attribute 26, 1
  10              		.eabi_attribute 30, 6
  11              		.eabi_attribute 34, 1
  12              		.eabi_attribute 18, 4
  13              		.thumb
  14              		.syntax unified
  15              		.file	"ChipMonitor.c"
  16              		.text
  17              	.Ltext0:
  18              		.cfi_sections	.debug_frame
  19              		.section	.rodata
  20              		.align	2
  21              	.LC0:
  22 0000 63796D6F 		.ascii	"cymonitoring_get_lastWtd: last reset cause: Hardwar"
  22      6E69746F 
  22      72696E67 
  22      5F676574 
  22      5F6C6173 
  23 0033 65205265 		.ascii	"e Reset\015\012\000"
  23      7365740D 
  23      0A00
  24 003d 000000   		.align	2
  25              	.LC1:
  26 0040 63796D6F 		.ascii	"cymonitoring_get_lastWtd: last reset cause: Watchdo"
  26      6E69746F 
  26      72696E67 
  26      5F676574 
  26      5F6C6173 
  27 0073 67205265 		.ascii	"g Reset\015\012\000"
  27      7365740D 
  27      0A00
  28 007d 000000   		.align	2
  29              	.LC2:
  30 0080 63796D6F 		.ascii	"cymonitoring_get_lastWtd: last reset cause: Softwar"
  30      6E69746F 
  30      72696E67 
  30      5F676574 
  30      5F6C6173 
  31 00b3 65205265 		.ascii	"e Reset\015\012\000"
  31      7365740D 
  31      0A00
  32              		.section	.text.cymonitoring_get_lastWtd,"ax",%progbits
  33              		.align	2
  34              		.global	cymonitoring_get_lastWtd
  35              		.thumb
  36              		.thumb_func
  37              		.type	cymonitoring_get_lastWtd, %function
  38              	cymonitoring_get_lastWtd:
  39              	.LFB64:
ARM GAS  C:\Users\IroTeam\AppData\Local\Temp\cchG0HTi.s 			page 2


  40              		.file 1 "ChipMonitor.c"
   1:ChipMonitor.c **** /* ========================================
   2:ChipMonitor.c ****  *
   3:ChipMonitor.c ****  * Copyright YOUR COMPANY, THE YEAR
   4:ChipMonitor.c ****  * All Rights Reserved
   5:ChipMonitor.c ****  * UNPUBLISHED, LICENSED SOFTWARE.
   6:ChipMonitor.c ****  *
   7:ChipMonitor.c ****  * CONFIDENTIAL AND PROPRIETARY INFORMATION
   8:ChipMonitor.c ****  * WHICH IS THE PROPERTY OF your company.
   9:ChipMonitor.c ****  *
  10:ChipMonitor.c ****  * ========================================
  11:ChipMonitor.c **** */
  12:ChipMonitor.c **** 
  13:ChipMonitor.c **** // ###################################################### Includes ################################
  14:ChipMonitor.c **** #include "ChipMonitor.h"
  15:ChipMonitor.c **** // ################################################################################################
  16:ChipMonitor.c ****     
  17:ChipMonitor.c **** // ###################################################### Prototypes ##############################
  18:ChipMonitor.c **** void cymonitoring_get_lastWtd()
  19:ChipMonitor.c **** {
  41              		.loc 1 19 0
  42              		.cfi_startproc
  43              		@ args = 0, pretend = 0, frame = 8
  44              		@ frame_needed = 1, uses_anonymous_args = 0
  45 0000 80B5     		push	{r7, lr}
  46              		.cfi_def_cfa_offset 8
  47              		.cfi_offset 7, -8
  48              		.cfi_offset 14, -4
  49 0002 82B0     		sub	sp, sp, #8
  50              		.cfi_def_cfa_offset 16
  51 0004 00AF     		add	r7, sp, #0
  52              		.cfi_def_cfa_register 7
  20:ChipMonitor.c ****     uint8 stat = CyResetStatus;
  53              		.loc 1 20 0
  54 0006 0D4B     		ldr	r3, .L8
  55 0008 1B78     		ldrb	r3, [r3]
  56 000a FB71     		strb	r3, [r7, #7]
  21:ChipMonitor.c ****     switch(stat){
  57              		.loc 1 21 0
  58 000c FB79     		ldrb	r3, [r7, #7]	@ zero_extendqisi2
  59 000e 082B     		cmp	r3, #8
  60 0010 08D0     		beq	.L3
  61 0012 202B     		cmp	r3, #32
  62 0014 0AD0     		beq	.L4
  63 0016 002B     		cmp	r3, #0
  64 0018 00D0     		beq	.L5
  22:ChipMonitor.c ****         case 0:
  23:ChipMonitor.c ****             // Hardware Reset
  24:ChipMonitor.c ****             UART_Debug_PutString("cymonitoring_get_lastWtd: last reset cause: Hardware Reset\r\n");
  25:ChipMonitor.c ****             break;
  26:ChipMonitor.c ****         case 8:
  27:ChipMonitor.c ****             // Watchdog Reset
  28:ChipMonitor.c ****             UART_Debug_PutString("cymonitoring_get_lastWtd: last reset cause: Watchdog Reset\r\n");
  29:ChipMonitor.c ****             break;
  30:ChipMonitor.c ****         case 32:
  31:ChipMonitor.c ****             // Software Reset
  32:ChipMonitor.c ****             UART_Debug_PutString("cymonitoring_get_lastWtd: last reset cause: Software Reset\r\n");
ARM GAS  C:\Users\IroTeam\AppData\Local\Temp\cchG0HTi.s 			page 3


  33:ChipMonitor.c ****             break;
  34:ChipMonitor.c ****         default:
  35:ChipMonitor.c ****             break;
  65              		.loc 1 35 0
  66 001a 0BE0     		b	.L6
  67              	.L5:
  24:ChipMonitor.c ****             break;
  68              		.loc 1 24 0
  69 001c 0848     		ldr	r0, .L8+4
  70 001e FFF7FEFF 		bl	UART_Debug_PutString
  25:ChipMonitor.c ****         case 8:
  71              		.loc 1 25 0
  72 0022 07E0     		b	.L6
  73              	.L3:
  28:ChipMonitor.c ****             break;
  74              		.loc 1 28 0
  75 0024 0748     		ldr	r0, .L8+8
  76 0026 FFF7FEFF 		bl	UART_Debug_PutString
  29:ChipMonitor.c ****         case 32:
  77              		.loc 1 29 0
  78 002a 03E0     		b	.L6
  79              	.L4:
  32:ChipMonitor.c ****             break;
  80              		.loc 1 32 0
  81 002c 0648     		ldr	r0, .L8+12
  82 002e FFF7FEFF 		bl	UART_Debug_PutString
  33:ChipMonitor.c ****         default:
  83              		.loc 1 33 0
  84 0032 00BF     		nop
  85              	.L6:
  36:ChipMonitor.c ****     }
  37:ChipMonitor.c ****     
  38:ChipMonitor.c ****     return;
  86              		.loc 1 38 0 discriminator 1
  87 0034 00BF     		nop
  39:ChipMonitor.c **** }
  88              		.loc 1 39 0 discriminator 1
  89 0036 0837     		adds	r7, r7, #8
  90              		.cfi_def_cfa_offset 8
  91 0038 BD46     		mov	sp, r7
  92              		.cfi_def_cfa_register 13
  93              		@ sp needed
  94 003a 80BD     		pop	{r7, pc}
  95              	.L9:
  96              		.align	2
  97              	.L8:
  98 003c 00000000 		.word	CyResetStatus
  99 0040 00000000 		.word	.LC0
 100 0044 40000000 		.word	.LC1
 101 0048 80000000 		.word	.LC2
 102              		.cfi_endproc
 103              	.LFE64:
 104              		.size	cymonitoring_get_lastWtd, .-cymonitoring_get_lastWtd
 105              		.text
 106              	.Letext0:
 107              		.file 2 "c:\\program files (x86)\\cypress\\psoc creator\\4.4\\psoc creator\\import\\gnu\\arm\\5.4.
 108              		.file 3 "c:\\program files (x86)\\cypress\\psoc creator\\4.4\\psoc creator\\import\\gnu\\arm\\5.4.
ARM GAS  C:\Users\IroTeam\AppData\Local\Temp\cchG0HTi.s 			page 4


 109              		.file 4 "Generated_Source\\PSoC5/cytypes.h"
 110              		.file 5 "Generated_Source\\PSoC5/CyLib.h"
 111              		.file 6 "Generated_Source\\PSoC5/core_cm3.h"