ARM GAS  C:\Users\IroTeam\AppData\Local\Temp\ccvzqboK.s 			page 1


   1              		.syntax unified
   2              		.cpu cortex-m3
   3              		.fpu softvfp
   4              		.eabi_attribute 20, 1
   5              		.eabi_attribute 21, 1
   6              		.eabi_attribute 23, 3
   7              		.eabi_attribute 24, 1
   8              		.eabi_attribute 25, 1
   9              		.eabi_attribute 26, 1
  10              		.eabi_attribute 30, 6
  11              		.eabi_attribute 34, 1
  12              		.eabi_attribute 18, 4
  13              		.thumb
  14              		.syntax unified
  15              		.file	"e2.c"
  16              		.text
  17              	.Ltext0:
  18              		.cfi_sections	.debug_frame
  19              		.section	.text.ie2_read_byte,"ax",%progbits
  20              		.align	2
  21              		.global	ie2_read_byte
  22              		.thumb
  23              		.thumb_func
  24              		.type	ie2_read_byte, %function
  25              	ie2_read_byte:
  26              	.LFB64:
  27              		.file 1 "e2.c"
   1:e2.c          **** /* ========================================
   2:e2.c          ****  *
   3:e2.c          ****  * Copyright YOUR COMPANY, THE YEAR
   4:e2.c          ****  * All Rights Reserved
   5:e2.c          ****  * UNPUBLISHED, LICENSED SOFTWARE.
   6:e2.c          ****  *
   7:e2.c          ****  * CONFIDENTIAL AND PROPRIETARY INFORMATION
   8:e2.c          ****  * WHICH IS THE PROPERTY OF your company.
   9:e2.c          ****  *
  10:e2.c          ****  * ========================================
  11:e2.c          **** */
  12:e2.c          **** #include "e2.h"
  13:e2.c          **** 
  14:e2.c          **** // ###################################################### EEProm Functional Functions #############
  15:e2.c          **** uint8 ie2_read_byte(uint16 addr)
  16:e2.c          **** {
  28              		.loc 1 16 0
  29              		.cfi_startproc
  30              		@ args = 0, pretend = 0, frame = 16
  31              		@ frame_needed = 1, uses_anonymous_args = 0
  32 0000 80B5     		push	{r7, lr}
  33              		.cfi_def_cfa_offset 8
  34              		.cfi_offset 7, -8
  35              		.cfi_offset 14, -4
  36 0002 84B0     		sub	sp, sp, #16
  37              		.cfi_def_cfa_offset 24
  38 0004 00AF     		add	r7, sp, #0
  39              		.cfi_def_cfa_register 7
  40 0006 0346     		mov	r3, r0
  41 0008 FB80     		strh	r3, [r7, #6]	@ movhi
ARM GAS  C:\Users\IroTeam\AppData\Local\Temp\ccvzqboK.s 			page 2


  17:e2.c          ****     uint8 ret = Internal_EEPROM_ReadByte(addr); 
  42              		.loc 1 17 0
  43 000a FB88     		ldrh	r3, [r7, #6]
  44 000c 1846     		mov	r0, r3
  45 000e FFF7FEFF 		bl	Internal_EEPROM_ReadByte
  46 0012 0346     		mov	r3, r0
  47 0014 FB73     		strb	r3, [r7, #15]
  18:e2.c          **** 
  19:e2.c          ****     return ret;
  48              		.loc 1 19 0
  49 0016 FB7B     		ldrb	r3, [r7, #15]	@ zero_extendqisi2
  20:e2.c          **** }
  50              		.loc 1 20 0
  51 0018 1846     		mov	r0, r3
  52 001a 1037     		adds	r7, r7, #16
  53              		.cfi_def_cfa_offset 8
  54 001c BD46     		mov	sp, r7
  55              		.cfi_def_cfa_register 13
  56              		@ sp needed
  57 001e 80BD     		pop	{r7, pc}
  58              		.cfi_endproc
  59              	.LFE64:
  60              		.size	ie2_read_byte, .-ie2_read_byte
  61              		.section	.text.ie2_write_byte,"ax",%progbits
  62              		.align	2
  63              		.global	ie2_write_byte
  64              		.thumb
  65              		.thumb_func
  66              		.type	ie2_write_byte, %function
  67              	ie2_write_byte:
  68              	.LFB65:
  21:e2.c          **** 
  22:e2.c          **** uint8 ie2_write_byte(uint8 byte, uint16 addr)
  23:e2.c          **** {
  69              		.loc 1 23 0
  70              		.cfi_startproc
  71              		@ args = 0, pretend = 0, frame = 16
  72              		@ frame_needed = 1, uses_anonymous_args = 0
  73 0000 80B5     		push	{r7, lr}
  74              		.cfi_def_cfa_offset 8
  75              		.cfi_offset 7, -8
  76              		.cfi_offset 14, -4
  77 0002 84B0     		sub	sp, sp, #16
  78              		.cfi_def_cfa_offset 24
  79 0004 00AF     		add	r7, sp, #0
  80              		.cfi_def_cfa_register 7
  81 0006 0346     		mov	r3, r0
  82 0008 0A46     		mov	r2, r1
  83 000a FB71     		strb	r3, [r7, #7]
  84 000c 1346     		mov	r3, r2	@ movhi
  85 000e BB80     		strh	r3, [r7, #4]	@ movhi
  24:e2.c          ****     uint8 ret = 0;
  86              		.loc 1 24 0
  87 0010 0023     		movs	r3, #0
  88 0012 FB73     		strb	r3, [r7, #15]
  25:e2.c          ****     cystatus st = Internal_EEPROM_WriteByte(byte, addr);
  89              		.loc 1 25 0
ARM GAS  C:\Users\IroTeam\AppData\Local\Temp\ccvzqboK.s 			page 3


  90 0014 BA88     		ldrh	r2, [r7, #4]
  91 0016 FB79     		ldrb	r3, [r7, #7]	@ zero_extendqisi2
  92 0018 1146     		mov	r1, r2
  93 001a 1846     		mov	r0, r3
  94 001c FFF7FEFF 		bl	Internal_EEPROM_WriteByte
  95 0020 B860     		str	r0, [r7, #8]
  26:e2.c          ****     
  27:e2.c          ****     if(st == CYRET_SUCCESS){
  96              		.loc 1 27 0
  97 0022 BB68     		ldr	r3, [r7, #8]
  98 0024 002B     		cmp	r3, #0
  99 0026 01D1     		bne	.L4
  28:e2.c          ****         ret = 1;
 100              		.loc 1 28 0
 101 0028 0123     		movs	r3, #1
 102 002a FB73     		strb	r3, [r7, #15]
 103              	.L4:
  29:e2.c          ****     }
  30:e2.c          ****     
  31:e2.c          ****     return ret;
 104              		.loc 1 31 0
 105 002c FB7B     		ldrb	r3, [r7, #15]	@ zero_extendqisi2
  32:e2.c          **** }
 106              		.loc 1 32 0
 107 002e 1846     		mov	r0, r3
 108 0030 1037     		adds	r7, r7, #16
 109              		.cfi_def_cfa_offset 8
 110 0032 BD46     		mov	sp, r7
 111              		.cfi_def_cfa_register 13
 112              		@ sp needed
 113 0034 80BD     		pop	{r7, pc}
 114              		.cfi_endproc
 115              	.LFE65:
 116              		.size	ie2_write_byte, .-ie2_write_byte
 117 0036 00BF     		.text
 118              	.Letext0:
 119              		.file 2 "c:\\program files (x86)\\cypress\\psoc creator\\4.4\\psoc creator\\import\\gnu\\arm\\5.4.
 120              		.file 3 "c:\\program files (x86)\\cypress\\psoc creator\\4.4\\psoc creator\\import\\gnu\\arm\\5.4.
 121              		.file 4 "Generated_Source\\PSoC5/cytypes.h"
 122              		.file 5 "Generated_Source\\PSoC5/core_cm3.h"