ARM GAS  C:\Users\Taha\AppData\Local\Temp\ccH8RXZd.s 			page 1


   1              		.syntax unified
   2              		.cpu cortex-m3
   3              		.fpu softvfp
   4              		.eabi_attribute 20, 1
   5              		.eabi_attribute 21, 1
   6              		.eabi_attribute 23, 3
   7              		.eabi_attribute 24, 1
   8              		.eabi_attribute 25, 1
   9              		.eabi_attribute 26, 1
  10              		.eabi_attribute 30, 6
  11              		.eabi_attribute 34, 1
  12              		.eabi_attribute 18, 4
  13              		.thumb
  14              		.syntax unified
  15              		.file	"main.c"
  16              		.text
  17              	.Ltext0:
  18              		.cfi_sections	.debug_frame
  19              		.section	.text.read_e2prom_i2c,"ax",%progbits
  20              		.align	2
  21              		.global	read_e2prom_i2c
  22              		.thumb
  23              		.thumb_func
  24              		.type	read_e2prom_i2c, %function
  25              	read_e2prom_i2c:
  26              	.LFB64:
  27              		.file 1 "main.c"
   1:main.c        **** /******************************************************************************
   2:main.c        **** * File Name: main.c
   3:main.c        **** *
   4:main.c        **** * Version 1.10
   5:main.c        **** *
   6:main.c        **** * Description: 
   7:main.c        **** *  This example project demonstrates the basic operation of the Bootloader
   8:main.c        **** *  Component.
   9:main.c        **** *
  10:main.c        **** * Related Document: 
  11:main.c        **** *  CE221653_PSoC_4_Bootloader_and_Bootloadable.pdf
  12:main.c        **** *
  13:main.c        **** * Hardware Dependency: 
  14:main.c        **** *  See CE221653_PSoC_4_Bootloader_and_Bootloadable.pdf
  15:main.c        **** *
  16:main.c        **** *******************************************************************************
  17:main.c        **** * Copyright (2017-2019), Cypress Semiconductor Corporation. All rights reserved.
  18:main.c        **** *******************************************************************************
  19:main.c        **** * This software, including source code, documentation and related materials
  20:main.c        **** * (“Software”), is owned by Cypress Semiconductor Corporation or one of its
  21:main.c        **** * subsidiaries (“Cypress”) and is protected by and subject to worldwide patent
  22:main.c        **** * protection (United States and foreign), United States copyright laws and
  23:main.c        **** * international treaty provisions. Therefore, you may use this Software only
  24:main.c        **** * as provided in the license agreement accompanying the software package from
  25:main.c        **** * which you obtained this Software (“EULA”).
  26:main.c        **** *
  27:main.c        **** * If no EULA applies, Cypress hereby grants you a personal, non-exclusive,
  28:main.c        **** * non-transferable license to copy, modify, and compile the Software source
  29:main.c        **** * code solely for use in connection with Cypress’s integrated circuit products.
  30:main.c        **** * Any reproduction, modification, translation, compilation, or representation
ARM GAS  C:\Users\Taha\AppData\Local\Temp\ccH8RXZd.s 			page 2


  31:main.c        **** * of this Software except as specified above is prohibited without the express
  32:main.c        **** * written permission of Cypress.
  33:main.c        **** *
  34:main.c        **** * Disclaimer: THIS SOFTWARE IS PROVIDED AS-IS, WITH NO WARRANTY OF ANY KIND,
  35:main.c        **** * EXPRESS OR IMPLIED, INCLUDING, BUT NOT LIMITED TO, NONINFRINGEMENT, IMPLIED
  36:main.c        **** * WARRANTIES OF MERCHANTABILITY AND FITNESS FOR A PARTICULAR PURPOSE. Cypress
  37:main.c        **** * reserves the right to make changes to the Software without notice. Cypress
  38:main.c        **** * does not assume any liability arising out of the application or use of the
  39:main.c        **** * Software or any product or circuit described in the Software. Cypress does
  40:main.c        **** * not authorize its products for use in any products where a malfunction or
  41:main.c        **** * failure of the Cypress product may reasonably be expected to result in
  42:main.c        **** * significant property damage, injury or death (“High Risk Product”). By
  43:main.c        **** * including Cypress’s product in a High Risk Product, the manufacturer of such
  44:main.c        **** * system or application assumes all risk of such use and in doing so agrees to
  45:main.c        **** * indemnify Cypress against all liability. 
  46:main.c        **** *******************************************************************************/
  47:main.c        **** 
  48:main.c        **** #include "project.h"
  49:main.c        **** #include <CyFlash.h>
  50:main.c        **** #include <stdio.h>
  51:main.c        **** 
  52:main.c        **** // FOTA
  53:main.c        **** #define FOTA_START                          1
  54:main.c        **** #define FOTA_STOP                           0
  55:main.c        **** #define FOTA_ROW_SIZE                       262
  56:main.c        **** // external e2prom
  57:main.c        **** #define EE2_1_CHIP_ADDR                     0x52
  58:main.c        **** #define EE2_2_CHIP_ADDR                     0x50
  59:main.c        **** #define EE2_Loc_FOTA_START                  0
  60:main.c        **** #define EE2_Loc_FOTA_CRC_BYTE0              1
  61:main.c        **** #define EE2_Loc_FOTA_CRC_BYTE1              2
  62:main.c        **** #define EE2_Loc_FOTA_CRC_BYTE2              3
  63:main.c        **** #define EE2_Loc_FOTA_CRC_BYTE3              4
  64:main.c        **** #define EE2_Loc_FOTA_App_SIZE_BYTE0         5
  65:main.c        **** #define EE2_Loc_FOTA_App_SIZE_BYTE1         6
  66:main.c        **** #define EE2_Loc_FOTA_App_SIZE_BYTE2         7    
  67:main.c        **** #define EE2_Loc_FOTA_App_SIZE_BYTE3         8
  68:main.c        **** #define EE2_Loc_FOTA_ROW_START              9
  69:main.c        **** 
  70:main.c        **** 
  71:main.c        **** #if (CY_PSOC4_4100MS)
  72:main.c        ****     #define LED_BLUE_ON     (1u)
  73:main.c        ****     #define LED_BLUE_OFF    (0u)
  74:main.c        **** #else
  75:main.c        ****     #define LED_BLUE_ON     (0u)
  76:main.c        ****     #define LED_BLUE_OFF    (1u)
  77:main.c        **** #endif
  78:main.c        **** 
  79:main.c        **** 
  80:main.c        **** /******************************************************************************
  81:main.c        **** * Function Name: main
  82:main.c        **** *******************************************************************************
  83:main.c        **** *
  84:main.c        **** * Summary:
  85:main.c        **** *  The main function performs these functions:
  86:main.c        **** *  1. Shows the Bootloader status by enabling the blue LED.
  87:main.c        **** *  2. Starts the Bootloader communication.
ARM GAS  C:\Users\Taha\AppData\Local\Temp\ccH8RXZd.s 			page 3


  88:main.c        **** *
  89:main.c        **** ******************************************************************************/
  90:main.c        **** //  Device Address : |1|-|0|-|1|-|0|-|A2|-|A1|-|A0|
  91:main.c        **** 
  92:main.c        **** uint8 read_e2prom_i2c(uint8 chipAddr, uint16 MemAddres)
  93:main.c        **** {  
  28              		.loc 1 93 0
  29              		.cfi_startproc
  30              		@ args = 0, pretend = 0, frame = 16
  31              		@ frame_needed = 1, uses_anonymous_args = 0
  32 0000 80B5     		push	{r7, lr}
  33              		.cfi_def_cfa_offset 8
  34              		.cfi_offset 7, -8
  35              		.cfi_offset 14, -4
  36 0002 84B0     		sub	sp, sp, #16
  37              		.cfi_def_cfa_offset 24
  38 0004 00AF     		add	r7, sp, #0
  39              		.cfi_def_cfa_register 7
  40 0006 0346     		mov	r3, r0
  41 0008 0A46     		mov	r2, r1
  42 000a FB71     		strb	r3, [r7, #7]
  43 000c 1346     		mov	r3, r2	@ movhi
  44 000e BB80     		strh	r3, [r7, #4]	@ movhi
  94:main.c        ****     uint8 ret = 1;
  45              		.loc 1 94 0
  46 0010 0123     		movs	r3, #1
  47 0012 FB73     		strb	r3, [r7, #15]
  95:main.c        ****     
  96:main.c        ****     I2C_MasterSendStart(chipAddr, I2C_MODE_COMPLETE_XFER);   //Again send start
  48              		.loc 1 96 0
  49 0014 FB79     		ldrb	r3, [r7, #7]	@ zero_extendqisi2
  50 0016 0021     		movs	r1, #0
  51 0018 1846     		mov	r0, r3
  52 001a FFF7FEFF 		bl	I2C_MasterSendStart
  97:main.c        **** 
  98:main.c        ****     I2C_MasterWriteByte(MemAddres>>8);              //address of eeprom to read data from it
  53              		.loc 1 98 0
  54 001e BB88     		ldrh	r3, [r7, #4]
  55 0020 1B0A     		lsrs	r3, r3, #8
  56 0022 9BB2     		uxth	r3, r3
  57 0024 DBB2     		uxtb	r3, r3
  58 0026 1846     		mov	r0, r3
  59 0028 FFF7FEFF 		bl	I2C_MasterWriteByte
  99:main.c        **** 
 100:main.c        ****     I2C_MasterWriteByte(MemAddres);                 //address of eeprom to read data from it
  60              		.loc 1 100 0
  61 002c BB88     		ldrh	r3, [r7, #4]	@ movhi
  62 002e DBB2     		uxtb	r3, r3
  63 0030 1846     		mov	r0, r3
  64 0032 FFF7FEFF 		bl	I2C_MasterWriteByte
 101:main.c        ****     
 102:main.c        ****     I2C_MasterSendRestart(chipAddr, I2C_MODE_REPEAT_START);         //Send restart
  65              		.loc 1 102 0
  66 0036 FB79     		ldrb	r3, [r7, #7]	@ zero_extendqisi2
  67 0038 0121     		movs	r1, #1
  68 003a 1846     		mov	r0, r3
  69 003c FFF7FEFF 		bl	I2C_MasterSendRestart
ARM GAS  C:\Users\Taha\AppData\Local\Temp\ccH8RXZd.s 			page 4


 103:main.c        **** 
 104:main.c        ****     ret = I2C_MasterReadByte(I2C_NAK_DATA);                   //receive data bytes with ack
  70              		.loc 1 104 0
  71 0040 0020     		movs	r0, #0
  72 0042 FFF7FEFF 		bl	I2C_MasterReadByte
  73 0046 0346     		mov	r3, r0
  74 0048 FB73     		strb	r3, [r7, #15]
 105:main.c        **** 
 106:main.c        ****     I2C_MasterSendStop();                           //Send stop  
  75              		.loc 1 106 0
  76 004a FFF7FEFF 		bl	I2C_MasterSendStop
 107:main.c        **** 
 108:main.c        ****     //CyDelay(10u);                                   // time must being exist for eeprom time work
 109:main.c        ****     
 110:main.c        ****     return ret;
  77              		.loc 1 110 0
  78 004e FB7B     		ldrb	r3, [r7, #15]	@ zero_extendqisi2
 111:main.c        **** }
  79              		.loc 1 111 0
  80 0050 1846     		mov	r0, r3
  81 0052 1037     		adds	r7, r7, #16
  82              		.cfi_def_cfa_offset 8
  83 0054 BD46     		mov	sp, r7
  84              		.cfi_def_cfa_register 13
  85              		@ sp needed
  86 0056 80BD     		pop	{r7, pc}
  87              		.cfi_endproc
  88              	.LFE64:
  89              		.size	read_e2prom_i2c, .-read_e2prom_i2c
  90              		.section	.text.write_e2prom_i2c,"ax",%progbits
  91              		.align	2
  92              		.global	write_e2prom_i2c
  93              		.thumb
  94              		.thumb_func
  95              		.type	write_e2prom_i2c, %function
  96              	write_e2prom_i2c:
  97              	.LFB65:
 112:main.c        **** 
 113:main.c        **** void write_e2prom_i2c(uint8 chipAddr, uint16 MemAddres, uint8 data)
 114:main.c        **** {
  98              		.loc 1 114 0
  99              		.cfi_startproc
 100              		@ args = 0, pretend = 0, frame = 8
 101              		@ frame_needed = 1, uses_anonymous_args = 0
 102 0000 80B5     		push	{r7, lr}
 103              		.cfi_def_cfa_offset 8
 104              		.cfi_offset 7, -8
 105              		.cfi_offset 14, -4
 106 0002 82B0     		sub	sp, sp, #8
 107              		.cfi_def_cfa_offset 16
 108 0004 00AF     		add	r7, sp, #0
 109              		.cfi_def_cfa_register 7
 110 0006 0346     		mov	r3, r0
 111 0008 FB71     		strb	r3, [r7, #7]
 112 000a 0B46     		mov	r3, r1	@ movhi
 113 000c BB80     		strh	r3, [r7, #4]	@ movhi
 114 000e 1346     		mov	r3, r2
ARM GAS  C:\Users\Taha\AppData\Local\Temp\ccH8RXZd.s 			page 5


 115 0010 BB71     		strb	r3, [r7, #6]
 115:main.c        ****     I2C_MasterSendStart(chipAddr, I2C_MODE_COMPLETE_XFER);     //Send start with slaveID 80u & writ
 116              		.loc 1 115 0
 117 0012 FB79     		ldrb	r3, [r7, #7]	@ zero_extendqisi2
 118 0014 0021     		movs	r1, #0
 119 0016 1846     		mov	r0, r3
 120 0018 FFF7FEFF 		bl	I2C_MasterSendStart
 116:main.c        **** 
 117:main.c        ****     I2C_MasterWriteByte(MemAddres >> 8);                        //address of eeprom on which data n
 121              		.loc 1 117 0
 122 001c BB88     		ldrh	r3, [r7, #4]
 123 001e 1B0A     		lsrs	r3, r3, #8
 124 0020 9BB2     		uxth	r3, r3
 125 0022 DBB2     		uxtb	r3, r3
 126 0024 1846     		mov	r0, r3
 127 0026 FFF7FEFF 		bl	I2C_MasterWriteByte
 118:main.c        **** 
 119:main.c        ****     I2C_MasterWriteByte(MemAddres);                        //address of eeprom on which data needs 
 128              		.loc 1 119 0
 129 002a BB88     		ldrh	r3, [r7, #4]	@ movhi
 130 002c DBB2     		uxtb	r3, r3
 131 002e 1846     		mov	r0, r3
 132 0030 FFF7FEFF 		bl	I2C_MasterWriteByte
 120:main.c        **** 
 121:main.c        ****     I2C_MasterWriteByte(data);
 133              		.loc 1 121 0
 134 0034 BB79     		ldrb	r3, [r7, #6]	@ zero_extendqisi2
 135 0036 1846     		mov	r0, r3
 136 0038 FFF7FEFF 		bl	I2C_MasterWriteByte
 122:main.c        ****     
 123:main.c        ****     I2C_MasterSendStop();
 137              		.loc 1 123 0
 138 003c FFF7FEFF 		bl	I2C_MasterSendStop
 124:main.c        ****     
 125:main.c        ****     CyDelay(5u);   // time must being exist for eeprom time working 
 139              		.loc 1 125 0
 140 0040 0520     		movs	r0, #5
 141 0042 FFF7FEFF 		bl	CyDelay
 126:main.c        **** }
 142              		.loc 1 126 0
 143 0046 00BF     		nop
 144 0048 0837     		adds	r7, r7, #8
 145              		.cfi_def_cfa_offset 8
 146 004a BD46     		mov	sp, r7
 147              		.cfi_def_cfa_register 13
 148              		@ sp needed
 149 004c 80BD     		pop	{r7, pc}
 150              		.cfi_endproc
 151              	.LFE65:
 152              		.size	write_e2prom_i2c, .-write_e2prom_i2c
 153              		.global	counter
 154 004e 00BF     		.bss
 155              		.type	counter, %object
 156              		.size	counter, 1
 157              	counter:
 158 0000 00       		.space	1
 159              		.comm	buf,100,4
ARM GAS  C:\Users\Taha\AppData\Local\Temp\ccH8RXZd.s 			page 6


 160              		.section	.rodata
 161              		.align	2
 162              	.LC0:
 163 0000 77726F74 		.ascii	"wrote row: %02d\015\012\000"
 163      6520726F 
 163      773A2025 
 163      3032640D 
 163      0A00
 164 0012 0000     		.align	2
 165              	.LC1:
 166 0014 466C6173 		.ascii	"Flash writing already in use\015\012\000"
 166      68207772 
 166      6974696E 
 166      6720616C 
 166      72656164 
 167 0033 00       		.align	2
 168              	.LC2:
 169 0034 436F6D6D 		.ascii	"Command not accepted\015\012\000"
 169      616E6420 
 169      6E6F7420 
 169      61636365 
 169      70746564 
 170 004b 00       		.align	2
 171              	.LC3:
 172 004c 4661696C 		.ascii	"Failure\015\012\000"
 172      7572650D 
 172      0A00
 173              		.section	.text.handleError,"ax",%progbits
 174              		.align	2
 175              		.global	handleError
 176              		.thumb
 177              		.thumb_func
 178              		.type	handleError, %function
 179              	handleError:
 180              	.LFB66:
 127:main.c        **** 
 128:main.c        **** uint8 counter = 0;
 129:main.c        **** char buf[100];
 130:main.c        **** void handleError(cystatus* value)
 131:main.c        **** {
 181              		.loc 1 131 0
 182              		.cfi_startproc
 183              		@ args = 0, pretend = 0, frame = 8
 184              		@ frame_needed = 1, uses_anonymous_args = 0
 185 0000 80B5     		push	{r7, lr}
 186              		.cfi_def_cfa_offset 8
 187              		.cfi_offset 7, -8
 188              		.cfi_offset 14, -4
 189 0002 82B0     		sub	sp, sp, #8
 190              		.cfi_def_cfa_offset 16
 191 0004 00AF     		add	r7, sp, #0
 192              		.cfi_def_cfa_register 7
 193 0006 7860     		str	r0, [r7, #4]
 132:main.c        ****     if(*value == CYRET_SUCCESS){
 194              		.loc 1 132 0
 195 0008 7B68     		ldr	r3, [r7, #4]
 196 000a 1B68     		ldr	r3, [r3]
ARM GAS  C:\Users\Taha\AppData\Local\Temp\ccH8RXZd.s 			page 7


 197 000c 002B     		cmp	r3, #0
 198 000e 13D1     		bne	.L5
 133:main.c        **** //        RS232_Debug_PutString("Successful\r\n");
 134:main.c        ****         memset(buf, '\0', sizeof(buf));
 199              		.loc 1 134 0
 200 0010 6422     		movs	r2, #100
 201 0012 0021     		movs	r1, #0
 202 0014 1448     		ldr	r0, .L10
 203 0016 FFF7FEFF 		bl	memset
 135:main.c        ****         sprintf(buf, "wrote row: %02d\r\n", counter++);
 204              		.loc 1 135 0
 205 001a 144B     		ldr	r3, .L10+4
 206 001c 1B78     		ldrb	r3, [r3]	@ zero_extendqisi2
 207 001e 5A1C     		adds	r2, r3, #1
 208 0020 D1B2     		uxtb	r1, r2
 209 0022 124A     		ldr	r2, .L10+4
 210 0024 1170     		strb	r1, [r2]
 211 0026 1A46     		mov	r2, r3
 212 0028 1149     		ldr	r1, .L10+8
 213 002a 0F48     		ldr	r0, .L10
 214 002c FFF7FEFF 		bl	sprintf
 136:main.c        ****         RS485_Sensor_PutString(buf);
 215              		.loc 1 136 0
 216 0030 0D48     		ldr	r0, .L10
 217 0032 FFF7FEFF 		bl	RS485_Sensor_PutString
 137:main.c        ****     } 
 138:main.c        ****     else if(*value == CYRET_LOCKED){
 139:main.c        **** //        RS232_Debug_PutString("Flash writing already in use\r\n");
 140:main.c        ****         RS485_Sensor_PutString("Flash writing already in use\r\n");
 141:main.c        ****     } 
 142:main.c        ****     else if(*value == CYRET_CANCELED){
 143:main.c        **** //        RS232_Debug_PutString("Command not accepted\r\n");
 144:main.c        ****         RS485_Sensor_PutString("Command not accepted\r\n");
 145:main.c        ****     } 
 146:main.c        ****     else{
 147:main.c        **** //        RS232_Debug_PutString("Failure\r\n");
 148:main.c        ****         RS485_Sensor_PutString("Failure\r\n");
 149:main.c        ****     }
 150:main.c        **** }
 218              		.loc 1 150 0
 219 0036 12E0     		b	.L9
 220              	.L5:
 138:main.c        **** //        RS232_Debug_PutString("Flash writing already in use\r\n");
 221              		.loc 1 138 0
 222 0038 7B68     		ldr	r3, [r7, #4]
 223 003a 1B68     		ldr	r3, [r3]
 224 003c 042B     		cmp	r3, #4
 225 003e 03D1     		bne	.L7
 140:main.c        ****     } 
 226              		.loc 1 140 0
 227 0040 0C48     		ldr	r0, .L10+12
 228 0042 FFF7FEFF 		bl	RS485_Sensor_PutString
 229              		.loc 1 150 0
 230 0046 0AE0     		b	.L9
 231              	.L7:
 142:main.c        **** //        RS232_Debug_PutString("Command not accepted\r\n");
 232              		.loc 1 142 0
ARM GAS  C:\Users\Taha\AppData\Local\Temp\ccH8RXZd.s 			page 8


 233 0048 7B68     		ldr	r3, [r7, #4]
 234 004a 1B68     		ldr	r3, [r3]
 235 004c 092B     		cmp	r3, #9
 236 004e 03D1     		bne	.L8
 144:main.c        ****     } 
 237              		.loc 1 144 0
 238 0050 0948     		ldr	r0, .L10+16
 239 0052 FFF7FEFF 		bl	RS485_Sensor_PutString
 240              		.loc 1 150 0
 241 0056 02E0     		b	.L9
 242              	.L8:
 148:main.c        ****     }
 243              		.loc 1 148 0
 244 0058 0848     		ldr	r0, .L10+20
 245 005a FFF7FEFF 		bl	RS485_Sensor_PutString
 246              	.L9:
 247              		.loc 1 150 0
 248 005e 00BF     		nop
 249 0060 0837     		adds	r7, r7, #8
 250              		.cfi_def_cfa_offset 8
 251 0062 BD46     		mov	sp, r7
 252              		.cfi_def_cfa_register 13
 253              		@ sp needed
 254 0064 80BD     		pop	{r7, pc}
 255              	.L11:
 256 0066 00BF     		.align	2
 257              	.L10:
 258 0068 00000000 		.word	buf
 259 006c 00000000 		.word	counter
 260 0070 00000000 		.word	.LC0
 261 0074 14000000 		.word	.LC1
 262 0078 34000000 		.word	.LC2
 263 007c 4C000000 		.word	.LC3
 264              		.cfi_endproc
 265              	.LFE66:
 266              		.size	handleError, .-handleError
 267              		.section	.rodata
 268 0056 0000     		.align	2
 269              	.LC4:
 270 0058 0D0A2D2D 		.ascii	"\015\012--------------------\015\012&&&&& BOOTLOADE"
 270      2D2D2D2D 
 270      2D2D2D2D 
 270      2D2D2D2D 
 270      2D2D2D2D 
 271 007f 52205354 		.ascii	"R STARTS &&&&&\015\012--------------------\015\012\000"
 271      41525453 
 271      20262626 
 271      26260D0A 
 271      2D2D2D2D 
 272 00a6 0000     		.align	2
 273              	.LC5:
 274 00a8 4352433A 		.ascii	"CRC: %08lX\015\012Bootloader status:0x%02X\015\012a"
 274      20253038 
 274      6C580D0A 
 274      426F6F74 
 274      6C6F6164 
 275 00cf 70702073 		.ascii	"pp size: %ld\015\012\000"
ARM GAS  C:\Users\Taha\AppData\Local\Temp\ccH8RXZd.s 			page 9


 275      697A653A 
 275      20256C64 
 275      0D0A00
 276 00de 0000     		.align	2
 277              	.LC6:
 278 00e0 66697273 		.ascii	"first row address:%04X\015\012row CRC: %02X\015\012"
 278      7420726F 
 278      77206164 
 278      64726573 
 278      733A2530 
 279 0107 00       		.ascii	"\000"
 280              		.align	2
 281              	.LC7:
 282 0108 6E657743 		.ascii	"newCRC: 0x%08lX\015\012AppCRC: 0x%08lX\015\012\000"
 282      52433A20 
 282      30782530 
 282      386C580D 
 282      0A417070 
 283 012b 00       		.align	2
 284              	.LC8:
 285 012c 43524373 		.ascii	"CRCs are OK!\015\012\000"
 285      20617265 
 285      204F4B21 
 285      0D0A00
 286 013b 00       		.align	2
 287              	.LC9:
 288 013c 0D0A2D2D 		.ascii	"\015\012--------------------\015\012&&&&& BOOTLOADE"
 288      2D2D2D2D 
 288      2D2D2D2D 
 288      2D2D2D2D 
 288      2D2D2D2D 
 289 0163 52205052 		.ascii	"R PROGRAMMED &&&&&\015\012--------------------\015\012"
 289      4F475241 
 289      4D4D4544 
 289      20262626 
 289      26260D0A 
 290 018d 00       		.ascii	"\000"
 291 018e 0000     		.align	2
 292              	.LC10:
 293 0190 0D0A2D2D 		.ascii	"\015\012--------------------\015\012&&&&& BOOTLOADE"
 293      2D2D2D2D 
 293      2D2D2D2D 
 293      2D2D2D2D 
 293      2D2D2D2D 
 294 01b7 52204641 		.ascii	"R FAILED!!! &&&&&\015\012--------------------\015\012"
 294      494C4544 
 294      21212120 
 294      26262626 
 294      260D0A2D 
 295 01e0 00       		.ascii	"\000"
 296 01e1 000000   		.align	2
 297              	.LC11:
 298 01e4 0D0A2D2D 		.ascii	"\015\012--------------------\015\012&&&&& BOOTLOADE"
 298      2D2D2D2D 
 298      2D2D2D2D 
 298      2D2D2D2D 
 298      2D2D2D2D 
ARM GAS  C:\Users\Taha\AppData\Local\Temp\ccH8RXZd.s 			page 10


 299 020b 5220454E 		.ascii	"R ENDS &&&&&\015\012--------------------\015\012\000"
 299      44532026 
 299      26262626 
 299      0D0A2D2D 
 299      2D2D2D2D 
 300              		.section	.text.main,"ax",%progbits
 301              		.align	2
 302              		.global	main
 303              		.thumb
 304              		.thumb_func
 305              		.type	main, %function
 306              	main:
 307              	.LFB67:
 151:main.c        **** 
 152:main.c        **** int main()
 153:main.c        **** {
 308              		.loc 1 153 0
 309              		.cfi_startproc
 310              		@ args = 0, pretend = 0, frame = 408
 311              		@ frame_needed = 1, uses_anonymous_args = 0
 312 0000 90B5     		push	{r4, r7, lr}
 313              		.cfi_def_cfa_offset 12
 314              		.cfi_offset 4, -12
 315              		.cfi_offset 7, -8
 316              		.cfi_offset 14, -4
 317 0002 E9B0     		sub	sp, sp, #420
 318              		.cfi_def_cfa_offset 432
 319 0004 02AF     		add	r7, sp, #8
 320              		.cfi_def_cfa 7, 424
 154:main.c        ****     /* Enable the global interrupts */
 155:main.c        ****     CyGlobalIntEnable;
 321              		.loc 1 155 0
 322              		.syntax unified
 323              	@ 155 "main.c" 1
 324 0006 62B6     		CPSIE   i
 325              	@ 0 "" 2
 156:main.c        ****     
 157:main.c        ****     /* Start the Bootloader communication */
 158:main.c        ****     //Bootloader_Start();
 159:main.c        ****     
 160:main.c        **** //    RS232_Debug_Start();
 161:main.c        ****     RS485_Sensor_Start();
 326              		.loc 1 161 0
 327              		.thumb
 328              		.syntax unified
 329 0008 FFF7FEFF 		bl	RS485_Sensor_Start
 162:main.c        ****     I2C_Start();
 330              		.loc 1 162 0
 331 000c FFF7FEFF 		bl	I2C_Start
 163:main.c        ****     
 164:main.c        **** //    RS232_Debug_PutString("\r\n--------------------\r\n&&&&& BOOTLOADER STARTS &&&&&\r\n---------
 165:main.c        ****     RS485_Sensor_PutString("\r\n--------------------\r\n&&&&& BOOTLOADER STARTS &&&&&\r\n----------
 332              		.loc 1 165 0
 333 0010 E148     		ldr	r0, .L28
 334 0012 FFF7FEFF 		bl	RS485_Sensor_PutString
 166:main.c        ****     
 167:main.c        **** //    Bootloader_Exit(Bootloader_EXIT_TO_BTLDB);
ARM GAS  C:\Users\Taha\AppData\Local\Temp\ccH8RXZd.s 			page 11


 168:main.c        **** //    
 169:main.c        **** //    return 0;
 170:main.c        ****     
 171:main.c        ****     uint32 newCRC = 0;
 335              		.loc 1 171 0
 336 0016 0023     		movs	r3, #0
 337 0018 C7F89431 		str	r3, [r7, #404]
 172:main.c        ****     
 173:main.c        ****     char buff[100];
 174:main.c        ****     
 175:main.c        ****     /* ***************************** METADATA COMES FROM SERVER ***************************** */
 176:main.c        ****     uint8 status = read_e2prom_i2c(EE2_1_CHIP_ADDR, EE2_Loc_FOTA_START); 
 338              		.loc 1 176 0
 339 001c 0021     		movs	r1, #0
 340 001e 5220     		movs	r0, #82
 341 0020 FFF7FEFF 		bl	read_e2prom_i2c
 342 0024 0346     		mov	r3, r0
 343 0026 87F88331 		strb	r3, [r7, #387]
 177:main.c        ****     uint32 appCRC = read_e2prom_i2c(EE2_1_CHIP_ADDR, EE2_Loc_FOTA_CRC_BYTE3) << 24 | read_e2prom_i2
 344              		.loc 1 177 0
 345 002a 0421     		movs	r1, #4
 346 002c 5220     		movs	r0, #82
 347 002e FFF7FEFF 		bl	read_e2prom_i2c
 348 0032 0346     		mov	r3, r0
 349 0034 1C06     		lsls	r4, r3, #24
 350 0036 0321     		movs	r1, #3
 351 0038 5220     		movs	r0, #82
 352 003a FFF7FEFF 		bl	read_e2prom_i2c
 353 003e 0346     		mov	r3, r0
 354 0040 1B04     		lsls	r3, r3, #16
 355 0042 1C43     		orrs	r4, r4, r3
 356 0044 0221     		movs	r1, #2
 357 0046 5220     		movs	r0, #82
 358 0048 FFF7FEFF 		bl	read_e2prom_i2c
 359 004c 0346     		mov	r3, r0
 360 004e 1B02     		lsls	r3, r3, #8
 361 0050 1C43     		orrs	r4, r4, r3
 362 0052 0121     		movs	r1, #1
 363 0054 5220     		movs	r0, #82
 364 0056 FFF7FEFF 		bl	read_e2prom_i2c
 365 005a 0346     		mov	r3, r0
 366 005c 2343     		orrs	r3, r3, r4
 367 005e C7F87C31 		str	r3, [r7, #380]
 178:main.c        ****     uint32 appSize = read_e2prom_i2c(EE2_1_CHIP_ADDR, EE2_Loc_FOTA_App_SIZE_BYTE3) << 24 | read_e2p
 368              		.loc 1 178 0
 369 0062 0821     		movs	r1, #8
 370 0064 5220     		movs	r0, #82
 371 0066 FFF7FEFF 		bl	read_e2prom_i2c
 372 006a 0346     		mov	r3, r0
 373 006c 1C06     		lsls	r4, r3, #24
 374 006e 0721     		movs	r1, #7
 375 0070 5220     		movs	r0, #82
 376 0072 FFF7FEFF 		bl	read_e2prom_i2c
 377 0076 0346     		mov	r3, r0
 378 0078 1B04     		lsls	r3, r3, #16
 379 007a 1C43     		orrs	r4, r4, r3
 380 007c 0621     		movs	r1, #6
ARM GAS  C:\Users\Taha\AppData\Local\Temp\ccH8RXZd.s 			page 12


 381 007e 5220     		movs	r0, #82
 382 0080 FFF7FEFF 		bl	read_e2prom_i2c
 383 0084 0346     		mov	r3, r0
 384 0086 1B02     		lsls	r3, r3, #8
 385 0088 1C43     		orrs	r4, r4, r3
 386 008a 0521     		movs	r1, #5
 387 008c 5220     		movs	r0, #82
 388 008e FFF7FEFF 		bl	read_e2prom_i2c
 389 0092 0346     		mov	r3, r0
 390 0094 2343     		orrs	r3, r3, r4
 391 0096 C7F87831 		str	r3, [r7, #376]
 179:main.c        ****     //uint8 appLines = read_e2prom_i2c(EE2_1_CHIP_ADDR, 0xFFFA);
 180:main.c        ****     /* ***************************** METADATA COMES FROM SERVER ***************************** */
 181:main.c        ****     
 182:main.c        ****     // every line has 262 bytes including [1-Byte ArrayID][2-Bytes ArrayAddress][2-Bytes Line Size(
 183:main.c        ****     
 184:main.c        ****     memset(buff,'\0',sizeof(buff));
 392              		.loc 1 184 0
 393 009a 07F58673 		add	r3, r7, #268
 394 009e 6422     		movs	r2, #100
 395 00a0 0021     		movs	r1, #0
 396 00a2 1846     		mov	r0, r3
 397 00a4 FFF7FEFF 		bl	memset
 185:main.c        ****     sprintf(buff,"CRC: %08lX\r\nBootloader status:0x%02X\r\napp size: %ld\r\n", appCRC, status, app
 398              		.loc 1 185 0
 399 00a8 97F88321 		ldrb	r2, [r7, #387]	@ zero_extendqisi2
 400 00ac 07F58670 		add	r0, r7, #268
 401 00b0 D7F87831 		ldr	r3, [r7, #376]
 402 00b4 0093     		str	r3, [sp]
 403 00b6 1346     		mov	r3, r2
 404 00b8 D7F87C21 		ldr	r2, [r7, #380]
 405 00bc B749     		ldr	r1, .L28+4
 406 00be FFF7FEFF 		bl	sprintf
 186:main.c        **** //    RS232_Debug_PutString(buff);  
 187:main.c        ****     RS485_Sensor_PutString(buff);
 407              		.loc 1 187 0
 408 00c2 07F58673 		add	r3, r7, #268
 409 00c6 1846     		mov	r0, r3
 410 00c8 FFF7FEFF 		bl	RS485_Sensor_PutString
 188:main.c        **** 
 189:main.c        ****     if(status == FOTA_START){
 411              		.loc 1 189 0
 412 00cc 97F88331 		ldrb	r3, [r7, #387]	@ zero_extendqisi2
 413 00d0 012B     		cmp	r3, #1
 414 00d2 40F0B381 		bne	.L13
 415              	.LBB2:
 190:main.c        ****         for (uint i = 0; i < (appSize / FOTA_ROW_SIZE); i++){
 416              		.loc 1 190 0
 417 00d6 0023     		movs	r3, #0
 418 00d8 C7F89031 		str	r3, [r7, #400]
 419 00dc 9FE0     		b	.L14
 420              	.L17:
 421              	.LBB3:
 191:main.c        ****             memset(buff,'\0',sizeof(buff));
 422              		.loc 1 191 0
 423 00de 07F58673 		add	r3, r7, #268
 424 00e2 6422     		movs	r2, #100
ARM GAS  C:\Users\Taha\AppData\Local\Temp\ccH8RXZd.s 			page 13


 425 00e4 0021     		movs	r1, #0
 426 00e6 1846     		mov	r0, r3
 427 00e8 FFF7FEFF 		bl	memset
 192:main.c        ****             uint16 row_add = (read_e2prom_i2c(EE2_1_CHIP_ADDR, EE2_Loc_FOTA_ROW_START + (i * FOTA_R
 428              		.loc 1 192 0
 429 00ec D7F89031 		ldr	r3, [r7, #400]
 430 00f0 9BB2     		uxth	r3, r3
 431 00f2 1A46     		mov	r2, r3	@ movhi
 432 00f4 9201     		lsls	r2, r2, #6
 433 00f6 1A44     		add	r2, r2, r3
 434 00f8 5200     		lsls	r2, r2, #1
 435 00fa 1344     		add	r3, r3, r2
 436 00fc 5B00     		lsls	r3, r3, #1
 437 00fe 9BB2     		uxth	r3, r3
 438 0100 0A33     		adds	r3, r3, #10
 439 0102 9BB2     		uxth	r3, r3
 440 0104 1946     		mov	r1, r3
 441 0106 5220     		movs	r0, #82
 442 0108 FFF7FEFF 		bl	read_e2prom_i2c
 443 010c 0346     		mov	r3, r0
 444 010e 1B02     		lsls	r3, r3, #8
 445 0110 1CB2     		sxth	r4, r3
 446 0112 D7F89031 		ldr	r3, [r7, #400]
 447 0116 9BB2     		uxth	r3, r3
 448 0118 1A46     		mov	r2, r3	@ movhi
 449 011a 9201     		lsls	r2, r2, #6
 450 011c 1A44     		add	r2, r2, r3
 451 011e 5200     		lsls	r2, r2, #1
 452 0120 1344     		add	r3, r3, r2
 453 0122 5B00     		lsls	r3, r3, #1
 454 0124 9BB2     		uxth	r3, r3
 455 0126 0B33     		adds	r3, r3, #11
 456 0128 9BB2     		uxth	r3, r3
 457 012a 1946     		mov	r1, r3
 458 012c 5220     		movs	r0, #82
 459 012e FFF7FEFF 		bl	read_e2prom_i2c
 460 0132 0346     		mov	r3, r0
 461 0134 1BB2     		sxth	r3, r3
 462 0136 2343     		orrs	r3, r3, r4
 463 0138 1BB2     		sxth	r3, r3
 464 013a A7F87631 		strh	r3, [r7, #374]	@ movhi
 193:main.c        ****             uint8 row_crc = read_e2prom_i2c(EE2_1_CHIP_ADDR, EE2_Loc_FOTA_ROW_START + 262 + (i * FO
 465              		.loc 1 193 0
 466 013e D7F89031 		ldr	r3, [r7, #400]
 467 0142 9BB2     		uxth	r3, r3
 468 0144 1A46     		mov	r2, r3	@ movhi
 469 0146 9201     		lsls	r2, r2, #6
 470 0148 1A44     		add	r2, r2, r3
 471 014a 5200     		lsls	r2, r2, #1
 472 014c 1344     		add	r3, r3, r2
 473 014e 5B00     		lsls	r3, r3, #1
 474 0150 9BB2     		uxth	r3, r3
 475 0152 03F58773 		add	r3, r3, #270
 476 0156 9BB2     		uxth	r3, r3
 477 0158 1946     		mov	r1, r3
 478 015a 5220     		movs	r0, #82
 479 015c FFF7FEFF 		bl	read_e2prom_i2c
ARM GAS  C:\Users\Taha\AppData\Local\Temp\ccH8RXZd.s 			page 14


 480 0160 0346     		mov	r3, r0
 481 0162 87F87531 		strb	r3, [r7, #373]
 194:main.c        ****             sprintf(buff,"first row address:%04X\r\nrow CRC: %02X\r\n", row_add, row_crc);
 482              		.loc 1 194 0
 483 0166 B7F87621 		ldrh	r2, [r7, #374]
 484 016a 97F87531 		ldrb	r3, [r7, #373]	@ zero_extendqisi2
 485 016e 07F58670 		add	r0, r7, #268
 486 0172 8B49     		ldr	r1, .L28+8
 487 0174 FFF7FEFF 		bl	sprintf
 195:main.c        **** 
 196:main.c        **** //            if(i == 116){
 197:main.c        **** //                for(int k = 0; k < FOTA_ROW_SIZE; k++){
 198:main.c        **** //                    memset(buff, '\0', sizeof(buff));
 199:main.c        **** //                    sprintf(buff, "%02X ", read_e2prom_i2c(EE2_1_CHIP_ADDR, EE2_Loc_FOTA_ROW_STAR
 200:main.c        **** //                    RS485_Sensor_PutString(buff);
 201:main.c        **** //                    if(k % 64 == 0){
 202:main.c        **** //                        RS485_Sensor_PutString("\r\n");       
 203:main.c        **** //                    }
 204:main.c        **** //                }
 205:main.c        **** //            }
 206:main.c        **** //            sprintf(buff,"\r\narray id:%02X\r\nfirst row address:%04X\r\nrow size: %04x\r\nfirst 
 207:main.c        **** //                read_e2prom_i2c(EE2_1_CHIP_ADDR, EE2_Loc_FOTA_ROW_START + (i * FOTA_ROW_SIZE)),
 208:main.c        **** //                (read_e2prom_i2c(EE2_1_CHIP_ADDR, EE2_Loc_FOTA_ROW_START + (i * FOTA_ROW_SIZE) + 
 209:main.c        **** //                read_e2prom_i2c(EE2_1_CHIP_ADDR, EE2_Loc_FOTA_ROW_START + (i * FOTA_ROW_SIZE) + 3
 210:main.c        **** //                read_e2prom_i2c(EE2_1_CHIP_ADDR, EE2_Loc_FOTA_ROW_START + (i * FOTA_ROW_SIZE) + 5
 211:main.c        **** //                read_e2prom_i2c(EE2_1_CHIP_ADDR, EE2_Loc_FOTA_ROW_START + 262 + (i * FOTA_ROW_SIZ
 212:main.c        **** //            );
 213:main.c        **** //                RS232_Debug_PutString(buff);    
 214:main.c        **** //            RS485_Sensor_PutString(buff);
 215:main.c        ****             
 216:main.c        **** //                uint16 rowAddress = read_e2prom_i2c(i+1) << 8 | read_e2prom_i2c(i+2) << 0;
 217:main.c        **** //                uint8  arrayID    = read_e2prom_i2c(i);
 218:main.c        ****             
 219:main.c        ****             uint8 dataBuff[FOTA_ROW_SIZE]; // 262
 220:main.c        ****             memset(dataBuff, '\0', sizeof(dataBuff));
 488              		.loc 1 220 0
 489 0178 3B46     		mov	r3, r7
 490 017a 4FF48372 		mov	r2, #262
 491 017e 0021     		movs	r1, #0
 492 0180 1846     		mov	r0, r3
 493 0182 FFF7FEFF 		bl	memset
 494              	.LBB4:
 221:main.c        ****             for(uint j = 0; j < FOTA_ROW_SIZE; j++){
 495              		.loc 1 221 0
 496 0186 0023     		movs	r3, #0
 497 0188 C7F88C31 		str	r3, [r7, #396]
 498 018c 3DE0     		b	.L15
 499              	.L16:
 222:main.c        ****                 dataBuff[j] = read_e2prom_i2c(EE2_1_CHIP_ADDR, EE2_Loc_FOTA_ROW_START + (i * FOTA_R
 500              		.loc 1 222 0 discriminator 3
 501 018e D7F89031 		ldr	r3, [r7, #400]
 502 0192 9BB2     		uxth	r3, r3
 503 0194 1A46     		mov	r2, r3	@ movhi
 504 0196 9201     		lsls	r2, r2, #6
 505 0198 1A44     		add	r2, r2, r3
 506 019a 5200     		lsls	r2, r2, #1
 507 019c 1344     		add	r3, r3, r2
ARM GAS  C:\Users\Taha\AppData\Local\Temp\ccH8RXZd.s 			page 15


 508 019e 5B00     		lsls	r3, r3, #1
 509 01a0 9AB2     		uxth	r2, r3
 510 01a2 D7F88C31 		ldr	r3, [r7, #396]
 511 01a6 9BB2     		uxth	r3, r3
 512 01a8 1344     		add	r3, r3, r2
 513 01aa 9BB2     		uxth	r3, r3
 514 01ac 0933     		adds	r3, r3, #9
 515 01ae 9BB2     		uxth	r3, r3
 516 01b0 1946     		mov	r1, r3
 517 01b2 5220     		movs	r0, #82
 518 01b4 FFF7FEFF 		bl	read_e2prom_i2c
 519 01b8 0346     		mov	r3, r0
 520 01ba 1946     		mov	r1, r3
 521 01bc 3A46     		mov	r2, r7
 522 01be D7F88C31 		ldr	r3, [r7, #396]
 523 01c2 1344     		add	r3, r3, r2
 524 01c4 0A46     		mov	r2, r1
 525 01c6 1A70     		strb	r2, [r3]
 223:main.c        ****                 newCRC += read_e2prom_i2c(EE2_1_CHIP_ADDR, EE2_Loc_FOTA_ROW_START + (i * FOTA_ROW_S
 526              		.loc 1 223 0 discriminator 3
 527 01c8 D7F89031 		ldr	r3, [r7, #400]
 528 01cc 9BB2     		uxth	r3, r3
 529 01ce 1A46     		mov	r2, r3	@ movhi
 530 01d0 9201     		lsls	r2, r2, #6
 531 01d2 1A44     		add	r2, r2, r3
 532 01d4 5200     		lsls	r2, r2, #1
 533 01d6 1344     		add	r3, r3, r2
 534 01d8 5B00     		lsls	r3, r3, #1
 535 01da 9AB2     		uxth	r2, r3
 536 01dc D7F88C31 		ldr	r3, [r7, #396]
 537 01e0 9BB2     		uxth	r3, r3
 538 01e2 1344     		add	r3, r3, r2
 539 01e4 9BB2     		uxth	r3, r3
 540 01e6 0933     		adds	r3, r3, #9
 541 01e8 9BB2     		uxth	r3, r3
 542 01ea 1946     		mov	r1, r3
 543 01ec 5220     		movs	r0, #82
 544 01ee FFF7FEFF 		bl	read_e2prom_i2c
 545 01f2 0346     		mov	r3, r0
 546 01f4 1A46     		mov	r2, r3
 547 01f6 D7F89431 		ldr	r3, [r7, #404]
 548 01fa 1344     		add	r3, r3, r2
 549 01fc C7F89431 		str	r3, [r7, #404]
 221:main.c        ****             for(uint j = 0; j < FOTA_ROW_SIZE; j++){
 550              		.loc 1 221 0 discriminator 3
 551 0200 D7F88C31 		ldr	r3, [r7, #396]
 552 0204 0133     		adds	r3, r3, #1
 553 0206 C7F88C31 		str	r3, [r7, #396]
 554              	.L15:
 221:main.c        ****             for(uint j = 0; j < FOTA_ROW_SIZE; j++){
 555              		.loc 1 221 0 is_stmt 0 discriminator 1
 556 020a D7F88C31 		ldr	r3, [r7, #396]
 557 020e B3F5837F 		cmp	r3, #262
 558 0212 BCD3     		bcc	.L16
 559              	.LBE4:
 560              	.LBE3:
 190:main.c        ****             memset(buff,'\0',sizeof(buff));
ARM GAS  C:\Users\Taha\AppData\Local\Temp\ccH8RXZd.s 			page 16


 561              		.loc 1 190 0 is_stmt 1 discriminator 2
 562 0214 D7F89031 		ldr	r3, [r7, #400]
 563 0218 0133     		adds	r3, r3, #1
 564 021a C7F89031 		str	r3, [r7, #400]
 565              	.L14:
 190:main.c        ****             memset(buff,'\0',sizeof(buff));
 566              		.loc 1 190 0 is_stmt 0 discriminator 1
 567 021e D7F87831 		ldr	r3, [r7, #376]
 568 0222 604A     		ldr	r2, .L28+12
 569 0224 A2FB0323 		umull	r2, r3, r2, r3
 570 0228 1A0A     		lsrs	r2, r3, #8
 571 022a D7F89031 		ldr	r3, [r7, #400]
 572 022e 9A42     		cmp	r2, r3
 573 0230 3FF655AF 		bhi	.L17
 574              	.LBE2:
 224:main.c        ****             }
 225:main.c        ****         }
 226:main.c        ****             
 227:main.c        ****         newCRC = (~newCRC) + 1;
 575              		.loc 1 227 0 is_stmt 1
 576 0234 D7F89431 		ldr	r3, [r7, #404]
 577 0238 5B42     		negs	r3, r3
 578 023a C7F89431 		str	r3, [r7, #404]
 228:main.c        ****         
 229:main.c        ****         memset(buff,'\0',sizeof(buff));
 579              		.loc 1 229 0
 580 023e 07F58673 		add	r3, r7, #268
 581 0242 6422     		movs	r2, #100
 582 0244 0021     		movs	r1, #0
 583 0246 1846     		mov	r0, r3
 584 0248 FFF7FEFF 		bl	memset
 230:main.c        ****         sprintf(buff,"newCRC: 0x%08lX\r\nAppCRC: 0x%08lX\r\n", newCRC, appCRC);
 585              		.loc 1 230 0
 586 024c 07F58670 		add	r0, r7, #268
 587 0250 D7F87C31 		ldr	r3, [r7, #380]
 588 0254 D7F89421 		ldr	r2, [r7, #404]
 589 0258 5349     		ldr	r1, .L28+16
 590 025a FFF7FEFF 		bl	sprintf
 231:main.c        **** //        RS232_Debug_PutString(buff);
 232:main.c        ****         RS485_Sensor_PutString(buff);
 591              		.loc 1 232 0
 592 025e 07F58673 		add	r3, r7, #268
 593 0262 1846     		mov	r0, r3
 594 0264 FFF7FEFF 		bl	RS485_Sensor_PutString
 233:main.c        ****         
 234:main.c        ****         if(newCRC == appCRC){
 595              		.loc 1 234 0
 596 0268 D7F89421 		ldr	r2, [r7, #404]
 597 026c D7F87C31 		ldr	r3, [r7, #380]
 598 0270 9A42     		cmp	r2, r3
 599 0272 40F0D480 		bne	.L18
 600              	.LBB5:
 235:main.c        **** //            RS232_Debug_PutString("CRCs are OK!\r\n");
 236:main.c        ****             RS485_Sensor_PutString("CRCs are OK!\r\n");
 601              		.loc 1 236 0
 602 0276 4D48     		ldr	r0, .L28+20
 603 0278 FFF7FEFF 		bl	RS485_Sensor_PutString
ARM GAS  C:\Users\Taha\AppData\Local\Temp\ccH8RXZd.s 			page 17


 604              	.LBB6:
 237:main.c        ****             
 238:main.c        ****             uint8 dataBuff[CY_FLASH_SIZEOF_ROW];
 239:main.c        ****             
 240:main.c        ****             for (uint i = 0; i < appSize; i++){
 605              		.loc 1 240 0
 606 027c 0023     		movs	r3, #0
 607 027e C7F88831 		str	r3, [r7, #392]
 608 0282 B5E0     		b	.L19
 609              	.L26:
 241:main.c        ****                 if(i % FOTA_ROW_SIZE == 0){
 610              		.loc 1 241 0
 611 0284 D7F88821 		ldr	r2, [r7, #392]
 612 0288 464B     		ldr	r3, .L28+12
 613 028a A3FB0213 		umull	r1, r3, r3, r2
 614 028e 1B0A     		lsrs	r3, r3, #8
 615 0290 4FF48371 		mov	r1, #262
 616 0294 01FB03F3 		mul	r3, r1, r3
 617 0298 D31A     		subs	r3, r2, r3
 618 029a 002B     		cmp	r3, #0
 619 029c 40F0A380 		bne	.L20
 620              	.LBB7:
 242:main.c        ****                     uint16 rowAddress = read_e2prom_i2c(EE2_1_CHIP_ADDR, EE2_Loc_FOTA_ROW_START + i
 621              		.loc 1 242 0
 622 02a0 D7F88831 		ldr	r3, [r7, #392]
 623 02a4 9BB2     		uxth	r3, r3
 624 02a6 0A33     		adds	r3, r3, #10
 625 02a8 9BB2     		uxth	r3, r3
 626 02aa 1946     		mov	r1, r3
 627 02ac 5220     		movs	r0, #82
 628 02ae FFF7FEFF 		bl	read_e2prom_i2c
 629 02b2 0346     		mov	r3, r0
 630 02b4 1B02     		lsls	r3, r3, #8
 631 02b6 1CB2     		sxth	r4, r3
 632 02b8 D7F88831 		ldr	r3, [r7, #392]
 633 02bc 9BB2     		uxth	r3, r3
 634 02be 0B33     		adds	r3, r3, #11
 635 02c0 9BB2     		uxth	r3, r3
 636 02c2 1946     		mov	r1, r3
 637 02c4 5220     		movs	r0, #82
 638 02c6 FFF7FEFF 		bl	read_e2prom_i2c
 639 02ca 0346     		mov	r3, r0
 640 02cc 1BB2     		sxth	r3, r3
 641 02ce 2343     		orrs	r3, r3, r4
 642 02d0 1BB2     		sxth	r3, r3
 643 02d2 A7F87231 		strh	r3, [r7, #370]	@ movhi
 243:main.c        ****                     uint8  arrayID    = read_e2prom_i2c(EE2_1_CHIP_ADDR, EE2_Loc_FOTA_ROW_START + i
 644              		.loc 1 243 0
 645 02d6 D7F88831 		ldr	r3, [r7, #392]
 646 02da 9BB2     		uxth	r3, r3
 647 02dc 0933     		adds	r3, r3, #9
 648 02de 9BB2     		uxth	r3, r3
 649 02e0 1946     		mov	r1, r3
 650 02e2 5220     		movs	r0, #82
 651 02e4 FFF7FEFF 		bl	read_e2prom_i2c
 652 02e8 0346     		mov	r3, r0
 653 02ea 87F87131 		strb	r3, [r7, #369]
ARM GAS  C:\Users\Taha\AppData\Local\Temp\ccH8RXZd.s 			page 18


 244:main.c        ****                     uint8  crc        = read_e2prom_i2c(EE2_1_CHIP_ADDR, EE2_Loc_FOTA_ROW_START + 2
 654              		.loc 1 244 0
 655 02ee D7F88831 		ldr	r3, [r7, #392]
 656 02f2 9BB2     		uxth	r3, r3
 657 02f4 03F58773 		add	r3, r3, #270
 658 02f8 9BB2     		uxth	r3, r3
 659 02fa 1946     		mov	r1, r3
 660 02fc 5220     		movs	r0, #82
 661 02fe FFF7FEFF 		bl	read_e2prom_i2c
 662 0302 0346     		mov	r3, r0
 663 0304 87F87031 		strb	r3, [r7, #368]
 245:main.c        ****                     
 246:main.c        ****                     memset(dataBuff, '\0', sizeof(dataBuff));
 664              		.loc 1 246 0
 665 0308 3B46     		mov	r3, r7
 666 030a 4FF48072 		mov	r2, #256
 667 030e 0021     		movs	r1, #0
 668 0310 1846     		mov	r0, r3
 669 0312 FFF7FEFF 		bl	memset
 670              	.LBB8:
 247:main.c        ****                     for(uint j = 0; j < CY_FLASH_SIZEOF_ROW; j++){  // 256
 671              		.loc 1 247 0
 672 0316 0023     		movs	r3, #0
 673 0318 C7F88431 		str	r3, [r7, #388]
 674 031c 1AE0     		b	.L21
 675              	.L22:
 248:main.c        ****                         dataBuff[j] = read_e2prom_i2c(EE2_1_CHIP_ADDR, i + 5 + j);
 676              		.loc 1 248 0 discriminator 3
 677 031e D7F88831 		ldr	r3, [r7, #392]
 678 0322 9AB2     		uxth	r2, r3
 679 0324 D7F88431 		ldr	r3, [r7, #388]
 680 0328 9BB2     		uxth	r3, r3
 681 032a 1344     		add	r3, r3, r2
 682 032c 9BB2     		uxth	r3, r3
 683 032e 0533     		adds	r3, r3, #5
 684 0330 9BB2     		uxth	r3, r3
 685 0332 1946     		mov	r1, r3
 686 0334 5220     		movs	r0, #82
 687 0336 FFF7FEFF 		bl	read_e2prom_i2c
 688 033a 0346     		mov	r3, r0
 689 033c 1946     		mov	r1, r3
 690 033e 3A46     		mov	r2, r7
 691 0340 D7F88431 		ldr	r3, [r7, #388]
 692 0344 1344     		add	r3, r3, r2
 693 0346 0A46     		mov	r2, r1
 694 0348 1A70     		strb	r2, [r3]
 247:main.c        ****                     for(uint j = 0; j < CY_FLASH_SIZEOF_ROW; j++){  // 256
 695              		.loc 1 247 0 discriminator 3
 696 034a D7F88431 		ldr	r3, [r7, #388]
 697 034e 0133     		adds	r3, r3, #1
 698 0350 C7F88431 		str	r3, [r7, #388]
 699              	.L21:
 247:main.c        ****                     for(uint j = 0; j < CY_FLASH_SIZEOF_ROW; j++){  // 256
 700              		.loc 1 247 0 is_stmt 0 discriminator 1
 701 0354 D7F88431 		ldr	r3, [r7, #388]
 702 0358 FF2B     		cmp	r3, #255
 703 035a E0D9     		bls	.L22
ARM GAS  C:\Users\Taha\AppData\Local\Temp\ccH8RXZd.s 			page 19


 704              	.LBE8:
 249:main.c        ****                     }
 250:main.c        ****                     cystatus returnValue = CYRET_UNKNOWN;
 705              		.loc 1 250 0 is_stmt 1
 706 035c 4FF0FF33 		mov	r3, #-1
 707 0360 C7F80831 		str	r3, [r7, #264]
 251:main.c        ****                         
 252:main.c        ****                     if(CySetTemp() == CYRET_SUCCESS){
 708              		.loc 1 252 0
 709 0364 FFF7FEFF 		bl	CySetTemp
 710 0368 0346     		mov	r3, r0
 711 036a 002B     		cmp	r3, #0
 712 036c 38D1     		bne	.L23
 253:main.c        ****                         if(rowAddress == 0x00FF && arrayID == 0x03) returnValue = CyWriteRowData(ar
 713              		.loc 1 253 0
 714 036e B7F87231 		ldrh	r3, [r7, #370]
 715 0372 FF2B     		cmp	r3, #255
 716 0374 1CD1     		bne	.L24
 717              		.loc 1 253 0 is_stmt 0 discriminator 1
 718 0376 97F87131 		ldrb	r3, [r7, #369]	@ zero_extendqisi2
 719 037a 032B     		cmp	r3, #3
 720 037c 18D1     		bne	.L24
 721              		.loc 1 253 0 discriminator 2
 722 037e 3A46     		mov	r2, r7
 723 0380 B7F87211 		ldrh	r1, [r7, #370]
 724 0384 97F87131 		ldrb	r3, [r7, #369]	@ zero_extendqisi2
 725 0388 1846     		mov	r0, r3
 726 038a FFF7FEFF 		bl	CyWriteRowData
 727 038e 0346     		mov	r3, r0
 728 0390 C7F80831 		str	r3, [r7, #264]
 729 0394 17E0     		b	.L25
 730              	.L29:
 731 0396 00BF     		.align	2
 732              	.L28:
 733 0398 58000000 		.word	.LC4
 734 039c A8000000 		.word	.LC5
 735 03a0 E0000000 		.word	.LC6
 736 03a4 F32C23FA 		.word	-98358029
 737 03a8 08010000 		.word	.LC7
 738 03ac 2C010000 		.word	.LC8
 739              	.L24:
 254:main.c        ****                         else returnValue = CyWriteRowData(arrayID, rowAddress, dataBuff);
 740              		.loc 1 254 0 is_stmt 1
 741 03b0 3A46     		mov	r2, r7
 742 03b2 B7F87211 		ldrh	r1, [r7, #370]
 743 03b6 97F87131 		ldrb	r3, [r7, #369]	@ zero_extendqisi2
 744 03ba 1846     		mov	r0, r3
 745 03bc FFF7FEFF 		bl	CyWriteRowData
 746 03c0 0346     		mov	r3, r0
 747 03c2 C7F80831 		str	r3, [r7, #264]
 748              	.L25:
 255:main.c        **** //                        returnValue = CyWriteRowData(arrayID, rowAddress, dataBuff);
 256:main.c        ****                         handleError(&returnValue);
 749              		.loc 1 256 0
 750 03c6 07F58473 		add	r3, r7, #264
 751 03ca 1846     		mov	r0, r3
 752 03cc FFF7FEFF 		bl	handleError
ARM GAS  C:\Users\Taha\AppData\Local\Temp\ccH8RXZd.s 			page 20


 257:main.c        ****                             
 258:main.c        ****                         if((rowAddress & 0x0000FFFF) == 0x0100)   rowAddress =((rowAddress + 0x0001
 753              		.loc 1 258 0
 754 03d0 B7F87231 		ldrh	r3, [r7, #370]
 755 03d4 B3F5807F 		cmp	r3, #256
 756 03d8 02D1     		bne	.L23
 757              		.loc 1 258 0 is_stmt 0 discriminator 1
 758 03da 0023     		movs	r3, #0
 759 03dc A7F87231 		strh	r3, [r7, #370]	@ movhi
 760              	.L23:
 259:main.c        ****                     }
 260:main.c        ****                     CyDelay(50);
 761              		.loc 1 260 0 is_stmt 1
 762 03e0 3220     		movs	r0, #50
 763 03e2 FFF7FEFF 		bl	CyDelay
 764              	.L20:
 765              	.LBE7:
 240:main.c        ****                 if(i % FOTA_ROW_SIZE == 0){
 766              		.loc 1 240 0 discriminator 2
 767 03e6 D7F88831 		ldr	r3, [r7, #392]
 768 03ea 0133     		adds	r3, r3, #1
 769 03ec C7F88831 		str	r3, [r7, #392]
 770              	.L19:
 240:main.c        ****                 if(i % FOTA_ROW_SIZE == 0){
 771              		.loc 1 240 0 is_stmt 0 discriminator 1
 772 03f0 D7F88821 		ldr	r2, [r7, #392]
 773 03f4 D7F87831 		ldr	r3, [r7, #376]
 774 03f8 9A42     		cmp	r2, r3
 775 03fa FFF443AF 		bcc	.L26
 776              	.LBE6:
 261:main.c        ****                 }
 262:main.c        ****             }
 263:main.c        ****             write_e2prom_i2c(EE2_1_CHIP_ADDR, EE2_Loc_FOTA_START, FOTA_STOP);
 777              		.loc 1 263 0 is_stmt 1
 778 03fe 0022     		movs	r2, #0
 779 0400 0021     		movs	r1, #0
 780 0402 5220     		movs	r0, #82
 781 0404 FFF7FEFF 		bl	write_e2prom_i2c
 264:main.c        **** //            RS232_Debug_PutString("\r\n--------------------\r\n&&&&& BOOTLOADER PROGRAMMED &&&&&\
 265:main.c        ****             RS485_Sensor_PutString("\r\n--------------------\r\n&&&&& BOOTLOADER PROGRAMMED &&&&&\r
 782              		.loc 1 265 0
 783 0408 1448     		ldr	r0, .L30
 784 040a FFF7FEFF 		bl	RS485_Sensor_PutString
 266:main.c        ****             CyDelay(1000);
 785              		.loc 1 266 0
 786 040e 4FF47A70 		mov	r0, #1000
 787 0412 FFF7FEFF 		bl	CyDelay
 267:main.c        ****             Bootloader_Exit(Bootloader_EXIT_TO_BTLDB);
 788              		.loc 1 267 0
 789 0416 0020     		movs	r0, #0
 790 0418 FFF7FEFF 		bl	Bootloader_Exit
 791              	.LBE5:
 792 041c 0EE0     		b	.L13
 793              	.L18:
 268:main.c        ****         } else {
 269:main.c        ****             write_e2prom_i2c(EE2_1_CHIP_ADDR, EE2_Loc_FOTA_START, FOTA_STOP);
 794              		.loc 1 269 0
ARM GAS  C:\Users\Taha\AppData\Local\Temp\ccH8RXZd.s 			page 21


 795 041e 0022     		movs	r2, #0
 796 0420 0021     		movs	r1, #0
 797 0422 5220     		movs	r0, #82
 798 0424 FFF7FEFF 		bl	write_e2prom_i2c
 270:main.c        **** //            RS232_Debug_PutString("\r\n--------------------\r\n&&&&& BOOTLOADER FAILED!!! &&&&&\r
 271:main.c        ****             RS485_Sensor_PutString("\r\n--------------------\r\n&&&&& BOOTLOADER FAILED!!! &&&&&\r\
 799              		.loc 1 271 0
 800 0428 0D48     		ldr	r0, .L30+4
 801 042a FFF7FEFF 		bl	RS485_Sensor_PutString
 272:main.c        ****             CyDelay(1000);
 802              		.loc 1 272 0
 803 042e 4FF47A70 		mov	r0, #1000
 804 0432 FFF7FEFF 		bl	CyDelay
 273:main.c        ****             Bootloader_Exit(Bootloader_EXIT_TO_BTLDB);
 805              		.loc 1 273 0
 806 0436 0020     		movs	r0, #0
 807 0438 FFF7FEFF 		bl	Bootloader_Exit
 808              	.L13:
 274:main.c        ****         }
 275:main.c        ****     }
 276:main.c        ****     
 277:main.c        **** //    RS232_Debug_PutString("\r\n--------------------\r\n&&&&& BOOTLOADER ENDS &&&&&\r\n-----------
 278:main.c        ****     RS485_Sensor_PutString("\r\n--------------------\r\n&&&&& BOOTLOADER ENDS &&&&&\r\n------------
 809              		.loc 1 278 0
 810 043c 0948     		ldr	r0, .L30+8
 811 043e FFF7FEFF 		bl	RS485_Sensor_PutString
 279:main.c        ****     
 280:main.c        ****     CyDelay(1000);
 812              		.loc 1 280 0
 813 0442 4FF47A70 		mov	r0, #1000
 814 0446 FFF7FEFF 		bl	CyDelay
 281:main.c        ****     
 282:main.c        ****     Bootloader_Exit(Bootloader_EXIT_TO_BTLDB);
 815              		.loc 1 282 0
 816 044a 0020     		movs	r0, #0
 817 044c FFF7FEFF 		bl	Bootloader_Exit
 283:main.c        ****     
 284:main.c        ****     return 0;
 818              		.loc 1 284 0
 819 0450 0023     		movs	r3, #0
 285:main.c        **** }
 820              		.loc 1 285 0
 821 0452 1846     		mov	r0, r3
 822 0454 07F5CE77 		add	r7, r7, #412
 823              		.cfi_def_cfa_offset 12
 824 0458 BD46     		mov	sp, r7
 825              		.cfi_def_cfa_register 13
 826              		@ sp needed
 827 045a 90BD     		pop	{r4, r7, pc}
 828              	.L31:
 829              		.align	2
 830              	.L30:
 831 045c 3C010000 		.word	.LC9
 832 0460 90010000 		.word	.LC10
 833 0464 E4010000 		.word	.LC11
 834              		.cfi_endproc
 835              	.LFE67:
ARM GAS  C:\Users\Taha\AppData\Local\Temp\ccH8RXZd.s 			page 22


 836              		.size	main, .-main
 837              		.text
 838              	.Letext0:
 839              		.file 2 "c:\\program files (x86)\\cypress\\psoc creator\\4.4\\psoc creator\\import\\gnu\\arm\\5.4.
 840              		.file 3 "c:\\program files (x86)\\cypress\\psoc creator\\4.4\\psoc creator\\import\\gnu\\arm\\5.4.
 841              		.file 4 "Generated_Source\\PSoC5/cytypes.h"
 842              		.file 5 "c:\\program files (x86)\\cypress\\psoc creator\\4.4\\psoc creator\\import\\gnu\\arm\\5.4.
 843              		.file 6 "Generated_Source\\PSoC5/core_cm3.h"