ARM GAS  C:\Users\ali\AppData\Local\Temp\ccLLW0fb.s 			page 1


   1              		.syntax unified
   2              		.cpu cortex-m3
   3              		.fpu softvfp
   4              		.eabi_attribute 20, 1
   5              		.eabi_attribute 21, 1
   6              		.eabi_attribute 23, 3
   7              		.eabi_attribute 24, 1
   8              		.eabi_attribute 25, 1
   9              		.eabi_attribute 26, 1
  10              		.eabi_attribute 30, 2
  11              		.eabi_attribute 34, 1
  12              		.eabi_attribute 18, 4
  13              		.thumb
  14              		.syntax unified
  15              		.file	"CyFlash.c"
  16              		.section	.text.CyFlash_Start,"ax",%progbits
  17              		.align	2
  18              		.global	CyFlash_Start
  19              		.thumb
  20              		.thumb_func
  21              		.type	CyFlash_Start, %function
  22              	CyFlash_Start:
  23              		@ args = 0, pretend = 0, frame = 0
  24              		@ frame_needed = 0, uses_anonymous_args = 0
  25 0000 38B5     		push	{r3, r4, r5, lr}
  26 0002 FFF7FEFF 		bl	CyEnterCriticalSection
  27 0006 0F4A     		ldr	r2, .L7
  28 0008 0F49     		ldr	r1, .L7+4
  29 000a 1378     		ldrb	r3, [r2]	@ zero_extendqisi2
  30 000c 0F4C     		ldr	r4, .L7+8
  31 000e 43F00803 		orr	r3, r3, #8
  32 0012 1370     		strb	r3, [r2]
  33 0014 0B78     		ldrb	r3, [r1]	@ zero_extendqisi2
  34 0016 C825     		movs	r5, #200
  35 0018 43F00803 		orr	r3, r3, #8
  36 001c 0B70     		strb	r3, [r1]
  37 001e 2570     		strb	r5, [r4]
  38 0020 137B     		ldrb	r3, [r2, #12]	@ zero_extendqisi2
  39 0022 43F00F03 		orr	r3, r3, #15
  40 0026 1373     		strb	r3, [r2, #12]
  41 0028 0B7B     		ldrb	r3, [r1, #12]	@ zero_extendqisi2
  42 002a 02F55872 		add	r2, r2, #864
  43 002e 43F00F03 		orr	r3, r3, #15
  44 0032 0B73     		strb	r3, [r1, #12]
  45              	.L2:
  46 0034 1378     		ldrb	r3, [r2]	@ zero_extendqisi2
  47 0036 9B06     		lsls	r3, r3, #26
  48 0038 FCD5     		bpl	.L2
  49 003a BDE83840 		pop	{r3, r4, r5, lr}
  50 003e FFF7FEBF 		b	CyExitCriticalSection
  51              	.L8:
  52 0042 00BF     		.align	2
  53              	.L7:
  54 0044 A0430040 		.word	1073759136
  55 0048 B0430040 		.word	1073759152
  56 004c 01470040 		.word	1073760001
  57              		.size	CyFlash_Start, .-CyFlash_Start
ARM GAS  C:\Users\ali\AppData\Local\Temp\ccLLW0fb.s 			page 2


  58              		.section	.text.CyFlash_Stop,"ax",%progbits
  59              		.align	2
  60              		.global	CyFlash_Stop
  61              		.thumb
  62              		.thumb_func
  63              		.type	CyFlash_Stop, %function
  64              	CyFlash_Stop:
  65              		@ args = 0, pretend = 0, frame = 0
  66              		@ frame_needed = 0, uses_anonymous_args = 0
  67 0000 08B5     		push	{r3, lr}
  68 0002 FFF7FEFF 		bl	CyEnterCriticalSection
  69 0006 0749     		ldr	r1, .L11
  70 0008 074A     		ldr	r2, .L11+4
  71 000a 0B78     		ldrb	r3, [r1]	@ zero_extendqisi2
  72 000c 03F0F003 		and	r3, r3, #240
  73 0010 0B70     		strb	r3, [r1]
  74 0012 1378     		ldrb	r3, [r2]	@ zero_extendqisi2
  75 0014 03F0F003 		and	r3, r3, #240
  76 0018 1370     		strb	r3, [r2]
  77 001a BDE80840 		pop	{r3, lr}
  78 001e FFF7FEBF 		b	CyExitCriticalSection
  79              	.L12:
  80 0022 00BF     		.align	2
  81              	.L11:
  82 0024 AC430040 		.word	1073759148
  83 0028 BC430040 		.word	1073759164
  84              		.size	CyFlash_Stop, .-CyFlash_Stop
  85              		.section	.text.CyFlash_EraseRow,"ax",%progbits
  86              		.align	2
  87              		.global	CyFlash_EraseRow
  88              		.thumb
  89              		.thumb_func
  90              		.type	CyFlash_EraseRow, %function
  91              	CyFlash_EraseRow:
  92              		@ args = 0, pretend = 0, frame = 8
  93              		@ frame_needed = 0, uses_anonymous_args = 0
  94 0000 3F28     		cmp	r0, #63
  95 0002 02D8     		bhi	.L20
  96 0004 B1F5807F 		cmp	r1, #256
  97 0008 01D9     		bls	.L28
  98              	.L20:
  99 000a 0120     		movs	r0, #1
 100 000c 7047     		bx	lr
 101              	.L28:
 102 000e 30B5     		push	{r4, r5, lr}
 103 0010 83B0     		sub	sp, sp, #12
 104 0012 0D46     		mov	r5, r1
 105 0014 0446     		mov	r4, r0
 106 0016 FFF7FEFF 		bl	CySpcLock
 107 001a 10B1     		cbz	r0, .L29
 108 001c 0420     		movs	r0, #4
 109              	.L14:
 110 001e 03B0     		add	sp, sp, #12
 111              		@ sp needed
 112 0020 30BD     		pop	{r4, r5, pc}
 113              	.L29:
 114 0022 134A     		ldr	r2, .L31
ARM GAS  C:\Users\ali\AppData\Local\Temp\ccLLW0fb.s 			page 3


 115 0024 2946     		mov	r1, r5
 116 0026 5378     		ldrb	r3, [r2, #1]	@ zero_extendqisi2
 117 0028 2046     		mov	r0, r4
 118 002a 1278     		ldrb	r2, [r2]	@ zero_extendqisi2
 119 002c FFF7FEFF 		bl	CySpcEraseRow
 120 0030 0728     		cmp	r0, #7
 121 0032 05D0     		beq	.L30
 122 0034 0920     		movs	r0, #9
 123              	.L15:
 124 0036 0190     		str	r0, [sp, #4]
 125 0038 FFF7FEFF 		bl	CySpcUnlock
 126 003c 0198     		ldr	r0, [sp, #4]
 127 003e EEE7     		b	.L14
 128              	.L30:
 129 0040 0C4C     		ldr	r4, .L31+4
 130 0042 2378     		ldrb	r3, [r4]	@ zero_extendqisi2
 131 0044 9907     		lsls	r1, r3, #30
 132 0046 05D4     		bmi	.L18
 133              	.L16:
 134 0048 0120     		movs	r0, #1
 135 004a FFF7FEFF 		bl	CyDelayUs
 136 004e 2378     		ldrb	r3, [r4]	@ zero_extendqisi2
 137 0050 9B07     		lsls	r3, r3, #30
 138 0052 F9D5     		bpl	.L16
 139              	.L18:
 140 0054 074B     		ldr	r3, .L31+4
 141 0056 1A78     		ldrb	r2, [r3]	@ zero_extendqisi2
 142 0058 9207     		lsls	r2, r2, #30
 143 005a 02D4     		bmi	.L17
 144 005c 4FF0FF30 		mov	r0, #-1
 145 0060 E9E7     		b	.L15
 146              	.L17:
 147 0062 1B78     		ldrb	r3, [r3]	@ zero_extendqisi2
 148 0064 9B08     		lsrs	r3, r3, #2
 149 0066 14BF     		ite	ne
 150 0068 4FF0FF30 		movne	r0, #-1
 151 006c 0020     		moveq	r0, #0
 152 006e E2E7     		b	.L15
 153              	.L32:
 154              		.align	2
 155              	.L31:
 156 0070 00000000 		.word	dieTemperature
 157 0074 22470040 		.word	1073760034
 158              		.size	CyFlash_EraseRow, .-CyFlash_EraseRow
 159              		.section	.text.CyFlashGetSpcAlgorithm,"ax",%progbits
 160              		.align	2
 161              		.global	CyFlashGetSpcAlgorithm
 162              		.thumb
 163              		.thumb_func
 164              		.type	CyFlashGetSpcAlgorithm, %function
 165              	CyFlashGetSpcAlgorithm:
 166              		@ args = 0, pretend = 0, frame = 0
 167              		@ frame_needed = 0, uses_anonymous_args = 0
 168 0000 38B5     		push	{r3, r4, r5, lr}
 169 0002 FFF7FEFF 		bl	CySpcStart
 170 0006 FFF7FEFF 		bl	CySpcLock
 171 000a 10B1     		cbz	r0, .L44
ARM GAS  C:\Users\ali\AppData\Local\Temp\ccLLW0fb.s 			page 4


 172 000c 0424     		movs	r4, #4
 173 000e 2046     		mov	r0, r4
 174 0010 38BD     		pop	{r3, r4, r5, pc}
 175              	.L44:
 176 0012 FFF7FEFF 		bl	CySpcGetAlgorithm
 177 0016 0728     		cmp	r0, #7
 178 0018 0446     		mov	r4, r0
 179 001a 03D0     		beq	.L45
 180              	.L35:
 181 001c FFF7FEFF 		bl	CySpcUnlock
 182 0020 2046     		mov	r0, r4
 183 0022 38BD     		pop	{r3, r4, r5, pc}
 184              	.L45:
 185 0024 094D     		ldr	r5, .L46
 186 0026 2B78     		ldrb	r3, [r5]	@ zero_extendqisi2
 187 0028 9907     		lsls	r1, r3, #30
 188 002a 05D4     		bmi	.L38
 189              	.L36:
 190 002c 0120     		movs	r0, #1
 191 002e FFF7FEFF 		bl	CyDelayUs
 192 0032 2B78     		ldrb	r3, [r5]	@ zero_extendqisi2
 193 0034 9B07     		lsls	r3, r3, #30
 194 0036 F9D5     		bpl	.L36
 195              	.L38:
 196 0038 044B     		ldr	r3, .L46
 197 003a 1A78     		ldrb	r2, [r3]	@ zero_extendqisi2
 198 003c 9207     		lsls	r2, r2, #30
 199 003e EDD5     		bpl	.L35
 200 0040 1B78     		ldrb	r3, [r3]	@ zero_extendqisi2
 201 0042 9B08     		lsrs	r3, r3, #2
 202 0044 14BF     		ite	ne
 203 0046 0724     		movne	r4, #7
 204 0048 0024     		moveq	r4, #0
 205 004a E7E7     		b	.L35
 206              	.L47:
 207              		.align	2
 208              	.L46:
 209 004c 22470040 		.word	1073760034
 210              		.size	CyFlashGetSpcAlgorithm, .-CyFlashGetSpcAlgorithm
 211              		.section	.text.CySetTemp,"ax",%progbits
 212              		.align	2
 213              		.global	CySetTemp
 214              		.thumb
 215              		.thumb_func
 216              		.type	CySetTemp, %function
 217              	CySetTemp:
 218              		@ args = 0, pretend = 0, frame = 0
 219              		@ frame_needed = 0, uses_anonymous_args = 0
 220 0000 38B5     		push	{r3, r4, r5, lr}
 221 0002 FFF7FEFF 		bl	CySpcStart
 222 0006 FFF7FEFF 		bl	CySpcLock
 223 000a 10B1     		cbz	r0, .L49
 224              	.L57:
 225 000c 0424     		movs	r4, #4
 226              	.L71:
 227 000e 2046     		mov	r0, r4
 228 0010 38BD     		pop	{r3, r4, r5, pc}
ARM GAS  C:\Users\ali\AppData\Local\Temp\ccLLW0fb.s 			page 5


 229              	.L49:
 230 0012 FFF7FEFF 		bl	CySpcGetAlgorithm
 231 0016 0728     		cmp	r0, #7
 232 0018 0446     		mov	r4, r0
 233 001a 2BD0     		beq	.L76
 234 001c FFF7FEFF 		bl	CySpcUnlock
 235 0020 002C     		cmp	r4, #0
 236 0022 F4D1     		bne	.L71
 237              	.L64:
 238 0024 FFF7FEFF 		bl	CySpcStart
 239 0028 FFF7FEFF 		bl	CySpcLock
 240 002c 0028     		cmp	r0, #0
 241 002e EDD1     		bne	.L57
 242 0030 0120     		movs	r0, #1
 243 0032 FFF7FEFF 		bl	CySpcGetTemp
 244 0036 0728     		cmp	r0, #7
 245 0038 05D0     		beq	.L77
 246              	.L63:
 247 003a 4FF0FF34 		mov	r4, #-1
 248              	.L54:
 249 003e FFF7FEFF 		bl	CySpcUnlock
 250 0042 2046     		mov	r0, r4
 251 0044 38BD     		pop	{r3, r4, r5, pc}
 252              	.L77:
 253 0046 154C     		ldr	r4, .L78
 254 0048 02E0     		b	.L58
 255              	.L60:
 256 004a 2378     		ldrb	r3, [r4]	@ zero_extendqisi2
 257 004c 9B07     		lsls	r3, r3, #30
 258 004e F4D4     		bmi	.L63
 259              	.L58:
 260 0050 0221     		movs	r1, #2
 261 0052 1348     		ldr	r0, .L78+4
 262 0054 FFF7FEFF 		bl	CySpcReadData
 263 0058 0228     		cmp	r0, #2
 264 005a F6D1     		bne	.L60
 265 005c 0F4C     		ldr	r4, .L78
 266 005e 2378     		ldrb	r3, [r4]	@ zero_extendqisi2
 267 0060 9907     		lsls	r1, r3, #30
 268 0062 05D4     		bmi	.L62
 269              	.L61:
 270 0064 0120     		movs	r0, #1
 271 0066 FFF7FEFF 		bl	CyDelayUs
 272 006a 2378     		ldrb	r3, [r4]	@ zero_extendqisi2
 273 006c 9A07     		lsls	r2, r3, #30
 274 006e F9D5     		bpl	.L61
 275              	.L62:
 276 0070 0024     		movs	r4, #0
 277 0072 E4E7     		b	.L54
 278              	.L76:
 279 0074 094D     		ldr	r5, .L78
 280 0076 2B78     		ldrb	r3, [r5]	@ zero_extendqisi2
 281 0078 9B07     		lsls	r3, r3, #30
 282 007a 05D4     		bmi	.L55
 283              	.L52:
 284 007c 0120     		movs	r0, #1
 285 007e FFF7FEFF 		bl	CyDelayUs
ARM GAS  C:\Users\ali\AppData\Local\Temp\ccLLW0fb.s 			page 6


 286 0082 2B78     		ldrb	r3, [r5]	@ zero_extendqisi2
 287 0084 9807     		lsls	r0, r3, #30
 288 0086 F9D5     		bpl	.L52
 289              	.L55:
 290 0088 044B     		ldr	r3, .L78
 291 008a 1A78     		ldrb	r2, [r3]	@ zero_extendqisi2
 292 008c 9507     		lsls	r5, r2, #30
 293 008e D6D5     		bpl	.L54
 294 0090 1B78     		ldrb	r3, [r3]	@ zero_extendqisi2
 295 0092 9B08     		lsrs	r3, r3, #2
 296 0094 D3D1     		bne	.L54
 297 0096 FFF7FEFF 		bl	CySpcUnlock
 298 009a C3E7     		b	.L64
 299              	.L79:
 300              		.align	2
 301              	.L78:
 302 009c 22470040 		.word	1073760034
 303 00a0 00000000 		.word	dieTemperature
 304              		.size	CySetTemp, .-CySetTemp
 305              		.section	.text.CySetFlashEEBuffer,"ax",%progbits
 306              		.align	2
 307              		.global	CySetFlashEEBuffer
 308              		.thumb
 309              		.thumb_func
 310              		.type	CySetFlashEEBuffer, %function
 311              	CySetFlashEEBuffer:
 312              		@ args = 0, pretend = 0, frame = 8
 313              		@ frame_needed = 0, uses_anonymous_args = 0
 314 0000 10B5     		push	{r4, lr}
 315 0002 0446     		mov	r4, r0
 316 0004 82B0     		sub	sp, sp, #8
 317 0006 FFF7FEFF 		bl	CySpcStart
 318 000a 2CB1     		cbz	r4, .L82
 319 000c FFF7FEFF 		bl	CySpcLock
 320 0010 28B1     		cbz	r0, .L85
 321 0012 0420     		movs	r0, #4
 322 0014 02B0     		add	sp, sp, #8
 323              		@ sp needed
 324 0016 10BD     		pop	{r4, pc}
 325              	.L82:
 326 0018 0120     		movs	r0, #1
 327 001a 02B0     		add	sp, sp, #8
 328              		@ sp needed
 329 001c 10BD     		pop	{r4, pc}
 330              	.L85:
 331 001e 0190     		str	r0, [sp, #4]
 332 0020 FFF7FEFF 		bl	CySpcUnlock
 333 0024 0198     		ldr	r0, [sp, #4]
 334 0026 02B0     		add	sp, sp, #8
 335              		@ sp needed
 336 0028 10BD     		pop	{r4, pc}
 337              		.size	CySetFlashEEBuffer, .-CySetFlashEEBuffer
 338 002a 00BF     		.section	.text.CyWriteRowData,"ax",%progbits
 339              		.align	2
 340              		.global	CyWriteRowData
 341              		.thumb
 342              		.thumb_func
ARM GAS  C:\Users\ali\AppData\Local\Temp\ccLLW0fb.s 			page 7


 343              		.type	CyWriteRowData, %function
 344              	CyWriteRowData:
 345              		@ args = 0, pretend = 0, frame = 8
 346              		@ frame_needed = 0, uses_anonymous_args = 0
 347 0000 F0B5     		push	{r4, r5, r6, r7, lr}
 348 0002 3F28     		cmp	r0, #63
 349 0004 83B0     		sub	sp, sp, #12
 350 0006 0AD8     		bhi	.L116
 351 0008 441F     		subs	r4, r0, #5
 352 000a 3A2C     		cmp	r4, #58
 353 000c 8CBF     		ite	hi
 354 000e 0024     		movhi	r4, #0
 355 0010 0124     		movls	r4, #1
 356 0012 B1F5807F 		cmp	r1, #256
 357 0016 17D9     		bls	.L117
 358              	.L103:
 359 0018 0120     		movs	r0, #1
 360 001a 03B0     		add	sp, sp, #12
 361              		@ sp needed
 362 001c F0BD     		pop	{r4, r5, r6, r7, pc}
 363              	.L116:
 364 001e 4128     		cmp	r0, #65
 365 0020 94BF     		ite	ls
 366 0022 0024     		movls	r4, #0
 367 0024 0124     		movhi	r4, #1
 368 0026 8129     		cmp	r1, #129
 369 0028 28BF     		it	cs
 370 002a 0124     		movcs	r4, #1
 371 002c 1027     		movs	r7, #16
 372              	.L98:
 373 002e 002A     		cmp	r2, #0
 374 0030 F2D0     		beq	.L103
 375 0032 002C     		cmp	r4, #0
 376 0034 F0D1     		bne	.L103
 377 0036 1646     		mov	r6, r2
 378 0038 0D46     		mov	r5, r1
 379 003a 0446     		mov	r4, r0
 380 003c FFF7FEFF 		bl	CySpcLock
 381 0040 28B1     		cbz	r0, .L118
 382 0042 0420     		movs	r0, #4
 383              	.L113:
 384 0044 03B0     		add	sp, sp, #12
 385              		@ sp needed
 386 0046 F0BD     		pop	{r4, r5, r6, r7, pc}
 387              	.L117:
 388 0048 4FF48077 		mov	r7, #256
 389 004c EFE7     		b	.L98
 390              	.L118:
 391 004e 3B46     		mov	r3, r7
 392 0050 3246     		mov	r2, r6
 393 0052 2946     		mov	r1, r5
 394 0054 2046     		mov	r0, r4
 395 0056 FFF7FEFF 		bl	CySpcLoadRowFull
 396 005a 0728     		cmp	r0, #7
 397 005c 04D0     		beq	.L119
 398              	.L90:
 399 005e 0190     		str	r0, [sp, #4]
ARM GAS  C:\Users\ali\AppData\Local\Temp\ccLLW0fb.s 			page 8


 400 0060 FFF7FEFF 		bl	CySpcUnlock
 401 0064 0198     		ldr	r0, [sp, #4]
 402 0066 EDE7     		b	.L113
 403              	.L119:
 404 0068 164E     		ldr	r6, .L120
 405 006a 3378     		ldrb	r3, [r6]	@ zero_extendqisi2
 406 006c 9B07     		lsls	r3, r3, #30
 407 006e 05D4     		bmi	.L94
 408              	.L91:
 409 0070 0120     		movs	r0, #1
 410 0072 FFF7FEFF 		bl	CyDelayUs
 411 0076 3378     		ldrb	r3, [r6]	@ zero_extendqisi2
 412 0078 9807     		lsls	r0, r3, #30
 413 007a F9D5     		bpl	.L91
 414              	.L94:
 415 007c 114E     		ldr	r6, .L120
 416 007e 3378     		ldrb	r3, [r6]	@ zero_extendqisi2
 417 0080 9F07     		lsls	r7, r3, #30
 418 0082 1BD5     		bpl	.L93
 419 0084 3378     		ldrb	r3, [r6]	@ zero_extendqisi2
 420 0086 9B08     		lsrs	r3, r3, #2
 421 0088 18D1     		bne	.L93
 422 008a 0F4A     		ldr	r2, .L120+4
 423 008c 2946     		mov	r1, r5
 424 008e 5378     		ldrb	r3, [r2, #1]	@ zero_extendqisi2
 425 0090 2046     		mov	r0, r4
 426 0092 1278     		ldrb	r2, [r2]	@ zero_extendqisi2
 427 0094 FFF7FEFF 		bl	CySpcWriteRow
 428 0098 0728     		cmp	r0, #7
 429 009a E0D1     		bne	.L90
 430 009c 02E0     		b	.L115
 431              	.L96:
 432 009e 0120     		movs	r0, #1
 433 00a0 FFF7FEFF 		bl	CyDelayUs
 434              	.L115:
 435 00a4 3378     		ldrb	r3, [r6]	@ zero_extendqisi2
 436 00a6 9907     		lsls	r1, r3, #30
 437 00a8 F9D5     		bpl	.L96
 438 00aa 064B     		ldr	r3, .L120
 439 00ac 1A78     		ldrb	r2, [r3]	@ zero_extendqisi2
 440 00ae 9207     		lsls	r2, r2, #30
 441 00b0 04D5     		bpl	.L93
 442 00b2 1B78     		ldrb	r3, [r3]	@ zero_extendqisi2
 443 00b4 9B08     		lsrs	r3, r3, #2
 444 00b6 01D1     		bne	.L93
 445 00b8 1846     		mov	r0, r3
 446 00ba D0E7     		b	.L90
 447              	.L93:
 448 00bc 4FF0FF30 		mov	r0, #-1
 449 00c0 CDE7     		b	.L90
 450              	.L121:
 451 00c2 00BF     		.align	2
 452              	.L120:
 453 00c4 22470040 		.word	1073760034
 454 00c8 00000000 		.word	dieTemperature
 455              		.size	CyWriteRowData, .-CyWriteRowData
 456              		.section	.text.CyWriteRowFull,"ax",%progbits
ARM GAS  C:\Users\ali\AppData\Local\Temp\ccLLW0fb.s 			page 9


 457              		.align	2
 458              		.global	CyWriteRowFull
 459              		.thumb
 460              		.thumb_func
 461              		.type	CyWriteRowFull, %function
 462              	CyWriteRowFull:
 463              		@ args = 0, pretend = 0, frame = 8
 464              		@ frame_needed = 0, uses_anonymous_args = 0
 465 0000 F0B5     		push	{r4, r5, r6, r7, lr}
 466 0002 4128     		cmp	r0, #65
 467 0004 83B0     		sub	sp, sp, #12
 468 0006 15D8     		bhi	.L135
 469 0008 441F     		subs	r4, r0, #5
 470 000a 3A2C     		cmp	r4, #58
 471 000c 8CBF     		ite	hi
 472 000e 0024     		movhi	r4, #0
 473 0010 0124     		movls	r4, #1
 474 0012 3F28     		cmp	r0, #63
 475 0014 0FD8     		bhi	.L123
 476 0016 B1F5807F 		cmp	r1, #256
 477 001a 11D8     		bhi	.L139
 478              	.L125:
 479 001c 82B1     		cbz	r2, .L139
 480 001e 7CB9     		cbnz	r4, .L139
 481 0020 1E46     		mov	r6, r3
 482 0022 1746     		mov	r7, r2
 483 0024 0D46     		mov	r5, r1
 484 0026 0446     		mov	r4, r0
 485 0028 FFF7FEFF 		bl	CySpcLock
 486 002c 58B1     		cbz	r0, .L154
 487 002e 0420     		movs	r0, #4
 488 0030 03B0     		add	sp, sp, #12
 489              		@ sp needed
 490 0032 F0BD     		pop	{r4, r5, r6, r7, pc}
 491              	.L135:
 492 0034 0124     		movs	r4, #1
 493              	.L123:
 494 0036 8129     		cmp	r1, #129
 495 0038 28BF     		it	cs
 496 003a 0124     		movcs	r4, #1
 497 003c 102B     		cmp	r3, #16
 498 003e EDD0     		beq	.L125
 499              	.L139:
 500 0040 0120     		movs	r0, #1
 501              	.L151:
 502 0042 03B0     		add	sp, sp, #12
 503              		@ sp needed
 504 0044 F0BD     		pop	{r4, r5, r6, r7, pc}
 505              	.L154:
 506 0046 3346     		mov	r3, r6
 507 0048 3A46     		mov	r2, r7
 508 004a 2946     		mov	r1, r5
 509 004c 2046     		mov	r0, r4
 510 004e FFF7FEFF 		bl	CySpcLoadRowFull
 511 0052 0728     		cmp	r0, #7
 512 0054 04D0     		beq	.L155
 513              	.L127:
ARM GAS  C:\Users\ali\AppData\Local\Temp\ccLLW0fb.s 			page 10


 514 0056 0190     		str	r0, [sp, #4]
 515 0058 FFF7FEFF 		bl	CySpcUnlock
 516 005c 0198     		ldr	r0, [sp, #4]
 517 005e F0E7     		b	.L151
 518              	.L155:
 519 0060 164E     		ldr	r6, .L156
 520 0062 3378     		ldrb	r3, [r6]	@ zero_extendqisi2
 521 0064 9B07     		lsls	r3, r3, #30
 522 0066 05D4     		bmi	.L131
 523              	.L128:
 524 0068 0120     		movs	r0, #1
 525 006a FFF7FEFF 		bl	CyDelayUs
 526 006e 3378     		ldrb	r3, [r6]	@ zero_extendqisi2
 527 0070 9807     		lsls	r0, r3, #30
 528 0072 F9D5     		bpl	.L128
 529              	.L131:
 530 0074 114E     		ldr	r6, .L156
 531 0076 3378     		ldrb	r3, [r6]	@ zero_extendqisi2
 532 0078 9F07     		lsls	r7, r3, #30
 533 007a 1BD5     		bpl	.L130
 534 007c 3378     		ldrb	r3, [r6]	@ zero_extendqisi2
 535 007e 9B08     		lsrs	r3, r3, #2
 536 0080 18D1     		bne	.L130
 537 0082 0F4A     		ldr	r2, .L156+4
 538 0084 2946     		mov	r1, r5
 539 0086 5378     		ldrb	r3, [r2, #1]	@ zero_extendqisi2
 540 0088 2046     		mov	r0, r4
 541 008a 1278     		ldrb	r2, [r2]	@ zero_extendqisi2
 542 008c FFF7FEFF 		bl	CySpcWriteRow
 543 0090 0728     		cmp	r0, #7
 544 0092 E0D1     		bne	.L127
 545 0094 02E0     		b	.L153
 546              	.L133:
 547 0096 0120     		movs	r0, #1
 548 0098 FFF7FEFF 		bl	CyDelayUs
 549              	.L153:
 550 009c 3378     		ldrb	r3, [r6]	@ zero_extendqisi2
 551 009e 9907     		lsls	r1, r3, #30
 552 00a0 F9D5     		bpl	.L133
 553 00a2 064B     		ldr	r3, .L156
 554 00a4 1A78     		ldrb	r2, [r3]	@ zero_extendqisi2
 555 00a6 9207     		lsls	r2, r2, #30
 556 00a8 04D5     		bpl	.L130
 557 00aa 1B78     		ldrb	r3, [r3]	@ zero_extendqisi2
 558 00ac 9B08     		lsrs	r3, r3, #2
 559 00ae 01D1     		bne	.L130
 560 00b0 1846     		mov	r0, r3
 561 00b2 D0E7     		b	.L127
 562              	.L130:
 563 00b4 4FF0FF30 		mov	r0, #-1
 564 00b8 CDE7     		b	.L127
 565              	.L157:
 566 00ba 00BF     		.align	2
 567              	.L156:
 568 00bc 22470040 		.word	1073760034
 569 00c0 00000000 		.word	dieTemperature
 570              		.size	CyWriteRowFull, .-CyWriteRowFull
ARM GAS  C:\Users\ali\AppData\Local\Temp\ccLLW0fb.s 			page 11


 571              		.section	.text.CyFlash_SetWaitCycles,"ax",%progbits
 572              		.align	2
 573              		.global	CyFlash_SetWaitCycles
 574              		.thumb
 575              		.thumb_func
 576              		.type	CyFlash_SetWaitCycles, %function
 577              	CyFlash_SetWaitCycles:
 578              		@ args = 0, pretend = 0, frame = 0
 579              		@ frame_needed = 0, uses_anonymous_args = 0
 580 0000 10B5     		push	{r4, lr}
 581 0002 0446     		mov	r4, r0
 582 0004 FFF7FEFF 		bl	CyEnterCriticalSection
 583 0008 0F2C     		cmp	r4, #15
 584 000a 1AD9     		bls	.L165
 585 000c 202C     		cmp	r4, #32
 586 000e 0DD9     		bls	.L166
 587 0010 312C     		cmp	r4, #49
 588 0012 27D9     		bls	.L167
 589 0014 422C     		cmp	r4, #66
 590 0016 1FD9     		bls	.L168
 591 0018 532C     		cmp	r4, #83
 592 001a 0ED8     		bhi	.L160
 593 001c 174A     		ldr	r2, .L169
 594 001e 1378     		ldrb	r3, [r2]	@ zero_extendqisi2
 595 0020 03F01F03 		and	r3, r3, #31
 596 0024 43F02003 		orr	r3, r3, #32
 597 0028 1370     		strb	r3, [r2]
 598 002a 06E0     		b	.L160
 599              	.L166:
 600 002c 134A     		ldr	r2, .L169
 601 002e 1378     		ldrb	r3, [r2]	@ zero_extendqisi2
 602 0030 03F01F03 		and	r3, r3, #31
 603 0034 43F08003 		orr	r3, r3, #128
 604 0038 1370     		strb	r3, [r2]
 605              	.L160:
 606 003a BDE81040 		pop	{r4, lr}
 607 003e FFF7FEBF 		b	CyExitCriticalSection
 608              	.L165:
 609 0042 0E4A     		ldr	r2, .L169
 610 0044 1378     		ldrb	r3, [r2]	@ zero_extendqisi2
 611 0046 03F01F03 		and	r3, r3, #31
 612 004a 43F04003 		orr	r3, r3, #64
 613 004e 1370     		strb	r3, [r2]
 614 0050 BDE81040 		pop	{r4, lr}
 615 0054 FFF7FEBF 		b	CyExitCriticalSection
 616              	.L168:
 617 0058 084A     		ldr	r2, .L169
 618 005a 1378     		ldrb	r3, [r2]	@ zero_extendqisi2
 619 005c 03F01F03 		and	r3, r3, #31
 620 0060 1370     		strb	r3, [r2]
 621 0062 EAE7     		b	.L160
 622              	.L167:
 623 0064 054A     		ldr	r2, .L169
 624 0066 1378     		ldrb	r3, [r2]	@ zero_extendqisi2
 625 0068 03F01F03 		and	r3, r3, #31
 626 006c 43F0C003 		orr	r3, r3, #192
 627 0070 1370     		strb	r3, [r2]
ARM GAS  C:\Users\ali\AppData\Local\Temp\ccLLW0fb.s 			page 12


 628 0072 BDE81040 		pop	{r4, lr}
 629 0076 FFF7FEBF 		b	CyExitCriticalSection
 630              	.L170:
 631 007a 00BF     		.align	2
 632              	.L169:
 633 007c 00480040 		.word	1073760256
 634              		.size	CyFlash_SetWaitCycles, .-CyFlash_SetWaitCycles
 635              		.section	.text.CyEEPROM_Start,"ax",%progbits
 636              		.align	2
 637              		.global	CyEEPROM_Start
 638              		.thumb
 639              		.thumb_func
 640              		.type	CyEEPROM_Start, %function
 641              	CyEEPROM_Start:
 642              		@ args = 0, pretend = 0, frame = 0
 643              		@ frame_needed = 0, uses_anonymous_args = 0
 644 0000 38B5     		push	{r3, r4, r5, lr}
 645 0002 FFF7FEFF 		bl	CyEnterCriticalSection
 646 0006 0F4A     		ldr	r2, .L176
 647 0008 0F49     		ldr	r1, .L176+4
 648 000a 1378     		ldrb	r3, [r2]	@ zero_extendqisi2
 649 000c 0F4C     		ldr	r4, .L176+8
 650 000e 43F00803 		orr	r3, r3, #8
 651 0012 1370     		strb	r3, [r2]
 652 0014 0B78     		ldrb	r3, [r1]	@ zero_extendqisi2
 653 0016 C825     		movs	r5, #200
 654 0018 43F00803 		orr	r3, r3, #8
 655 001c 0B70     		strb	r3, [r1]
 656 001e 2570     		strb	r5, [r4]
 657 0020 137B     		ldrb	r3, [r2, #12]	@ zero_extendqisi2
 658 0022 43F01003 		orr	r3, r3, #16
 659 0026 1373     		strb	r3, [r2, #12]
 660 0028 0B7B     		ldrb	r3, [r1, #12]	@ zero_extendqisi2
 661 002a 02F55872 		add	r2, r2, #864
 662 002e 43F01003 		orr	r3, r3, #16
 663 0032 0B73     		strb	r3, [r1, #12]
 664              	.L172:
 665 0034 1378     		ldrb	r3, [r2]	@ zero_extendqisi2
 666 0036 9B06     		lsls	r3, r3, #26
 667 0038 FCD5     		bpl	.L172
 668 003a BDE83840 		pop	{r3, r4, r5, lr}
 669 003e FFF7FEBF 		b	CyExitCriticalSection
 670              	.L177:
 671 0042 00BF     		.align	2
 672              	.L176:
 673 0044 A0430040 		.word	1073759136
 674 0048 B0430040 		.word	1073759152
 675 004c 01470040 		.word	1073760001
 676              		.size	CyEEPROM_Start, .-CyEEPROM_Start
 677              		.section	.text.CyEEPROM_Stop,"ax",%progbits
 678              		.align	2
 679              		.global	CyEEPROM_Stop
 680              		.thumb
 681              		.thumb_func
 682              		.type	CyEEPROM_Stop, %function
 683              	CyEEPROM_Stop:
 684              		@ args = 0, pretend = 0, frame = 0
ARM GAS  C:\Users\ali\AppData\Local\Temp\ccLLW0fb.s 			page 13


 685              		@ frame_needed = 0, uses_anonymous_args = 0
 686 0000 08B5     		push	{r3, lr}
 687 0002 FFF7FEFF 		bl	CyEnterCriticalSection
 688 0006 0749     		ldr	r1, .L180
 689 0008 074A     		ldr	r2, .L180+4
 690 000a 0B78     		ldrb	r3, [r1]	@ zero_extendqisi2
 691 000c 03F0EF03 		and	r3, r3, #239
 692 0010 0B70     		strb	r3, [r1]
 693 0012 1378     		ldrb	r3, [r2]	@ zero_extendqisi2
 694 0014 03F0EF03 		and	r3, r3, #239
 695 0018 1370     		strb	r3, [r2]
 696 001a BDE80840 		pop	{r3, lr}
 697 001e FFF7FEBF 		b	CyExitCriticalSection
 698              	.L181:
 699 0022 00BF     		.align	2
 700              	.L180:
 701 0024 AC430040 		.word	1073759148
 702 0028 BC430040 		.word	1073759164
 703              		.size	CyEEPROM_Stop, .-CyEEPROM_Stop
 704              		.section	.text.CyEEPROM_ReadReserve,"ax",%progbits
 705              		.align	2
 706              		.global	CyEEPROM_ReadReserve
 707              		.thumb
 708              		.thumb_func
 709              		.type	CyEEPROM_ReadReserve, %function
 710              	CyEEPROM_ReadReserve:
 711              		@ args = 0, pretend = 0, frame = 0
 712              		@ frame_needed = 0, uses_anonymous_args = 0
 713              		@ link register save eliminated.
 714 0000 044B     		ldr	r3, .L186
 715 0002 1A46     		mov	r2, r3
 716 0004 1978     		ldrb	r1, [r3]	@ zero_extendqisi2
 717 0006 41F00101 		orr	r1, r1, #1
 718 000a 1970     		strb	r1, [r3]
 719              	.L183:
 720 000c 1378     		ldrb	r3, [r2]	@ zero_extendqisi2
 721 000e 9B07     		lsls	r3, r3, #30
 722 0010 FCD5     		bpl	.L183
 723 0012 7047     		bx	lr
 724              	.L187:
 725              		.align	2
 726              	.L186:
 727 0014 02470040 		.word	1073760002
 728              		.size	CyEEPROM_ReadReserve, .-CyEEPROM_ReadReserve
 729              		.section	.text.CyEEPROM_ReadRelease,"ax",%progbits
 730              		.align	2
 731              		.global	CyEEPROM_ReadRelease
 732              		.thumb
 733              		.thumb_func
 734              		.type	CyEEPROM_ReadRelease, %function
 735              	CyEEPROM_ReadRelease:
 736              		@ args = 0, pretend = 0, frame = 0
 737              		@ frame_needed = 0, uses_anonymous_args = 0
 738              		@ link register save eliminated.
 739 0000 024A     		ldr	r2, .L189
 740 0002 1378     		ldrb	r3, [r2]	@ zero_extendqisi2
 741 0004 03F0FE03 		and	r3, r3, #254
ARM GAS  C:\Users\ali\AppData\Local\Temp\ccLLW0fb.s 			page 14


 742 0008 1370     		strb	r3, [r2]
 743 000a 7047     		bx	lr
 744              	.L190:
 745              		.align	2
 746              	.L189:
 747 000c 02470040 		.word	1073760002
 748              		.size	CyEEPROM_ReadRelease, .-CyEEPROM_ReadRelease
 749              		.comm	dieTemperature,2,4
 750              		.ident	"GCC: (GNU Tools for ARM Embedded Processors) 5.4.1 20160609 (release) [ARM/embedded-5-bran
