ARM GAS  C:\Users\ali\AppData\Local\Temp\ccXUAcQd.s 			page 1


   1              		.syntax unified
   2              		.cpu cortex-m3
   3              		.fpu softvfp
   4              		.eabi_attribute 20, 1
   5              		.eabi_attribute 21, 1
   6              		.eabi_attribute 23, 3
   7              		.eabi_attribute 24, 1
   8              		.eabi_attribute 25, 1
   9              		.eabi_attribute 26, 1
  10              		.eabi_attribute 30, 4
  11              		.eabi_attribute 34, 1
  12              		.eabi_attribute 18, 4
  13              		.thumb
  14              		.syntax unified
  15              		.file	"main.c"
  16              		.text
  17              	.Ltext0:
  18              		.cfi_sections	.debug_frame
  19              		.section	.text.internal_flash_read_byte,"ax",%progbits
  20              		.align	1
  21              		.global	internal_flash_read_byte
  22              		.thumb
  23              		.thumb_func
  24              		.type	internal_flash_read_byte, %function
  25              	internal_flash_read_byte:
  26              	.LFB64:
  27              		.file 1 "main.c"
   1:main.c        **** /******************************************************************************
   2:main.c        **** * File Name: main.c
   3:main.c        **** *
   4:main.c        **** * Version 1.10
   5:main.c        **** *
   6:main.c        **** * Description: 
   7:main.c        **** *  This example project demonstrates the basic operation of the Bootloader
   8:main.c        **** *  Component.
   9:main.c        **** *
  10:main.c        **** * Related Document: 
  11:main.c        **** *  CE221653_PSoC_4_Bootloader_and_Bootloadable.pdf
  12:main.c        **** *
  13:main.c        **** * Hardware Dependency: 
  14:main.c        **** *  See CE221653_PSoC_4_Bootloader_and_Bootloadable.pdf
  15:main.c        **** *
  16:main.c        **** *******************************************************************************
  17:main.c        **** * Copyright (2017-2019), Cypress Semiconductor Corporation. All rights reserved.
  18:main.c        **** *******************************************************************************
  19:main.c        **** * This software, including source code, documentation and related materials
  20:main.c        **** * (“Software”), is owned by Cypress Semiconductor Corporation or one of its
  21:main.c        **** * subsidiaries (“Cypress”) and is protected by and subject to worldwide patent
  22:main.c        **** * protection (United States and foreign), United States copyright laws and
  23:main.c        **** * international treaty provisions. Therefore, you may use this Software only
  24:main.c        **** * as provided in the license agreement accompanying the software package from
  25:main.c        **** * which you obtained this Software (“EULA”).
  26:main.c        **** *
  27:main.c        **** * If no EULA applies, Cypress hereby grants you a personal, non-exclusive,
  28:main.c        **** * non-transferable license to copy, modify, and compile the Software source
  29:main.c        **** * code solely for use in connection with Cypress’s integrated circuit products.
  30:main.c        **** * Any reproduction, modification, translation, compilation, or representation
ARM GAS  C:\Users\ali\AppData\Local\Temp\ccXUAcQd.s 			page 2


  31:main.c        **** * of this Software except as specified above is prohibited without the express
  32:main.c        **** * written permission of Cypress.
  33:main.c        **** *
  34:main.c        **** * Disclaimer: THIS SOFTWARE IS PROVIDED AS-IS, WITH NO WARRANTY OF ANY KIND,
  35:main.c        **** * EXPRESS OR IMPLIED, INCLUDING, BUT NOT LIMITED TO, NONINFRINGEMENT, IMPLIED
  36:main.c        **** * WARRANTIES OF MERCHANTABILITY AND FITNESS FOR A PARTICULAR PURPOSE. Cypress
  37:main.c        **** * reserves the right to make changes to the Software without notice. Cypress
  38:main.c        **** * does not assume any liability arising out of the application or use of the
  39:main.c        **** * Software or any product or circuit described in the Software. Cypress does
  40:main.c        **** * not authorize its products for use in any products where a malfunction or
  41:main.c        **** * failure of the Cypress product may reasonably be expected to result in
  42:main.c        **** * significant property damage, injury or death (“High Risk Product”). By
  43:main.c        **** * including Cypress’s product in a High Risk Product, the manufacturer of such
  44:main.c        **** * system or application assumes all risk of such use and in doing so agrees to
  45:main.c        **** * indemnify Cypress against all liability. 
  46:main.c        **** *******************************************************************************/
  47:main.c        **** 
  48:main.c        **** #include "project.h"
  49:main.c        **** #include <CyFlash.h>
  50:main.c        **** #include <stdio.h>
  51:main.c        **** 
  52:main.c        **** // Reset Status Metadata                                          
  53:main.c        **** #define IE2_Loc_Reset_Status                0x12               
  54:main.c        **** #define IE2_Loc_Reset_Code_Address          0x13
  55:main.c        **** // FOTA
  56:main.c        **** #define FOTA_START                          1
  57:main.c        **** #define FOTA_STOP                           0
  58:main.c        **** #define FOTA_ROW_SIZE                       262
  59:main.c        **** // external e2prom
  60:main.c        **** #define EE2_1_CHIP_ADDR                     0x52
  61:main.c        **** #define EE2_2_CHIP_ADDR                     0x50
  62:main.c        **** 
  63:main.c        **** #define IE2_Loc_FOTA_STATUS                 0x70
  64:main.c        **** #define IE2_Loc_FOTA_CRC_BYTE0              0x71
  65:main.c        **** #define IE2_Loc_FOTA_CRC_BYTE1              0x72
  66:main.c        **** #define IE2_Loc_FOTA_CRC_BYTE2              0x73
  67:main.c        **** #define IE2_Loc_FOTA_CRC_BYTE3              0x74
  68:main.c        **** #define IE2_Loc_FOTA_App_SIZE_BYTE0         0x75
  69:main.c        **** #define IE2_Loc_FOTA_App_SIZE_BYTE1         0x76
  70:main.c        **** #define IE2_Loc_FOTA_App_SIZE_BYTE2         0x77    
  71:main.c        **** #define IE2_Loc_FOTA_App_SIZE_BYTE3         0x78
  72:main.c        **** #define IE2_Loc_FOTA_ROW_START_BYTE0        0x79
  73:main.c        **** #define IE2_Loc_FOTA_ROW_START_BYTE1        0x7A
  74:main.c        **** 
  75:main.c        **** #define Das_E2_Loc_Reset_Status             18
  76:main.c        **** 
  77:main.c        **** // ----------------------------  Software ----------------------------
  78:main.c        **** #define A_Reset_Code_Server                 0
  79:main.c        **** #define A_Reset_Code_FOTA_EE2_Write_Fail    1
  80:main.c        **** #define A_Reset_Code_FOTA_Done              2
  81:main.c        **** #define Das_Reset_Code_FOTA_EE2_Write_Fail  3
  82:main.c        **** #define Das_Reset_Code_Gw_Connection_Lost   4
  83:main.c        **** #define A_Reset_Code_Invalid_SiliconId      5
  84:main.c        **** #define A_Reset_Code_Bus_Connection_Lost    6
  85:main.c        **** #define Gw_Reset_Code_Mqtt_Open_Fail        7
  86:main.c        **** #define Gw_Reset_Code_Mqtt_Open_Resp_Fail   8
  87:main.c        **** #define Gw_Reset_Code_Mqtt_Conn_Resp_Fail   9
ARM GAS  C:\Users\ali\AppData\Local\Temp\ccXUAcQd.s 			page 3


  88:main.c        **** #define Gw_Reset_Code_Mqtt_Sub_Resp_Fail    10
  89:main.c        **** #define Gw_Reset_Code_Mqtt_Pub_Resp_Fail    11
  90:main.c        **** #define Gw_Reset_Code_Quectel_Lost          12
  91:main.c        **** #define Gw_Reset_Code_FOTA_Fail				13      
  92:main.c        **** // ----------------------------  Total ----------------------------
  93:main.c        **** 
  94:main.c        **** 
  95:main.c        **** //#if (CY_PSOC4_4100MS)
  96:main.c        **** //    #define LED_BLUE_ON     (1u)
  97:main.c        **** //    #define LED_BLUE_OFF    (0u)
  98:main.c        **** //#else
  99:main.c        **** //    #define LED_BLUE_ON     (0u)
 100:main.c        **** //    #define LED_BLUE_OFF    (1u)
 101:main.c        **** //#endif
 102:main.c        **** 
 103:main.c        **** 
 104:main.c        **** /******************************************************************************
 105:main.c        **** * Function Name: main
 106:main.c        **** *******************************************************************************
 107:main.c        **** *
 108:main.c        **** * Summary:
 109:main.c        **** *  The main function performs these functions:
 110:main.c        **** *  1. Shows the Bootloader status by enabling the blue LED.
 111:main.c        **** *  2. Starts the Bootloader communication.
 112:main.c        **** *
 113:main.c        **** ******************************************************************************/
 114:main.c        **** //  Device Address : |1|-|0|-|1|-|0|-|A2|-|A1|-|A0|
 115:main.c        **** uint8 counter = 0;
 116:main.c        **** uint32 appCRC = 0;
 117:main.c        **** uint32 newCRC = 0;
 118:main.c        **** char buff[100];
 119:main.c        **** 
 120:main.c        **** uint8 arrayID = 0;
 121:main.c        **** uint16 rowID = 0;
 122:main.c        **** 
 123:main.c        **** uint8 internal_flash_read_byte(uint8 arr_id, uint16 byte_add)
 124:main.c        **** {
  28              		.loc 1 124 0
  29              		.cfi_startproc
  30              		@ args = 0, pretend = 0, frame = 8
  31              		@ frame_needed = 0, uses_anonymous_args = 0
  32              		@ link register save eliminated.
  33              	.LVL0:
 125:main.c        ****     // 0000001B
 126:main.c        ****     uint32 flash_addr = (uint32)(arr_id << 16 | byte_add);
 127:main.c        ****     __IO uint32_t read_data = *(__IO uint32_t *)flash_addr;    
  34              		.loc 1 127 0
  35 0000 41EA0041 		orr	r1, r1, r0, lsl #16
  36              	.LVL1:
  37 0004 0B68     		ldr	r3, [r1]
 124:main.c        ****     // 0000001B
  38              		.loc 1 124 0
  39 0006 82B0     		sub	sp, sp, #8
  40              		.cfi_def_cfa_offset 8
  41              		.loc 1 127 0
  42 0008 0193     		str	r3, [sp, #4]
 128:main.c        **** 	return (uint8)read_data;
ARM GAS  C:\Users\ali\AppData\Local\Temp\ccXUAcQd.s 			page 4


  43              		.loc 1 128 0
  44 000a 0198     		ldr	r0, [sp, #4]
  45              	.LVL2:
 129:main.c        **** }
  46              		.loc 1 129 0
  47 000c C0B2     		uxtb	r0, r0
  48 000e 02B0     		add	sp, sp, #8
  49              		.cfi_def_cfa_offset 0
  50              		@ sp needed
  51 0010 7047     		bx	lr
  52              		.cfi_endproc
  53              	.LFE64:
  54              		.size	internal_flash_read_byte, .-internal_flash_read_byte
  55              		.section	.text.ie2_read_byte,"ax",%progbits
  56              		.align	1
  57              		.global	ie2_read_byte
  58              		.thumb
  59              		.thumb_func
  60              		.type	ie2_read_byte, %function
  61              	ie2_read_byte:
  62              	.LFB65:
 130:main.c        **** 
 131:main.c        **** uint8 ie2_read_byte(uint16 addr)
 132:main.c        **** {
  63              		.loc 1 132 0
  64              		.cfi_startproc
  65              		@ args = 0, pretend = 0, frame = 0
  66              		@ frame_needed = 0, uses_anonymous_args = 0
  67              		@ link register save eliminated.
  68              	.LVL3:
 133:main.c        ****     uint8 ret = Internal_EEPROM_ReadByte(addr); 
  69              		.loc 1 133 0
  70 0000 FFF7FEBF 		b	Internal_EEPROM_ReadByte
  71              	.LVL4:
  72              		.cfi_endproc
  73              	.LFE65:
  74              		.size	ie2_read_byte, .-ie2_read_byte
  75              		.section	.text.ie2_writeByte,"ax",%progbits
  76              		.align	1
  77              		.global	ie2_writeByte
  78              		.thumb
  79              		.thumb_func
  80              		.type	ie2_writeByte, %function
  81              	ie2_writeByte:
  82              	.LFB67:
 134:main.c        **** 
 135:main.c        ****     return ret;
 136:main.c        **** }
 137:main.c        **** 
 138:main.c        **** uint8 ie2_write_byte(uint8 byte, uint16 addr)
 139:main.c        **** {
 140:main.c        ****     uint8 ret = 0;
 141:main.c        ****     cystatus st = Internal_EEPROM_WriteByte(byte, addr);
 142:main.c        ****     if(st == CYRET_SUCCESS){
 143:main.c        ****         ret = 1;
 144:main.c        ****     }
 145:main.c        ****     
ARM GAS  C:\Users\ali\AppData\Local\Temp\ccXUAcQd.s 			page 5


 146:main.c        ****     return ret;
 147:main.c        **** }
 148:main.c        **** 
 149:main.c        **** uint8 ie2_writeByte(uint8 byte, uint16 addr)
 150:main.c        **** {
  83              		.loc 1 150 0
  84              		.cfi_startproc
  85              		@ args = 0, pretend = 0, frame = 0
  86              		@ frame_needed = 0, uses_anonymous_args = 0
  87              	.LVL5:
  88 0000 08B5     		push	{r3, lr}
  89              		.cfi_def_cfa_offset 8
  90              		.cfi_offset 3, -8
  91              		.cfi_offset 14, -4
 151:main.c        ****     uint8 ret = 0;
 152:main.c        ****     cystatus st = Internal_EEPROM_WriteByte(byte, addr);
  92              		.loc 1 152 0
  93 0002 FFF7FEFF 		bl	Internal_EEPROM_WriteByte
  94              	.LVL6:
 153:main.c        ****     if(st == CYRET_SUCCESS){
 154:main.c        ****         ret = 1;
 155:main.c        ****     }
 156:main.c        ****     
 157:main.c        ****     return ret;
 158:main.c        **** }
  95              		.loc 1 158 0
  96 0006 B0FA80F0 		clz	r0, r0
  97              	.LVL7:
  98 000a 4009     		lsrs	r0, r0, #5
  99 000c 08BD     		pop	{r3, pc}
 100              		.cfi_endproc
 101              	.LFE67:
 102              		.size	ie2_writeByte, .-ie2_writeByte
 103              		.section	.text.ie2_write_byte,"ax",%progbits
 104              		.align	1
 105              		.global	ie2_write_byte
 106              		.thumb
 107              		.thumb_func
 108              		.type	ie2_write_byte, %function
 109              	ie2_write_byte:
 110              	.LFB73:
 111              		.cfi_startproc
 112              		@ args = 0, pretend = 0, frame = 0
 113              		@ frame_needed = 0, uses_anonymous_args = 0
 114              		@ link register save eliminated.
 115 0000 FFF7FEBF 		b	ie2_writeByte
 116              		.cfi_endproc
 117              	.LFE73:
 118              		.size	ie2_write_byte, .-ie2_write_byte
 119              		.section	.text.internal_flash_handle_error,"ax",%progbits
 120              		.align	1
 121              		.global	internal_flash_handle_error
 122              		.thumb
 123              		.thumb_func
 124              		.type	internal_flash_handle_error, %function
 125              	internal_flash_handle_error:
 126              	.LFB68:
ARM GAS  C:\Users\ali\AppData\Local\Temp\ccXUAcQd.s 			page 6


 159:main.c        **** 
 160:main.c        **** uint8 internal_flash_handle_error(cystatus value)
 161:main.c        **** {
 127              		.loc 1 161 0
 128              		.cfi_startproc
 129              		@ args = 0, pretend = 0, frame = 0
 130              		@ frame_needed = 0, uses_anonymous_args = 0
 131              	.LVL8:
 132              		.loc 1 161 0
 133 0000 08B5     		push	{r3, lr}
 134              		.cfi_def_cfa_offset 8
 135              		.cfi_offset 3, -8
 136              		.cfi_offset 14, -4
 162:main.c        ****     uint8 ret = 0;
 163:main.c        ****     if(value == CYRET_SUCCESS){
 137              		.loc 1 163 0
 138 0002 58B1     		cbz	r0, .L9
 164:main.c        ****         ret = 1;
 165:main.c        ****     } 
 166:main.c        ****     else if(value == CYRET_LOCKED){
 139              		.loc 1 166 0
 140 0004 0428     		cmp	r0, #4
 141 0006 01D1     		bne	.L7
 167:main.c        ****         RS232_Debug_PutString("Flash writing already in use\r\n");
 142              		.loc 1 167 0
 143 0008 0548     		ldr	r0, .L12
 144              	.LVL9:
 145 000a 03E0     		b	.L10
 146              	.LVL10:
 147              	.L7:
 148              	.LBB35:
 149              	.LBB36:
 168:main.c        ****     } 
 169:main.c        ****     else if(value == CYRET_CANCELED){
 150              		.loc 1 169 0
 151 000c 0928     		cmp	r0, #9
 170:main.c        ****         RS232_Debug_PutString("Command not accepted\r\n");
 152              		.loc 1 170 0
 153 000e 0CBF     		ite	eq
 154 0010 0448     		ldreq	r0, .L12+4
 155              	.LVL11:
 171:main.c        ****     } 
 172:main.c        ****     else{
 173:main.c        ****         RS232_Debug_PutString("Failure\r\n");
 156              		.loc 1 173 0
 157 0012 0548     		ldrne	r0, .L12+8
 158              	.LVL12:
 159              	.L10:
 160 0014 FFF7FEFF 		bl	RS232_Debug_PutString
 161              	.LVL13:
 162 0018 0020     		movs	r0, #0
 163 001a 08BD     		pop	{r3, pc}
 164              	.LVL14:
 165              	.L9:
 166              	.LBE36:
 167              	.LBE35:
 164:main.c        ****     } 
ARM GAS  C:\Users\ali\AppData\Local\Temp\ccXUAcQd.s 			page 7


 168              		.loc 1 164 0
 169 001c 0120     		movs	r0, #1
 170              	.LVL15:
 174:main.c        ****     }
 175:main.c        ****     
 176:main.c        ****     return ret;
 177:main.c        **** }
 171              		.loc 1 177 0
 172 001e 08BD     		pop	{r3, pc}
 173              	.L13:
 174              		.align	2
 175              	.L12:
 176 0020 00000000 		.word	.LC0
 177 0024 1F000000 		.word	.LC1
 178 0028 36000000 		.word	.LC2
 179              		.cfi_endproc
 180              	.LFE68:
 181              		.size	internal_flash_handle_error, .-internal_flash_handle_error
 182              		.global	__aeabi_ui2f
 183              		.global	__aeabi_fadd
 184              		.global	__aeabi_i2f
 185              		.global	__aeabi_fdiv
 186              		.global	__aeabi_fmul
 187              		.global	__aeabi_f2uiz
 188              		.section	.text.internal_flash_write_row,"ax",%progbits
 189              		.align	1
 190              		.global	internal_flash_write_row
 191              		.thumb
 192              		.thumb_func
 193              		.type	internal_flash_write_row, %function
 194              	internal_flash_write_row:
 195              	.LFB69:
 178:main.c        **** 
 179:main.c        **** uint8 internal_flash_write_row(uint16 appLines)
 180:main.c        **** {
 196              		.loc 1 180 0
 197              		.cfi_startproc
 198              		@ args = 0, pretend = 0, frame = 264
 199              		@ frame_needed = 0, uses_anonymous_args = 0
 200              	.LVL16:
 201 0000 2DE9F043 		push	{r4, r5, r6, r7, r8, r9, lr}
 202              		.cfi_def_cfa_offset 28
 203              		.cfi_offset 4, -28
 204              		.cfi_offset 5, -24
 205              		.cfi_offset 6, -20
 206              		.cfi_offset 7, -16
 207              		.cfi_offset 8, -12
 208              		.cfi_offset 9, -8
 209              		.cfi_offset 14, -4
 210              	.LBB37:
 181:main.c        ****     uint8 fail = 0;
 182:main.c        ****     uint8 dataBuff[CY_FLASH_SIZEOF_ROW];
 183:main.c        ****     uint8 dataBuff_index = 0;
 184:main.c        ****     uint16 former_percent = 0;
 185:main.c        ****     for(uint16 i = 0; i < appLines; i++){
 211              		.loc 1 185 0
 212 0004 0024     		movs	r4, #0
ARM GAS  C:\Users\ali\AppData\Local\Temp\ccXUAcQd.s 			page 8


 213              	.LBE37:
 180:main.c        ****     uint8 fail = 0;
 214              		.loc 1 180 0
 215 0006 0646     		mov	r6, r0
 184:main.c        ****     for(uint16 i = 0; i < appLines; i++){
 216              		.loc 1 184 0
 217 0008 A046     		mov	r8, r4
 181:main.c        ****     uint8 fail = 0;
 218              		.loc 1 181 0
 219 000a 2546     		mov	r5, r4
 180:main.c        ****     uint8 fail = 0;
 220              		.loc 1 180 0
 221 000c C3B0     		sub	sp, sp, #268
 222              		.cfi_def_cfa_offset 296
 223              	.LVL17:
 224              	.L15:
 225              	.LBB44:
 226              		.loc 1 185 0 discriminator 1
 227 000e B442     		cmp	r4, r6
 228 0010 A0B2     		uxth	r0, r4
 229              	.LVL18:
 230 0012 00F08280 		beq	.L36
 231              	.LVL19:
 232 0016 2302     		lsls	r3, r4, #8
 233 0018 671C     		adds	r7, r4, #1
 234 001a 03F58071 		add	r1, r3, #256
 235              	.LBB38:
 236              	.LBB39:
 186:main.c        ****         dataBuff_index = 0;
 187:main.c        ****         for(uint j = CY_FLASH_SIZEOF_ROW * i; j < (CY_FLASH_SIZEOF_ROW * (i + 1)); j++){  // 0-255 
 188:main.c        ****             dataBuff[dataBuff_index] = internal_flash_read_byte(0x02, j);
 237              		.loc 1 188 0
 238 001e 0DF1080C 		add	ip, sp, #8
 239              	.LVL20:
 240              	.L16:
 187:main.c        ****             dataBuff[dataBuff_index] = internal_flash_read_byte(0x02, j);
 241              		.loc 1 187 0 discriminator 1
 242 0022 8B42     		cmp	r3, r1
 243 0024 5FFA83FE 		uxtb	lr, r3
 244              	.LVL21:
 245 0028 09D2     		bcs	.L37
 246              	.LVL22:
 247              	.LBB40:
 248              	.LBB41:
 127:main.c        **** 	return (uint8)read_data;
 249              		.loc 1 127 0 discriminator 3
 250 002a 9AB2     		uxth	r2, r3
 251 002c 42F40032 		orr	r2, r2, #131072
 252 0030 1268     		ldr	r2, [r2]
 253              	.LBE41:
 254              	.LBE40:
 187:main.c        ****             dataBuff[dataBuff_index] = internal_flash_read_byte(0x02, j);
 255              		.loc 1 187 0 discriminator 3
 256 0032 0133     		adds	r3, r3, #1
 257              	.LVL23:
 258              	.LBB43:
 259              	.LBB42:
ARM GAS  C:\Users\ali\AppData\Local\Temp\ccXUAcQd.s 			page 9


 127:main.c        **** 	return (uint8)read_data;
 260              		.loc 1 127 0 discriminator 3
 261 0034 0192     		str	r2, [sp, #4]
 128:main.c        **** }
 262              		.loc 1 128 0 discriminator 3
 263 0036 019A     		ldr	r2, [sp, #4]
 264              	.LVL24:
 265              	.LBE42:
 266              	.LBE43:
 267              		.loc 1 188 0 discriminator 3
 268 0038 0CF80E20 		strb	r2, [ip, lr]
 269              	.LVL25:
 270 003c F1E7     		b	.L16
 271              	.LVL26:
 272              	.L37:
 273              	.LBE39:
 189:main.c        ****             dataBuff_index++;
 190:main.c        ****         }
 191:main.c        ****         
 192:main.c        ****         uint8 percent = 0;
 193:main.c        ****         percent = (((float)i + 1)/ appLines) * 100;
 274              		.loc 1 193 0
 275 003e FFF7FEFF 		bl	__aeabi_ui2f
 276              	.LVL27:
 277 0042 4FF07E51 		mov	r1, #1065353216
 278 0046 FFF7FEFF 		bl	__aeabi_fadd
 279              	.LVL28:
 280 004a 8146     		mov	r9, r0
 281 004c 3046     		mov	r0, r6
 282 004e FFF7FEFF 		bl	__aeabi_i2f
 283              	.LVL29:
 284 0052 0146     		mov	r1, r0
 285 0054 4846     		mov	r0, r9
 286 0056 FFF7FEFF 		bl	__aeabi_fdiv
 287              	.LVL30:
 288 005a 3249     		ldr	r1, .L38
 289 005c FFF7FEFF 		bl	__aeabi_fmul
 290              	.LVL31:
 291 0060 FFF7FEFF 		bl	__aeabi_f2uiz
 292              	.LVL32:
 194:main.c        ****         
 195:main.c        ****         if(percent % 20 == 0 && percent != former_percent){
 293              		.loc 1 195 0
 294 0064 1422     		movs	r2, #20
 193:main.c        ****         
 295              		.loc 1 193 0
 296 0066 C0B2     		uxtb	r0, r0
 297              	.LVL33:
 298              		.loc 1 195 0
 299 0068 B0FBF2F3 		udiv	r3, r0, r2
 300 006c 02FB1303 		mls	r3, r2, r3, r0
 301 0070 13F0FF0F 		tst	r3, #255
 302 0074 19D1     		bne	.L29
 303              		.loc 1 195 0 is_stmt 0 discriminator 1
 304 0076 1FFA80F9 		uxth	r9, r0
 305 007a C845     		cmp	r8, r9
 306 007c 16D0     		beq	.L18
ARM GAS  C:\Users\ali\AppData\Local\Temp\ccXUAcQd.s 			page 10


 307              	.LVL34:
 196:main.c        ****             former_percent = percent;
 197:main.c        ****             
 198:main.c        ****             if(percent == 20){
 308              		.loc 1 198 0 is_stmt 1
 309 007e 9042     		cmp	r0, r2
 310 0080 01D1     		bne	.L19
 199:main.c        ****                 RS232_Debug_PutString("Writing: 20%\r\n");
 311              		.loc 1 199 0
 312 0082 2948     		ldr	r0, .L38+4
 313              	.LVL35:
 314 0084 0EE0     		b	.L34
 315              	.LVL36:
 316              	.L19:
 200:main.c        ****             }
 201:main.c        ****             else if(percent == 40){
 317              		.loc 1 201 0
 318 0086 2828     		cmp	r0, #40
 319 0088 01D1     		bne	.L20
 202:main.c        ****                 RS232_Debug_PutString("Writing: 40%\r\n");
 320              		.loc 1 202 0
 321 008a 2848     		ldr	r0, .L38+8
 322              	.LVL37:
 323 008c 0AE0     		b	.L34
 324              	.LVL38:
 325              	.L20:
 203:main.c        ****             }
 204:main.c        ****             else if(percent == 60){
 326              		.loc 1 204 0
 327 008e 3C28     		cmp	r0, #60
 328 0090 01D1     		bne	.L21
 205:main.c        ****                 RS232_Debug_PutString("Writing: 60%\r\n");
 329              		.loc 1 205 0
 330 0092 2748     		ldr	r0, .L38+12
 331              	.LVL39:
 332 0094 06E0     		b	.L34
 333              	.LVL40:
 334              	.L21:
 206:main.c        ****             }
 207:main.c        ****             else if(percent == 80){
 335              		.loc 1 207 0
 336 0096 5028     		cmp	r0, #80
 337 0098 01D1     		bne	.L22
 208:main.c        ****                 RS232_Debug_PutString("Writing: 80%\r\n");
 338              		.loc 1 208 0
 339 009a 2648     		ldr	r0, .L38+16
 340              	.LVL41:
 341 009c 02E0     		b	.L34
 342              	.LVL42:
 343              	.L22:
 209:main.c        ****             }
 210:main.c        ****             else if(percent == 100){
 344              		.loc 1 210 0
 345 009e 6428     		cmp	r0, #100
 346 00a0 04D1     		bne	.L18
 211:main.c        ****                 RS232_Debug_PutString("Writing: 100%\r\n");
 347              		.loc 1 211 0
ARM GAS  C:\Users\ali\AppData\Local\Temp\ccXUAcQd.s 			page 11


 348 00a2 2548     		ldr	r0, .L38+20
 349              	.LVL43:
 350              	.L34:
 351 00a4 FFF7FEFF 		bl	RS232_Debug_PutString
 352              	.LVL44:
 353 00a8 00E0     		b	.L18
 354              	.LVL45:
 355              	.L29:
 356 00aa C146     		mov	r9, r8
 357              	.LVL46:
 358              	.L18:
 212:main.c        ****             }
 213:main.c        ****             
 214:main.c        ****         }
 215:main.c        ****         CyDelay(25);
 359              		.loc 1 215 0
 360 00ac 1920     		movs	r0, #25
 361 00ae FFF7FEFF 		bl	CyDelay
 362              	.LVL47:
 216:main.c        ****         
 217:main.c        ****         if(CySetTemp() == CYRET_SUCCESS){
 363              		.loc 1 217 0
 364 00b2 FFF7FEFF 		bl	CySetTemp
 365              	.LVL48:
 366 00b6 DFF88480 		ldr	r8, .L38+24
 367 00ba F8B9     		cbnz	r0, .L30
 218:main.c        ****             if(i == appLines - 1){
 368              		.loc 1 218 0
 369 00bc 731E     		subs	r3, r6, #1
 370 00be A342     		cmp	r3, r4
 219:main.c        ****                 if(internal_flash_handle_error(CyWriteRowData(0x03, 0x00FF, dataBuff))){
 371              		.loc 1 219 0
 372 00c0 02AA     		add	r2, sp, #8
 218:main.c        ****             if(i == appLines - 1){
 373              		.loc 1 218 0
 374 00c2 08D1     		bne	.L24
 375              		.loc 1 219 0
 376 00c4 FF21     		movs	r1, #255
 377 00c6 0320     		movs	r0, #3
 378 00c8 FFF7FEFF 		bl	CyWriteRowData
 379              	.LVL49:
 380 00cc FFF7FEFF 		bl	internal_flash_handle_error
 381              	.LVL50:
 382 00d0 80B9     		cbnz	r0, .L35
 383              	.L26:
 220:main.c        ****                     CyDelay(10);
 221:main.c        ****                 }
 222:main.c        ****                 else{
 223:main.c        ****                     fail = 1;
 384              		.loc 1 223 0
 385 00d2 0125     		movs	r5, #1
 386 00d4 13E0     		b	.L23
 387              	.L24:
 224:main.c        ****                 }
 225:main.c        ****             }
 226:main.c        ****             else{
 227:main.c        ****                 if(internal_flash_handle_error(CyWriteRowData(arrayID, rowID, dataBuff))){
ARM GAS  C:\Users\ali\AppData\Local\Temp\ccXUAcQd.s 			page 12


 388              		.loc 1 227 0
 389 00d6 B8F80010 		ldrh	r1, [r8]
 390 00da 98F80200 		ldrb	r0, [r8, #2]	@ zero_extendqisi2
 391 00de FFF7FEFF 		bl	CyWriteRowData
 392              	.LVL51:
 393 00e2 FFF7FEFF 		bl	internal_flash_handle_error
 394              	.LVL52:
 395 00e6 0028     		cmp	r0, #0
 396 00e8 F3D0     		beq	.L26
 228:main.c        ****                     rowID++;
 397              		.loc 1 228 0
 398 00ea B8F80030 		ldrh	r3, [r8]
 399 00ee 0133     		adds	r3, r3, #1
 400 00f0 A8F80030 		strh	r3, [r8]	@ movhi
 401              	.L35:
 229:main.c        ****                     CyDelay(10);
 402              		.loc 1 229 0
 403 00f4 0A20     		movs	r0, #10
 404 00f6 FFF7FEFF 		bl	CyDelay
 405              	.LVL53:
 406 00fa 00E0     		b	.L23
 407              	.L30:
 230:main.c        ****                 }
 231:main.c        ****                 else{
 232:main.c        ****                     fail = 1;
 233:main.c        ****                 }
 234:main.c        ****             }
 235:main.c        ****         }
 236:main.c        ****         else{
 237:main.c        ****             fail = 2;
 408              		.loc 1 237 0
 409 00fc 0225     		movs	r5, #2
 410              	.L23:
 238:main.c        ****         }
 239:main.c        ****                
 240:main.c        ****         if(rowID == 0x0100){
 411              		.loc 1 240 0
 412 00fe B8F80020 		ldrh	r2, [r8]
 413 0102 0E4B     		ldr	r3, .L38+24
 414 0104 B2F5807F 		cmp	r2, #256
 415 0108 04D1     		bne	.L27
 241:main.c        ****             rowID = 0;
 416              		.loc 1 241 0
 417 010a 0022     		movs	r2, #0
 418 010c 1A80     		strh	r2, [r3]	@ movhi
 242:main.c        ****             arrayID++;
 419              		.loc 1 242 0
 420 010e 9A78     		ldrb	r2, [r3, #2]	@ zero_extendqisi2
 421 0110 0132     		adds	r2, r2, #1
 422 0112 9A70     		strb	r2, [r3, #2]
 423              	.L27:
 424              	.LVL54:
 425 0114 3C46     		mov	r4, r7
 426              	.LBE38:
 427              	.LBE44:
 181:main.c        ****     uint8 dataBuff[CY_FLASH_SIZEOF_ROW];
 428              		.loc 1 181 0 discriminator 2
ARM GAS  C:\Users\ali\AppData\Local\Temp\ccXUAcQd.s 			page 13


 429 0116 C846     		mov	r8, r9
 430 0118 79E7     		b	.L15
 431              	.LVL55:
 432              	.L36:
 243:main.c        ****             
 244:main.c        ****         }
 245:main.c        ****     }
 246:main.c        ****     
 247:main.c        ****     memset(dataBuff, '\0', sizeof(dataBuff));
 248:main.c        **** 
 249:main.c        ****     return fail;
 250:main.c        **** }
 433              		.loc 1 250 0
 434 011a 2846     		mov	r0, r5
 435              	.LVL56:
 436 011c 43B0     		add	sp, sp, #268
 437              		.cfi_def_cfa_offset 28
 438              		@ sp needed
 439 011e BDE8F083 		pop	{r4, r5, r6, r7, r8, r9, pc}
 440              	.LVL57:
 441              	.L39:
 442 0122 00BF     		.align	2
 443              	.L38:
 444 0124 0000C842 		.word	1120403456
 445 0128 40000000 		.word	.LC3
 446 012c 4F000000 		.word	.LC4
 447 0130 5E000000 		.word	.LC5
 448 0134 6D000000 		.word	.LC6
 449 0138 7C000000 		.word	.LC7
 450 013c 00000000 		.word	.LANCHOR0
 451              		.cfi_endproc
 452              	.LFE69:
 453              		.size	internal_flash_write_row, .-internal_flash_write_row
 454              		.section	.text.startup.main,"ax",%progbits
 455              		.align	1
 456              		.global	main
 457              		.thumb
 458              		.thumb_func
 459              		.type	main, %function
 460              	main:
 461              	.LFB70:
 251:main.c        **** 
 252:main.c        **** int main()
 253:main.c        **** {
 462              		.loc 1 253 0
 463              		.cfi_startproc
 464              		@ args = 0, pretend = 0, frame = 0
 465              		@ frame_needed = 0, uses_anonymous_args = 0
 466 0000 F7B5     		push	{r0, r1, r2, r4, r5, r6, r7, lr}
 467              		.cfi_def_cfa_offset 32
 468              		.cfi_offset 4, -20
 469              		.cfi_offset 5, -16
 470              		.cfi_offset 6, -12
 471              		.cfi_offset 7, -8
 472              		.cfi_offset 14, -4
 254:main.c        ****     /* Enable the global interrupts */
 255:main.c        ****     CyGlobalIntEnable;
ARM GAS  C:\Users\ali\AppData\Local\Temp\ccXUAcQd.s 			page 14


 473              		.loc 1 255 0
 474              		.syntax unified
 475              	@ 255 "main.c" 1
 476 0002 62B6     		CPSIE   i
 477              	@ 0 "" 2
 256:main.c        ****     
 257:main.c        ****     Internal_EEPROM_Start();
 478              		.loc 1 257 0
 479              		.thumb
 480              		.syntax unified
 481 0004 FFF7FEFF 		bl	Internal_EEPROM_Start
 482              	.LVL58:
 258:main.c        ****     RS232_Debug_Start();
 483              		.loc 1 258 0
 484 0008 FFF7FEFF 		bl	RS232_Debug_Start
 485              	.LVL59:
 259:main.c        ****         
 260:main.c        ****     RS232_Debug_PutString("\r\n--------------------&&&&& Bootloader Start &&&&&--------------------
 486              		.loc 1 260 0
 487 000c 5C48     		ldr	r0, .L54
 488 000e FFF7FEFF 		bl	RS232_Debug_PutString
 489              	.LVL60:
 261:main.c        ****     
 262:main.c        ****     
 263:main.c        ****     ie2_writeByte(CyResetStatus, Das_E2_Loc_Reset_Status);
 490              		.loc 1 263 0
 491 0012 5C4B     		ldr	r3, .L54+4
 492 0014 1221     		movs	r1, #18
 493 0016 1878     		ldrb	r0, [r3]	@ zero_extendqisi2
 494 0018 FFF7FEFF 		bl	ie2_writeByte
 495              	.LVL61:
 496              	.LBB45:
 497              	.LBB46:
 133:main.c        **** 
 498              		.loc 1 133 0
 499 001c 7020     		movs	r0, #112
 500 001e FFF7FEFF 		bl	Internal_EEPROM_ReadByte
 501              	.LVL62:
 502 0022 0746     		mov	r7, r0
 503              	.LVL63:
 504              	.LBE46:
 505              	.LBE45:
 506              	.LBB47:
 507              	.LBB48:
 508 0024 7420     		movs	r0, #116
 509 0026 FFF7FEFF 		bl	Internal_EEPROM_ReadByte
 510              	.LVL64:
 511 002a 0546     		mov	r5, r0
 512              	.LVL65:
 513              	.LBE48:
 514              	.LBE47:
 515              	.LBB49:
 516              	.LBB50:
 517 002c 7320     		movs	r0, #115
 518 002e FFF7FEFF 		bl	Internal_EEPROM_ReadByte
 519              	.LVL66:
 520              	.LBE50:
ARM GAS  C:\Users\ali\AppData\Local\Temp\ccXUAcQd.s 			page 15


 521              	.LBE49:
 264:main.c        ****     
 265:main.c        **** //    write_e2prom_i2c(EE2_1_CHIP_ADDR, EE2_Loc_FOTA_STATUS, FOTA_START);
 266:main.c        ****     
 267:main.c        ****     /* ***************************** CHECK METADATA FROM External EEPROM **************************
 268:main.c        **** //    uint8 status = read_e2prom_i2c(EE2_1_CHIP_ADDR, EE2_Loc_FOTA_STATUS); 
 269:main.c        **** //    appCRC = read_e2prom_i2c(EE2_1_CHIP_ADDR, EE2_Loc_FOTA_CRC_BYTE3) << 24 | read_e2prom_i2c(EE2
 270:main.c        **** //    uint32 appSize = read_e2prom_i2c(EE2_1_CHIP_ADDR, EE2_Loc_FOTA_App_SIZE_BYTE3) << 24 | read_e
 271:main.c        ****     
 272:main.c        ****     uint8 status = ie2_read_byte(IE2_Loc_FOTA_STATUS); 
 273:main.c        ****     appCRC = ie2_read_byte(IE2_Loc_FOTA_CRC_BYTE3) << 24 | ie2_read_byte(IE2_Loc_FOTA_CRC_BYTE2) <<
 522              		.loc 1 273 0
 523 0032 0004     		lsls	r0, r0, #16
 524 0034 40EA0565 		orr	r5, r0, r5, lsl #24
 525              	.LVL67:
 526              	.LBB51:
 527              	.LBB52:
 133:main.c        **** 
 528              		.loc 1 133 0
 529 0038 7220     		movs	r0, #114
 530 003a FFF7FEFF 		bl	Internal_EEPROM_ReadByte
 531              	.LVL68:
 532 003e 0646     		mov	r6, r0
 533              	.LVL69:
 534              	.LBE52:
 535              	.LBE51:
 536              	.LBB53:
 537              	.LBB54:
 538 0040 7120     		movs	r0, #113
 539 0042 FFF7FEFF 		bl	Internal_EEPROM_ReadByte
 540              	.LVL70:
 541              	.LBE54:
 542              	.LBE53:
 543              		.loc 1 273 0
 544 0046 504C     		ldr	r4, .L54+8
 545 0048 2843     		orrs	r0, r0, r5
 546 004a 40EA0620 		orr	r0, r0, r6, lsl #8
 547 004e 6060     		str	r0, [r4, #4]
 548              	.LVL71:
 549              	.LBB55:
 550              	.LBB56:
 133:main.c        **** 
 551              		.loc 1 133 0
 552 0050 7820     		movs	r0, #120
 553 0052 FFF7FEFF 		bl	Internal_EEPROM_ReadByte
 554              	.LVL72:
 555 0056 0546     		mov	r5, r0
 556              	.LVL73:
 557              	.LBE56:
 558              	.LBE55:
 559              	.LBB57:
 560              	.LBB58:
 561 0058 7720     		movs	r0, #119
 562 005a FFF7FEFF 		bl	Internal_EEPROM_ReadByte
 563              	.LVL74:
 564              	.LBE58:
 565              	.LBE57:
ARM GAS  C:\Users\ali\AppData\Local\Temp\ccXUAcQd.s 			page 16


 274:main.c        ****     uint32 appSize = ie2_read_byte(IE2_Loc_FOTA_App_SIZE_BYTE3) << 24 | ie2_read_byte(IE2_Loc_FOTA_
 566              		.loc 1 274 0
 567 005e 0004     		lsls	r0, r0, #16
 568 0060 40EA0565 		orr	r5, r0, r5, lsl #24
 569              	.LVL75:
 570              	.LBB59:
 571              	.LBB60:
 133:main.c        **** 
 572              		.loc 1 133 0
 573 0064 7620     		movs	r0, #118
 574 0066 FFF7FEFF 		bl	Internal_EEPROM_ReadByte
 575              	.LVL76:
 576 006a 0646     		mov	r6, r0
 577              	.LVL77:
 578              	.LBE60:
 579              	.LBE59:
 580              	.LBB61:
 581              	.LBB62:
 582 006c 7520     		movs	r0, #117
 583 006e FFF7FEFF 		bl	Internal_EEPROM_ReadByte
 584              	.LVL78:
 585              	.LBE62:
 586              	.LBE61:
 587              		.loc 1 274 0
 588 0072 2843     		orrs	r0, r0, r5
 589 0074 40EA0626 		orr	r6, r0, r6, lsl #8
 590              	.LVL79:
 591              	.LBB63:
 592              	.LBB64:
 133:main.c        **** 
 593              		.loc 1 133 0
 594 0078 7920     		movs	r0, #121
 595 007a FFF7FEFF 		bl	Internal_EEPROM_ReadByte
 596              	.LVL80:
 597 007e 0546     		mov	r5, r0
 598              	.LVL81:
 599              	.LBE64:
 600              	.LBE63:
 601              	.LBB65:
 602              	.LBB66:
 603 0080 7A20     		movs	r0, #122
 604 0082 FFF7FEFF 		bl	Internal_EEPROM_ReadByte
 605              	.LVL82:
 606              	.LBE66:
 607              	.LBE65:
 275:main.c        **** 
 276:main.c        ****     rowID = ie2_read_byte(IE2_Loc_FOTA_ROW_START_BYTE0) << 8 | ie2_read_byte(IE2_Loc_FOTA_ROW_START
 608              		.loc 1 276 0
 609 0086 40EA0520 		orr	r0, r0, r5, lsl #8
 610 008a 80B2     		uxth	r0, r0
 611 008c 2080     		strh	r0, [r4]	@ movhi
 277:main.c        ****     /* ********************************************************************************************
 278:main.c        ****     
 279:main.c        ****     // every line has 262 bytes including [1-Byte ArrayID][2-Bytes ArrayAddress][2-Bytes Line Size(
 280:main.c        ****     sprintf(buff,"Application CRC on E2: 0x%08lX\r\nBootloader Status:0x%02X\r\nApp Size: %ld\r\nfi
 612              		.loc 1 280 0
 613 008e 0190     		str	r0, [sp, #4]
ARM GAS  C:\Users\ali\AppData\Local\Temp\ccXUAcQd.s 			page 17


 614 0090 3B46     		mov	r3, r7
 615 0092 6268     		ldr	r2, [r4, #4]
 616 0094 3D49     		ldr	r1, .L54+12
 617 0096 0096     		str	r6, [sp]
 618 0098 3D48     		ldr	r0, .L54+16
 619 009a FFF7FEFF 		bl	sprintf
 620              	.LVL83:
 281:main.c        ****     RS232_Debug_PutString(buff);
 621              		.loc 1 281 0
 622 009e 3C48     		ldr	r0, .L54+16
 623 00a0 FFF7FEFF 		bl	RS232_Debug_PutString
 624              	.LVL84:
 282:main.c        ****     uint8 fail = 0;
 283:main.c        ****     if(status == FOTA_START){
 625              		.loc 1 283 0
 626 00a4 012F     		cmp	r7, #1
 627 00a6 57D1     		bne	.L41
 628              	.LBB67:
 629              	.LBB68:
 630              	.LBB69:
 284:main.c        ****         RS232_Debug_PutString("\r\n--------------------&&&&& Start Writing New App to Internal Flas
 285:main.c        ****         uint8 arr_id = 2;
 286:main.c        ****         for(uint i = 0; i < appSize ; i++){
 287:main.c        ****             // Calculating CRC here
 288:main.c        ****             if(i != 0 && i % 0xffff == 0){
 631              		.loc 1 288 0
 632 00a8 4FF6FF77 		movw	r7, #65535
 633              	.LBE69:
 634              	.LBE68:
 284:main.c        ****         RS232_Debug_PutString("\r\n--------------------&&&&& Start Writing New App to Internal Flas
 635              		.loc 1 284 0
 636 00ac 3948     		ldr	r0, .L54+20
 637 00ae FFF7FEFF 		bl	RS232_Debug_PutString
 638              	.LVL85:
 639              	.LBB72:
 286:main.c        ****             // Calculating CRC here
 640              		.loc 1 286 0
 641 00b2 0025     		movs	r5, #0
 642              	.LBE72:
 285:main.c        ****         for(uint i = 0; i < appSize ; i++){
 643              		.loc 1 285 0
 644 00b4 0222     		movs	r2, #2
 645              	.LVL86:
 646              	.L42:
 647              	.LBB73:
 286:main.c        ****             // Calculating CRC here
 648              		.loc 1 286 0 discriminator 1
 649 00b6 B542     		cmp	r5, r6
 650 00b8 11D0     		beq	.L53
 651              	.LBB70:
 652              		.loc 1 288 0
 653 00ba 3DB1     		cbz	r5, .L43
 654              		.loc 1 288 0 is_stmt 0 discriminator 1
 655 00bc B5FBF7F3 		udiv	r3, r5, r7
 656 00c0 C3EB0343 		rsb	r3, r3, r3, lsl #16
 657 00c4 9D42     		cmp	r5, r3
 289:main.c        ****                 arr_id++;
ARM GAS  C:\Users\ali\AppData\Local\Temp\ccXUAcQd.s 			page 18


 658              		.loc 1 289 0 is_stmt 1 discriminator 1
 659 00c6 04BF     		itt	eq
 660 00c8 0132     		addeq	r2, r2, #1
 661              	.LVL87:
 662 00ca D2B2     		uxtbeq	r2, r2
 663              	.LVL88:
 664              	.L43:
 290:main.c        ****             }
 291:main.c        ****             uint8 data = internal_flash_read_byte(arr_id, i);
 665              		.loc 1 291 0 discriminator 2
 666 00cc A9B2     		uxth	r1, r5
 667 00ce 1046     		mov	r0, r2
 668 00d0 FFF7FEFF 		bl	internal_flash_read_byte
 669              	.LVL89:
 292:main.c        ****             newCRC += data;
 670              		.loc 1 292 0 discriminator 2
 671 00d4 A368     		ldr	r3, [r4, #8]
 672              	.LBE70:
 286:main.c        ****             // Calculating CRC here
 673              		.loc 1 286 0 discriminator 2
 674 00d6 0135     		adds	r5, r5, #1
 675              	.LVL90:
 676              	.LBB71:
 677              		.loc 1 292 0 discriminator 2
 678 00d8 1844     		add	r0, r0, r3
 679              	.LVL91:
 680 00da A060     		str	r0, [r4, #8]
 681 00dc EBE7     		b	.L42
 682              	.LVL92:
 683              	.L53:
 684              	.LBE71:
 685              	.LBE73:
 293:main.c        ****         }
 294:main.c        ****         
 295:main.c        ****         newCRC = (~newCRC) + 1;
 686              		.loc 1 295 0
 687 00de A268     		ldr	r2, [r4, #8]
 688              	.LVL93:
 296:main.c        ****         sprintf(buff,"\r\nnewCRC: 0x%08lX , AppCRC: 0x%08lX\r\n", newCRC, appCRC);
 689              		.loc 1 296 0
 690 00e0 6368     		ldr	r3, [r4, #4]
 295:main.c        ****         sprintf(buff,"\r\nnewCRC: 0x%08lX , AppCRC: 0x%08lX\r\n", newCRC, appCRC);
 691              		.loc 1 295 0
 692 00e2 5242     		negs	r2, r2
 693              		.loc 1 296 0
 694 00e4 2C49     		ldr	r1, .L54+24
 695 00e6 2A48     		ldr	r0, .L54+16
 295:main.c        ****         sprintf(buff,"\r\nnewCRC: 0x%08lX , AppCRC: 0x%08lX\r\n", newCRC, appCRC);
 696              		.loc 1 295 0
 697 00e8 A260     		str	r2, [r4, #8]
 698              		.loc 1 296 0
 699 00ea FFF7FEFF 		bl	sprintf
 700              	.LVL94:
 297:main.c        ****         RS232_Debug_PutString(buff);
 701              		.loc 1 297 0
 702 00ee 2848     		ldr	r0, .L54+16
 703 00f0 FFF7FEFF 		bl	RS232_Debug_PutString
ARM GAS  C:\Users\ali\AppData\Local\Temp\ccXUAcQd.s 			page 19


 704              	.LVL95:
 705              	.LBB74:
 298:main.c        **** //        
 299:main.c        **** //        if(newCRC == appCRC){
 300:main.c        ****         if(1){
 301:main.c        ****             RS232_Debug_PutString("CRCs are OK!\r\n");
 706              		.loc 1 301 0
 707 00f4 2948     		ldr	r0, .L54+28
 708 00f6 FFF7FEFF 		bl	RS232_Debug_PutString
 709              	.LVL96:
 302:main.c        ****             
 303:main.c        ****             uint16 appLines = appSize / CY_FLASH_SIZEOF_ROW;
 304:main.c        ****             
 305:main.c        ****             fail = internal_flash_write_row(appLines);
 710              		.loc 1 305 0
 711 00fa C5F30F20 		ubfx	r0, r5, #8, #16
 712 00fe FFF7FEFF 		bl	internal_flash_write_row
 713              	.LVL97:
 306:main.c        ****             
 307:main.c        ****             if(fail == 0){
 308:main.c        ****                 ie2_write_byte(FOTA_STOP, IE2_Loc_FOTA_STATUS);
 714              		.loc 1 308 0
 715 0102 7021     		movs	r1, #112
 307:main.c        ****                 ie2_write_byte(FOTA_STOP, IE2_Loc_FOTA_STATUS);
 716              		.loc 1 307 0
 717 0104 0346     		mov	r3, r0
 718 0106 38B9     		cbnz	r0, .L45
 719              		.loc 1 308 0
 720 0108 FFF7FEFF 		bl	ie2_writeByte
 721              	.LVL98:
 309:main.c        ****                 ie2_write_byte(A_Reset_Code_FOTA_Done, IE2_Loc_Reset_Code_Address);
 722              		.loc 1 309 0
 723 010c 1321     		movs	r1, #19
 724 010e 0220     		movs	r0, #2
 725 0110 FFF7FEFF 		bl	ie2_writeByte
 726              	.LVL99:
 310:main.c        ****                 RS232_Debug_PutString("\r\n--------------------&&&&& Bootloader Programmed Successf
 727              		.loc 1 310 0
 728 0114 2248     		ldr	r0, .L54+32
 729 0116 1CE0     		b	.L52
 730              	.LVL100:
 731              	.L45:
 311:main.c        ****             }
 312:main.c        ****             else if(fail == 1){
 732              		.loc 1 312 0
 733 0118 012B     		cmp	r3, #1
 313:main.c        ****                 ie2_write_byte(FOTA_STOP, IE2_Loc_FOTA_STATUS);
 734              		.loc 1 313 0
 735 011a 4FF00000 		mov	r0, #0
 736              	.LVL101:
 312:main.c        ****                 ie2_write_byte(FOTA_STOP, IE2_Loc_FOTA_STATUS);
 737              		.loc 1 312 0
 738 011e 07D1     		bne	.L47
 739              		.loc 1 313 0
 740 0120 FFF7FEFF 		bl	ie2_writeByte
 741              	.LVL102:
 314:main.c        ****                 ie2_write_byte(Gw_Reset_Code_FOTA_Fail, IE2_Loc_Reset_Code_Address);
ARM GAS  C:\Users\ali\AppData\Local\Temp\ccXUAcQd.s 			page 20


 742              		.loc 1 314 0
 743 0124 1321     		movs	r1, #19
 744 0126 0D20     		movs	r0, #13
 745 0128 FFF7FEFF 		bl	ie2_writeByte
 746              	.LVL103:
 315:main.c        ****                 RS232_Debug_PutString("\r\n--------------------&&&&& Bootloader Programmed Failure 
 747              		.loc 1 315 0
 748 012c 1D48     		ldr	r0, .L54+36
 749 012e 10E0     		b	.L52
 750              	.L47:
 316:main.c        ****             }
 317:main.c        ****             else if(fail == 2){
 751              		.loc 1 317 0
 752 0130 022B     		cmp	r3, #2
 753 0132 07D1     		bne	.L48
 318:main.c        ****                 ie2_write_byte(FOTA_STOP, IE2_Loc_FOTA_STATUS);
 754              		.loc 1 318 0
 755 0134 FFF7FEFF 		bl	ie2_writeByte
 756              	.LVL104:
 319:main.c        ****                 ie2_write_byte(Gw_Reset_Code_FOTA_Fail, IE2_Loc_Reset_Code_Address);
 757              		.loc 1 319 0
 758 0138 1321     		movs	r1, #19
 759 013a 0D20     		movs	r0, #13
 760 013c FFF7FEFF 		bl	ie2_writeByte
 761              	.LVL105:
 320:main.c        ****                 RS232_Debug_PutString("\r\n--------------------&&&&& Bootloader Programmed Failure 
 762              		.loc 1 320 0
 763 0140 1948     		ldr	r0, .L54+40
 764 0142 06E0     		b	.L52
 765              	.L48:
 321:main.c        ****             }
 322:main.c        ****             else{
 323:main.c        ****                 ie2_write_byte(FOTA_STOP, IE2_Loc_FOTA_STATUS);
 766              		.loc 1 323 0
 767 0144 FFF7FEFF 		bl	ie2_writeByte
 768              	.LVL106:
 324:main.c        ****                 ie2_write_byte(Gw_Reset_Code_FOTA_Fail, IE2_Loc_Reset_Code_Address);
 769              		.loc 1 324 0
 770 0148 1321     		movs	r1, #19
 771 014a 0D20     		movs	r0, #13
 772 014c FFF7FEFF 		bl	ie2_writeByte
 773              	.LVL107:
 325:main.c        ****                 RS232_Debug_PutString("\r\n--------------------&&&&& Bootloader Programmed Failure 
 774              		.loc 1 325 0
 775 0150 1648     		ldr	r0, .L54+44
 776              	.L52:
 777 0152 FFF7FEFF 		bl	RS232_Debug_PutString
 778              	.LVL108:
 779 0156 06E0     		b	.L46
 780              	.LVL109:
 781              	.L41:
 782              	.LBE74:
 783              	.LBE67:
 326:main.c        ****             }
 327:main.c        ****         }
 328:main.c        ****         else{
 329:main.c        ****             ie2_write_byte(FOTA_STOP, IE2_Loc_FOTA_STATUS);
ARM GAS  C:\Users\ali\AppData\Local\Temp\ccXUAcQd.s 			page 21


 330:main.c        ****             ie2_write_byte(Gw_Reset_Code_FOTA_Fail, IE2_Loc_Reset_Code_Address);
 331:main.c        ****             RS232_Debug_PutString("\r\n--------------------&&&&& Bootloader Failure --> App CRC != 
 332:main.c        ****         }
 333:main.c        ****     }
 334:main.c        ****     else{
 335:main.c        ****         RS232_Debug_PutString("\r\n--------------------&&&&& No New Program &&&&&------------------
 784              		.loc 1 335 0
 785 0158 1548     		ldr	r0, .L54+48
 786 015a FFF7FEFF 		bl	RS232_Debug_PutString
 787              	.LVL110:
 336:main.c        ****         CyDelay(1000);
 788              		.loc 1 336 0
 789 015e 4FF47A70 		mov	r0, #1000
 790 0162 FFF7FEFF 		bl	CyDelay
 791              	.LVL111:
 792              	.L46:
 337:main.c        ****     }
 338:main.c        ****     
 339:main.c        ****     RS232_Debug_PutString("\r\n--------------------&&&&& Bootloader Finish &&&&&-------------------
 793              		.loc 1 339 0
 794 0166 1348     		ldr	r0, .L54+52
 795 0168 FFF7FEFF 		bl	RS232_Debug_PutString
 796              	.LVL112:
 340:main.c        ****     CyDelay(1000);
 797              		.loc 1 340 0
 798 016c 4FF47A70 		mov	r0, #1000
 799 0170 FFF7FEFF 		bl	CyDelay
 800              	.LVL113:
 341:main.c        ****     Bootloader_Exit(Bootloader_EXIT_TO_BTLDB);
 801              		.loc 1 341 0
 802 0174 0020     		movs	r0, #0
 803 0176 FFF7FEFF 		bl	Bootloader_Exit
 804              	.LVL114:
 342:main.c        ****     
 343:main.c        ****     return 0;
 344:main.c        **** }
 805              		.loc 1 344 0
 806 017a 0020     		movs	r0, #0
 807 017c 03B0     		add	sp, sp, #12
 808              		.cfi_def_cfa_offset 20
 809              		@ sp needed
 810 017e F0BD     		pop	{r4, r5, r6, r7, pc}
 811              	.LVL115:
 812              	.L55:
 813              		.align	2
 814              	.L54:
 815 0180 8C000000 		.word	.LC8
 816 0184 00000000 		.word	CyResetStatus
 817 0188 00000000 		.word	.LANCHOR0
 818 018c D5000000 		.word	.LC9
 819 0190 00000000 		.word	buff
 820 0194 32010000 		.word	.LC10
 821 0198 92010000 		.word	.LC11
 822 019c B8010000 		.word	.LC12
 823 01a0 C7010000 		.word	.LC13
 824 01a4 22020000 		.word	.LC14
 825 01a8 8A020000 		.word	.LC15
ARM GAS  C:\Users\ali\AppData\Local\Temp\ccXUAcQd.s 			page 22


 826 01ac 01030000 		.word	.LC16
 827 01b0 63030000 		.word	.LC17
 828 01b4 AA030000 		.word	.LC18
 829              		.cfi_endproc
 830              	.LFE70:
 831              		.size	main, .-main
 832              		.global	rowID
 833              		.global	arrayID
 834              		.comm	buff,100,1
 835              		.global	newCRC
 836              		.global	appCRC
 837              		.global	counter
 838              		.section	.rodata.str1.1,"aMS",%progbits,1
 839              	.LC0:
 840 0000 466C6173 		.ascii	"Flash writing already in use\015\012\000"
 840      68207772 
 840      6974696E 
 840      6720616C 
 840      72656164 
 841              	.LC1:
 842 001f 436F6D6D 		.ascii	"Command not accepted\015\012\000"
 842      616E6420 
 842      6E6F7420 
 842      61636365 
 842      70746564 
 843              	.LC2:
 844 0036 4661696C 		.ascii	"Failure\015\012\000"
 844      7572650D 
 844      0A00
 845              	.LC3:
 846 0040 57726974 		.ascii	"Writing: 20%\015\012\000"
 846      696E673A 
 846      20323025 
 846      0D0A00
 847              	.LC4:
 848 004f 57726974 		.ascii	"Writing: 40%\015\012\000"
 848      696E673A 
 848      20343025 
 848      0D0A00
 849              	.LC5:
 850 005e 57726974 		.ascii	"Writing: 60%\015\012\000"
 850      696E673A 
 850      20363025 
 850      0D0A00
 851              	.LC6:
 852 006d 57726974 		.ascii	"Writing: 80%\015\012\000"
 852      696E673A 
 852      20383025 
 852      0D0A00
 853              	.LC7:
 854 007c 57726974 		.ascii	"Writing: 100%\015\012\000"
 854      696E673A 
 854      20313030 
 854      250D0A00 
 855              	.LC8:
 856 008c 0D0A2D2D 		.ascii	"\015\012--------------------&&&&& Bootloader Start "
 856      2D2D2D2D 
ARM GAS  C:\Users\ali\AppData\Local\Temp\ccXUAcQd.s 			page 23


 856      2D2D2D2D 
 856      2D2D2D2D 
 856      2D2D2D2D 
 857 00b9 26262626 		.ascii	"&&&&&--------------------\015\012\000"
 857      262D2D2D 
 857      2D2D2D2D 
 857      2D2D2D2D 
 857      2D2D2D2D 
 858              	.LC9:
 859 00d5 4170706C 		.ascii	"Application CRC on E2: 0x%08lX\015\012Bootloader St"
 859      69636174 
 859      696F6E20 
 859      43524320 
 859      6F6E2045 
 860 0102 61747573 		.ascii	"atus:0x%02X\015\012App Size: %ld\015\012first RowID"
 860      3A307825 
 860      3032580D 
 860      0A417070 
 860      2053697A 
 861 0129 3A202530 		.ascii	": %04X\015\012\000"
 861      34580D0A 
 861      00
 862              	.LC10:
 863 0132 0D0A2D2D 		.ascii	"\015\012--------------------&&&&& Start Writing New"
 863      2D2D2D2D 
 863      2D2D2D2D 
 863      2D2D2D2D 
 863      2D2D2D2D 
 864 015f 20417070 		.ascii	" App to Internal Flash &&&&&--------------------\015"
 864      20746F20 
 864      496E7465 
 864      726E616C 
 864      20466C61 
 865 0190 0A00     		.ascii	"\012\000"
 866              	.LC11:
 867 0192 0D0A6E65 		.ascii	"\015\012newCRC: 0x%08lX , AppCRC: 0x%08lX\015\012\000"
 867      77435243 
 867      3A203078 
 867      2530386C 
 867      58202C20 
 868              	.LC12:
 869 01b8 43524373 		.ascii	"CRCs are OK!\015\012\000"
 869      20617265 
 869      204F4B21 
 869      0D0A00
 870              	.LC13:
 871 01c7 0D0A2D2D 		.ascii	"\015\012--------------------&&&&& Bootloader Progra"
 871      2D2D2D2D 
 871      2D2D2D2D 
 871      2D2D2D2D 
 871      2D2D2D2D 
 872 01f4 6D6D6564 		.ascii	"mmed Successfully &&&&&--------------------\015\012"
 872      20537563 
 872      63657373 
 872      66756C6C 
 872      79202626 
 873 0221 00       		.ascii	"\000"
ARM GAS  C:\Users\ali\AppData\Local\Temp\ccXUAcQd.s 			page 24


 874              	.LC14:
 875 0222 0D0A2D2D 		.ascii	"\015\012--------------------&&&&& Bootloader Progra"
 875      2D2D2D2D 
 875      2D2D2D2D 
 875      2D2D2D2D 
 875      2D2D2D2D 
 876 024f 6D6D6564 		.ascii	"mmed Failure --> row not write &&&&&---------------"
 876      20466169 
 876      6C757265 
 876      202D2D3E 
 876      20726F77 
 877 0282 2D2D2D2D 		.ascii	"-----\015\012\000"
 877      2D0D0A00 
 878              	.LC15:
 879 028a 0D0A2D2D 		.ascii	"\015\012--------------------&&&&& Bootloader Progra"
 879      2D2D2D2D 
 879      2D2D2D2D 
 879      2D2D2D2D 
 879      2D2D2D2D 
 880 02b7 6D6D6564 		.ascii	"mmed Failure --> CySetTemp() != CYRET_SUCCESS &&&&&"
 880      20466169 
 880      6C757265 
 880      202D2D3E 
 880      20437953 
 881 02ea 2D2D2D2D 		.ascii	"--------------------\015\012\000"
 881      2D2D2D2D 
 881      2D2D2D2D 
 881      2D2D2D2D 
 881      2D2D2D2D 
 882              	.LC16:
 883 0301 0D0A2D2D 		.ascii	"\015\012--------------------&&&&& Bootloader Progra"
 883      2D2D2D2D 
 883      2D2D2D2D 
 883      2D2D2D2D 
 883      2D2D2D2D 
 884 032e 6D6D6564 		.ascii	"mmed Failure --> Unknown &&&&&--------------------\015"
 884      20466169 
 884      6C757265 
 884      202D2D3E 
 884      20556E6B 
 885 0361 0A00     		.ascii	"\012\000"
 886              	.LC17:
 887 0363 0D0A2D2D 		.ascii	"\015\012--------------------&&&&& No New Program &&"
 887      2D2D2D2D 
 887      2D2D2D2D 
 887      2D2D2D2D 
 887      2D2D2D2D 
 888 0390 2626262D 		.ascii	"&&&--------------------\015\012\000"
 888      2D2D2D2D 
 888      2D2D2D2D 
 888      2D2D2D2D 
 888      2D2D2D2D 
 889              	.LC18:
 890 03aa 0D0A2D2D 		.ascii	"\015\012--------------------&&&&& Bootloader Finish"
 890      2D2D2D2D 
 890      2D2D2D2D 
 890      2D2D2D2D 
ARM GAS  C:\Users\ali\AppData\Local\Temp\ccXUAcQd.s 			page 25


 890      2D2D2D2D 
 891 03d7 20262626 		.ascii	" &&&&&--------------------\015\012\000"
 891      26262D2D 
 891      2D2D2D2D 
 891      2D2D2D2D 
 891      2D2D2D2D 
 892              		.bss
 893              		.align	2
 894              		.set	.LANCHOR0,. + 0
 895              		.type	rowID, %object
 896              		.size	rowID, 2
 897              	rowID:
 898 0000 0000     		.space	2
 899              		.type	arrayID, %object
 900              		.size	arrayID, 1
 901              	arrayID:
 902 0002 00       		.space	1
 903 0003 00       		.space	1
 904              		.type	appCRC, %object
 905              		.size	appCRC, 4
 906              	appCRC:
 907 0004 00000000 		.space	4
 908              		.type	newCRC, %object
 909              		.size	newCRC, 4
 910              	newCRC:
 911 0008 00000000 		.space	4
 912              		.type	counter, %object
 913              		.size	counter, 1
 914              	counter:
 915 000c 00       		.space	1
 916              		.text
 917              	.Letext0:
 918              		.file 2 "c:\\program files (x86)\\cypress\\psoc creator\\4.4\\psoc creator\\import\\gnu\\arm\\5.4.
 919              		.file 3 "c:\\program files (x86)\\cypress\\psoc creator\\4.4\\psoc creator\\import\\gnu\\arm\\5.4.
 920              		.file 4 "Generated_Source\\PSoC5/cytypes.h"
 921              		.file 5 "c:\\program files (x86)\\cypress\\psoc creator\\4.4\\psoc creator\\import\\gnu\\arm\\5.4.
 922              		.file 6 "Generated_Source\\PSoC5/CyLib.h"
 923              		.file 7 "Generated_Source\\PSoC5/core_cm3.h"
 924              		.file 8 "Generated_Source\\PSoC5/Internal_EEPROM.h"
 925              		.file 9 "Generated_Source\\PSoC5/RS232_Debug.h"
 926              		.file 10 "Generated_Source\\PSoC5/CyFlash.h"
 927              		.file 11 "c:\\program files (x86)\\cypress\\psoc creator\\4.4\\psoc creator\\import\\gnu\\arm\\5.4
 928              		.file 12 "Generated_Source\\PSoC5/Bootloader.h"