ARM GAS  C:\Users\IroTeam\AppData\Local\Temp\ccpfnFDy.s 			page 1


   1              		.syntax unified
   2              		.cpu cortex-m3
   3              		.fpu softvfp
   4              		.eabi_attribute 20, 1
   5              		.eabi_attribute 21, 1
   6              		.eabi_attribute 23, 3
   7              		.eabi_attribute 24, 1
   8              		.eabi_attribute 25, 1
   9              		.eabi_attribute 26, 1
  10              		.eabi_attribute 30, 4
  11              		.eabi_attribute 34, 1
  12              		.eabi_attribute 18, 4
  13              		.thumb
  14              		.syntax unified
  15              		.file	"RS485_Sensor_BOOT.c"
  16              		.text
  17              	.Ltext0:
  18              		.cfi_sections	.debug_frame
  19              		.section	.text.RS485_Sensor_CyBtldrCommStart,"ax",%progbits
  20              		.align	1
  21              		.global	RS485_Sensor_CyBtldrCommStart
  22              		.thumb
  23              		.thumb_func
  24              		.type	RS485_Sensor_CyBtldrCommStart, %function
  25              	RS485_Sensor_CyBtldrCommStart:
  26              	.LFB0:
  27              		.file 1 "Generated_Source\\PSoC5\\RS485_Sensor_BOOT.c"
   1:Generated_Source\PSoC5/RS485_Sensor_BOOT.c **** /*******************************************************************************
   2:Generated_Source\PSoC5/RS485_Sensor_BOOT.c **** * File Name: RS485_Sensor_BOOT.c
   3:Generated_Source\PSoC5/RS485_Sensor_BOOT.c **** * Version 2.50
   4:Generated_Source\PSoC5/RS485_Sensor_BOOT.c **** *
   5:Generated_Source\PSoC5/RS485_Sensor_BOOT.c **** * Description:
   6:Generated_Source\PSoC5/RS485_Sensor_BOOT.c **** *  This file provides the source code of bootloader communication APIs for the
   7:Generated_Source\PSoC5/RS485_Sensor_BOOT.c **** *  UART component.
   8:Generated_Source\PSoC5/RS485_Sensor_BOOT.c **** *
   9:Generated_Source\PSoC5/RS485_Sensor_BOOT.c **** * Note:
  10:Generated_Source\PSoC5/RS485_Sensor_BOOT.c **** *
  11:Generated_Source\PSoC5/RS485_Sensor_BOOT.c **** ********************************************************************************
  12:Generated_Source\PSoC5/RS485_Sensor_BOOT.c **** * Copyright 2008-2015, Cypress Semiconductor Corporation.  All rights reserved.
  13:Generated_Source\PSoC5/RS485_Sensor_BOOT.c **** * You may use this file only in accordance with the license, terms, conditions,
  14:Generated_Source\PSoC5/RS485_Sensor_BOOT.c **** * disclaimers, and limitations in the end user license agreement accompanying
  15:Generated_Source\PSoC5/RS485_Sensor_BOOT.c **** * the software package with which this file was provided.
  16:Generated_Source\PSoC5/RS485_Sensor_BOOT.c **** *******************************************************************************/
  17:Generated_Source\PSoC5/RS485_Sensor_BOOT.c **** 
  18:Generated_Source\PSoC5/RS485_Sensor_BOOT.c **** #include "RS485_Sensor.h"
  19:Generated_Source\PSoC5/RS485_Sensor_BOOT.c **** 
  20:Generated_Source\PSoC5/RS485_Sensor_BOOT.c **** #if defined(CYDEV_BOOTLOADER_IO_COMP) && (0u != ((CYDEV_BOOTLOADER_IO_COMP == CyBtldr_RS485_Sensor)
  21:Generated_Source\PSoC5/RS485_Sensor_BOOT.c ****                                           (CYDEV_BOOTLOADER_IO_COMP == CyBtldr_Custom_Interface)))
  22:Generated_Source\PSoC5/RS485_Sensor_BOOT.c **** 
  23:Generated_Source\PSoC5/RS485_Sensor_BOOT.c **** 
  24:Generated_Source\PSoC5/RS485_Sensor_BOOT.c **** /*******************************************************************************
  25:Generated_Source\PSoC5/RS485_Sensor_BOOT.c **** * Function Name: RS485_Sensor_CyBtldrCommStart
  26:Generated_Source\PSoC5/RS485_Sensor_BOOT.c **** ********************************************************************************
  27:Generated_Source\PSoC5/RS485_Sensor_BOOT.c **** *
  28:Generated_Source\PSoC5/RS485_Sensor_BOOT.c **** * Summary:
  29:Generated_Source\PSoC5/RS485_Sensor_BOOT.c **** *  Starts the UART communication component.
  30:Generated_Source\PSoC5/RS485_Sensor_BOOT.c **** *
ARM GAS  C:\Users\IroTeam\AppData\Local\Temp\ccpfnFDy.s 			page 2


  31:Generated_Source\PSoC5/RS485_Sensor_BOOT.c **** * Parameters:
  32:Generated_Source\PSoC5/RS485_Sensor_BOOT.c **** *  None
  33:Generated_Source\PSoC5/RS485_Sensor_BOOT.c **** *
  34:Generated_Source\PSoC5/RS485_Sensor_BOOT.c **** * Return:
  35:Generated_Source\PSoC5/RS485_Sensor_BOOT.c **** *  None
  36:Generated_Source\PSoC5/RS485_Sensor_BOOT.c **** *
  37:Generated_Source\PSoC5/RS485_Sensor_BOOT.c **** * Side Effects:
  38:Generated_Source\PSoC5/RS485_Sensor_BOOT.c **** *  This component automatically enables global interrupt.
  39:Generated_Source\PSoC5/RS485_Sensor_BOOT.c **** *
  40:Generated_Source\PSoC5/RS485_Sensor_BOOT.c **** *******************************************************************************/
  41:Generated_Source\PSoC5/RS485_Sensor_BOOT.c **** void RS485_Sensor_CyBtldrCommStart(void) CYSMALL 
  42:Generated_Source\PSoC5/RS485_Sensor_BOOT.c **** {
  28              		.loc 1 42 0
  29              		.cfi_startproc
  30              		@ args = 0, pretend = 0, frame = 0
  31              		@ frame_needed = 0, uses_anonymous_args = 0
  32 0000 08B5     		push	{r3, lr}
  33              		.cfi_def_cfa_offset 8
  34              		.cfi_offset 3, -8
  35              		.cfi_offset 14, -4
  43:Generated_Source\PSoC5/RS485_Sensor_BOOT.c ****     /* Start UART component and clear the Tx,Rx buffers */
  44:Generated_Source\PSoC5/RS485_Sensor_BOOT.c ****     RS485_Sensor_Start();
  36              		.loc 1 44 0
  37 0002 FFF7FEFF 		bl	RS485_Sensor_Start
  38              	.LVL0:
  45:Generated_Source\PSoC5/RS485_Sensor_BOOT.c ****     RS485_Sensor_ClearRxBuffer();
  39              		.loc 1 45 0
  40 0006 FFF7FEFF 		bl	RS485_Sensor_ClearRxBuffer
  41              	.LVL1:
  46:Generated_Source\PSoC5/RS485_Sensor_BOOT.c ****     RS485_Sensor_ClearTxBuffer();
  47:Generated_Source\PSoC5/RS485_Sensor_BOOT.c **** }
  42              		.loc 1 47 0
  43 000a BDE80840 		pop	{r3, lr}
  44              		.cfi_restore 14
  45              		.cfi_restore 3
  46              		.cfi_def_cfa_offset 0
  46:Generated_Source\PSoC5/RS485_Sensor_BOOT.c ****     RS485_Sensor_ClearTxBuffer();
  47              		.loc 1 46 0
  48 000e FFF7FEBF 		b	RS485_Sensor_ClearTxBuffer
  49              	.LVL2:
  50              		.cfi_endproc
  51              	.LFE0:
  52              		.size	RS485_Sensor_CyBtldrCommStart, .-RS485_Sensor_CyBtldrCommStart
  53              		.section	.text.RS485_Sensor_CyBtldrCommStop,"ax",%progbits
  54              		.align	1
  55              		.global	RS485_Sensor_CyBtldrCommStop
  56              		.thumb
  57              		.thumb_func
  58              		.type	RS485_Sensor_CyBtldrCommStop, %function
  59              	RS485_Sensor_CyBtldrCommStop:
  60              	.LFB1:
  48:Generated_Source\PSoC5/RS485_Sensor_BOOT.c **** 
  49:Generated_Source\PSoC5/RS485_Sensor_BOOT.c **** 
  50:Generated_Source\PSoC5/RS485_Sensor_BOOT.c **** /*******************************************************************************
  51:Generated_Source\PSoC5/RS485_Sensor_BOOT.c **** * Function Name: RS485_Sensor_CyBtldrCommStop
  52:Generated_Source\PSoC5/RS485_Sensor_BOOT.c **** ********************************************************************************
  53:Generated_Source\PSoC5/RS485_Sensor_BOOT.c **** *
ARM GAS  C:\Users\IroTeam\AppData\Local\Temp\ccpfnFDy.s 			page 3


  54:Generated_Source\PSoC5/RS485_Sensor_BOOT.c **** * Summary:
  55:Generated_Source\PSoC5/RS485_Sensor_BOOT.c **** *  Disables the communication component and disables the interrupt.
  56:Generated_Source\PSoC5/RS485_Sensor_BOOT.c **** *
  57:Generated_Source\PSoC5/RS485_Sensor_BOOT.c **** * Parameters:
  58:Generated_Source\PSoC5/RS485_Sensor_BOOT.c **** *  None
  59:Generated_Source\PSoC5/RS485_Sensor_BOOT.c **** *
  60:Generated_Source\PSoC5/RS485_Sensor_BOOT.c **** * Return:
  61:Generated_Source\PSoC5/RS485_Sensor_BOOT.c **** *  None
  62:Generated_Source\PSoC5/RS485_Sensor_BOOT.c **** *
  63:Generated_Source\PSoC5/RS485_Sensor_BOOT.c **** *******************************************************************************/
  64:Generated_Source\PSoC5/RS485_Sensor_BOOT.c **** void RS485_Sensor_CyBtldrCommStop(void) CYSMALL 
  65:Generated_Source\PSoC5/RS485_Sensor_BOOT.c **** {
  61              		.loc 1 65 0
  62              		.cfi_startproc
  63              		@ args = 0, pretend = 0, frame = 0
  64              		@ frame_needed = 0, uses_anonymous_args = 0
  65              		@ link register save eliminated.
  66:Generated_Source\PSoC5/RS485_Sensor_BOOT.c ****     /* Stop UART component */
  67:Generated_Source\PSoC5/RS485_Sensor_BOOT.c ****     RS485_Sensor_Stop();
  66              		.loc 1 67 0
  67 0000 FFF7FEBF 		b	RS485_Sensor_Stop
  68              	.LVL3:
  69              		.cfi_endproc
  70              	.LFE1:
  71              		.size	RS485_Sensor_CyBtldrCommStop, .-RS485_Sensor_CyBtldrCommStop
  72              		.section	.text.RS485_Sensor_CyBtldrCommReset,"ax",%progbits
  73              		.align	1
  74              		.global	RS485_Sensor_CyBtldrCommReset
  75              		.thumb
  76              		.thumb_func
  77              		.type	RS485_Sensor_CyBtldrCommReset, %function
  78              	RS485_Sensor_CyBtldrCommReset:
  79              	.LFB2:
  68:Generated_Source\PSoC5/RS485_Sensor_BOOT.c **** }
  69:Generated_Source\PSoC5/RS485_Sensor_BOOT.c **** 
  70:Generated_Source\PSoC5/RS485_Sensor_BOOT.c **** 
  71:Generated_Source\PSoC5/RS485_Sensor_BOOT.c **** /*******************************************************************************
  72:Generated_Source\PSoC5/RS485_Sensor_BOOT.c **** * Function Name: RS485_Sensor_CyBtldrCommReset
  73:Generated_Source\PSoC5/RS485_Sensor_BOOT.c **** ********************************************************************************
  74:Generated_Source\PSoC5/RS485_Sensor_BOOT.c **** *
  75:Generated_Source\PSoC5/RS485_Sensor_BOOT.c **** * Summary:
  76:Generated_Source\PSoC5/RS485_Sensor_BOOT.c **** *  Resets the receive and transmit communication Buffers.
  77:Generated_Source\PSoC5/RS485_Sensor_BOOT.c **** *
  78:Generated_Source\PSoC5/RS485_Sensor_BOOT.c **** * Parameters:
  79:Generated_Source\PSoC5/RS485_Sensor_BOOT.c **** *  None
  80:Generated_Source\PSoC5/RS485_Sensor_BOOT.c **** *
  81:Generated_Source\PSoC5/RS485_Sensor_BOOT.c **** * Return:
  82:Generated_Source\PSoC5/RS485_Sensor_BOOT.c **** *  None
  83:Generated_Source\PSoC5/RS485_Sensor_BOOT.c **** *
  84:Generated_Source\PSoC5/RS485_Sensor_BOOT.c **** *******************************************************************************/
  85:Generated_Source\PSoC5/RS485_Sensor_BOOT.c **** void RS485_Sensor_CyBtldrCommReset(void) CYSMALL 
  86:Generated_Source\PSoC5/RS485_Sensor_BOOT.c **** {
  80              		.loc 1 86 0
  81              		.cfi_startproc
  82              		@ args = 0, pretend = 0, frame = 0
  83              		@ frame_needed = 0, uses_anonymous_args = 0
  84 0000 08B5     		push	{r3, lr}
ARM GAS  C:\Users\IroTeam\AppData\Local\Temp\ccpfnFDy.s 			page 4


  85              		.cfi_def_cfa_offset 8
  86              		.cfi_offset 3, -8
  87              		.cfi_offset 14, -4
  87:Generated_Source\PSoC5/RS485_Sensor_BOOT.c ****     /* Clear RX and TX buffers */
  88:Generated_Source\PSoC5/RS485_Sensor_BOOT.c ****     RS485_Sensor_ClearRxBuffer();
  88              		.loc 1 88 0
  89 0002 FFF7FEFF 		bl	RS485_Sensor_ClearRxBuffer
  90              	.LVL4:
  89:Generated_Source\PSoC5/RS485_Sensor_BOOT.c ****     RS485_Sensor_ClearTxBuffer();
  90:Generated_Source\PSoC5/RS485_Sensor_BOOT.c **** }
  91              		.loc 1 90 0
  92 0006 BDE80840 		pop	{r3, lr}
  93              		.cfi_restore 14
  94              		.cfi_restore 3
  95              		.cfi_def_cfa_offset 0
  89:Generated_Source\PSoC5/RS485_Sensor_BOOT.c ****     RS485_Sensor_ClearTxBuffer();
  96              		.loc 1 89 0
  97 000a FFF7FEBF 		b	RS485_Sensor_ClearTxBuffer
  98              	.LVL5:
  99              		.cfi_endproc
 100              	.LFE2:
 101              		.size	RS485_Sensor_CyBtldrCommReset, .-RS485_Sensor_CyBtldrCommReset
 102              		.section	.text.RS485_Sensor_CyBtldrCommWrite,"ax",%progbits
 103              		.align	1
 104              		.global	RS485_Sensor_CyBtldrCommWrite
 105              		.thumb
 106              		.thumb_func
 107              		.type	RS485_Sensor_CyBtldrCommWrite, %function
 108              	RS485_Sensor_CyBtldrCommWrite:
 109              	.LFB3:
  91:Generated_Source\PSoC5/RS485_Sensor_BOOT.c **** 
  92:Generated_Source\PSoC5/RS485_Sensor_BOOT.c **** 
  93:Generated_Source\PSoC5/RS485_Sensor_BOOT.c **** /*******************************************************************************
  94:Generated_Source\PSoC5/RS485_Sensor_BOOT.c **** * Function Name: RS485_Sensor_CyBtldrCommWrite
  95:Generated_Source\PSoC5/RS485_Sensor_BOOT.c **** ********************************************************************************
  96:Generated_Source\PSoC5/RS485_Sensor_BOOT.c **** *
  97:Generated_Source\PSoC5/RS485_Sensor_BOOT.c **** * Summary:
  98:Generated_Source\PSoC5/RS485_Sensor_BOOT.c **** *  Allows the caller to write data to the boot loader host. This function uses
  99:Generated_Source\PSoC5/RS485_Sensor_BOOT.c **** * a blocking write function for writing data using UART communication component.
 100:Generated_Source\PSoC5/RS485_Sensor_BOOT.c **** *
 101:Generated_Source\PSoC5/RS485_Sensor_BOOT.c **** * Parameters:
 102:Generated_Source\PSoC5/RS485_Sensor_BOOT.c **** *  pData:    A pointer to the block of data to send to the device
 103:Generated_Source\PSoC5/RS485_Sensor_BOOT.c **** *  size:     The number of bytes to write.
 104:Generated_Source\PSoC5/RS485_Sensor_BOOT.c **** *  count:    Pointer to an unsigned short variable to write the number of
 105:Generated_Source\PSoC5/RS485_Sensor_BOOT.c **** *             bytes actually written.
 106:Generated_Source\PSoC5/RS485_Sensor_BOOT.c **** *  timeOut:  Number of units to wait before returning because of a timeout.
 107:Generated_Source\PSoC5/RS485_Sensor_BOOT.c **** *
 108:Generated_Source\PSoC5/RS485_Sensor_BOOT.c **** * Return:
 109:Generated_Source\PSoC5/RS485_Sensor_BOOT.c **** *   cystatus: This function will return CYRET_SUCCESS if data is sent
 110:Generated_Source\PSoC5/RS485_Sensor_BOOT.c **** *             successfully.
 111:Generated_Source\PSoC5/RS485_Sensor_BOOT.c **** *
 112:Generated_Source\PSoC5/RS485_Sensor_BOOT.c **** * Side Effects:
 113:Generated_Source\PSoC5/RS485_Sensor_BOOT.c **** *  This function should be called after command was received .
 114:Generated_Source\PSoC5/RS485_Sensor_BOOT.c **** *
 115:Generated_Source\PSoC5/RS485_Sensor_BOOT.c **** *******************************************************************************/
 116:Generated_Source\PSoC5/RS485_Sensor_BOOT.c **** cystatus RS485_Sensor_CyBtldrCommWrite(const uint8 pData[], uint16 size, uint16 * count, uint8 time
 117:Generated_Source\PSoC5/RS485_Sensor_BOOT.c ****          
ARM GAS  C:\Users\IroTeam\AppData\Local\Temp\ccpfnFDy.s 			page 5


 118:Generated_Source\PSoC5/RS485_Sensor_BOOT.c **** {
 110              		.loc 1 118 0
 111              		.cfi_startproc
 112              		@ args = 0, pretend = 0, frame = 0
 113              		@ frame_needed = 0, uses_anonymous_args = 0
 114              	.LVL6:
 115 0000 F8B5     		push	{r3, r4, r5, r6, r7, lr}
 116              		.cfi_def_cfa_offset 24
 117              		.cfi_offset 3, -24
 118              		.cfi_offset 4, -20
 119              		.cfi_offset 5, -16
 120              		.cfi_offset 6, -12
 121              		.cfi_offset 7, -8
 122              		.cfi_offset 14, -4
 123              		.loc 1 118 0
 124 0002 0E46     		mov	r6, r1
 125 0004 0446     		mov	r4, r0
 126 0006 1746     		mov	r7, r2
 119:Generated_Source\PSoC5/RS485_Sensor_BOOT.c ****     uint16 bufIndex = 0u;
 120:Generated_Source\PSoC5/RS485_Sensor_BOOT.c **** 
 121:Generated_Source\PSoC5/RS485_Sensor_BOOT.c ****     if(0u != timeOut)
 122:Generated_Source\PSoC5/RS485_Sensor_BOOT.c ****     {
 123:Generated_Source\PSoC5/RS485_Sensor_BOOT.c ****         /* Suppress compiler warning */
 124:Generated_Source\PSoC5/RS485_Sensor_BOOT.c ****     }
 125:Generated_Source\PSoC5/RS485_Sensor_BOOT.c **** 
 126:Generated_Source\PSoC5/RS485_Sensor_BOOT.c ****     /* Clear receive buffers */
 127:Generated_Source\PSoC5/RS485_Sensor_BOOT.c ****     RS485_Sensor_ClearRxBuffer();
 127              		.loc 1 127 0
 128 0008 FFF7FEFF 		bl	RS485_Sensor_ClearRxBuffer
 129              	.LVL7:
 130 000c 731E     		subs	r3, r6, #1
 131 000e 651E     		subs	r5, r4, #1
 132 0010 1C44     		add	r4, r4, r3
 133              	.LVL8:
 134              	.L5:
 128:Generated_Source\PSoC5/RS485_Sensor_BOOT.c **** 
 129:Generated_Source\PSoC5/RS485_Sensor_BOOT.c ****     /* Write TX data using blocking function */
 130:Generated_Source\PSoC5/RS485_Sensor_BOOT.c ****     while(bufIndex < size)
 135              		.loc 1 130 0
 136 0012 A542     		cmp	r5, r4
 137 0014 04D0     		beq	.L8
 131:Generated_Source\PSoC5/RS485_Sensor_BOOT.c ****     {
 132:Generated_Source\PSoC5/RS485_Sensor_BOOT.c ****         RS485_Sensor_PutChar(pData[bufIndex]);
 138              		.loc 1 132 0
 139 0016 15F8010F 		ldrb	r0, [r5, #1]!	@ zero_extendqisi2
 140              	.LVL9:
 141 001a FFF7FEFF 		bl	RS485_Sensor_PutChar
 142              	.LVL10:
 143 001e F8E7     		b	.L5
 144              	.L8:
 133:Generated_Source\PSoC5/RS485_Sensor_BOOT.c ****         bufIndex++;
 134:Generated_Source\PSoC5/RS485_Sensor_BOOT.c ****     }
 135:Generated_Source\PSoC5/RS485_Sensor_BOOT.c **** 
 136:Generated_Source\PSoC5/RS485_Sensor_BOOT.c ****     /* Return success code */
 137:Generated_Source\PSoC5/RS485_Sensor_BOOT.c ****     *count = size;
 145              		.loc 1 137 0
 146 0020 3E80     		strh	r6, [r7]	@ movhi
ARM GAS  C:\Users\IroTeam\AppData\Local\Temp\ccpfnFDy.s 			page 6


 138:Generated_Source\PSoC5/RS485_Sensor_BOOT.c **** 
 139:Generated_Source\PSoC5/RS485_Sensor_BOOT.c ****     return (CYRET_SUCCESS);
 140:Generated_Source\PSoC5/RS485_Sensor_BOOT.c **** }
 147              		.loc 1 140 0
 148 0022 0020     		movs	r0, #0
 149 0024 F8BD     		pop	{r3, r4, r5, r6, r7, pc}
 150              		.cfi_endproc
 151              	.LFE3:
 152              		.size	RS485_Sensor_CyBtldrCommWrite, .-RS485_Sensor_CyBtldrCommWrite
 153              		.section	.text.RS485_Sensor_CyBtldrCommRead,"ax",%progbits
 154              		.align	1
 155              		.global	RS485_Sensor_CyBtldrCommRead
 156              		.thumb
 157              		.thumb_func
 158              		.type	RS485_Sensor_CyBtldrCommRead, %function
 159              	RS485_Sensor_CyBtldrCommRead:
 160              	.LFB4:
 141:Generated_Source\PSoC5/RS485_Sensor_BOOT.c **** 
 142:Generated_Source\PSoC5/RS485_Sensor_BOOT.c **** 
 143:Generated_Source\PSoC5/RS485_Sensor_BOOT.c **** /*******************************************************************************
 144:Generated_Source\PSoC5/RS485_Sensor_BOOT.c **** * Function Name: RS485_Sensor_CyBtldrCommRead
 145:Generated_Source\PSoC5/RS485_Sensor_BOOT.c **** ********************************************************************************
 146:Generated_Source\PSoC5/RS485_Sensor_BOOT.c **** *
 147:Generated_Source\PSoC5/RS485_Sensor_BOOT.c **** * Summary:
 148:Generated_Source\PSoC5/RS485_Sensor_BOOT.c **** *  Receives the command.
 149:Generated_Source\PSoC5/RS485_Sensor_BOOT.c **** *
 150:Generated_Source\PSoC5/RS485_Sensor_BOOT.c **** * Parameters:
 151:Generated_Source\PSoC5/RS485_Sensor_BOOT.c **** *  pData:    A pointer to the area to store the block of data received
 152:Generated_Source\PSoC5/RS485_Sensor_BOOT.c **** *             from the device.
 153:Generated_Source\PSoC5/RS485_Sensor_BOOT.c **** *  size:     Maximum size of the read buffer
 154:Generated_Source\PSoC5/RS485_Sensor_BOOT.c **** *  count:    Pointer to an unsigned short variable to write the number
 155:Generated_Source\PSoC5/RS485_Sensor_BOOT.c **** *             of bytes actually read.
 156:Generated_Source\PSoC5/RS485_Sensor_BOOT.c **** *  timeOut:  Number of units to wait before returning because of a timeOut.
 157:Generated_Source\PSoC5/RS485_Sensor_BOOT.c **** *            Time out is measured in 10s of ms.
 158:Generated_Source\PSoC5/RS485_Sensor_BOOT.c **** *
 159:Generated_Source\PSoC5/RS485_Sensor_BOOT.c **** * Return:
 160:Generated_Source\PSoC5/RS485_Sensor_BOOT.c **** *  cystatus: This function will return CYRET_SUCCESS if at least one byte is
 161:Generated_Source\PSoC5/RS485_Sensor_BOOT.c **** *            received successfully within the time out interval. If no data is
 162:Generated_Source\PSoC5/RS485_Sensor_BOOT.c **** *            received  this function will return CYRET_EMPTY.
 163:Generated_Source\PSoC5/RS485_Sensor_BOOT.c **** *
 164:Generated_Source\PSoC5/RS485_Sensor_BOOT.c **** *  BYTE2BYTE_TIME_OUT is used for detecting time out marking end of block data
 165:Generated_Source\PSoC5/RS485_Sensor_BOOT.c **** *  from host. This has to be set to a value which is greater than the expected
 166:Generated_Source\PSoC5/RS485_Sensor_BOOT.c **** *  maximum delay between two bytes during a block/packet transmission from the
 167:Generated_Source\PSoC5/RS485_Sensor_BOOT.c **** *  host. You have to account for the delay in hardware converters while
 168:Generated_Source\PSoC5/RS485_Sensor_BOOT.c **** *  calculating this value, if you are using any USB-UART bridges.
 169:Generated_Source\PSoC5/RS485_Sensor_BOOT.c **** *******************************************************************************/
 170:Generated_Source\PSoC5/RS485_Sensor_BOOT.c **** cystatus RS485_Sensor_CyBtldrCommRead(uint8 pData[], uint16 size, uint16 * count, uint8 timeOut) CY
 171:Generated_Source\PSoC5/RS485_Sensor_BOOT.c ****          
 172:Generated_Source\PSoC5/RS485_Sensor_BOOT.c **** {
 161              		.loc 1 172 0
 162              		.cfi_startproc
 163              		@ args = 0, pretend = 0, frame = 0
 164              		@ frame_needed = 0, uses_anonymous_args = 0
 165              	.LVL11:
 166 0000 2DE9F84F 		push	{r3, r4, r5, r6, r7, r8, r9, r10, fp, lr}
 167              		.cfi_def_cfa_offset 40
 168              		.cfi_offset 3, -40
ARM GAS  C:\Users\IroTeam\AppData\Local\Temp\ccpfnFDy.s 			page 7


 169              		.cfi_offset 4, -36
 170              		.cfi_offset 5, -32
 171              		.cfi_offset 6, -28
 172              		.cfi_offset 7, -24
 173              		.cfi_offset 8, -20
 174              		.cfi_offset 9, -16
 175              		.cfi_offset 10, -12
 176              		.cfi_offset 11, -8
 177              		.cfi_offset 14, -4
 178              		.loc 1 172 0
 179 0004 8046     		mov	r8, r0
 180 0006 8946     		mov	r9, r1
 181 0008 1646     		mov	r6, r2
 173:Generated_Source\PSoC5/RS485_Sensor_BOOT.c ****     uint16 iCntr;
 174:Generated_Source\PSoC5/RS485_Sensor_BOOT.c ****     uint16 dataIndexCntr;
 175:Generated_Source\PSoC5/RS485_Sensor_BOOT.c ****     uint16 tempCount;
 176:Generated_Source\PSoC5/RS485_Sensor_BOOT.c ****     uint16 oldDataCount;
 177:Generated_Source\PSoC5/RS485_Sensor_BOOT.c **** 
 178:Generated_Source\PSoC5/RS485_Sensor_BOOT.c ****     cystatus status = CYRET_EMPTY;
 179:Generated_Source\PSoC5/RS485_Sensor_BOOT.c **** 
 180:Generated_Source\PSoC5/RS485_Sensor_BOOT.c ****     /* Check whether data is received within the time out period.
 181:Generated_Source\PSoC5/RS485_Sensor_BOOT.c ****     *  Time out period is in units of 10ms.
 182:Generated_Source\PSoC5/RS485_Sensor_BOOT.c ****     *  If at least one byte is received within the time out interval, wait for more data */
 183:Generated_Source\PSoC5/RS485_Sensor_BOOT.c ****     for (iCntr = 0u; iCntr < ((uint16)10u * timeOut); iCntr++)
 182              		.loc 1 183 0
 183 000a 0A24     		movs	r4, #10
 184 000c 5C43     		muls	r4, r3, r4
 185 000e 0025     		movs	r5, #0
 186              	.LVL12:
 187              	.L10:
 188              		.loc 1 183 0 is_stmt 0 discriminator 1
 189 0010 ABB2     		uxth	r3, r5
 190              	.LVL13:
 191 0012 A342     		cmp	r3, r4
 192 0014 13DA     		bge	.L27
 184:Generated_Source\PSoC5/RS485_Sensor_BOOT.c ****     {
 185:Generated_Source\PSoC5/RS485_Sensor_BOOT.c ****         /* If at least one byte is received within the timeout interval
 186:Generated_Source\PSoC5/RS485_Sensor_BOOT.c ****         *  enter the next loop waiting for more data reception
 187:Generated_Source\PSoC5/RS485_Sensor_BOOT.c ****         */
 188:Generated_Source\PSoC5/RS485_Sensor_BOOT.c ****         if(0u != RS485_Sensor_GetRxBufferSize())
 193              		.loc 1 188 0 is_stmt 1
 194 0016 FFF7FEFF 		bl	RS485_Sensor_GetRxBufferSize
 195              	.LVL14:
 196 001a 0135     		adds	r5, r5, #1
 197              	.LVL15:
 198 001c 58B1     		cbz	r0, .L11
 199              	.L24:
 189:Generated_Source\PSoC5/RS485_Sensor_BOOT.c ****         {
 190:Generated_Source\PSoC5/RS485_Sensor_BOOT.c ****             /* Wait for more data until 25ms byte to byte time out interval.
 191:Generated_Source\PSoC5/RS485_Sensor_BOOT.c ****             * If no data is received during the last 25 ms(BYTE2BYTE_TIME_OUT)
 192:Generated_Source\PSoC5/RS485_Sensor_BOOT.c ****             * then it is considered as end of transmitted data block(packet)
 193:Generated_Source\PSoC5/RS485_Sensor_BOOT.c ****             * from the host and the program execution will break from the
 194:Generated_Source\PSoC5/RS485_Sensor_BOOT.c ****             * data awaiting loop with status=CYRET_SUCCESS
 195:Generated_Source\PSoC5/RS485_Sensor_BOOT.c ****             */
 196:Generated_Source\PSoC5/RS485_Sensor_BOOT.c ****             do
 197:Generated_Source\PSoC5/RS485_Sensor_BOOT.c ****             {
 198:Generated_Source\PSoC5/RS485_Sensor_BOOT.c ****                 oldDataCount = RS485_Sensor_GetRxBufferSize();
ARM GAS  C:\Users\IroTeam\AppData\Local\Temp\ccpfnFDy.s 			page 8


 200              		.loc 1 198 0 discriminator 1
 201 001e FFF7FEFF 		bl	RS485_Sensor_GetRxBufferSize
 202              	.LVL16:
 203 0022 0446     		mov	r4, r0
 204              	.LVL17:
 199:Generated_Source\PSoC5/RS485_Sensor_BOOT.c ****                 CyDelay(RS485_Sensor_BYTE2BYTE_TIME_OUT);
 205              		.loc 1 199 0 discriminator 1
 206 0024 1920     		movs	r0, #25
 207 0026 FFF7FEFF 		bl	CyDelay
 208              	.LVL18:
 200:Generated_Source\PSoC5/RS485_Sensor_BOOT.c ****             }
 201:Generated_Source\PSoC5/RS485_Sensor_BOOT.c ****             while(RS485_Sensor_GetRxBufferSize() > oldDataCount);
 209              		.loc 1 201 0 discriminator 1
 210 002a FFF7FEFF 		bl	RS485_Sensor_GetRxBufferSize
 211              	.LVL19:
 212 002e 8442     		cmp	r4, r0
 213 0030 F5D3     		bcc	.L24
 202:Generated_Source\PSoC5/RS485_Sensor_BOOT.c **** 
 203:Generated_Source\PSoC5/RS485_Sensor_BOOT.c ****             status = CYRET_SUCCESS;
 214              		.loc 1 203 0
 215 0032 0027     		movs	r7, #0
 216 0034 04E0     		b	.L13
 217              	.LVL20:
 218              	.L11:
 204:Generated_Source\PSoC5/RS485_Sensor_BOOT.c ****             break;
 205:Generated_Source\PSoC5/RS485_Sensor_BOOT.c ****         }
 206:Generated_Source\PSoC5/RS485_Sensor_BOOT.c ****         /* If the data is not received, give a delay of 
 207:Generated_Source\PSoC5/RS485_Sensor_BOOT.c ****         *  RS485_Sensor_BL_CHK_DELAY_MS and check again until the timeOut specified.
 208:Generated_Source\PSoC5/RS485_Sensor_BOOT.c ****         */
 209:Generated_Source\PSoC5/RS485_Sensor_BOOT.c ****         else
 210:Generated_Source\PSoC5/RS485_Sensor_BOOT.c ****         {
 211:Generated_Source\PSoC5/RS485_Sensor_BOOT.c ****             CyDelay(RS485_Sensor_BL_CHK_DELAY_MS);
 219              		.loc 1 211 0 discriminator 2
 220 0036 0120     		movs	r0, #1
 221 0038 FFF7FEFF 		bl	CyDelay
 222              	.LVL21:
 223 003c E8E7     		b	.L10
 224              	.LVL22:
 225              	.L27:
 178:Generated_Source\PSoC5/RS485_Sensor_BOOT.c **** 
 226              		.loc 1 178 0
 227 003e 0527     		movs	r7, #5
 228              	.LVL23:
 229              	.L13:
 212:Generated_Source\PSoC5/RS485_Sensor_BOOT.c ****         }
 213:Generated_Source\PSoC5/RS485_Sensor_BOOT.c ****     }
 214:Generated_Source\PSoC5/RS485_Sensor_BOOT.c **** 
 215:Generated_Source\PSoC5/RS485_Sensor_BOOT.c ****     /* Initialize the data read indexes and Count value */
 216:Generated_Source\PSoC5/RS485_Sensor_BOOT.c ****     *count = 0u;
 230              		.loc 1 216 0
 231 0040 0024     		movs	r4, #0
 232 0042 3480     		strh	r4, [r6]	@ movhi
 233              	.LVL24:
 234              	.L15:
 217:Generated_Source\PSoC5/RS485_Sensor_BOOT.c ****     dataIndexCntr = 0u;
 218:Generated_Source\PSoC5/RS485_Sensor_BOOT.c **** 
 219:Generated_Source\PSoC5/RS485_Sensor_BOOT.c ****     /* If GetRxBufferSize()>0 , move the received data to the pData buffer */
ARM GAS  C:\Users\IroTeam\AppData\Local\Temp\ccpfnFDy.s 			page 9


 220:Generated_Source\PSoC5/RS485_Sensor_BOOT.c ****     while(RS485_Sensor_GetRxBufferSize() > 0u)
 235              		.loc 1 220 0
 236 0044 FFF7FEFF 		bl	RS485_Sensor_GetRxBufferSize
 237              	.LVL25:
 238 0048 30B3     		cbz	r0, .L20
 221:Generated_Source\PSoC5/RS485_Sensor_BOOT.c ****     {
 222:Generated_Source\PSoC5/RS485_Sensor_BOOT.c ****         tempCount = RS485_Sensor_GetRxBufferSize();
 239              		.loc 1 222 0
 240 004a FFF7FEFF 		bl	RS485_Sensor_GetRxBufferSize
 241              	.LVL26:
 223:Generated_Source\PSoC5/RS485_Sensor_BOOT.c ****         *count  =(*count) + tempCount;
 242              		.loc 1 223 0
 243 004e 3288     		ldrh	r2, [r6]
 222:Generated_Source\PSoC5/RS485_Sensor_BOOT.c ****         *count  =(*count) + tempCount;
 244              		.loc 1 222 0
 245 0050 0546     		mov	r5, r0
 246              	.LVL27:
 247              		.loc 1 223 0
 248 0052 8318     		adds	r3, r0, r2
 249 0054 9BB2     		uxth	r3, r3
 224:Generated_Source\PSoC5/RS485_Sensor_BOOT.c **** 
 225:Generated_Source\PSoC5/RS485_Sensor_BOOT.c ****         /* Check if buffer overflow will occur before moving the data */
 226:Generated_Source\PSoC5/RS485_Sensor_BOOT.c ****         if(*count < size)
 250              		.loc 1 226 0
 251 0056 4B45     		cmp	r3, r9
 223:Generated_Source\PSoC5/RS485_Sensor_BOOT.c **** 
 252              		.loc 1 223 0
 253 0058 3380     		strh	r3, [r6]	@ movhi
 254              		.loc 1 226 0
 255 005a 1CD2     		bcs	.L16
 256 005c 4FF0000B 		mov	fp, #0
 257              	.LVL28:
 258              	.L17:
 259 0060 1FFA8BF3 		uxth	r3, fp
 260 0064 04EB030A 		add	r10, r4, r3
 227:Generated_Source\PSoC5/RS485_Sensor_BOOT.c ****         {
 228:Generated_Source\PSoC5/RS485_Sensor_BOOT.c ****             for (iCntr = 0u; iCntr < tempCount; iCntr++)
 261              		.loc 1 228 0 discriminator 1
 262 0068 AB42     		cmp	r3, r5
 263 006a 1FFA8AFA 		uxth	r10, r10
 264              	.LVL29:
 265 006e 06D2     		bcs	.L28
 229:Generated_Source\PSoC5/RS485_Sensor_BOOT.c ****             {
 230:Generated_Source\PSoC5/RS485_Sensor_BOOT.c ****                 /* Read the data and move it to the pData buffer */
 231:Generated_Source\PSoC5/RS485_Sensor_BOOT.c ****                 pData[dataIndexCntr] = RS485_Sensor_ReadRxData();
 266              		.loc 1 231 0 discriminator 3
 267 0070 FFF7FEFF 		bl	RS485_Sensor_ReadRxData
 268              	.LVL30:
 269 0074 0BF1010B 		add	fp, fp, #1
 270              	.LVL31:
 271 0078 08F80A00 		strb	r0, [r8, r10]
 272              	.LVL32:
 273 007c F0E7     		b	.L17
 274              	.LVL33:
 275              	.L28:
 276 007e 2C44     		add	r4, r4, r5
 277 0080 A4B2     		uxth	r4, r4
ARM GAS  C:\Users\IroTeam\AppData\Local\Temp\ccpfnFDy.s 			page 10


 232:Generated_Source\PSoC5/RS485_Sensor_BOOT.c ****                 dataIndexCntr++;
 233:Generated_Source\PSoC5/RS485_Sensor_BOOT.c ****             }
 234:Generated_Source\PSoC5/RS485_Sensor_BOOT.c **** 
 235:Generated_Source\PSoC5/RS485_Sensor_BOOT.c ****             /* Check if the last received byte is end of packet defined by bootloader
 236:Generated_Source\PSoC5/RS485_Sensor_BOOT.c ****             *  If not wait for additional RS485_Sensor_WAIT_EOP_DELAY ms.
 237:Generated_Source\PSoC5/RS485_Sensor_BOOT.c ****             */
 238:Generated_Source\PSoC5/RS485_Sensor_BOOT.c ****             if(pData[dataIndexCntr - 1u] != RS485_Sensor_PACKET_EOP)
 278              		.loc 1 238 0
 279 0082 08EB0403 		add	r3, r8, r4
 280 0086 13F8013C 		ldrb	r3, [r3, #-1]	@ zero_extendqisi2
 281 008a 172B     		cmp	r3, #23
 282 008c DAD0     		beq	.L15
 239:Generated_Source\PSoC5/RS485_Sensor_BOOT.c ****             {
 240:Generated_Source\PSoC5/RS485_Sensor_BOOT.c ****                 CyDelay(RS485_Sensor_WAIT_EOP_DELAY);
 283              		.loc 1 240 0
 284 008e 0520     		movs	r0, #5
 285 0090 FFF7FEFF 		bl	CyDelay
 286              	.LVL34:
 287 0094 D6E7     		b	.L15
 288              	.LVL35:
 289              	.L16:
 241:Generated_Source\PSoC5/RS485_Sensor_BOOT.c ****             }
 242:Generated_Source\PSoC5/RS485_Sensor_BOOT.c ****         }
 243:Generated_Source\PSoC5/RS485_Sensor_BOOT.c ****         /* If there is no space to move data, break from the loop */
 244:Generated_Source\PSoC5/RS485_Sensor_BOOT.c ****         else
 245:Generated_Source\PSoC5/RS485_Sensor_BOOT.c ****         {
 246:Generated_Source\PSoC5/RS485_Sensor_BOOT.c ****             *count = (*count) - tempCount;
 290              		.loc 1 246 0
 291 0096 3280     		strh	r2, [r6]	@ movhi
 292              	.LVL36:
 293              	.L20:
 247:Generated_Source\PSoC5/RS485_Sensor_BOOT.c ****             break;
 248:Generated_Source\PSoC5/RS485_Sensor_BOOT.c ****         }
 249:Generated_Source\PSoC5/RS485_Sensor_BOOT.c ****     }
 250:Generated_Source\PSoC5/RS485_Sensor_BOOT.c **** 
 251:Generated_Source\PSoC5/RS485_Sensor_BOOT.c ****     return (status);
 252:Generated_Source\PSoC5/RS485_Sensor_BOOT.c **** }
 294              		.loc 1 252 0
 295 0098 3846     		mov	r0, r7
 296 009a BDE8F88F 		pop	{r3, r4, r5, r6, r7, r8, r9, r10, fp, pc}
 297              		.cfi_endproc
 298              	.LFE4:
 299              		.size	RS485_Sensor_CyBtldrCommRead, .-RS485_Sensor_CyBtldrCommRead
 300              		.text
 301              	.Letext0:
 302              		.file 2 "Generated_Source\\PSoC5\\cytypes.h"
 303              		.file 3 "Generated_Source\\PSoC5\\RS485_Sensor.h"
 304              		.file 4 "Generated_Source\\PSoC5\\CyLib.h"