ARM GAS  C:\Users\IroTeam\AppData\Local\Temp\ccGexqi8.s 			page 1


   1              		.syntax unified
   2              		.cpu cortex-m3
   3              		.fpu softvfp
   4              		.eabi_attribute 20, 1
   5              		.eabi_attribute 21, 1
   6              		.eabi_attribute 23, 3
   7              		.eabi_attribute 24, 1
   8              		.eabi_attribute 25, 1
   9              		.eabi_attribute 26, 1
  10              		.eabi_attribute 30, 4
  11              		.eabi_attribute 34, 1
  12              		.eabi_attribute 18, 4
  13              		.thumb
  14              		.syntax unified
  15              		.file	"RS485_Sensor.c"
  16              		.text
  17              	.Ltext0:
  18              		.cfi_sections	.debug_frame
  19              		.section	.text.RS485_Sensor_Init,"ax",%progbits
  20              		.align	1
  21              		.global	RS485_Sensor_Init
  22              		.thumb
  23              		.thumb_func
  24              		.type	RS485_Sensor_Init, %function
  25              	RS485_Sensor_Init:
  26              	.LFB1:
  27              		.file 1 "Generated_Source\\PSoC5\\RS485_Sensor.c"
   1:Generated_Source\PSoC5/RS485_Sensor.c **** /*******************************************************************************
   2:Generated_Source\PSoC5/RS485_Sensor.c **** * File Name: RS485_Sensor.c
   3:Generated_Source\PSoC5/RS485_Sensor.c **** * Version 2.50
   4:Generated_Source\PSoC5/RS485_Sensor.c **** *
   5:Generated_Source\PSoC5/RS485_Sensor.c **** * Description:
   6:Generated_Source\PSoC5/RS485_Sensor.c **** *  This file provides all API functionality of the UART component
   7:Generated_Source\PSoC5/RS485_Sensor.c **** *
   8:Generated_Source\PSoC5/RS485_Sensor.c **** * Note:
   9:Generated_Source\PSoC5/RS485_Sensor.c **** *
  10:Generated_Source\PSoC5/RS485_Sensor.c **** ********************************************************************************
  11:Generated_Source\PSoC5/RS485_Sensor.c **** * Copyright 2008-2015, Cypress Semiconductor Corporation.  All rights reserved.
  12:Generated_Source\PSoC5/RS485_Sensor.c **** * You may use this file only in accordance with the license, terms, conditions,
  13:Generated_Source\PSoC5/RS485_Sensor.c **** * disclaimers, and limitations in the end user license agreement accompanying
  14:Generated_Source\PSoC5/RS485_Sensor.c **** * the software package with which this file was provided.
  15:Generated_Source\PSoC5/RS485_Sensor.c **** *******************************************************************************/
  16:Generated_Source\PSoC5/RS485_Sensor.c **** 
  17:Generated_Source\PSoC5/RS485_Sensor.c **** #include "RS485_Sensor.h"
  18:Generated_Source\PSoC5/RS485_Sensor.c **** #if (RS485_Sensor_INTERNAL_CLOCK_USED)
  19:Generated_Source\PSoC5/RS485_Sensor.c ****     #include "RS485_Sensor_IntClock.h"
  20:Generated_Source\PSoC5/RS485_Sensor.c **** #endif /* End RS485_Sensor_INTERNAL_CLOCK_USED */
  21:Generated_Source\PSoC5/RS485_Sensor.c **** 
  22:Generated_Source\PSoC5/RS485_Sensor.c **** 
  23:Generated_Source\PSoC5/RS485_Sensor.c **** /***************************************
  24:Generated_Source\PSoC5/RS485_Sensor.c **** * Global data allocation
  25:Generated_Source\PSoC5/RS485_Sensor.c **** ***************************************/
  26:Generated_Source\PSoC5/RS485_Sensor.c **** 
  27:Generated_Source\PSoC5/RS485_Sensor.c **** uint8 RS485_Sensor_initVar = 0u;
  28:Generated_Source\PSoC5/RS485_Sensor.c **** 
  29:Generated_Source\PSoC5/RS485_Sensor.c **** #if (RS485_Sensor_TX_INTERRUPT_ENABLED && RS485_Sensor_TX_ENABLED)
  30:Generated_Source\PSoC5/RS485_Sensor.c ****     volatile uint8 RS485_Sensor_txBuffer[RS485_Sensor_TX_BUFFER_SIZE];
ARM GAS  C:\Users\IroTeam\AppData\Local\Temp\ccGexqi8.s 			page 2


  31:Generated_Source\PSoC5/RS485_Sensor.c ****     volatile uint16 RS485_Sensor_txBufferRead = 0u;
  32:Generated_Source\PSoC5/RS485_Sensor.c ****     uint16 RS485_Sensor_txBufferWrite = 0u;
  33:Generated_Source\PSoC5/RS485_Sensor.c **** #endif /* (RS485_Sensor_TX_INTERRUPT_ENABLED && RS485_Sensor_TX_ENABLED) */
  34:Generated_Source\PSoC5/RS485_Sensor.c **** 
  35:Generated_Source\PSoC5/RS485_Sensor.c **** #if (RS485_Sensor_RX_INTERRUPT_ENABLED && (RS485_Sensor_RX_ENABLED || RS485_Sensor_HD_ENABLED))
  36:Generated_Source\PSoC5/RS485_Sensor.c ****     uint8 RS485_Sensor_errorStatus = 0u;
  37:Generated_Source\PSoC5/RS485_Sensor.c ****     volatile uint8 RS485_Sensor_rxBuffer[RS485_Sensor_RX_BUFFER_SIZE];
  38:Generated_Source\PSoC5/RS485_Sensor.c ****     volatile uint16 RS485_Sensor_rxBufferRead  = 0u;
  39:Generated_Source\PSoC5/RS485_Sensor.c ****     volatile uint16 RS485_Sensor_rxBufferWrite = 0u;
  40:Generated_Source\PSoC5/RS485_Sensor.c ****     volatile uint8 RS485_Sensor_rxBufferLoopDetect = 0u;
  41:Generated_Source\PSoC5/RS485_Sensor.c ****     volatile uint8 RS485_Sensor_rxBufferOverflow   = 0u;
  42:Generated_Source\PSoC5/RS485_Sensor.c ****     #if (RS485_Sensor_RXHW_ADDRESS_ENABLED)
  43:Generated_Source\PSoC5/RS485_Sensor.c ****         volatile uint8 RS485_Sensor_rxAddressMode = RS485_Sensor_RX_ADDRESS_MODE;
  44:Generated_Source\PSoC5/RS485_Sensor.c ****         volatile uint8 RS485_Sensor_rxAddressDetected = 0u;
  45:Generated_Source\PSoC5/RS485_Sensor.c ****     #endif /* (RS485_Sensor_RXHW_ADDRESS_ENABLED) */
  46:Generated_Source\PSoC5/RS485_Sensor.c **** #endif /* (RS485_Sensor_RX_INTERRUPT_ENABLED && (RS485_Sensor_RX_ENABLED || RS485_Sensor_HD_ENABLED
  47:Generated_Source\PSoC5/RS485_Sensor.c **** 
  48:Generated_Source\PSoC5/RS485_Sensor.c **** 
  49:Generated_Source\PSoC5/RS485_Sensor.c **** /*******************************************************************************
  50:Generated_Source\PSoC5/RS485_Sensor.c **** * Function Name: RS485_Sensor_Start
  51:Generated_Source\PSoC5/RS485_Sensor.c **** ********************************************************************************
  52:Generated_Source\PSoC5/RS485_Sensor.c **** *
  53:Generated_Source\PSoC5/RS485_Sensor.c **** * Summary:
  54:Generated_Source\PSoC5/RS485_Sensor.c **** *  This is the preferred method to begin component operation.
  55:Generated_Source\PSoC5/RS485_Sensor.c **** *  RS485_Sensor_Start() sets the initVar variable, calls the
  56:Generated_Source\PSoC5/RS485_Sensor.c **** *  RS485_Sensor_Init() function, and then calls the
  57:Generated_Source\PSoC5/RS485_Sensor.c **** *  RS485_Sensor_Enable() function.
  58:Generated_Source\PSoC5/RS485_Sensor.c **** *
  59:Generated_Source\PSoC5/RS485_Sensor.c **** * Parameters:
  60:Generated_Source\PSoC5/RS485_Sensor.c **** *  None.
  61:Generated_Source\PSoC5/RS485_Sensor.c **** *
  62:Generated_Source\PSoC5/RS485_Sensor.c **** * Return:
  63:Generated_Source\PSoC5/RS485_Sensor.c **** *  None.
  64:Generated_Source\PSoC5/RS485_Sensor.c **** *
  65:Generated_Source\PSoC5/RS485_Sensor.c **** * Global variables:
  66:Generated_Source\PSoC5/RS485_Sensor.c **** *  The RS485_Sensor_intiVar variable is used to indicate initial
  67:Generated_Source\PSoC5/RS485_Sensor.c **** *  configuration of this component. The variable is initialized to zero (0u)
  68:Generated_Source\PSoC5/RS485_Sensor.c **** *  and set to one (1u) the first time RS485_Sensor_Start() is called. This
  69:Generated_Source\PSoC5/RS485_Sensor.c **** *  allows for component initialization without re-initialization in all
  70:Generated_Source\PSoC5/RS485_Sensor.c **** *  subsequent calls to the RS485_Sensor_Start() routine.
  71:Generated_Source\PSoC5/RS485_Sensor.c **** *
  72:Generated_Source\PSoC5/RS485_Sensor.c **** * Reentrant:
  73:Generated_Source\PSoC5/RS485_Sensor.c **** *  No.
  74:Generated_Source\PSoC5/RS485_Sensor.c **** *
  75:Generated_Source\PSoC5/RS485_Sensor.c **** *******************************************************************************/
  76:Generated_Source\PSoC5/RS485_Sensor.c **** void RS485_Sensor_Start(void) 
  77:Generated_Source\PSoC5/RS485_Sensor.c **** {
  78:Generated_Source\PSoC5/RS485_Sensor.c ****     /* If not initialized then initialize all required hardware and software */
  79:Generated_Source\PSoC5/RS485_Sensor.c ****     if(RS485_Sensor_initVar == 0u)
  80:Generated_Source\PSoC5/RS485_Sensor.c ****     {
  81:Generated_Source\PSoC5/RS485_Sensor.c ****         RS485_Sensor_Init();
  82:Generated_Source\PSoC5/RS485_Sensor.c ****         RS485_Sensor_initVar = 1u;
  83:Generated_Source\PSoC5/RS485_Sensor.c ****     }
  84:Generated_Source\PSoC5/RS485_Sensor.c **** 
  85:Generated_Source\PSoC5/RS485_Sensor.c ****     RS485_Sensor_Enable();
  86:Generated_Source\PSoC5/RS485_Sensor.c **** }
  87:Generated_Source\PSoC5/RS485_Sensor.c **** 
ARM GAS  C:\Users\IroTeam\AppData\Local\Temp\ccGexqi8.s 			page 3


  88:Generated_Source\PSoC5/RS485_Sensor.c **** 
  89:Generated_Source\PSoC5/RS485_Sensor.c **** /*******************************************************************************
  90:Generated_Source\PSoC5/RS485_Sensor.c **** * Function Name: RS485_Sensor_Init
  91:Generated_Source\PSoC5/RS485_Sensor.c **** ********************************************************************************
  92:Generated_Source\PSoC5/RS485_Sensor.c **** *
  93:Generated_Source\PSoC5/RS485_Sensor.c **** * Summary:
  94:Generated_Source\PSoC5/RS485_Sensor.c **** *  Initializes or restores the component according to the customizer Configure
  95:Generated_Source\PSoC5/RS485_Sensor.c **** *  dialog settings. It is not necessary to call RS485_Sensor_Init() because
  96:Generated_Source\PSoC5/RS485_Sensor.c **** *  the RS485_Sensor_Start() API calls this function and is the preferred
  97:Generated_Source\PSoC5/RS485_Sensor.c **** *  method to begin component operation.
  98:Generated_Source\PSoC5/RS485_Sensor.c **** *
  99:Generated_Source\PSoC5/RS485_Sensor.c **** * Parameters:
 100:Generated_Source\PSoC5/RS485_Sensor.c **** *  None.
 101:Generated_Source\PSoC5/RS485_Sensor.c **** *
 102:Generated_Source\PSoC5/RS485_Sensor.c **** * Return:
 103:Generated_Source\PSoC5/RS485_Sensor.c **** *  None.
 104:Generated_Source\PSoC5/RS485_Sensor.c **** *
 105:Generated_Source\PSoC5/RS485_Sensor.c **** *******************************************************************************/
 106:Generated_Source\PSoC5/RS485_Sensor.c **** void RS485_Sensor_Init(void) 
 107:Generated_Source\PSoC5/RS485_Sensor.c **** {
  28              		.loc 1 107 0
  29              		.cfi_startproc
  30              		@ args = 0, pretend = 0, frame = 0
  31              		@ frame_needed = 0, uses_anonymous_args = 0
  32 0000 08B5     		push	{r3, lr}
  33              		.cfi_def_cfa_offset 8
  34              		.cfi_offset 3, -8
  35              		.cfi_offset 14, -4
 108:Generated_Source\PSoC5/RS485_Sensor.c ****     #if(RS485_Sensor_RX_ENABLED || RS485_Sensor_HD_ENABLED)
 109:Generated_Source\PSoC5/RS485_Sensor.c **** 
 110:Generated_Source\PSoC5/RS485_Sensor.c ****         #if (RS485_Sensor_RX_INTERRUPT_ENABLED)
 111:Generated_Source\PSoC5/RS485_Sensor.c ****             /* Set RX interrupt vector and priority */
 112:Generated_Source\PSoC5/RS485_Sensor.c ****             (void) CyIntSetVector(RS485_Sensor_RX_VECT_NUM, &RS485_Sensor_RXISR);
  36              		.loc 1 112 0
  37 0002 1049     		ldr	r1, .L2
  38 0004 0220     		movs	r0, #2
  39 0006 FFF7FEFF 		bl	CyIntSetVector
  40              	.LVL0:
 113:Generated_Source\PSoC5/RS485_Sensor.c ****             CyIntSetPriority(RS485_Sensor_RX_VECT_NUM, RS485_Sensor_RX_PRIOR_NUM);
  41              		.loc 1 113 0
  42 000a 0721     		movs	r1, #7
  43 000c 0220     		movs	r0, #2
  44 000e FFF7FEFF 		bl	CyIntSetPriority
  45              	.LVL1:
 114:Generated_Source\PSoC5/RS485_Sensor.c ****             RS485_Sensor_errorStatus = 0u;
  46              		.loc 1 114 0
  47 0012 0D4B     		ldr	r3, .L2+4
  48 0014 0022     		movs	r2, #0
  49 0016 1A70     		strb	r2, [r3]
 115:Generated_Source\PSoC5/RS485_Sensor.c ****         #endif /* (RS485_Sensor_RX_INTERRUPT_ENABLED) */
 116:Generated_Source\PSoC5/RS485_Sensor.c **** 
 117:Generated_Source\PSoC5/RS485_Sensor.c ****         #if (RS485_Sensor_RXHW_ADDRESS_ENABLED)
 118:Generated_Source\PSoC5/RS485_Sensor.c ****             RS485_Sensor_SetRxAddressMode(RS485_Sensor_RX_ADDRESS_MODE);
 119:Generated_Source\PSoC5/RS485_Sensor.c ****             RS485_Sensor_SetRxAddress1(RS485_Sensor_RX_HW_ADDRESS1);
 120:Generated_Source\PSoC5/RS485_Sensor.c ****             RS485_Sensor_SetRxAddress2(RS485_Sensor_RX_HW_ADDRESS2);
 121:Generated_Source\PSoC5/RS485_Sensor.c ****         #endif /* End RS485_Sensor_RXHW_ADDRESS_ENABLED */
 122:Generated_Source\PSoC5/RS485_Sensor.c **** 
ARM GAS  C:\Users\IroTeam\AppData\Local\Temp\ccGexqi8.s 			page 4


 123:Generated_Source\PSoC5/RS485_Sensor.c ****         /* Init Count7 period */
 124:Generated_Source\PSoC5/RS485_Sensor.c ****         RS485_Sensor_RXBITCTR_PERIOD_REG = RS485_Sensor_RXBITCTR_INIT;
  50              		.loc 1 124 0
  51 0018 0C4B     		ldr	r3, .L2+8
  52 001a 7222     		movs	r2, #114
  53 001c 1A70     		strb	r2, [r3]
 125:Generated_Source\PSoC5/RS485_Sensor.c ****         /* Configure the Initial RX interrupt mask */
 126:Generated_Source\PSoC5/RS485_Sensor.c ****         RS485_Sensor_RXSTATUS_MASK_REG  = RS485_Sensor_INIT_RX_INTERRUPTS_MASK;
  54              		.loc 1 126 0
  55 001e 2022     		movs	r2, #32
  56 0020 5A70     		strb	r2, [r3, #1]
 127:Generated_Source\PSoC5/RS485_Sensor.c ****     #endif /* End RS485_Sensor_RX_ENABLED || RS485_Sensor_HD_ENABLED*/
 128:Generated_Source\PSoC5/RS485_Sensor.c **** 
 129:Generated_Source\PSoC5/RS485_Sensor.c ****     #if(RS485_Sensor_TX_ENABLED)
 130:Generated_Source\PSoC5/RS485_Sensor.c ****         #if (RS485_Sensor_TX_INTERRUPT_ENABLED)
 131:Generated_Source\PSoC5/RS485_Sensor.c ****             /* Set TX interrupt vector and priority */
 132:Generated_Source\PSoC5/RS485_Sensor.c ****             (void) CyIntSetVector(RS485_Sensor_TX_VECT_NUM, &RS485_Sensor_TXISR);
  57              		.loc 1 132 0
  58 0022 0B49     		ldr	r1, .L2+12
  59 0024 0320     		movs	r0, #3
  60 0026 FFF7FEFF 		bl	CyIntSetVector
  61              	.LVL2:
 133:Generated_Source\PSoC5/RS485_Sensor.c ****             CyIntSetPriority(RS485_Sensor_TX_VECT_NUM, RS485_Sensor_TX_PRIOR_NUM);
  62              		.loc 1 133 0
  63 002a 0721     		movs	r1, #7
  64 002c 0320     		movs	r0, #3
  65 002e FFF7FEFF 		bl	CyIntSetPriority
  66              	.LVL3:
 134:Generated_Source\PSoC5/RS485_Sensor.c ****         #endif /* (RS485_Sensor_TX_INTERRUPT_ENABLED) */
 135:Generated_Source\PSoC5/RS485_Sensor.c **** 
 136:Generated_Source\PSoC5/RS485_Sensor.c ****         /* Write Counter Value for TX Bit Clk Generator*/
 137:Generated_Source\PSoC5/RS485_Sensor.c ****         #if (RS485_Sensor_TXCLKGEN_DP)
 138:Generated_Source\PSoC5/RS485_Sensor.c ****             RS485_Sensor_TXBITCLKGEN_CTR_REG = RS485_Sensor_BIT_CENTER;
  67              		.loc 1 138 0
  68 0032 084B     		ldr	r3, .L2+16
  69 0034 0622     		movs	r2, #6
  70 0036 1A70     		strb	r2, [r3]
 139:Generated_Source\PSoC5/RS485_Sensor.c ****             RS485_Sensor_TXBITCLKTX_COMPLETE_REG = ((RS485_Sensor_NUMBER_OF_DATA_BITS +
  71              		.loc 1 139 0
  72 0038 4722     		movs	r2, #71
  73 003a 1A74     		strb	r2, [r3, #16]
 140:Generated_Source\PSoC5/RS485_Sensor.c ****                         RS485_Sensor_NUMBER_OF_START_BIT) * RS485_Sensor_OVER_SAMPLE_COUNT) - 1u;
 141:Generated_Source\PSoC5/RS485_Sensor.c ****         #else
 142:Generated_Source\PSoC5/RS485_Sensor.c ****             RS485_Sensor_TXBITCTR_PERIOD_REG = ((RS485_Sensor_NUMBER_OF_DATA_BITS +
 143:Generated_Source\PSoC5/RS485_Sensor.c ****                         RS485_Sensor_NUMBER_OF_START_BIT) * RS485_Sensor_OVER_SAMPLE_8) - 1u;
 144:Generated_Source\PSoC5/RS485_Sensor.c ****         #endif /* End RS485_Sensor_TXCLKGEN_DP */
 145:Generated_Source\PSoC5/RS485_Sensor.c **** 
 146:Generated_Source\PSoC5/RS485_Sensor.c ****         /* Configure the Initial TX interrupt mask */
 147:Generated_Source\PSoC5/RS485_Sensor.c ****         #if (RS485_Sensor_TX_INTERRUPT_ENABLED)
 148:Generated_Source\PSoC5/RS485_Sensor.c ****             RS485_Sensor_TXSTATUS_MASK_REG = RS485_Sensor_TX_STS_FIFO_EMPTY;
  74              		.loc 1 148 0
  75 003c 0222     		movs	r2, #2
  76 003e 83F85E20 		strb	r2, [r3, #94]
  77 0042 08BD     		pop	{r3, pc}
  78              	.L3:
  79              		.align	2
  80              	.L2:
ARM GAS  C:\Users\IroTeam\AppData\Local\Temp\ccGexqi8.s 			page 5


  81 0044 00000000 		.word	RS485_Sensor_RXISR
  82 0048 00000000 		.word	.LANCHOR0
  83 004c 8B640040 		.word	1073767563
  84 0050 00000000 		.word	RS485_Sensor_TXISR
  85 0054 2B640040 		.word	1073767467
  86              		.cfi_endproc
  87              	.LFE1:
  88              		.size	RS485_Sensor_Init, .-RS485_Sensor_Init
  89              		.section	.text.RS485_Sensor_Enable,"ax",%progbits
  90              		.align	1
  91              		.global	RS485_Sensor_Enable
  92              		.thumb
  93              		.thumb_func
  94              		.type	RS485_Sensor_Enable, %function
  95              	RS485_Sensor_Enable:
  96              	.LFB2:
 149:Generated_Source\PSoC5/RS485_Sensor.c ****         #else
 150:Generated_Source\PSoC5/RS485_Sensor.c ****             RS485_Sensor_TXSTATUS_MASK_REG = RS485_Sensor_INIT_TX_INTERRUPTS_MASK;
 151:Generated_Source\PSoC5/RS485_Sensor.c ****         #endif /*End RS485_Sensor_TX_INTERRUPT_ENABLED*/
 152:Generated_Source\PSoC5/RS485_Sensor.c **** 
 153:Generated_Source\PSoC5/RS485_Sensor.c ****     #endif /* End RS485_Sensor_TX_ENABLED */
 154:Generated_Source\PSoC5/RS485_Sensor.c **** 
 155:Generated_Source\PSoC5/RS485_Sensor.c ****     #if(RS485_Sensor_PARITY_TYPE_SW)  /* Write Parity to Control Register */
 156:Generated_Source\PSoC5/RS485_Sensor.c ****         RS485_Sensor_WriteControlRegister( \
 157:Generated_Source\PSoC5/RS485_Sensor.c ****             (RS485_Sensor_ReadControlRegister() & (uint8)~RS485_Sensor_CTRL_PARITY_TYPE_MASK) | \
 158:Generated_Source\PSoC5/RS485_Sensor.c ****             (uint8)(RS485_Sensor_PARITY_TYPE << RS485_Sensor_CTRL_PARITY_TYPE0_SHIFT) );
 159:Generated_Source\PSoC5/RS485_Sensor.c ****     #endif /* End RS485_Sensor_PARITY_TYPE_SW */
 160:Generated_Source\PSoC5/RS485_Sensor.c **** }
 161:Generated_Source\PSoC5/RS485_Sensor.c **** 
 162:Generated_Source\PSoC5/RS485_Sensor.c **** 
 163:Generated_Source\PSoC5/RS485_Sensor.c **** /*******************************************************************************
 164:Generated_Source\PSoC5/RS485_Sensor.c **** * Function Name: RS485_Sensor_Enable
 165:Generated_Source\PSoC5/RS485_Sensor.c **** ********************************************************************************
 166:Generated_Source\PSoC5/RS485_Sensor.c **** *
 167:Generated_Source\PSoC5/RS485_Sensor.c **** * Summary:
 168:Generated_Source\PSoC5/RS485_Sensor.c **** *  Activates the hardware and begins component operation. It is not necessary
 169:Generated_Source\PSoC5/RS485_Sensor.c **** *  to call RS485_Sensor_Enable() because the RS485_Sensor_Start() API
 170:Generated_Source\PSoC5/RS485_Sensor.c **** *  calls this function, which is the preferred method to begin component
 171:Generated_Source\PSoC5/RS485_Sensor.c **** *  operation.
 172:Generated_Source\PSoC5/RS485_Sensor.c **** 
 173:Generated_Source\PSoC5/RS485_Sensor.c **** * Parameters:
 174:Generated_Source\PSoC5/RS485_Sensor.c **** *  None.
 175:Generated_Source\PSoC5/RS485_Sensor.c **** *
 176:Generated_Source\PSoC5/RS485_Sensor.c **** * Return:
 177:Generated_Source\PSoC5/RS485_Sensor.c **** *  None.
 178:Generated_Source\PSoC5/RS485_Sensor.c **** *
 179:Generated_Source\PSoC5/RS485_Sensor.c **** * Global Variables:
 180:Generated_Source\PSoC5/RS485_Sensor.c **** *  RS485_Sensor_rxAddressDetected - set to initial state (0).
 181:Generated_Source\PSoC5/RS485_Sensor.c **** *
 182:Generated_Source\PSoC5/RS485_Sensor.c **** *******************************************************************************/
 183:Generated_Source\PSoC5/RS485_Sensor.c **** void RS485_Sensor_Enable(void) 
 184:Generated_Source\PSoC5/RS485_Sensor.c **** {
  97              		.loc 1 184 0
  98              		.cfi_startproc
  99              		@ args = 0, pretend = 0, frame = 0
 100              		@ frame_needed = 0, uses_anonymous_args = 0
 101 0000 10B5     		push	{r4, lr}
ARM GAS  C:\Users\IroTeam\AppData\Local\Temp\ccGexqi8.s 			page 6


 102              		.cfi_def_cfa_offset 8
 103              		.cfi_offset 4, -8
 104              		.cfi_offset 14, -4
 185:Generated_Source\PSoC5/RS485_Sensor.c ****     uint8 enableInterrupts;
 186:Generated_Source\PSoC5/RS485_Sensor.c ****     enableInterrupts = CyEnterCriticalSection();
 105              		.loc 1 186 0
 106 0002 FFF7FEFF 		bl	CyEnterCriticalSection
 107              	.LVL4:
 108 0006 0446     		mov	r4, r0
 109              	.LVL5:
 187:Generated_Source\PSoC5/RS485_Sensor.c **** 
 188:Generated_Source\PSoC5/RS485_Sensor.c ****     #if (RS485_Sensor_RX_ENABLED || RS485_Sensor_HD_ENABLED)
 189:Generated_Source\PSoC5/RS485_Sensor.c ****         /* RX Counter (Count7) Enable */
 190:Generated_Source\PSoC5/RS485_Sensor.c ****         RS485_Sensor_RXBITCTR_CONTROL_REG |= RS485_Sensor_CNTR_ENABLE;
 110              		.loc 1 190 0
 111 0008 0D4A     		ldr	r2, .L5
 191:Generated_Source\PSoC5/RS485_Sensor.c **** 
 192:Generated_Source\PSoC5/RS485_Sensor.c ****         /* Enable the RX Interrupt */
 193:Generated_Source\PSoC5/RS485_Sensor.c ****         RS485_Sensor_RXSTATUS_ACTL_REG  |= RS485_Sensor_INT_ENABLE;
 194:Generated_Source\PSoC5/RS485_Sensor.c **** 
 195:Generated_Source\PSoC5/RS485_Sensor.c ****         #if (RS485_Sensor_RX_INTERRUPT_ENABLED)
 196:Generated_Source\PSoC5/RS485_Sensor.c ****             RS485_Sensor_EnableRxInt();
 197:Generated_Source\PSoC5/RS485_Sensor.c **** 
 198:Generated_Source\PSoC5/RS485_Sensor.c ****             #if (RS485_Sensor_RXHW_ADDRESS_ENABLED)
 199:Generated_Source\PSoC5/RS485_Sensor.c ****                 RS485_Sensor_rxAddressDetected = 0u;
 200:Generated_Source\PSoC5/RS485_Sensor.c ****             #endif /* (RS485_Sensor_RXHW_ADDRESS_ENABLED) */
 201:Generated_Source\PSoC5/RS485_Sensor.c ****         #endif /* (RS485_Sensor_RX_INTERRUPT_ENABLED) */
 202:Generated_Source\PSoC5/RS485_Sensor.c ****     #endif /* (RS485_Sensor_RX_ENABLED || RS485_Sensor_HD_ENABLED) */
 203:Generated_Source\PSoC5/RS485_Sensor.c **** 
 204:Generated_Source\PSoC5/RS485_Sensor.c ****     #if(RS485_Sensor_TX_ENABLED)
 205:Generated_Source\PSoC5/RS485_Sensor.c ****         /* TX Counter (DP/Count7) Enable */
 206:Generated_Source\PSoC5/RS485_Sensor.c ****         #if(!RS485_Sensor_TXCLKGEN_DP)
 207:Generated_Source\PSoC5/RS485_Sensor.c ****             RS485_Sensor_TXBITCTR_CONTROL_REG |= RS485_Sensor_CNTR_ENABLE;
 208:Generated_Source\PSoC5/RS485_Sensor.c ****         #endif /* End RS485_Sensor_TXCLKGEN_DP */
 209:Generated_Source\PSoC5/RS485_Sensor.c **** 
 210:Generated_Source\PSoC5/RS485_Sensor.c ****         /* Enable the TX Interrupt */
 211:Generated_Source\PSoC5/RS485_Sensor.c ****         RS485_Sensor_TXSTATUS_ACTL_REG |= RS485_Sensor_INT_ENABLE;
 112              		.loc 1 211 0
 113 000a 0E49     		ldr	r1, .L5+4
 190:Generated_Source\PSoC5/RS485_Sensor.c **** 
 114              		.loc 1 190 0
 115 000c 1378     		ldrb	r3, [r2]	@ zero_extendqisi2
 116 000e 43F02003 		orr	r3, r3, #32
 117 0012 1370     		strb	r3, [r2]
 193:Generated_Source\PSoC5/RS485_Sensor.c **** 
 118              		.loc 1 193 0
 119 0014 5378     		ldrb	r3, [r2, #1]	@ zero_extendqisi2
 120 0016 43F01003 		orr	r3, r3, #16
 121 001a 5370     		strb	r3, [r2, #1]
 196:Generated_Source\PSoC5/RS485_Sensor.c **** 
 122              		.loc 1 196 0
 123 001c 0A4A     		ldr	r2, .L5+8
 124 001e 0423     		movs	r3, #4
 125 0020 1360     		str	r3, [r2]
 126              		.loc 1 211 0
 127 0022 0B78     		ldrb	r3, [r1]	@ zero_extendqisi2
 128 0024 43F01003 		orr	r3, r3, #16
ARM GAS  C:\Users\IroTeam\AppData\Local\Temp\ccGexqi8.s 			page 7


 129 0028 0B70     		strb	r3, [r1]
 212:Generated_Source\PSoC5/RS485_Sensor.c ****         #if (RS485_Sensor_TX_INTERRUPT_ENABLED)
 213:Generated_Source\PSoC5/RS485_Sensor.c ****             RS485_Sensor_ClearPendingTxInt(); /* Clear history of TX_NOT_EMPTY */
 130              		.loc 1 213 0
 131 002a 0849     		ldr	r1, .L5+12
 132 002c 0823     		movs	r3, #8
 133 002e 0B60     		str	r3, [r1]
 214:Generated_Source\PSoC5/RS485_Sensor.c ****             RS485_Sensor_EnableTxInt();
 134              		.loc 1 214 0
 135 0030 1360     		str	r3, [r2]
 215:Generated_Source\PSoC5/RS485_Sensor.c ****         #endif /* (RS485_Sensor_TX_INTERRUPT_ENABLED) */
 216:Generated_Source\PSoC5/RS485_Sensor.c ****      #endif /* (RS485_Sensor_TX_INTERRUPT_ENABLED) */
 217:Generated_Source\PSoC5/RS485_Sensor.c **** 
 218:Generated_Source\PSoC5/RS485_Sensor.c ****     #if (RS485_Sensor_INTERNAL_CLOCK_USED)
 219:Generated_Source\PSoC5/RS485_Sensor.c ****         RS485_Sensor_IntClock_Start();  /* Enable the clock */
 136              		.loc 1 219 0
 137 0032 FFF7FEFF 		bl	RS485_Sensor_IntClock_Start
 138              	.LVL6:
 220:Generated_Source\PSoC5/RS485_Sensor.c ****     #endif /* (RS485_Sensor_INTERNAL_CLOCK_USED) */
 221:Generated_Source\PSoC5/RS485_Sensor.c **** 
 222:Generated_Source\PSoC5/RS485_Sensor.c ****     CyExitCriticalSection(enableInterrupts);
 139              		.loc 1 222 0
 140 0036 2046     		mov	r0, r4
 223:Generated_Source\PSoC5/RS485_Sensor.c **** }
 141              		.loc 1 223 0
 142 0038 BDE81040 		pop	{r4, lr}
 143              		.cfi_restore 14
 144              		.cfi_restore 4
 145              		.cfi_def_cfa_offset 0
 146              	.LVL7:
 222:Generated_Source\PSoC5/RS485_Sensor.c **** }
 147              		.loc 1 222 0
 148 003c FFF7FEBF 		b	CyExitCriticalSection
 149              	.LVL8:
 150              	.L6:
 151              		.align	2
 152              	.L5:
 153 0040 9B640040 		.word	1073767579
 154 0044 99640040 		.word	1073767577
 155 0048 00E100E0 		.word	-536813312
 156 004c 80E200E0 		.word	-536812928
 157              		.cfi_endproc
 158              	.LFE2:
 159              		.size	RS485_Sensor_Enable, .-RS485_Sensor_Enable
 160              		.section	.text.RS485_Sensor_Start,"ax",%progbits
 161              		.align	1
 162              		.global	RS485_Sensor_Start
 163              		.thumb
 164              		.thumb_func
 165              		.type	RS485_Sensor_Start, %function
 166              	RS485_Sensor_Start:
 167              	.LFB0:
  77:Generated_Source\PSoC5/RS485_Sensor.c ****     /* If not initialized then initialize all required hardware and software */
 168              		.loc 1 77 0
 169              		.cfi_startproc
 170              		@ args = 0, pretend = 0, frame = 0
 171              		@ frame_needed = 0, uses_anonymous_args = 0
ARM GAS  C:\Users\IroTeam\AppData\Local\Temp\ccGexqi8.s 			page 8


 172 0000 10B5     		push	{r4, lr}
 173              		.cfi_def_cfa_offset 8
 174              		.cfi_offset 4, -8
 175              		.cfi_offset 14, -4
  79:Generated_Source\PSoC5/RS485_Sensor.c ****     {
 176              		.loc 1 79 0
 177 0002 054C     		ldr	r4, .L10
 178 0004 6378     		ldrb	r3, [r4, #1]	@ zero_extendqisi2
 179 0006 1BB9     		cbnz	r3, .L8
  81:Generated_Source\PSoC5/RS485_Sensor.c ****         RS485_Sensor_initVar = 1u;
 180              		.loc 1 81 0
 181 0008 FFF7FEFF 		bl	RS485_Sensor_Init
 182              	.LVL9:
  82:Generated_Source\PSoC5/RS485_Sensor.c ****     }
 183              		.loc 1 82 0
 184 000c 0123     		movs	r3, #1
 185 000e 6370     		strb	r3, [r4, #1]
 186              	.L8:
  86:Generated_Source\PSoC5/RS485_Sensor.c **** 
 187              		.loc 1 86 0
 188 0010 BDE81040 		pop	{r4, lr}
 189              		.cfi_restore 14
 190              		.cfi_restore 4
 191              		.cfi_def_cfa_offset 0
  85:Generated_Source\PSoC5/RS485_Sensor.c **** }
 192              		.loc 1 85 0
 193 0014 FFF7FEBF 		b	RS485_Sensor_Enable
 194              	.LVL10:
 195              	.L11:
 196              		.align	2
 197              	.L10:
 198 0018 00000000 		.word	.LANCHOR0
 199              		.cfi_endproc
 200              	.LFE0:
 201              		.size	RS485_Sensor_Start, .-RS485_Sensor_Start
 202              		.section	.text.RS485_Sensor_Stop,"ax",%progbits
 203              		.align	1
 204              		.global	RS485_Sensor_Stop
 205              		.thumb
 206              		.thumb_func
 207              		.type	RS485_Sensor_Stop, %function
 208              	RS485_Sensor_Stop:
 209              	.LFB3:
 224:Generated_Source\PSoC5/RS485_Sensor.c **** 
 225:Generated_Source\PSoC5/RS485_Sensor.c **** 
 226:Generated_Source\PSoC5/RS485_Sensor.c **** /*******************************************************************************
 227:Generated_Source\PSoC5/RS485_Sensor.c **** * Function Name: RS485_Sensor_Stop
 228:Generated_Source\PSoC5/RS485_Sensor.c **** ********************************************************************************
 229:Generated_Source\PSoC5/RS485_Sensor.c **** *
 230:Generated_Source\PSoC5/RS485_Sensor.c **** * Summary:
 231:Generated_Source\PSoC5/RS485_Sensor.c **** *  Disables the UART operation.
 232:Generated_Source\PSoC5/RS485_Sensor.c **** *
 233:Generated_Source\PSoC5/RS485_Sensor.c **** * Parameters:
 234:Generated_Source\PSoC5/RS485_Sensor.c **** *  None.
 235:Generated_Source\PSoC5/RS485_Sensor.c **** *
 236:Generated_Source\PSoC5/RS485_Sensor.c **** * Return:
 237:Generated_Source\PSoC5/RS485_Sensor.c **** *  None.
ARM GAS  C:\Users\IroTeam\AppData\Local\Temp\ccGexqi8.s 			page 9


 238:Generated_Source\PSoC5/RS485_Sensor.c **** *
 239:Generated_Source\PSoC5/RS485_Sensor.c **** *******************************************************************************/
 240:Generated_Source\PSoC5/RS485_Sensor.c **** void RS485_Sensor_Stop(void) 
 241:Generated_Source\PSoC5/RS485_Sensor.c **** {
 210              		.loc 1 241 0
 211              		.cfi_startproc
 212              		@ args = 0, pretend = 0, frame = 0
 213              		@ frame_needed = 0, uses_anonymous_args = 0
 214 0000 10B5     		push	{r4, lr}
 215              		.cfi_def_cfa_offset 8
 216              		.cfi_offset 4, -8
 217              		.cfi_offset 14, -4
 242:Generated_Source\PSoC5/RS485_Sensor.c ****     uint8 enableInterrupts;
 243:Generated_Source\PSoC5/RS485_Sensor.c ****     enableInterrupts = CyEnterCriticalSection();
 218              		.loc 1 243 0
 219 0002 FFF7FEFF 		bl	CyEnterCriticalSection
 220              	.LVL11:
 221 0006 0446     		mov	r4, r0
 222              	.LVL12:
 244:Generated_Source\PSoC5/RS485_Sensor.c **** 
 245:Generated_Source\PSoC5/RS485_Sensor.c ****     /* Write Bit Counter Disable */
 246:Generated_Source\PSoC5/RS485_Sensor.c ****     #if (RS485_Sensor_RX_ENABLED || RS485_Sensor_HD_ENABLED)
 247:Generated_Source\PSoC5/RS485_Sensor.c ****         RS485_Sensor_RXBITCTR_CONTROL_REG &= (uint8) ~RS485_Sensor_CNTR_ENABLE;
 223              		.loc 1 247 0
 224 0008 0D4A     		ldr	r2, .L13
 225 000a 1378     		ldrb	r3, [r2]	@ zero_extendqisi2
 226 000c 03F0DF03 		and	r3, r3, #223
 227 0010 1370     		strb	r3, [r2]
 248:Generated_Source\PSoC5/RS485_Sensor.c ****     #endif /* (RS485_Sensor_RX_ENABLED || RS485_Sensor_HD_ENABLED) */
 249:Generated_Source\PSoC5/RS485_Sensor.c **** 
 250:Generated_Source\PSoC5/RS485_Sensor.c ****     #if (RS485_Sensor_TX_ENABLED)
 251:Generated_Source\PSoC5/RS485_Sensor.c ****         #if(!RS485_Sensor_TXCLKGEN_DP)
 252:Generated_Source\PSoC5/RS485_Sensor.c ****             RS485_Sensor_TXBITCTR_CONTROL_REG &= (uint8) ~RS485_Sensor_CNTR_ENABLE;
 253:Generated_Source\PSoC5/RS485_Sensor.c ****         #endif /* (!RS485_Sensor_TXCLKGEN_DP) */
 254:Generated_Source\PSoC5/RS485_Sensor.c ****     #endif /* (RS485_Sensor_TX_ENABLED) */
 255:Generated_Source\PSoC5/RS485_Sensor.c **** 
 256:Generated_Source\PSoC5/RS485_Sensor.c ****     #if (RS485_Sensor_INTERNAL_CLOCK_USED)
 257:Generated_Source\PSoC5/RS485_Sensor.c ****         RS485_Sensor_IntClock_Stop();   /* Disable the clock */
 228              		.loc 1 257 0
 229 0012 FFF7FEFF 		bl	RS485_Sensor_IntClock_Stop
 230              	.LVL13:
 258:Generated_Source\PSoC5/RS485_Sensor.c ****     #endif /* (RS485_Sensor_INTERNAL_CLOCK_USED) */
 259:Generated_Source\PSoC5/RS485_Sensor.c **** 
 260:Generated_Source\PSoC5/RS485_Sensor.c ****     /* Disable internal interrupt component */
 261:Generated_Source\PSoC5/RS485_Sensor.c ****     #if (RS485_Sensor_RX_ENABLED || RS485_Sensor_HD_ENABLED)
 262:Generated_Source\PSoC5/RS485_Sensor.c ****         RS485_Sensor_RXSTATUS_ACTL_REG  &= (uint8) ~RS485_Sensor_INT_ENABLE;
 231              		.loc 1 262 0
 232 0016 0B4A     		ldr	r2, .L13+4
 263:Generated_Source\PSoC5/RS485_Sensor.c **** 
 264:Generated_Source\PSoC5/RS485_Sensor.c ****         #if (RS485_Sensor_RX_INTERRUPT_ENABLED)
 265:Generated_Source\PSoC5/RS485_Sensor.c ****             RS485_Sensor_DisableRxInt();
 266:Generated_Source\PSoC5/RS485_Sensor.c ****         #endif /* (RS485_Sensor_RX_INTERRUPT_ENABLED) */
 267:Generated_Source\PSoC5/RS485_Sensor.c ****     #endif /* (RS485_Sensor_RX_ENABLED || RS485_Sensor_HD_ENABLED) */
 268:Generated_Source\PSoC5/RS485_Sensor.c **** 
 269:Generated_Source\PSoC5/RS485_Sensor.c ****     #if (RS485_Sensor_TX_ENABLED)
 270:Generated_Source\PSoC5/RS485_Sensor.c ****         RS485_Sensor_TXSTATUS_ACTL_REG &= (uint8) ~RS485_Sensor_INT_ENABLE;
 233              		.loc 1 270 0
ARM GAS  C:\Users\IroTeam\AppData\Local\Temp\ccGexqi8.s 			page 10


 234 0018 0B49     		ldr	r1, .L13+8
 262:Generated_Source\PSoC5/RS485_Sensor.c **** 
 235              		.loc 1 262 0
 236 001a 1378     		ldrb	r3, [r2]	@ zero_extendqisi2
 271:Generated_Source\PSoC5/RS485_Sensor.c **** 
 272:Generated_Source\PSoC5/RS485_Sensor.c ****         #if (RS485_Sensor_TX_INTERRUPT_ENABLED)
 273:Generated_Source\PSoC5/RS485_Sensor.c ****             RS485_Sensor_DisableTxInt();
 274:Generated_Source\PSoC5/RS485_Sensor.c ****         #endif /* (RS485_Sensor_TX_INTERRUPT_ENABLED) */
 275:Generated_Source\PSoC5/RS485_Sensor.c ****     #endif /* (RS485_Sensor_TX_ENABLED) */
 276:Generated_Source\PSoC5/RS485_Sensor.c **** 
 277:Generated_Source\PSoC5/RS485_Sensor.c ****     CyExitCriticalSection(enableInterrupts);
 237              		.loc 1 277 0
 238 001c 2046     		mov	r0, r4
 262:Generated_Source\PSoC5/RS485_Sensor.c **** 
 239              		.loc 1 262 0
 240 001e 03F0EF03 		and	r3, r3, #239
 241 0022 1370     		strb	r3, [r2]
 265:Generated_Source\PSoC5/RS485_Sensor.c ****         #endif /* (RS485_Sensor_RX_INTERRUPT_ENABLED) */
 242              		.loc 1 265 0
 243 0024 094A     		ldr	r2, .L13+12
 244 0026 0423     		movs	r3, #4
 245 0028 1360     		str	r3, [r2]
 270:Generated_Source\PSoC5/RS485_Sensor.c **** 
 246              		.loc 1 270 0
 247 002a 0B78     		ldrb	r3, [r1]	@ zero_extendqisi2
 248 002c 03F0EF03 		and	r3, r3, #239
 249 0030 0B70     		strb	r3, [r1]
 273:Generated_Source\PSoC5/RS485_Sensor.c ****         #endif /* (RS485_Sensor_TX_INTERRUPT_ENABLED) */
 250              		.loc 1 273 0
 251 0032 0823     		movs	r3, #8
 252 0034 1360     		str	r3, [r2]
 278:Generated_Source\PSoC5/RS485_Sensor.c **** }
 253              		.loc 1 278 0
 254 0036 BDE81040 		pop	{r4, lr}
 255              		.cfi_restore 14
 256              		.cfi_restore 4
 257              		.cfi_def_cfa_offset 0
 258              	.LVL14:
 277:Generated_Source\PSoC5/RS485_Sensor.c **** }
 259              		.loc 1 277 0
 260 003a FFF7FEBF 		b	CyExitCriticalSection
 261              	.LVL15:
 262              	.L14:
 263 003e 00BF     		.align	2
 264              	.L13:
 265 0040 9B640040 		.word	1073767579
 266 0044 9C640040 		.word	1073767580
 267 0048 99640040 		.word	1073767577
 268 004c 80E100E0 		.word	-536813184
 269              		.cfi_endproc
 270              	.LFE3:
 271              		.size	RS485_Sensor_Stop, .-RS485_Sensor_Stop
 272              		.section	.text.RS485_Sensor_ReadControlRegister,"ax",%progbits
 273              		.align	1
 274              		.global	RS485_Sensor_ReadControlRegister
 275              		.thumb
 276              		.thumb_func
ARM GAS  C:\Users\IroTeam\AppData\Local\Temp\ccGexqi8.s 			page 11


 277              		.type	RS485_Sensor_ReadControlRegister, %function
 278              	RS485_Sensor_ReadControlRegister:
 279              	.LFB4:
 279:Generated_Source\PSoC5/RS485_Sensor.c **** 
 280:Generated_Source\PSoC5/RS485_Sensor.c **** 
 281:Generated_Source\PSoC5/RS485_Sensor.c **** /*******************************************************************************
 282:Generated_Source\PSoC5/RS485_Sensor.c **** * Function Name: RS485_Sensor_ReadControlRegister
 283:Generated_Source\PSoC5/RS485_Sensor.c **** ********************************************************************************
 284:Generated_Source\PSoC5/RS485_Sensor.c **** *
 285:Generated_Source\PSoC5/RS485_Sensor.c **** * Summary:
 286:Generated_Source\PSoC5/RS485_Sensor.c **** *  Returns the current value of the control register.
 287:Generated_Source\PSoC5/RS485_Sensor.c **** *
 288:Generated_Source\PSoC5/RS485_Sensor.c **** * Parameters:
 289:Generated_Source\PSoC5/RS485_Sensor.c **** *  None.
 290:Generated_Source\PSoC5/RS485_Sensor.c **** *
 291:Generated_Source\PSoC5/RS485_Sensor.c **** * Return:
 292:Generated_Source\PSoC5/RS485_Sensor.c **** *  Contents of the control register.
 293:Generated_Source\PSoC5/RS485_Sensor.c **** *
 294:Generated_Source\PSoC5/RS485_Sensor.c **** *******************************************************************************/
 295:Generated_Source\PSoC5/RS485_Sensor.c **** uint8 RS485_Sensor_ReadControlRegister(void) 
 296:Generated_Source\PSoC5/RS485_Sensor.c **** {
 280              		.loc 1 296 0
 281              		.cfi_startproc
 282              		@ args = 0, pretend = 0, frame = 0
 283              		@ frame_needed = 0, uses_anonymous_args = 0
 284              		@ link register save eliminated.
 297:Generated_Source\PSoC5/RS485_Sensor.c ****     #if (RS485_Sensor_CONTROL_REG_REMOVED)
 298:Generated_Source\PSoC5/RS485_Sensor.c ****         return(0u);
 299:Generated_Source\PSoC5/RS485_Sensor.c ****     #else
 300:Generated_Source\PSoC5/RS485_Sensor.c ****         return(RS485_Sensor_CONTROL_REG);
 301:Generated_Source\PSoC5/RS485_Sensor.c ****     #endif /* (RS485_Sensor_CONTROL_REG_REMOVED) */
 302:Generated_Source\PSoC5/RS485_Sensor.c **** }
 285              		.loc 1 302 0
 286 0000 0020     		movs	r0, #0
 287 0002 7047     		bx	lr
 288              		.cfi_endproc
 289              	.LFE4:
 290              		.size	RS485_Sensor_ReadControlRegister, .-RS485_Sensor_ReadControlRegister
 291              		.section	.text.RS485_Sensor_WriteControlRegister,"ax",%progbits
 292              		.align	1
 293              		.global	RS485_Sensor_WriteControlRegister
 294              		.thumb
 295              		.thumb_func
 296              		.type	RS485_Sensor_WriteControlRegister, %function
 297              	RS485_Sensor_WriteControlRegister:
 298              	.LFB30:
 299              		.cfi_startproc
 300              		@ args = 0, pretend = 0, frame = 0
 301              		@ frame_needed = 0, uses_anonymous_args = 0
 302              		@ link register save eliminated.
 303 0000 7047     		bx	lr
 304              		.cfi_endproc
 305              	.LFE30:
 306              		.size	RS485_Sensor_WriteControlRegister, .-RS485_Sensor_WriteControlRegister
 307              		.section	.text.RS485_Sensor_SetRxInterruptMode,"ax",%progbits
 308              		.align	1
 309              		.global	RS485_Sensor_SetRxInterruptMode
ARM GAS  C:\Users\IroTeam\AppData\Local\Temp\ccGexqi8.s 			page 12


 310              		.thumb
 311              		.thumb_func
 312              		.type	RS485_Sensor_SetRxInterruptMode, %function
 313              	RS485_Sensor_SetRxInterruptMode:
 314              	.LFB6:
 303:Generated_Source\PSoC5/RS485_Sensor.c **** 
 304:Generated_Source\PSoC5/RS485_Sensor.c **** 
 305:Generated_Source\PSoC5/RS485_Sensor.c **** /*******************************************************************************
 306:Generated_Source\PSoC5/RS485_Sensor.c **** * Function Name: RS485_Sensor_WriteControlRegister
 307:Generated_Source\PSoC5/RS485_Sensor.c **** ********************************************************************************
 308:Generated_Source\PSoC5/RS485_Sensor.c **** *
 309:Generated_Source\PSoC5/RS485_Sensor.c **** * Summary:
 310:Generated_Source\PSoC5/RS485_Sensor.c **** *  Writes an 8-bit value into the control register
 311:Generated_Source\PSoC5/RS485_Sensor.c **** *
 312:Generated_Source\PSoC5/RS485_Sensor.c **** * Parameters:
 313:Generated_Source\PSoC5/RS485_Sensor.c **** *  control:  control register value
 314:Generated_Source\PSoC5/RS485_Sensor.c **** *
 315:Generated_Source\PSoC5/RS485_Sensor.c **** * Return:
 316:Generated_Source\PSoC5/RS485_Sensor.c **** *  None.
 317:Generated_Source\PSoC5/RS485_Sensor.c **** *
 318:Generated_Source\PSoC5/RS485_Sensor.c **** *******************************************************************************/
 319:Generated_Source\PSoC5/RS485_Sensor.c **** void  RS485_Sensor_WriteControlRegister(uint8 control) 
 320:Generated_Source\PSoC5/RS485_Sensor.c **** {
 321:Generated_Source\PSoC5/RS485_Sensor.c ****     #if (RS485_Sensor_CONTROL_REG_REMOVED)
 322:Generated_Source\PSoC5/RS485_Sensor.c ****         if(0u != control)
 323:Generated_Source\PSoC5/RS485_Sensor.c ****         {
 324:Generated_Source\PSoC5/RS485_Sensor.c ****             /* Suppress compiler warning */
 325:Generated_Source\PSoC5/RS485_Sensor.c ****         }
 326:Generated_Source\PSoC5/RS485_Sensor.c ****     #else
 327:Generated_Source\PSoC5/RS485_Sensor.c ****        RS485_Sensor_CONTROL_REG = control;
 328:Generated_Source\PSoC5/RS485_Sensor.c ****     #endif /* (RS485_Sensor_CONTROL_REG_REMOVED) */
 329:Generated_Source\PSoC5/RS485_Sensor.c **** }
 330:Generated_Source\PSoC5/RS485_Sensor.c **** 
 331:Generated_Source\PSoC5/RS485_Sensor.c **** 
 332:Generated_Source\PSoC5/RS485_Sensor.c **** #if(RS485_Sensor_RX_ENABLED || RS485_Sensor_HD_ENABLED)
 333:Generated_Source\PSoC5/RS485_Sensor.c ****     /*******************************************************************************
 334:Generated_Source\PSoC5/RS485_Sensor.c ****     * Function Name: RS485_Sensor_SetRxInterruptMode
 335:Generated_Source\PSoC5/RS485_Sensor.c ****     ********************************************************************************
 336:Generated_Source\PSoC5/RS485_Sensor.c ****     *
 337:Generated_Source\PSoC5/RS485_Sensor.c ****     * Summary:
 338:Generated_Source\PSoC5/RS485_Sensor.c ****     *  Configures the RX interrupt sources enabled.
 339:Generated_Source\PSoC5/RS485_Sensor.c ****     *
 340:Generated_Source\PSoC5/RS485_Sensor.c ****     * Parameters:
 341:Generated_Source\PSoC5/RS485_Sensor.c ****     *  IntSrc:  Bit field containing the RX interrupts to enable. Based on the 
 342:Generated_Source\PSoC5/RS485_Sensor.c ****     *  bit-field arrangement of the status register. This value must be a 
 343:Generated_Source\PSoC5/RS485_Sensor.c ****     *  combination of status register bit-masks shown below:
 344:Generated_Source\PSoC5/RS485_Sensor.c ****     *      RS485_Sensor_RX_STS_FIFO_NOTEMPTY    Interrupt on byte received.
 345:Generated_Source\PSoC5/RS485_Sensor.c ****     *      RS485_Sensor_RX_STS_PAR_ERROR        Interrupt on parity error.
 346:Generated_Source\PSoC5/RS485_Sensor.c ****     *      RS485_Sensor_RX_STS_STOP_ERROR       Interrupt on stop error.
 347:Generated_Source\PSoC5/RS485_Sensor.c ****     *      RS485_Sensor_RX_STS_BREAK            Interrupt on break.
 348:Generated_Source\PSoC5/RS485_Sensor.c ****     *      RS485_Sensor_RX_STS_OVERRUN          Interrupt on overrun error.
 349:Generated_Source\PSoC5/RS485_Sensor.c ****     *      RS485_Sensor_RX_STS_ADDR_MATCH       Interrupt on address match.
 350:Generated_Source\PSoC5/RS485_Sensor.c ****     *      RS485_Sensor_RX_STS_MRKSPC           Interrupt on address detect.
 351:Generated_Source\PSoC5/RS485_Sensor.c ****     *
 352:Generated_Source\PSoC5/RS485_Sensor.c ****     * Return:
 353:Generated_Source\PSoC5/RS485_Sensor.c ****     *  None.
 354:Generated_Source\PSoC5/RS485_Sensor.c ****     *
ARM GAS  C:\Users\IroTeam\AppData\Local\Temp\ccGexqi8.s 			page 13


 355:Generated_Source\PSoC5/RS485_Sensor.c ****     * Theory:
 356:Generated_Source\PSoC5/RS485_Sensor.c ****     *  Enables the output of specific status bits to the interrupt controller
 357:Generated_Source\PSoC5/RS485_Sensor.c ****     *
 358:Generated_Source\PSoC5/RS485_Sensor.c ****     *******************************************************************************/
 359:Generated_Source\PSoC5/RS485_Sensor.c ****     void RS485_Sensor_SetRxInterruptMode(uint8 intSrc) 
 360:Generated_Source\PSoC5/RS485_Sensor.c ****     {
 315              		.loc 1 360 0
 316              		.cfi_startproc
 317              		@ args = 0, pretend = 0, frame = 0
 318              		@ frame_needed = 0, uses_anonymous_args = 0
 319              		@ link register save eliminated.
 320              	.LVL16:
 361:Generated_Source\PSoC5/RS485_Sensor.c ****         RS485_Sensor_RXSTATUS_MASK_REG  = intSrc;
 321              		.loc 1 361 0
 322 0000 014B     		ldr	r3, .L18
 323 0002 1870     		strb	r0, [r3]
 324 0004 7047     		bx	lr
 325              	.L19:
 326 0006 00BF     		.align	2
 327              	.L18:
 328 0008 8C640040 		.word	1073767564
 329              		.cfi_endproc
 330              	.LFE6:
 331              		.size	RS485_Sensor_SetRxInterruptMode, .-RS485_Sensor_SetRxInterruptMode
 332              		.section	.text.RS485_Sensor_ReadRxData,"ax",%progbits
 333              		.align	1
 334              		.global	RS485_Sensor_ReadRxData
 335              		.thumb
 336              		.thumb_func
 337              		.type	RS485_Sensor_ReadRxData, %function
 338              	RS485_Sensor_ReadRxData:
 339              	.LFB7:
 362:Generated_Source\PSoC5/RS485_Sensor.c ****     }
 363:Generated_Source\PSoC5/RS485_Sensor.c **** 
 364:Generated_Source\PSoC5/RS485_Sensor.c **** 
 365:Generated_Source\PSoC5/RS485_Sensor.c ****     /*******************************************************************************
 366:Generated_Source\PSoC5/RS485_Sensor.c ****     * Function Name: RS485_Sensor_ReadRxData
 367:Generated_Source\PSoC5/RS485_Sensor.c ****     ********************************************************************************
 368:Generated_Source\PSoC5/RS485_Sensor.c ****     *
 369:Generated_Source\PSoC5/RS485_Sensor.c ****     * Summary:
 370:Generated_Source\PSoC5/RS485_Sensor.c ****     *  Returns the next byte of received data. This function returns data without
 371:Generated_Source\PSoC5/RS485_Sensor.c ****     *  checking the status. You must check the status separately.
 372:Generated_Source\PSoC5/RS485_Sensor.c ****     *
 373:Generated_Source\PSoC5/RS485_Sensor.c ****     * Parameters:
 374:Generated_Source\PSoC5/RS485_Sensor.c ****     *  None.
 375:Generated_Source\PSoC5/RS485_Sensor.c ****     *
 376:Generated_Source\PSoC5/RS485_Sensor.c ****     * Return:
 377:Generated_Source\PSoC5/RS485_Sensor.c ****     *  Received data from RX register
 378:Generated_Source\PSoC5/RS485_Sensor.c ****     *
 379:Generated_Source\PSoC5/RS485_Sensor.c ****     * Global Variables:
 380:Generated_Source\PSoC5/RS485_Sensor.c ****     *  RS485_Sensor_rxBuffer - RAM buffer pointer for save received data.
 381:Generated_Source\PSoC5/RS485_Sensor.c ****     *  RS485_Sensor_rxBufferWrite - cyclic index for write to rxBuffer,
 382:Generated_Source\PSoC5/RS485_Sensor.c ****     *     checked to identify new data.
 383:Generated_Source\PSoC5/RS485_Sensor.c ****     *  RS485_Sensor_rxBufferRead - cyclic index for read from rxBuffer,
 384:Generated_Source\PSoC5/RS485_Sensor.c ****     *     incremented after each byte has been read from buffer.
 385:Generated_Source\PSoC5/RS485_Sensor.c ****     *  RS485_Sensor_rxBufferLoopDetect - cleared if loop condition was detected
 386:Generated_Source\PSoC5/RS485_Sensor.c ****     *     in RX ISR.
ARM GAS  C:\Users\IroTeam\AppData\Local\Temp\ccGexqi8.s 			page 14


 387:Generated_Source\PSoC5/RS485_Sensor.c ****     *
 388:Generated_Source\PSoC5/RS485_Sensor.c ****     * Reentrant:
 389:Generated_Source\PSoC5/RS485_Sensor.c ****     *  No.
 390:Generated_Source\PSoC5/RS485_Sensor.c ****     *
 391:Generated_Source\PSoC5/RS485_Sensor.c ****     *******************************************************************************/
 392:Generated_Source\PSoC5/RS485_Sensor.c ****     uint8 RS485_Sensor_ReadRxData(void) 
 393:Generated_Source\PSoC5/RS485_Sensor.c ****     {
 340              		.loc 1 393 0
 341              		.cfi_startproc
 342              		@ args = 0, pretend = 0, frame = 0
 343              		@ frame_needed = 0, uses_anonymous_args = 0
 344              		@ link register save eliminated.
 394:Generated_Source\PSoC5/RS485_Sensor.c ****         uint8 rxData;
 395:Generated_Source\PSoC5/RS485_Sensor.c **** 
 396:Generated_Source\PSoC5/RS485_Sensor.c ****     #if (RS485_Sensor_RX_INTERRUPT_ENABLED)
 397:Generated_Source\PSoC5/RS485_Sensor.c **** 
 398:Generated_Source\PSoC5/RS485_Sensor.c ****         uint16 locRxBufferRead;
 399:Generated_Source\PSoC5/RS485_Sensor.c ****         uint16 locRxBufferWrite;
 400:Generated_Source\PSoC5/RS485_Sensor.c **** 
 401:Generated_Source\PSoC5/RS485_Sensor.c ****         /* Protect variables that could change on interrupt */
 402:Generated_Source\PSoC5/RS485_Sensor.c ****         RS485_Sensor_DisableRxInt();
 345              		.loc 1 402 0
 346 0000 114B     		ldr	r3, .L28
 347 0002 0422     		movs	r2, #4
 348 0004 1A60     		str	r2, [r3]
 403:Generated_Source\PSoC5/RS485_Sensor.c **** 
 404:Generated_Source\PSoC5/RS485_Sensor.c ****         locRxBufferRead  = RS485_Sensor_rxBufferRead;
 349              		.loc 1 404 0
 350 0006 114A     		ldr	r2, .L28+4
 351 0008 5388     		ldrh	r3, [r2, #2]
 405:Generated_Source\PSoC5/RS485_Sensor.c ****         locRxBufferWrite = RS485_Sensor_rxBufferWrite;
 352              		.loc 1 405 0
 353 000a 9188     		ldrh	r1, [r2, #4]
 406:Generated_Source\PSoC5/RS485_Sensor.c **** 
 407:Generated_Source\PSoC5/RS485_Sensor.c ****         if( (RS485_Sensor_rxBufferLoopDetect != 0u) || (locRxBufferRead != locRxBufferWrite) )
 354              		.loc 1 407 0
 355 000c 9079     		ldrb	r0, [r2, #6]	@ zero_extendqisi2
 404:Generated_Source\PSoC5/RS485_Sensor.c ****         locRxBufferWrite = RS485_Sensor_rxBufferWrite;
 356              		.loc 1 404 0
 357 000e 9BB2     		uxth	r3, r3
 358              	.LVL17:
 405:Generated_Source\PSoC5/RS485_Sensor.c ****         locRxBufferWrite = RS485_Sensor_rxBufferWrite;
 359              		.loc 1 405 0
 360 0010 89B2     		uxth	r1, r1
 361              	.LVL18:
 362              		.loc 1 407 0
 363 0012 08B9     		cbnz	r0, .L21
 364              		.loc 1 407 0 is_stmt 0 discriminator 1
 365 0014 8B42     		cmp	r3, r1
 366 0016 0FD0     		beq	.L22
 367              	.L21:
 408:Generated_Source\PSoC5/RS485_Sensor.c ****         {
 409:Generated_Source\PSoC5/RS485_Sensor.c ****             rxData = RS485_Sensor_rxBuffer[locRxBufferRead];
 368              		.loc 1 409 0 is_stmt 1
 369 0018 0D49     		ldr	r1, .L28+8
 370              	.LVL19:
 371 001a C85C     		ldrb	r0, [r1, r3]	@ zero_extendqisi2
ARM GAS  C:\Users\IroTeam\AppData\Local\Temp\ccGexqi8.s 			page 15


 410:Generated_Source\PSoC5/RS485_Sensor.c ****             locRxBufferRead++;
 372              		.loc 1 410 0
 373 001c 0133     		adds	r3, r3, #1
 374              	.LVL20:
 375 001e 9BB2     		uxth	r3, r3
 376              	.LVL21:
 411:Generated_Source\PSoC5/RS485_Sensor.c **** 
 412:Generated_Source\PSoC5/RS485_Sensor.c ****             if(locRxBufferRead >= RS485_Sensor_RX_BUFFER_SIZE)
 413:Generated_Source\PSoC5/RS485_Sensor.c ****             {
 414:Generated_Source\PSoC5/RS485_Sensor.c ****                 locRxBufferRead = 0u;
 377              		.loc 1 414 0
 378 0020 B3F5807F 		cmp	r3, #256
 379 0024 28BF     		it	cs
 380 0026 0023     		movcs	r3, #0
 415:Generated_Source\PSoC5/RS485_Sensor.c ****             }
 416:Generated_Source\PSoC5/RS485_Sensor.c ****             /* Update the real pointer */
 417:Generated_Source\PSoC5/RS485_Sensor.c ****             RS485_Sensor_rxBufferRead = locRxBufferRead;
 381              		.loc 1 417 0
 382 0028 5380     		strh	r3, [r2, #2]	@ movhi
 418:Generated_Source\PSoC5/RS485_Sensor.c **** 
 419:Generated_Source\PSoC5/RS485_Sensor.c ****             if(RS485_Sensor_rxBufferLoopDetect != 0u)
 383              		.loc 1 419 0
 384 002a 9379     		ldrb	r3, [r2, #6]	@ zero_extendqisi2
 409:Generated_Source\PSoC5/RS485_Sensor.c ****             locRxBufferRead++;
 385              		.loc 1 409 0
 386 002c C0B2     		uxtb	r0, r0
 387              	.LVL22:
 388              		.loc 1 419 0
 389 002e 33B1     		cbz	r3, .L24
 420:Generated_Source\PSoC5/RS485_Sensor.c ****             {
 421:Generated_Source\PSoC5/RS485_Sensor.c ****                 RS485_Sensor_rxBufferLoopDetect = 0u;
 390              		.loc 1 421 0
 391 0030 064B     		ldr	r3, .L28+4
 392 0032 0022     		movs	r2, #0
 393 0034 9A71     		strb	r2, [r3, #6]
 394 0036 02E0     		b	.L24
 395              	.LVL23:
 396              	.L22:
 422:Generated_Source\PSoC5/RS485_Sensor.c ****                 #if ((RS485_Sensor_RX_INTERRUPT_ENABLED) && (RS485_Sensor_FLOW_CONTROL != 0u))
 423:Generated_Source\PSoC5/RS485_Sensor.c ****                     /* When Hardware Flow Control selected - return RX mask */
 424:Generated_Source\PSoC5/RS485_Sensor.c ****                     #if( RS485_Sensor_HD_ENABLED )
 425:Generated_Source\PSoC5/RS485_Sensor.c ****                         if((RS485_Sensor_CONTROL_REG & RS485_Sensor_CTRL_HD_SEND) == 0u)
 426:Generated_Source\PSoC5/RS485_Sensor.c ****                         {   /* In Half duplex mode return RX mask only in RX
 427:Generated_Source\PSoC5/RS485_Sensor.c ****                             *  configuration set, otherwise
 428:Generated_Source\PSoC5/RS485_Sensor.c ****                             *  mask will be returned in LoadRxConfig() API.
 429:Generated_Source\PSoC5/RS485_Sensor.c ****                             */
 430:Generated_Source\PSoC5/RS485_Sensor.c ****                             RS485_Sensor_RXSTATUS_MASK_REG  |= RS485_Sensor_RX_STS_FIFO_NOTEMPTY;
 431:Generated_Source\PSoC5/RS485_Sensor.c ****                         }
 432:Generated_Source\PSoC5/RS485_Sensor.c ****                     #else
 433:Generated_Source\PSoC5/RS485_Sensor.c ****                         RS485_Sensor_RXSTATUS_MASK_REG  |= RS485_Sensor_RX_STS_FIFO_NOTEMPTY;
 434:Generated_Source\PSoC5/RS485_Sensor.c ****                     #endif /* end RS485_Sensor_HD_ENABLED */
 435:Generated_Source\PSoC5/RS485_Sensor.c ****                 #endif /* ((RS485_Sensor_RX_INTERRUPT_ENABLED) && (RS485_Sensor_FLOW_CONTROL != 0u)
 436:Generated_Source\PSoC5/RS485_Sensor.c ****             }
 437:Generated_Source\PSoC5/RS485_Sensor.c ****         }
 438:Generated_Source\PSoC5/RS485_Sensor.c ****         else
 439:Generated_Source\PSoC5/RS485_Sensor.c ****         {   /* Needs to check status for RX_STS_FIFO_NOTEMPTY bit */
 440:Generated_Source\PSoC5/RS485_Sensor.c ****             rxData = RS485_Sensor_RXDATA_REG;
ARM GAS  C:\Users\IroTeam\AppData\Local\Temp\ccGexqi8.s 			page 16


 397              		.loc 1 440 0
 398 0038 064B     		ldr	r3, .L28+12
 399              	.LVL24:
 400 003a 1878     		ldrb	r0, [r3]	@ zero_extendqisi2
 401 003c C0B2     		uxtb	r0, r0
 402              	.LVL25:
 403              	.L24:
 441:Generated_Source\PSoC5/RS485_Sensor.c ****         }
 442:Generated_Source\PSoC5/RS485_Sensor.c **** 
 443:Generated_Source\PSoC5/RS485_Sensor.c ****         RS485_Sensor_EnableRxInt();
 404              		.loc 1 443 0
 405 003e 064B     		ldr	r3, .L28+16
 406 0040 0422     		movs	r2, #4
 407 0042 1A60     		str	r2, [r3]
 444:Generated_Source\PSoC5/RS485_Sensor.c **** 
 445:Generated_Source\PSoC5/RS485_Sensor.c ****     #else
 446:Generated_Source\PSoC5/RS485_Sensor.c **** 
 447:Generated_Source\PSoC5/RS485_Sensor.c ****         /* Needs to check status for RX_STS_FIFO_NOTEMPTY bit */
 448:Generated_Source\PSoC5/RS485_Sensor.c ****         rxData = RS485_Sensor_RXDATA_REG;
 449:Generated_Source\PSoC5/RS485_Sensor.c **** 
 450:Generated_Source\PSoC5/RS485_Sensor.c ****     #endif /* (RS485_Sensor_RX_INTERRUPT_ENABLED) */
 451:Generated_Source\PSoC5/RS485_Sensor.c **** 
 452:Generated_Source\PSoC5/RS485_Sensor.c ****         return(rxData);
 453:Generated_Source\PSoC5/RS485_Sensor.c ****     }
 408              		.loc 1 453 0
 409 0044 7047     		bx	lr
 410              	.L29:
 411 0046 00BF     		.align	2
 412              	.L28:
 413 0048 80E100E0 		.word	-536813184
 414 004c 00000000 		.word	.LANCHOR0
 415 0050 00000000 		.word	RS485_Sensor_rxBuffer
 416 0054 48640040 		.word	1073767496
 417 0058 00E100E0 		.word	-536813312
 418              		.cfi_endproc
 419              	.LFE7:
 420              		.size	RS485_Sensor_ReadRxData, .-RS485_Sensor_ReadRxData
 421              		.section	.text.RS485_Sensor_ReadRxStatus,"ax",%progbits
 422              		.align	1
 423              		.global	RS485_Sensor_ReadRxStatus
 424              		.thumb
 425              		.thumb_func
 426              		.type	RS485_Sensor_ReadRxStatus, %function
 427              	RS485_Sensor_ReadRxStatus:
 428              	.LFB8:
 454:Generated_Source\PSoC5/RS485_Sensor.c **** 
 455:Generated_Source\PSoC5/RS485_Sensor.c **** 
 456:Generated_Source\PSoC5/RS485_Sensor.c ****     /*******************************************************************************
 457:Generated_Source\PSoC5/RS485_Sensor.c ****     * Function Name: RS485_Sensor_ReadRxStatus
 458:Generated_Source\PSoC5/RS485_Sensor.c ****     ********************************************************************************
 459:Generated_Source\PSoC5/RS485_Sensor.c ****     *
 460:Generated_Source\PSoC5/RS485_Sensor.c ****     * Summary:
 461:Generated_Source\PSoC5/RS485_Sensor.c ****     *  Returns the current state of the receiver status register and the software
 462:Generated_Source\PSoC5/RS485_Sensor.c ****     *  buffer overflow status.
 463:Generated_Source\PSoC5/RS485_Sensor.c ****     *
 464:Generated_Source\PSoC5/RS485_Sensor.c ****     * Parameters:
 465:Generated_Source\PSoC5/RS485_Sensor.c ****     *  None.
ARM GAS  C:\Users\IroTeam\AppData\Local\Temp\ccGexqi8.s 			page 17


 466:Generated_Source\PSoC5/RS485_Sensor.c ****     *
 467:Generated_Source\PSoC5/RS485_Sensor.c ****     * Return:
 468:Generated_Source\PSoC5/RS485_Sensor.c ****     *  Current state of the status register.
 469:Generated_Source\PSoC5/RS485_Sensor.c ****     *
 470:Generated_Source\PSoC5/RS485_Sensor.c ****     * Side Effect:
 471:Generated_Source\PSoC5/RS485_Sensor.c ****     *  All status register bits are clear-on-read except
 472:Generated_Source\PSoC5/RS485_Sensor.c ****     *  RS485_Sensor_RX_STS_FIFO_NOTEMPTY.
 473:Generated_Source\PSoC5/RS485_Sensor.c ****     *  RS485_Sensor_RX_STS_FIFO_NOTEMPTY clears immediately after RX data
 474:Generated_Source\PSoC5/RS485_Sensor.c ****     *  register read.
 475:Generated_Source\PSoC5/RS485_Sensor.c ****     *
 476:Generated_Source\PSoC5/RS485_Sensor.c ****     * Global Variables:
 477:Generated_Source\PSoC5/RS485_Sensor.c ****     *  RS485_Sensor_rxBufferOverflow - used to indicate overload condition.
 478:Generated_Source\PSoC5/RS485_Sensor.c ****     *   It set to one in RX interrupt when there isn't free space in
 479:Generated_Source\PSoC5/RS485_Sensor.c ****     *   RS485_Sensor_rxBufferRead to write new data. This condition returned
 480:Generated_Source\PSoC5/RS485_Sensor.c ****     *   and cleared to zero by this API as an
 481:Generated_Source\PSoC5/RS485_Sensor.c ****     *   RS485_Sensor_RX_STS_SOFT_BUFF_OVER bit along with RX Status register
 482:Generated_Source\PSoC5/RS485_Sensor.c ****     *   bits.
 483:Generated_Source\PSoC5/RS485_Sensor.c ****     *
 484:Generated_Source\PSoC5/RS485_Sensor.c ****     *******************************************************************************/
 485:Generated_Source\PSoC5/RS485_Sensor.c ****     uint8 RS485_Sensor_ReadRxStatus(void) 
 486:Generated_Source\PSoC5/RS485_Sensor.c ****     {
 429              		.loc 1 486 0
 430              		.cfi_startproc
 431              		@ args = 0, pretend = 0, frame = 0
 432              		@ frame_needed = 0, uses_anonymous_args = 0
 433              		@ link register save eliminated.
 487:Generated_Source\PSoC5/RS485_Sensor.c ****         uint8 status;
 488:Generated_Source\PSoC5/RS485_Sensor.c **** 
 489:Generated_Source\PSoC5/RS485_Sensor.c ****         status = RS485_Sensor_RXSTATUS_REG & RS485_Sensor_RX_HW_MASK;
 434              		.loc 1 489 0
 435 0000 054B     		ldr	r3, .L35
 436 0002 1878     		ldrb	r0, [r3]	@ zero_extendqisi2
 490:Generated_Source\PSoC5/RS485_Sensor.c **** 
 491:Generated_Source\PSoC5/RS485_Sensor.c ****     #if (RS485_Sensor_RX_INTERRUPT_ENABLED)
 492:Generated_Source\PSoC5/RS485_Sensor.c ****         if(RS485_Sensor_rxBufferOverflow != 0u)
 437              		.loc 1 492 0
 438 0004 054B     		ldr	r3, .L35+4
 489:Generated_Source\PSoC5/RS485_Sensor.c **** 
 439              		.loc 1 489 0
 440 0006 00F07F00 		and	r0, r0, #127
 441              	.LVL26:
 442              		.loc 1 492 0
 443 000a DA79     		ldrb	r2, [r3, #7]	@ zero_extendqisi2
 444 000c 1AB1     		cbz	r2, .L31
 493:Generated_Source\PSoC5/RS485_Sensor.c ****         {
 494:Generated_Source\PSoC5/RS485_Sensor.c ****             status |= RS485_Sensor_RX_STS_SOFT_BUFF_OVER;
 495:Generated_Source\PSoC5/RS485_Sensor.c ****             RS485_Sensor_rxBufferOverflow = 0u;
 445              		.loc 1 495 0
 446 000e 0022     		movs	r2, #0
 494:Generated_Source\PSoC5/RS485_Sensor.c ****             RS485_Sensor_rxBufferOverflow = 0u;
 447              		.loc 1 494 0
 448 0010 40F08000 		orr	r0, r0, #128
 449              	.LVL27:
 450              		.loc 1 495 0
 451 0014 DA71     		strb	r2, [r3, #7]
 452              	.L31:
 496:Generated_Source\PSoC5/RS485_Sensor.c ****         }
ARM GAS  C:\Users\IroTeam\AppData\Local\Temp\ccGexqi8.s 			page 18


 497:Generated_Source\PSoC5/RS485_Sensor.c ****     #endif /* (RS485_Sensor_RX_INTERRUPT_ENABLED) */
 498:Generated_Source\PSoC5/RS485_Sensor.c **** 
 499:Generated_Source\PSoC5/RS485_Sensor.c ****         return(status);
 500:Generated_Source\PSoC5/RS485_Sensor.c ****     }
 453              		.loc 1 500 0
 454 0016 7047     		bx	lr
 455              	.L36:
 456              		.align	2
 457              	.L35:
 458 0018 6C640040 		.word	1073767532
 459 001c 00000000 		.word	.LANCHOR0
 460              		.cfi_endproc
 461              	.LFE8:
 462              		.size	RS485_Sensor_ReadRxStatus, .-RS485_Sensor_ReadRxStatus
 463              		.section	.text.RS485_Sensor_GetChar,"ax",%progbits
 464              		.align	1
 465              		.global	RS485_Sensor_GetChar
 466              		.thumb
 467              		.thumb_func
 468              		.type	RS485_Sensor_GetChar, %function
 469              	RS485_Sensor_GetChar:
 470              	.LFB9:
 501:Generated_Source\PSoC5/RS485_Sensor.c **** 
 502:Generated_Source\PSoC5/RS485_Sensor.c **** 
 503:Generated_Source\PSoC5/RS485_Sensor.c ****     /*******************************************************************************
 504:Generated_Source\PSoC5/RS485_Sensor.c ****     * Function Name: RS485_Sensor_GetChar
 505:Generated_Source\PSoC5/RS485_Sensor.c ****     ********************************************************************************
 506:Generated_Source\PSoC5/RS485_Sensor.c ****     *
 507:Generated_Source\PSoC5/RS485_Sensor.c ****     * Summary:
 508:Generated_Source\PSoC5/RS485_Sensor.c ****     *  Returns the last received byte of data. RS485_Sensor_GetChar() is
 509:Generated_Source\PSoC5/RS485_Sensor.c ****     *  designed for ASCII characters and returns a uint8 where 1 to 255 are values
 510:Generated_Source\PSoC5/RS485_Sensor.c ****     *  for valid characters and 0 indicates an error occurred or no data is present.
 511:Generated_Source\PSoC5/RS485_Sensor.c ****     *
 512:Generated_Source\PSoC5/RS485_Sensor.c ****     * Parameters:
 513:Generated_Source\PSoC5/RS485_Sensor.c ****     *  None.
 514:Generated_Source\PSoC5/RS485_Sensor.c ****     *
 515:Generated_Source\PSoC5/RS485_Sensor.c ****     * Return:
 516:Generated_Source\PSoC5/RS485_Sensor.c ****     *  Character read from UART RX buffer. ASCII characters from 1 to 255 are valid.
 517:Generated_Source\PSoC5/RS485_Sensor.c ****     *  A returned zero signifies an error condition or no data available.
 518:Generated_Source\PSoC5/RS485_Sensor.c ****     *
 519:Generated_Source\PSoC5/RS485_Sensor.c ****     * Global Variables:
 520:Generated_Source\PSoC5/RS485_Sensor.c ****     *  RS485_Sensor_rxBuffer - RAM buffer pointer for save received data.
 521:Generated_Source\PSoC5/RS485_Sensor.c ****     *  RS485_Sensor_rxBufferWrite - cyclic index for write to rxBuffer,
 522:Generated_Source\PSoC5/RS485_Sensor.c ****     *     checked to identify new data.
 523:Generated_Source\PSoC5/RS485_Sensor.c ****     *  RS485_Sensor_rxBufferRead - cyclic index for read from rxBuffer,
 524:Generated_Source\PSoC5/RS485_Sensor.c ****     *     incremented after each byte has been read from buffer.
 525:Generated_Source\PSoC5/RS485_Sensor.c ****     *  RS485_Sensor_rxBufferLoopDetect - cleared if loop condition was detected
 526:Generated_Source\PSoC5/RS485_Sensor.c ****     *     in RX ISR.
 527:Generated_Source\PSoC5/RS485_Sensor.c ****     *
 528:Generated_Source\PSoC5/RS485_Sensor.c ****     * Reentrant:
 529:Generated_Source\PSoC5/RS485_Sensor.c ****     *  No.
 530:Generated_Source\PSoC5/RS485_Sensor.c ****     *
 531:Generated_Source\PSoC5/RS485_Sensor.c ****     *******************************************************************************/
 532:Generated_Source\PSoC5/RS485_Sensor.c ****     uint8 RS485_Sensor_GetChar(void) 
 533:Generated_Source\PSoC5/RS485_Sensor.c ****     {
 471              		.loc 1 533 0
 472              		.cfi_startproc
ARM GAS  C:\Users\IroTeam\AppData\Local\Temp\ccGexqi8.s 			page 19


 473              		@ args = 0, pretend = 0, frame = 0
 474              		@ frame_needed = 0, uses_anonymous_args = 0
 475              		@ link register save eliminated.
 476              	.LVL28:
 534:Generated_Source\PSoC5/RS485_Sensor.c ****         uint8 rxData = 0u;
 535:Generated_Source\PSoC5/RS485_Sensor.c ****         uint8 rxStatus;
 536:Generated_Source\PSoC5/RS485_Sensor.c **** 
 537:Generated_Source\PSoC5/RS485_Sensor.c ****     #if (RS485_Sensor_RX_INTERRUPT_ENABLED)
 538:Generated_Source\PSoC5/RS485_Sensor.c ****         uint16 locRxBufferRead;
 539:Generated_Source\PSoC5/RS485_Sensor.c ****         uint16 locRxBufferWrite;
 540:Generated_Source\PSoC5/RS485_Sensor.c **** 
 541:Generated_Source\PSoC5/RS485_Sensor.c ****         /* Protect variables that could change on interrupt */
 542:Generated_Source\PSoC5/RS485_Sensor.c ****         RS485_Sensor_DisableRxInt();
 477              		.loc 1 542 0
 478 0000 164B     		ldr	r3, .L47
 479 0002 0422     		movs	r2, #4
 480 0004 1A60     		str	r2, [r3]
 543:Generated_Source\PSoC5/RS485_Sensor.c **** 
 544:Generated_Source\PSoC5/RS485_Sensor.c ****         locRxBufferRead  = RS485_Sensor_rxBufferRead;
 481              		.loc 1 544 0
 482 0006 164A     		ldr	r2, .L47+4
 483 0008 5388     		ldrh	r3, [r2, #2]
 545:Generated_Source\PSoC5/RS485_Sensor.c ****         locRxBufferWrite = RS485_Sensor_rxBufferWrite;
 484              		.loc 1 545 0
 485 000a 9188     		ldrh	r1, [r2, #4]
 546:Generated_Source\PSoC5/RS485_Sensor.c **** 
 547:Generated_Source\PSoC5/RS485_Sensor.c ****         if( (RS485_Sensor_rxBufferLoopDetect != 0u) || (locRxBufferRead != locRxBufferWrite) )
 486              		.loc 1 547 0
 487 000c 9079     		ldrb	r0, [r2, #6]	@ zero_extendqisi2
 544:Generated_Source\PSoC5/RS485_Sensor.c ****         locRxBufferWrite = RS485_Sensor_rxBufferWrite;
 488              		.loc 1 544 0
 489 000e 9BB2     		uxth	r3, r3
 490              	.LVL29:
 545:Generated_Source\PSoC5/RS485_Sensor.c ****         locRxBufferWrite = RS485_Sensor_rxBufferWrite;
 491              		.loc 1 545 0
 492 0010 89B2     		uxth	r1, r1
 493              	.LVL30:
 494              		.loc 1 547 0
 495 0012 08B9     		cbnz	r0, .L38
 496              		.loc 1 547 0 is_stmt 0 discriminator 1
 497 0014 8B42     		cmp	r3, r1
 498 0016 0FD0     		beq	.L39
 499              	.L38:
 548:Generated_Source\PSoC5/RS485_Sensor.c ****         {
 549:Generated_Source\PSoC5/RS485_Sensor.c ****             rxData = RS485_Sensor_rxBuffer[locRxBufferRead];
 500              		.loc 1 549 0 is_stmt 1
 501 0018 1249     		ldr	r1, .L47+8
 502              	.LVL31:
 503 001a C85C     		ldrb	r0, [r1, r3]	@ zero_extendqisi2
 550:Generated_Source\PSoC5/RS485_Sensor.c ****             locRxBufferRead++;
 504              		.loc 1 550 0
 505 001c 0133     		adds	r3, r3, #1
 506              	.LVL32:
 507 001e 9BB2     		uxth	r3, r3
 508              	.LVL33:
 551:Generated_Source\PSoC5/RS485_Sensor.c ****             if(locRxBufferRead >= RS485_Sensor_RX_BUFFER_SIZE)
 552:Generated_Source\PSoC5/RS485_Sensor.c ****             {
ARM GAS  C:\Users\IroTeam\AppData\Local\Temp\ccGexqi8.s 			page 20


 553:Generated_Source\PSoC5/RS485_Sensor.c ****                 locRxBufferRead = 0u;
 509              		.loc 1 553 0
 510 0020 B3F5807F 		cmp	r3, #256
 511 0024 28BF     		it	cs
 512 0026 0023     		movcs	r3, #0
 554:Generated_Source\PSoC5/RS485_Sensor.c ****             }
 555:Generated_Source\PSoC5/RS485_Sensor.c ****             /* Update the real pointer */
 556:Generated_Source\PSoC5/RS485_Sensor.c ****             RS485_Sensor_rxBufferRead = locRxBufferRead;
 513              		.loc 1 556 0
 514 0028 5380     		strh	r3, [r2, #2]	@ movhi
 557:Generated_Source\PSoC5/RS485_Sensor.c **** 
 558:Generated_Source\PSoC5/RS485_Sensor.c ****             if(RS485_Sensor_rxBufferLoopDetect != 0u)
 515              		.loc 1 558 0
 516 002a 9379     		ldrb	r3, [r2, #6]	@ zero_extendqisi2
 549:Generated_Source\PSoC5/RS485_Sensor.c ****             locRxBufferRead++;
 517              		.loc 1 549 0
 518 002c C0B2     		uxtb	r0, r0
 519              	.LVL34:
 520              		.loc 1 558 0
 521 002e 8BB1     		cbz	r3, .L41
 559:Generated_Source\PSoC5/RS485_Sensor.c ****             {
 560:Generated_Source\PSoC5/RS485_Sensor.c ****                 RS485_Sensor_rxBufferLoopDetect = 0u;
 522              		.loc 1 560 0
 523 0030 0B4B     		ldr	r3, .L47+4
 524 0032 0022     		movs	r2, #0
 525 0034 9A71     		strb	r2, [r3, #6]
 526 0036 0DE0     		b	.L41
 527              	.LVL35:
 528              	.L39:
 561:Generated_Source\PSoC5/RS485_Sensor.c ****                 #if( (RS485_Sensor_RX_INTERRUPT_ENABLED) && (RS485_Sensor_FLOW_CONTROL != 0u) )
 562:Generated_Source\PSoC5/RS485_Sensor.c ****                     /* When Hardware Flow Control selected - return RX mask */
 563:Generated_Source\PSoC5/RS485_Sensor.c ****                     #if( RS485_Sensor_HD_ENABLED )
 564:Generated_Source\PSoC5/RS485_Sensor.c ****                         if((RS485_Sensor_CONTROL_REG & RS485_Sensor_CTRL_HD_SEND) == 0u)
 565:Generated_Source\PSoC5/RS485_Sensor.c ****                         {   /* In Half duplex mode return RX mask only if
 566:Generated_Source\PSoC5/RS485_Sensor.c ****                             *  RX configuration set, otherwise
 567:Generated_Source\PSoC5/RS485_Sensor.c ****                             *  mask will be returned in LoadRxConfig() API.
 568:Generated_Source\PSoC5/RS485_Sensor.c ****                             */
 569:Generated_Source\PSoC5/RS485_Sensor.c ****                             RS485_Sensor_RXSTATUS_MASK_REG |= RS485_Sensor_RX_STS_FIFO_NOTEMPTY;
 570:Generated_Source\PSoC5/RS485_Sensor.c ****                         }
 571:Generated_Source\PSoC5/RS485_Sensor.c ****                     #else
 572:Generated_Source\PSoC5/RS485_Sensor.c ****                         RS485_Sensor_RXSTATUS_MASK_REG |= RS485_Sensor_RX_STS_FIFO_NOTEMPTY;
 573:Generated_Source\PSoC5/RS485_Sensor.c ****                     #endif /* end RS485_Sensor_HD_ENABLED */
 574:Generated_Source\PSoC5/RS485_Sensor.c ****                 #endif /* RS485_Sensor_RX_INTERRUPT_ENABLED and Hardware flow control*/
 575:Generated_Source\PSoC5/RS485_Sensor.c ****             }
 576:Generated_Source\PSoC5/RS485_Sensor.c **** 
 577:Generated_Source\PSoC5/RS485_Sensor.c ****         }
 578:Generated_Source\PSoC5/RS485_Sensor.c ****         else
 579:Generated_Source\PSoC5/RS485_Sensor.c ****         {   rxStatus = RS485_Sensor_RXSTATUS_REG;
 529              		.loc 1 579 0
 530 0038 0B4B     		ldr	r3, .L47+12
 531              	.LVL36:
 532 003a 1B78     		ldrb	r3, [r3]	@ zero_extendqisi2
 533 003c DBB2     		uxtb	r3, r3
 534              	.LVL37:
 580:Generated_Source\PSoC5/RS485_Sensor.c ****             if((rxStatus & RS485_Sensor_RX_STS_FIFO_NOTEMPTY) != 0u)
 535              		.loc 1 580 0
 536 003e 03F02002 		and	r2, r3, #32
ARM GAS  C:\Users\IroTeam\AppData\Local\Temp\ccGexqi8.s 			page 21


 537 0042 02F0FF00 		and	r0, r2, #255
 538 0046 2AB1     		cbz	r2, .L41
 581:Generated_Source\PSoC5/RS485_Sensor.c ****             {   /* Read received data from FIFO */
 582:Generated_Source\PSoC5/RS485_Sensor.c ****                 rxData = RS485_Sensor_RXDATA_REG;
 539              		.loc 1 582 0
 540 0048 084A     		ldr	r2, .L47+16
 583:Generated_Source\PSoC5/RS485_Sensor.c ****                 /*Check status on error*/
 584:Generated_Source\PSoC5/RS485_Sensor.c ****                 if((rxStatus & (RS485_Sensor_RX_STS_BREAK | RS485_Sensor_RX_STS_PAR_ERROR |
 585:Generated_Source\PSoC5/RS485_Sensor.c ****                                 RS485_Sensor_RX_STS_STOP_ERROR | RS485_Sensor_RX_STS_OVERRUN)) != 0
 586:Generated_Source\PSoC5/RS485_Sensor.c ****                 {
 587:Generated_Source\PSoC5/RS485_Sensor.c ****                     rxData = 0u;
 541              		.loc 1 587 0
 542 004a 13F01E0F 		tst	r3, #30
 582:Generated_Source\PSoC5/RS485_Sensor.c ****                 /*Check status on error*/
 543              		.loc 1 582 0
 544 004e 1078     		ldrb	r0, [r2]	@ zero_extendqisi2
 545              	.LVL38:
 546              		.loc 1 587 0
 547 0050 18BF     		it	ne
 548 0052 0020     		movne	r0, #0
 549              	.LVL39:
 550              	.L41:
 588:Generated_Source\PSoC5/RS485_Sensor.c ****                 }
 589:Generated_Source\PSoC5/RS485_Sensor.c ****             }
 590:Generated_Source\PSoC5/RS485_Sensor.c ****         }
 591:Generated_Source\PSoC5/RS485_Sensor.c **** 
 592:Generated_Source\PSoC5/RS485_Sensor.c ****         RS485_Sensor_EnableRxInt();
 551              		.loc 1 592 0
 552 0054 064B     		ldr	r3, .L47+20
 553 0056 0422     		movs	r2, #4
 554 0058 1A60     		str	r2, [r3]
 593:Generated_Source\PSoC5/RS485_Sensor.c **** 
 594:Generated_Source\PSoC5/RS485_Sensor.c ****     #else
 595:Generated_Source\PSoC5/RS485_Sensor.c **** 
 596:Generated_Source\PSoC5/RS485_Sensor.c ****         rxStatus =RS485_Sensor_RXSTATUS_REG;
 597:Generated_Source\PSoC5/RS485_Sensor.c ****         if((rxStatus & RS485_Sensor_RX_STS_FIFO_NOTEMPTY) != 0u)
 598:Generated_Source\PSoC5/RS485_Sensor.c ****         {
 599:Generated_Source\PSoC5/RS485_Sensor.c ****             /* Read received data from FIFO */
 600:Generated_Source\PSoC5/RS485_Sensor.c ****             rxData = RS485_Sensor_RXDATA_REG;
 601:Generated_Source\PSoC5/RS485_Sensor.c **** 
 602:Generated_Source\PSoC5/RS485_Sensor.c ****             /*Check status on error*/
 603:Generated_Source\PSoC5/RS485_Sensor.c ****             if((rxStatus & (RS485_Sensor_RX_STS_BREAK | RS485_Sensor_RX_STS_PAR_ERROR |
 604:Generated_Source\PSoC5/RS485_Sensor.c ****                             RS485_Sensor_RX_STS_STOP_ERROR | RS485_Sensor_RX_STS_OVERRUN)) != 0u)
 605:Generated_Source\PSoC5/RS485_Sensor.c ****             {
 606:Generated_Source\PSoC5/RS485_Sensor.c ****                 rxData = 0u;
 607:Generated_Source\PSoC5/RS485_Sensor.c ****             }
 608:Generated_Source\PSoC5/RS485_Sensor.c ****         }
 609:Generated_Source\PSoC5/RS485_Sensor.c ****     #endif /* (RS485_Sensor_RX_INTERRUPT_ENABLED) */
 610:Generated_Source\PSoC5/RS485_Sensor.c **** 
 611:Generated_Source\PSoC5/RS485_Sensor.c ****         return(rxData);
 612:Generated_Source\PSoC5/RS485_Sensor.c ****     }
 555              		.loc 1 612 0
 556 005a 7047     		bx	lr
 557              	.L48:
 558              		.align	2
 559              	.L47:
 560 005c 80E100E0 		.word	-536813184
ARM GAS  C:\Users\IroTeam\AppData\Local\Temp\ccGexqi8.s 			page 22


 561 0060 00000000 		.word	.LANCHOR0
 562 0064 00000000 		.word	RS485_Sensor_rxBuffer
 563 0068 6C640040 		.word	1073767532
 564 006c 48640040 		.word	1073767496
 565 0070 00E100E0 		.word	-536813312
 566              		.cfi_endproc
 567              	.LFE9:
 568              		.size	RS485_Sensor_GetChar, .-RS485_Sensor_GetChar
 569              		.section	.text.RS485_Sensor_GetByte,"ax",%progbits
 570              		.align	1
 571              		.global	RS485_Sensor_GetByte
 572              		.thumb
 573              		.thumb_func
 574              		.type	RS485_Sensor_GetByte, %function
 575              	RS485_Sensor_GetByte:
 576              	.LFB10:
 613:Generated_Source\PSoC5/RS485_Sensor.c **** 
 614:Generated_Source\PSoC5/RS485_Sensor.c **** 
 615:Generated_Source\PSoC5/RS485_Sensor.c ****     /*******************************************************************************
 616:Generated_Source\PSoC5/RS485_Sensor.c ****     * Function Name: RS485_Sensor_GetByte
 617:Generated_Source\PSoC5/RS485_Sensor.c ****     ********************************************************************************
 618:Generated_Source\PSoC5/RS485_Sensor.c ****     *
 619:Generated_Source\PSoC5/RS485_Sensor.c ****     * Summary:
 620:Generated_Source\PSoC5/RS485_Sensor.c ****     *  Reads UART RX buffer immediately, returns received character and error
 621:Generated_Source\PSoC5/RS485_Sensor.c ****     *  condition.
 622:Generated_Source\PSoC5/RS485_Sensor.c ****     *
 623:Generated_Source\PSoC5/RS485_Sensor.c ****     * Parameters:
 624:Generated_Source\PSoC5/RS485_Sensor.c ****     *  None.
 625:Generated_Source\PSoC5/RS485_Sensor.c ****     *
 626:Generated_Source\PSoC5/RS485_Sensor.c ****     * Return:
 627:Generated_Source\PSoC5/RS485_Sensor.c ****     *  MSB contains status and LSB contains UART RX data. If the MSB is nonzero,
 628:Generated_Source\PSoC5/RS485_Sensor.c ****     *  an error has occurred.
 629:Generated_Source\PSoC5/RS485_Sensor.c ****     *
 630:Generated_Source\PSoC5/RS485_Sensor.c ****     * Reentrant:
 631:Generated_Source\PSoC5/RS485_Sensor.c ****     *  No.
 632:Generated_Source\PSoC5/RS485_Sensor.c ****     *
 633:Generated_Source\PSoC5/RS485_Sensor.c ****     *******************************************************************************/
 634:Generated_Source\PSoC5/RS485_Sensor.c ****     uint16 RS485_Sensor_GetByte(void) 
 635:Generated_Source\PSoC5/RS485_Sensor.c ****     {
 577              		.loc 1 635 0
 578              		.cfi_startproc
 579              		@ args = 0, pretend = 0, frame = 0
 580              		@ frame_needed = 0, uses_anonymous_args = 0
 581 0000 10B5     		push	{r4, lr}
 582              		.cfi_def_cfa_offset 8
 583              		.cfi_offset 4, -8
 584              		.cfi_offset 14, -4
 636:Generated_Source\PSoC5/RS485_Sensor.c ****         
 637:Generated_Source\PSoC5/RS485_Sensor.c ****     #if (RS485_Sensor_RX_INTERRUPT_ENABLED)
 638:Generated_Source\PSoC5/RS485_Sensor.c ****         uint16 locErrorStatus;
 639:Generated_Source\PSoC5/RS485_Sensor.c ****         /* Protect variables that could change on interrupt */
 640:Generated_Source\PSoC5/RS485_Sensor.c ****         RS485_Sensor_DisableRxInt();
 585              		.loc 1 640 0
 586 0002 074A     		ldr	r2, .L50
 587 0004 0423     		movs	r3, #4
 588 0006 1360     		str	r3, [r2]
 641:Generated_Source\PSoC5/RS485_Sensor.c ****         locErrorStatus = (uint16)RS485_Sensor_errorStatus;
ARM GAS  C:\Users\IroTeam\AppData\Local\Temp\ccGexqi8.s 			page 23


 589              		.loc 1 641 0
 590 0008 064A     		ldr	r2, .L50+4
 642:Generated_Source\PSoC5/RS485_Sensor.c ****         RS485_Sensor_errorStatus = 0u;
 591              		.loc 1 642 0
 592 000a 0021     		movs	r1, #0
 641:Generated_Source\PSoC5/RS485_Sensor.c ****         locErrorStatus = (uint16)RS485_Sensor_errorStatus;
 593              		.loc 1 641 0
 594 000c 1478     		ldrb	r4, [r2]	@ zero_extendqisi2
 595              	.LVL40:
 596              		.loc 1 642 0
 597 000e 1170     		strb	r1, [r2]
 643:Generated_Source\PSoC5/RS485_Sensor.c ****         RS485_Sensor_EnableRxInt();
 598              		.loc 1 643 0
 599 0010 054A     		ldr	r2, .L50+8
 600 0012 1360     		str	r3, [r2]
 644:Generated_Source\PSoC5/RS485_Sensor.c ****         return ( (uint16)(locErrorStatus << 8u) | RS485_Sensor_ReadRxData() );
 601              		.loc 1 644 0
 602 0014 FFF7FEFF 		bl	RS485_Sensor_ReadRxData
 603              	.LVL41:
 604 0018 40EA0420 		orr	r0, r0, r4, lsl #8
 645:Generated_Source\PSoC5/RS485_Sensor.c ****     #else
 646:Generated_Source\PSoC5/RS485_Sensor.c ****         return ( ((uint16)RS485_Sensor_ReadRxStatus() << 8u) | RS485_Sensor_ReadRxData() );
 647:Generated_Source\PSoC5/RS485_Sensor.c ****     #endif /* RS485_Sensor_RX_INTERRUPT_ENABLED */
 648:Generated_Source\PSoC5/RS485_Sensor.c ****         
 649:Generated_Source\PSoC5/RS485_Sensor.c ****     }
 605              		.loc 1 649 0
 606 001c 80B2     		uxth	r0, r0
 607 001e 10BD     		pop	{r4, pc}
 608              	.LVL42:
 609              	.L51:
 610              		.align	2
 611              	.L50:
 612 0020 80E100E0 		.word	-536813184
 613 0024 00000000 		.word	.LANCHOR0
 614 0028 00E100E0 		.word	-536813312
 615              		.cfi_endproc
 616              	.LFE10:
 617              		.size	RS485_Sensor_GetByte, .-RS485_Sensor_GetByte
 618              		.section	.text.RS485_Sensor_GetRxBufferSize,"ax",%progbits
 619              		.align	1
 620              		.global	RS485_Sensor_GetRxBufferSize
 621              		.thumb
 622              		.thumb_func
 623              		.type	RS485_Sensor_GetRxBufferSize, %function
 624              	RS485_Sensor_GetRxBufferSize:
 625              	.LFB11:
 650:Generated_Source\PSoC5/RS485_Sensor.c **** 
 651:Generated_Source\PSoC5/RS485_Sensor.c **** 
 652:Generated_Source\PSoC5/RS485_Sensor.c ****     /*******************************************************************************
 653:Generated_Source\PSoC5/RS485_Sensor.c ****     * Function Name: RS485_Sensor_GetRxBufferSize
 654:Generated_Source\PSoC5/RS485_Sensor.c ****     ********************************************************************************
 655:Generated_Source\PSoC5/RS485_Sensor.c ****     *
 656:Generated_Source\PSoC5/RS485_Sensor.c ****     * Summary:
 657:Generated_Source\PSoC5/RS485_Sensor.c ****     *  Returns the number of received bytes available in the RX buffer.
 658:Generated_Source\PSoC5/RS485_Sensor.c ****     *  * RX software buffer is disabled (RX Buffer Size parameter is equal to 4): 
 659:Generated_Source\PSoC5/RS485_Sensor.c ****     *    returns 0 for empty RX FIFO or 1 for not empty RX FIFO.
 660:Generated_Source\PSoC5/RS485_Sensor.c ****     *  * RX software buffer is enabled: returns the number of bytes available in 
ARM GAS  C:\Users\IroTeam\AppData\Local\Temp\ccGexqi8.s 			page 24


 661:Generated_Source\PSoC5/RS485_Sensor.c ****     *    the RX software buffer. Bytes available in the RX FIFO do not take to 
 662:Generated_Source\PSoC5/RS485_Sensor.c ****     *    account.
 663:Generated_Source\PSoC5/RS485_Sensor.c ****     *
 664:Generated_Source\PSoC5/RS485_Sensor.c ****     * Parameters:
 665:Generated_Source\PSoC5/RS485_Sensor.c ****     *  None.
 666:Generated_Source\PSoC5/RS485_Sensor.c ****     *
 667:Generated_Source\PSoC5/RS485_Sensor.c ****     * Return:
 668:Generated_Source\PSoC5/RS485_Sensor.c ****     *  uint16: Number of bytes in the RX buffer. 
 669:Generated_Source\PSoC5/RS485_Sensor.c ****     *    Return value type depends on RX Buffer Size parameter.
 670:Generated_Source\PSoC5/RS485_Sensor.c ****     *
 671:Generated_Source\PSoC5/RS485_Sensor.c ****     * Global Variables:
 672:Generated_Source\PSoC5/RS485_Sensor.c ****     *  RS485_Sensor_rxBufferWrite - used to calculate left bytes.
 673:Generated_Source\PSoC5/RS485_Sensor.c ****     *  RS485_Sensor_rxBufferRead - used to calculate left bytes.
 674:Generated_Source\PSoC5/RS485_Sensor.c ****     *  RS485_Sensor_rxBufferLoopDetect - checked to decide left bytes amount.
 675:Generated_Source\PSoC5/RS485_Sensor.c ****     *
 676:Generated_Source\PSoC5/RS485_Sensor.c ****     * Reentrant:
 677:Generated_Source\PSoC5/RS485_Sensor.c ****     *  No.
 678:Generated_Source\PSoC5/RS485_Sensor.c ****     *
 679:Generated_Source\PSoC5/RS485_Sensor.c ****     * Theory:
 680:Generated_Source\PSoC5/RS485_Sensor.c ****     *  Allows the user to find out how full the RX Buffer is.
 681:Generated_Source\PSoC5/RS485_Sensor.c ****     *
 682:Generated_Source\PSoC5/RS485_Sensor.c ****     *******************************************************************************/
 683:Generated_Source\PSoC5/RS485_Sensor.c ****     uint16 RS485_Sensor_GetRxBufferSize(void)
 684:Generated_Source\PSoC5/RS485_Sensor.c ****                                                             
 685:Generated_Source\PSoC5/RS485_Sensor.c ****     {
 626              		.loc 1 685 0
 627              		.cfi_startproc
 628              		@ args = 0, pretend = 0, frame = 0
 629              		@ frame_needed = 0, uses_anonymous_args = 0
 630              		@ link register save eliminated.
 686:Generated_Source\PSoC5/RS485_Sensor.c ****         uint16 size;
 687:Generated_Source\PSoC5/RS485_Sensor.c **** 
 688:Generated_Source\PSoC5/RS485_Sensor.c ****     #if (RS485_Sensor_RX_INTERRUPT_ENABLED)
 689:Generated_Source\PSoC5/RS485_Sensor.c **** 
 690:Generated_Source\PSoC5/RS485_Sensor.c ****         /* Protect variables that could change on interrupt */
 691:Generated_Source\PSoC5/RS485_Sensor.c ****         RS485_Sensor_DisableRxInt();
 631              		.loc 1 691 0
 632 0000 124B     		ldr	r3, .L58
 633 0002 0422     		movs	r2, #4
 634 0004 1A60     		str	r2, [r3]
 692:Generated_Source\PSoC5/RS485_Sensor.c **** 
 693:Generated_Source\PSoC5/RS485_Sensor.c ****         if(RS485_Sensor_rxBufferRead == RS485_Sensor_rxBufferWrite)
 635              		.loc 1 693 0
 636 0006 124A     		ldr	r2, .L58+4
 637 0008 5188     		ldrh	r1, [r2, #2]
 638 000a 9388     		ldrh	r3, [r2, #4]
 639 000c 89B2     		uxth	r1, r1
 640 000e 9BB2     		uxth	r3, r3
 641 0010 9942     		cmp	r1, r3
 642 0012 06D1     		bne	.L53
 694:Generated_Source\PSoC5/RS485_Sensor.c ****         {
 695:Generated_Source\PSoC5/RS485_Sensor.c ****             if(RS485_Sensor_rxBufferLoopDetect != 0u)
 643              		.loc 1 695 0
 644 0014 9379     		ldrb	r3, [r2, #6]	@ zero_extendqisi2
 645 0016 002B     		cmp	r3, #0
 696:Generated_Source\PSoC5/RS485_Sensor.c ****             {
 697:Generated_Source\PSoC5/RS485_Sensor.c ****                 size = RS485_Sensor_RX_BUFFER_SIZE;
ARM GAS  C:\Users\IroTeam\AppData\Local\Temp\ccGexqi8.s 			page 25


 698:Generated_Source\PSoC5/RS485_Sensor.c ****             }
 699:Generated_Source\PSoC5/RS485_Sensor.c ****             else
 700:Generated_Source\PSoC5/RS485_Sensor.c ****             {
 701:Generated_Source\PSoC5/RS485_Sensor.c ****                 size = 0u;
 646              		.loc 1 701 0
 647 0018 14BF     		ite	ne
 648 001a 4FF48070 		movne	r0, #256
 649 001e 0020     		moveq	r0, #0
 650 0020 10E0     		b	.L54
 651              	.L53:
 702:Generated_Source\PSoC5/RS485_Sensor.c ****             }
 703:Generated_Source\PSoC5/RS485_Sensor.c ****         }
 704:Generated_Source\PSoC5/RS485_Sensor.c ****         else if(RS485_Sensor_rxBufferRead < RS485_Sensor_rxBufferWrite)
 652              		.loc 1 704 0
 653 0022 5188     		ldrh	r1, [r2, #2]
 654 0024 9388     		ldrh	r3, [r2, #4]
 655 0026 89B2     		uxth	r1, r1
 656 0028 9BB2     		uxth	r3, r3
 657 002a 9942     		cmp	r1, r3
 705:Generated_Source\PSoC5/RS485_Sensor.c ****         {
 706:Generated_Source\PSoC5/RS485_Sensor.c ****             size = (RS485_Sensor_rxBufferWrite - RS485_Sensor_rxBufferRead);
 707:Generated_Source\PSoC5/RS485_Sensor.c ****         }
 708:Generated_Source\PSoC5/RS485_Sensor.c ****         else
 709:Generated_Source\PSoC5/RS485_Sensor.c ****         {
 710:Generated_Source\PSoC5/RS485_Sensor.c ****             size = (RS485_Sensor_RX_BUFFER_SIZE - RS485_Sensor_rxBufferRead) + RS485_Sensor_rxBuffe
 658              		.loc 1 710 0
 659 002c 2BBF     		itete	cs
 660 002e 9088     		ldrhcs	r0, [r2, #4]
 706:Generated_Source\PSoC5/RS485_Sensor.c ****         }
 661              		.loc 1 706 0
 662 0030 9388     		ldrhcc	r3, [r2, #4]
 663              		.loc 1 710 0
 664 0032 80B2     		uxthcs	r0, r0
 706:Generated_Source\PSoC5/RS485_Sensor.c ****         }
 665              		.loc 1 706 0
 666 0034 5088     		ldrhcc	r0, [r2, #2]
 667              		.loc 1 710 0
 668 0036 25BF     		ittet	cs
 669 0038 5388     		ldrhcs	r3, [r2, #2]
 670 003a 00F58070 		addcs	r0, r0, #256
 706:Generated_Source\PSoC5/RS485_Sensor.c ****         }
 671              		.loc 1 706 0
 672 003e 181A     		subcc	r0, r3, r0
 673              		.loc 1 710 0
 674 0040 C01A     		subcs	r0, r0, r3
 675 0042 80B2     		uxth	r0, r0
 676              	.LVL43:
 677              	.L54:
 711:Generated_Source\PSoC5/RS485_Sensor.c ****         }
 712:Generated_Source\PSoC5/RS485_Sensor.c **** 
 713:Generated_Source\PSoC5/RS485_Sensor.c ****         RS485_Sensor_EnableRxInt();
 678              		.loc 1 713 0
 679 0044 034B     		ldr	r3, .L58+8
 680 0046 0422     		movs	r2, #4
 681 0048 1A60     		str	r2, [r3]
 714:Generated_Source\PSoC5/RS485_Sensor.c **** 
 715:Generated_Source\PSoC5/RS485_Sensor.c ****     #else
ARM GAS  C:\Users\IroTeam\AppData\Local\Temp\ccGexqi8.s 			page 26


 716:Generated_Source\PSoC5/RS485_Sensor.c **** 
 717:Generated_Source\PSoC5/RS485_Sensor.c ****         /* We can only know if there is data in the fifo. */
 718:Generated_Source\PSoC5/RS485_Sensor.c ****         size = ((RS485_Sensor_RXSTATUS_REG & RS485_Sensor_RX_STS_FIFO_NOTEMPTY) != 0u) ? 1u : 0u;
 719:Generated_Source\PSoC5/RS485_Sensor.c **** 
 720:Generated_Source\PSoC5/RS485_Sensor.c ****     #endif /* (RS485_Sensor_RX_INTERRUPT_ENABLED) */
 721:Generated_Source\PSoC5/RS485_Sensor.c **** 
 722:Generated_Source\PSoC5/RS485_Sensor.c ****         return(size);
 723:Generated_Source\PSoC5/RS485_Sensor.c ****     }
 682              		.loc 1 723 0
 683 004a 7047     		bx	lr
 684              	.L59:
 685              		.align	2
 686              	.L58:
 687 004c 80E100E0 		.word	-536813184
 688 0050 00000000 		.word	.LANCHOR0
 689 0054 00E100E0 		.word	-536813312
 690              		.cfi_endproc
 691              	.LFE11:
 692              		.size	RS485_Sensor_GetRxBufferSize, .-RS485_Sensor_GetRxBufferSize
 693              		.section	.text.RS485_Sensor_ClearRxBuffer,"ax",%progbits
 694              		.align	1
 695              		.global	RS485_Sensor_ClearRxBuffer
 696              		.thumb
 697              		.thumb_func
 698              		.type	RS485_Sensor_ClearRxBuffer, %function
 699              	RS485_Sensor_ClearRxBuffer:
 700              	.LFB12:
 724:Generated_Source\PSoC5/RS485_Sensor.c **** 
 725:Generated_Source\PSoC5/RS485_Sensor.c **** 
 726:Generated_Source\PSoC5/RS485_Sensor.c ****     /*******************************************************************************
 727:Generated_Source\PSoC5/RS485_Sensor.c ****     * Function Name: RS485_Sensor_ClearRxBuffer
 728:Generated_Source\PSoC5/RS485_Sensor.c ****     ********************************************************************************
 729:Generated_Source\PSoC5/RS485_Sensor.c ****     *
 730:Generated_Source\PSoC5/RS485_Sensor.c ****     * Summary:
 731:Generated_Source\PSoC5/RS485_Sensor.c ****     *  Clears the receiver memory buffer and hardware RX FIFO of all received data.
 732:Generated_Source\PSoC5/RS485_Sensor.c ****     *
 733:Generated_Source\PSoC5/RS485_Sensor.c ****     * Parameters:
 734:Generated_Source\PSoC5/RS485_Sensor.c ****     *  None.
 735:Generated_Source\PSoC5/RS485_Sensor.c ****     *
 736:Generated_Source\PSoC5/RS485_Sensor.c ****     * Return:
 737:Generated_Source\PSoC5/RS485_Sensor.c ****     *  None.
 738:Generated_Source\PSoC5/RS485_Sensor.c ****     *
 739:Generated_Source\PSoC5/RS485_Sensor.c ****     * Global Variables:
 740:Generated_Source\PSoC5/RS485_Sensor.c ****     *  RS485_Sensor_rxBufferWrite - cleared to zero.
 741:Generated_Source\PSoC5/RS485_Sensor.c ****     *  RS485_Sensor_rxBufferRead - cleared to zero.
 742:Generated_Source\PSoC5/RS485_Sensor.c ****     *  RS485_Sensor_rxBufferLoopDetect - cleared to zero.
 743:Generated_Source\PSoC5/RS485_Sensor.c ****     *  RS485_Sensor_rxBufferOverflow - cleared to zero.
 744:Generated_Source\PSoC5/RS485_Sensor.c ****     *
 745:Generated_Source\PSoC5/RS485_Sensor.c ****     * Reentrant:
 746:Generated_Source\PSoC5/RS485_Sensor.c ****     *  No.
 747:Generated_Source\PSoC5/RS485_Sensor.c ****     *
 748:Generated_Source\PSoC5/RS485_Sensor.c ****     * Theory:
 749:Generated_Source\PSoC5/RS485_Sensor.c ****     *  Setting the pointers to zero makes the system believe there is no data to
 750:Generated_Source\PSoC5/RS485_Sensor.c ****     *  read and writing will resume at address 0 overwriting any data that may
 751:Generated_Source\PSoC5/RS485_Sensor.c ****     *  have remained in the RAM.
 752:Generated_Source\PSoC5/RS485_Sensor.c ****     *
 753:Generated_Source\PSoC5/RS485_Sensor.c ****     * Side Effects:
ARM GAS  C:\Users\IroTeam\AppData\Local\Temp\ccGexqi8.s 			page 27


 754:Generated_Source\PSoC5/RS485_Sensor.c ****     *  Any received data not read from the RAM or FIFO buffer will be lost.
 755:Generated_Source\PSoC5/RS485_Sensor.c ****     *
 756:Generated_Source\PSoC5/RS485_Sensor.c ****     *******************************************************************************/
 757:Generated_Source\PSoC5/RS485_Sensor.c ****     void RS485_Sensor_ClearRxBuffer(void) 
 758:Generated_Source\PSoC5/RS485_Sensor.c ****     {
 701              		.loc 1 758 0
 702              		.cfi_startproc
 703              		@ args = 0, pretend = 0, frame = 0
 704              		@ frame_needed = 0, uses_anonymous_args = 0
 705 0000 08B5     		push	{r3, lr}
 706              		.cfi_def_cfa_offset 8
 707              		.cfi_offset 3, -8
 708              		.cfi_offset 14, -4
 759:Generated_Source\PSoC5/RS485_Sensor.c ****         uint8 enableInterrupts;
 760:Generated_Source\PSoC5/RS485_Sensor.c **** 
 761:Generated_Source\PSoC5/RS485_Sensor.c ****         /* Clear the HW FIFO */
 762:Generated_Source\PSoC5/RS485_Sensor.c ****         enableInterrupts = CyEnterCriticalSection();
 709              		.loc 1 762 0
 710 0002 FFF7FEFF 		bl	CyEnterCriticalSection
 711              	.LVL44:
 763:Generated_Source\PSoC5/RS485_Sensor.c ****         RS485_Sensor_RXDATA_AUX_CTL_REG |= (uint8)  RS485_Sensor_RX_FIFO_CLR;
 712              		.loc 1 763 0
 713 0006 0B4B     		ldr	r3, .L61
 714 0008 1A78     		ldrb	r2, [r3]	@ zero_extendqisi2
 715 000a 42F00102 		orr	r2, r2, #1
 716 000e 1A70     		strb	r2, [r3]
 764:Generated_Source\PSoC5/RS485_Sensor.c ****         RS485_Sensor_RXDATA_AUX_CTL_REG &= (uint8) ~RS485_Sensor_RX_FIFO_CLR;
 717              		.loc 1 764 0
 718 0010 1A78     		ldrb	r2, [r3]	@ zero_extendqisi2
 719 0012 02F0FE02 		and	r2, r2, #254
 720 0016 1A70     		strb	r2, [r3]
 765:Generated_Source\PSoC5/RS485_Sensor.c ****         CyExitCriticalSection(enableInterrupts);
 721              		.loc 1 765 0
 722 0018 FFF7FEFF 		bl	CyExitCriticalSection
 723              	.LVL45:
 766:Generated_Source\PSoC5/RS485_Sensor.c **** 
 767:Generated_Source\PSoC5/RS485_Sensor.c ****     #if (RS485_Sensor_RX_INTERRUPT_ENABLED)
 768:Generated_Source\PSoC5/RS485_Sensor.c **** 
 769:Generated_Source\PSoC5/RS485_Sensor.c ****         /* Protect variables that could change on interrupt. */
 770:Generated_Source\PSoC5/RS485_Sensor.c ****         RS485_Sensor_DisableRxInt();
 724              		.loc 1 770 0
 725 001c 064B     		ldr	r3, .L61+4
 726 001e 0421     		movs	r1, #4
 727 0020 1960     		str	r1, [r3]
 771:Generated_Source\PSoC5/RS485_Sensor.c **** 
 772:Generated_Source\PSoC5/RS485_Sensor.c ****         RS485_Sensor_rxBufferRead = 0u;
 728              		.loc 1 772 0
 729 0022 064B     		ldr	r3, .L61+8
 730 0024 0022     		movs	r2, #0
 731 0026 5A80     		strh	r2, [r3, #2]	@ movhi
 773:Generated_Source\PSoC5/RS485_Sensor.c ****         RS485_Sensor_rxBufferWrite = 0u;
 732              		.loc 1 773 0
 733 0028 9A80     		strh	r2, [r3, #4]	@ movhi
 774:Generated_Source\PSoC5/RS485_Sensor.c ****         RS485_Sensor_rxBufferLoopDetect = 0u;
 734              		.loc 1 774 0
 735 002a 9A71     		strb	r2, [r3, #6]
 775:Generated_Source\PSoC5/RS485_Sensor.c ****         RS485_Sensor_rxBufferOverflow = 0u;
ARM GAS  C:\Users\IroTeam\AppData\Local\Temp\ccGexqi8.s 			page 28


 736              		.loc 1 775 0
 737 002c DA71     		strb	r2, [r3, #7]
 776:Generated_Source\PSoC5/RS485_Sensor.c **** 
 777:Generated_Source\PSoC5/RS485_Sensor.c ****         RS485_Sensor_EnableRxInt();
 738              		.loc 1 777 0
 739 002e 044B     		ldr	r3, .L61+12
 740 0030 1960     		str	r1, [r3]
 741 0032 08BD     		pop	{r3, pc}
 742              	.L62:
 743              		.align	2
 744              	.L61:
 745 0034 98640040 		.word	1073767576
 746 0038 80E100E0 		.word	-536813184
 747 003c 00000000 		.word	.LANCHOR0
 748 0040 00E100E0 		.word	-536813312
 749              		.cfi_endproc
 750              	.LFE12:
 751              		.size	RS485_Sensor_ClearRxBuffer, .-RS485_Sensor_ClearRxBuffer
 752              		.section	.text.RS485_Sensor_SetRxAddressMode,"ax",%progbits
 753              		.align	1
 754              		.global	RS485_Sensor_SetRxAddressMode
 755              		.thumb
 756              		.thumb_func
 757              		.type	RS485_Sensor_SetRxAddressMode, %function
 758              	RS485_Sensor_SetRxAddressMode:
 759              	.LFB28:
 760              		.cfi_startproc
 761              		@ args = 0, pretend = 0, frame = 0
 762              		@ frame_needed = 0, uses_anonymous_args = 0
 763              		@ link register save eliminated.
 764 0000 7047     		bx	lr
 765              		.cfi_endproc
 766              	.LFE28:
 767              		.size	RS485_Sensor_SetRxAddressMode, .-RS485_Sensor_SetRxAddressMode
 768              		.section	.text.RS485_Sensor_SetRxAddress1,"ax",%progbits
 769              		.align	1
 770              		.global	RS485_Sensor_SetRxAddress1
 771              		.thumb
 772              		.thumb_func
 773              		.type	RS485_Sensor_SetRxAddress1, %function
 774              	RS485_Sensor_SetRxAddress1:
 775              	.LFB14:
 778:Generated_Source\PSoC5/RS485_Sensor.c **** 
 779:Generated_Source\PSoC5/RS485_Sensor.c ****     #endif /* (RS485_Sensor_RX_INTERRUPT_ENABLED) */
 780:Generated_Source\PSoC5/RS485_Sensor.c **** 
 781:Generated_Source\PSoC5/RS485_Sensor.c ****     }
 782:Generated_Source\PSoC5/RS485_Sensor.c **** 
 783:Generated_Source\PSoC5/RS485_Sensor.c **** 
 784:Generated_Source\PSoC5/RS485_Sensor.c ****     /*******************************************************************************
 785:Generated_Source\PSoC5/RS485_Sensor.c ****     * Function Name: RS485_Sensor_SetRxAddressMode
 786:Generated_Source\PSoC5/RS485_Sensor.c ****     ********************************************************************************
 787:Generated_Source\PSoC5/RS485_Sensor.c ****     *
 788:Generated_Source\PSoC5/RS485_Sensor.c ****     * Summary:
 789:Generated_Source\PSoC5/RS485_Sensor.c ****     *  Sets the software controlled Addressing mode used by the RX portion of the
 790:Generated_Source\PSoC5/RS485_Sensor.c ****     *  UART.
 791:Generated_Source\PSoC5/RS485_Sensor.c ****     *
 792:Generated_Source\PSoC5/RS485_Sensor.c ****     * Parameters:
ARM GAS  C:\Users\IroTeam\AppData\Local\Temp\ccGexqi8.s 			page 29


 793:Generated_Source\PSoC5/RS485_Sensor.c ****     *  addressMode: Enumerated value indicating the mode of RX addressing
 794:Generated_Source\PSoC5/RS485_Sensor.c ****     *  RS485_Sensor__B_UART__AM_SW_BYTE_BYTE -  Software Byte-by-Byte address
 795:Generated_Source\PSoC5/RS485_Sensor.c ****     *                                               detection
 796:Generated_Source\PSoC5/RS485_Sensor.c ****     *  RS485_Sensor__B_UART__AM_SW_DETECT_TO_BUFFER - Software Detect to Buffer
 797:Generated_Source\PSoC5/RS485_Sensor.c ****     *                                               address detection
 798:Generated_Source\PSoC5/RS485_Sensor.c ****     *  RS485_Sensor__B_UART__AM_HW_BYTE_BY_BYTE - Hardware Byte-by-Byte address
 799:Generated_Source\PSoC5/RS485_Sensor.c ****     *                                               detection
 800:Generated_Source\PSoC5/RS485_Sensor.c ****     *  RS485_Sensor__B_UART__AM_HW_DETECT_TO_BUFFER - Hardware Detect to Buffer
 801:Generated_Source\PSoC5/RS485_Sensor.c ****     *                                               address detection
 802:Generated_Source\PSoC5/RS485_Sensor.c ****     *  RS485_Sensor__B_UART__AM_NONE - No address detection
 803:Generated_Source\PSoC5/RS485_Sensor.c ****     *
 804:Generated_Source\PSoC5/RS485_Sensor.c ****     * Return:
 805:Generated_Source\PSoC5/RS485_Sensor.c ****     *  None.
 806:Generated_Source\PSoC5/RS485_Sensor.c ****     *
 807:Generated_Source\PSoC5/RS485_Sensor.c ****     * Global Variables:
 808:Generated_Source\PSoC5/RS485_Sensor.c ****     *  RS485_Sensor_rxAddressMode - the parameter stored in this variable for
 809:Generated_Source\PSoC5/RS485_Sensor.c ****     *   the farther usage in RX ISR.
 810:Generated_Source\PSoC5/RS485_Sensor.c ****     *  RS485_Sensor_rxAddressDetected - set to initial state (0).
 811:Generated_Source\PSoC5/RS485_Sensor.c ****     *
 812:Generated_Source\PSoC5/RS485_Sensor.c ****     *******************************************************************************/
 813:Generated_Source\PSoC5/RS485_Sensor.c ****     void RS485_Sensor_SetRxAddressMode(uint8 addressMode)
 814:Generated_Source\PSoC5/RS485_Sensor.c ****                                                         
 815:Generated_Source\PSoC5/RS485_Sensor.c ****     {
 816:Generated_Source\PSoC5/RS485_Sensor.c ****         #if(RS485_Sensor_RXHW_ADDRESS_ENABLED)
 817:Generated_Source\PSoC5/RS485_Sensor.c ****             #if(RS485_Sensor_CONTROL_REG_REMOVED)
 818:Generated_Source\PSoC5/RS485_Sensor.c ****                 if(0u != addressMode)
 819:Generated_Source\PSoC5/RS485_Sensor.c ****                 {
 820:Generated_Source\PSoC5/RS485_Sensor.c ****                     /* Suppress compiler warning */
 821:Generated_Source\PSoC5/RS485_Sensor.c ****                 }
 822:Generated_Source\PSoC5/RS485_Sensor.c ****             #else /* RS485_Sensor_CONTROL_REG_REMOVED */
 823:Generated_Source\PSoC5/RS485_Sensor.c ****                 uint8 tmpCtrl;
 824:Generated_Source\PSoC5/RS485_Sensor.c ****                 tmpCtrl = RS485_Sensor_CONTROL_REG & (uint8)~RS485_Sensor_CTRL_RXADDR_MODE_MASK;
 825:Generated_Source\PSoC5/RS485_Sensor.c ****                 tmpCtrl |= (uint8)(addressMode << RS485_Sensor_CTRL_RXADDR_MODE0_SHIFT);
 826:Generated_Source\PSoC5/RS485_Sensor.c ****                 RS485_Sensor_CONTROL_REG = tmpCtrl;
 827:Generated_Source\PSoC5/RS485_Sensor.c **** 
 828:Generated_Source\PSoC5/RS485_Sensor.c ****                 #if(RS485_Sensor_RX_INTERRUPT_ENABLED && \
 829:Generated_Source\PSoC5/RS485_Sensor.c ****                    (RS485_Sensor_RXBUFFERSIZE > RS485_Sensor_FIFO_LENGTH) )
 830:Generated_Source\PSoC5/RS485_Sensor.c ****                     RS485_Sensor_rxAddressMode = addressMode;
 831:Generated_Source\PSoC5/RS485_Sensor.c ****                     RS485_Sensor_rxAddressDetected = 0u;
 832:Generated_Source\PSoC5/RS485_Sensor.c ****                 #endif /* End RS485_Sensor_RXBUFFERSIZE > RS485_Sensor_FIFO_LENGTH*/
 833:Generated_Source\PSoC5/RS485_Sensor.c ****             #endif /* End RS485_Sensor_CONTROL_REG_REMOVED */
 834:Generated_Source\PSoC5/RS485_Sensor.c ****         #else /* RS485_Sensor_RXHW_ADDRESS_ENABLED */
 835:Generated_Source\PSoC5/RS485_Sensor.c ****             if(0u != addressMode)
 836:Generated_Source\PSoC5/RS485_Sensor.c ****             {
 837:Generated_Source\PSoC5/RS485_Sensor.c ****                 /* Suppress compiler warning */
 838:Generated_Source\PSoC5/RS485_Sensor.c ****             }
 839:Generated_Source\PSoC5/RS485_Sensor.c ****         #endif /* End RS485_Sensor_RXHW_ADDRESS_ENABLED */
 840:Generated_Source\PSoC5/RS485_Sensor.c ****     }
 841:Generated_Source\PSoC5/RS485_Sensor.c **** 
 842:Generated_Source\PSoC5/RS485_Sensor.c **** 
 843:Generated_Source\PSoC5/RS485_Sensor.c ****     /*******************************************************************************
 844:Generated_Source\PSoC5/RS485_Sensor.c ****     * Function Name: RS485_Sensor_SetRxAddress1
 845:Generated_Source\PSoC5/RS485_Sensor.c ****     ********************************************************************************
 846:Generated_Source\PSoC5/RS485_Sensor.c ****     *
 847:Generated_Source\PSoC5/RS485_Sensor.c ****     * Summary:
 848:Generated_Source\PSoC5/RS485_Sensor.c ****     *  Sets the first of two hardware-detectable receiver addresses.
 849:Generated_Source\PSoC5/RS485_Sensor.c ****     *
ARM GAS  C:\Users\IroTeam\AppData\Local\Temp\ccGexqi8.s 			page 30


 850:Generated_Source\PSoC5/RS485_Sensor.c ****     * Parameters:
 851:Generated_Source\PSoC5/RS485_Sensor.c ****     *  address: Address #1 for hardware address detection.
 852:Generated_Source\PSoC5/RS485_Sensor.c ****     *
 853:Generated_Source\PSoC5/RS485_Sensor.c ****     * Return:
 854:Generated_Source\PSoC5/RS485_Sensor.c ****     *  None.
 855:Generated_Source\PSoC5/RS485_Sensor.c ****     *
 856:Generated_Source\PSoC5/RS485_Sensor.c ****     *******************************************************************************/
 857:Generated_Source\PSoC5/RS485_Sensor.c ****     void RS485_Sensor_SetRxAddress1(uint8 address) 
 858:Generated_Source\PSoC5/RS485_Sensor.c ****     {
 776              		.loc 1 858 0
 777              		.cfi_startproc
 778              		@ args = 0, pretend = 0, frame = 0
 779              		@ frame_needed = 0, uses_anonymous_args = 0
 780              		@ link register save eliminated.
 781              	.LVL46:
 859:Generated_Source\PSoC5/RS485_Sensor.c ****         RS485_Sensor_RXADDRESS1_REG = address;
 782              		.loc 1 859 0
 783 0000 014B     		ldr	r3, .L65
 784 0002 1870     		strb	r0, [r3]
 785 0004 7047     		bx	lr
 786              	.L66:
 787 0006 00BF     		.align	2
 788              	.L65:
 789 0008 28640040 		.word	1073767464
 790              		.cfi_endproc
 791              	.LFE14:
 792              		.size	RS485_Sensor_SetRxAddress1, .-RS485_Sensor_SetRxAddress1
 793              		.section	.text.RS485_Sensor_SetRxAddress2,"ax",%progbits
 794              		.align	1
 795              		.global	RS485_Sensor_SetRxAddress2
 796              		.thumb
 797              		.thumb_func
 798              		.type	RS485_Sensor_SetRxAddress2, %function
 799              	RS485_Sensor_SetRxAddress2:
 800              	.LFB15:
 860:Generated_Source\PSoC5/RS485_Sensor.c ****     }
 861:Generated_Source\PSoC5/RS485_Sensor.c **** 
 862:Generated_Source\PSoC5/RS485_Sensor.c **** 
 863:Generated_Source\PSoC5/RS485_Sensor.c ****     /*******************************************************************************
 864:Generated_Source\PSoC5/RS485_Sensor.c ****     * Function Name: RS485_Sensor_SetRxAddress2
 865:Generated_Source\PSoC5/RS485_Sensor.c ****     ********************************************************************************
 866:Generated_Source\PSoC5/RS485_Sensor.c ****     *
 867:Generated_Source\PSoC5/RS485_Sensor.c ****     * Summary:
 868:Generated_Source\PSoC5/RS485_Sensor.c ****     *  Sets the second of two hardware-detectable receiver addresses.
 869:Generated_Source\PSoC5/RS485_Sensor.c ****     *
 870:Generated_Source\PSoC5/RS485_Sensor.c ****     * Parameters:
 871:Generated_Source\PSoC5/RS485_Sensor.c ****     *  address: Address #2 for hardware address detection.
 872:Generated_Source\PSoC5/RS485_Sensor.c ****     *
 873:Generated_Source\PSoC5/RS485_Sensor.c ****     * Return:
 874:Generated_Source\PSoC5/RS485_Sensor.c ****     *  None.
 875:Generated_Source\PSoC5/RS485_Sensor.c ****     *
 876:Generated_Source\PSoC5/RS485_Sensor.c ****     *******************************************************************************/
 877:Generated_Source\PSoC5/RS485_Sensor.c ****     void RS485_Sensor_SetRxAddress2(uint8 address) 
 878:Generated_Source\PSoC5/RS485_Sensor.c ****     {
 801              		.loc 1 878 0
 802              		.cfi_startproc
 803              		@ args = 0, pretend = 0, frame = 0
ARM GAS  C:\Users\IroTeam\AppData\Local\Temp\ccGexqi8.s 			page 31


 804              		@ frame_needed = 0, uses_anonymous_args = 0
 805              		@ link register save eliminated.
 806              	.LVL47:
 879:Generated_Source\PSoC5/RS485_Sensor.c ****         RS485_Sensor_RXADDRESS2_REG = address;
 807              		.loc 1 879 0
 808 0000 014B     		ldr	r3, .L68
 809 0002 1870     		strb	r0, [r3]
 810 0004 7047     		bx	lr
 811              	.L69:
 812 0006 00BF     		.align	2
 813              	.L68:
 814 0008 38640040 		.word	1073767480
 815              		.cfi_endproc
 816              	.LFE15:
 817              		.size	RS485_Sensor_SetRxAddress2, .-RS485_Sensor_SetRxAddress2
 818              		.section	.text.RS485_Sensor_SetTxInterruptMode,"ax",%progbits
 819              		.align	1
 820              		.global	RS485_Sensor_SetTxInterruptMode
 821              		.thumb
 822              		.thumb_func
 823              		.type	RS485_Sensor_SetTxInterruptMode, %function
 824              	RS485_Sensor_SetTxInterruptMode:
 825              	.LFB16:
 880:Generated_Source\PSoC5/RS485_Sensor.c ****     }
 881:Generated_Source\PSoC5/RS485_Sensor.c **** 
 882:Generated_Source\PSoC5/RS485_Sensor.c **** #endif  /* RS485_Sensor_RX_ENABLED || RS485_Sensor_HD_ENABLED*/
 883:Generated_Source\PSoC5/RS485_Sensor.c **** 
 884:Generated_Source\PSoC5/RS485_Sensor.c **** 
 885:Generated_Source\PSoC5/RS485_Sensor.c **** #if( (RS485_Sensor_TX_ENABLED) || (RS485_Sensor_HD_ENABLED) )
 886:Generated_Source\PSoC5/RS485_Sensor.c ****     /*******************************************************************************
 887:Generated_Source\PSoC5/RS485_Sensor.c ****     * Function Name: RS485_Sensor_SetTxInterruptMode
 888:Generated_Source\PSoC5/RS485_Sensor.c ****     ********************************************************************************
 889:Generated_Source\PSoC5/RS485_Sensor.c ****     *
 890:Generated_Source\PSoC5/RS485_Sensor.c ****     * Summary:
 891:Generated_Source\PSoC5/RS485_Sensor.c ****     *  Configures the TX interrupt sources to be enabled, but does not enable the
 892:Generated_Source\PSoC5/RS485_Sensor.c ****     *  interrupt.
 893:Generated_Source\PSoC5/RS485_Sensor.c ****     *
 894:Generated_Source\PSoC5/RS485_Sensor.c ****     * Parameters:
 895:Generated_Source\PSoC5/RS485_Sensor.c ****     *  intSrc: Bit field containing the TX interrupt sources to enable
 896:Generated_Source\PSoC5/RS485_Sensor.c ****     *   RS485_Sensor_TX_STS_COMPLETE        Interrupt on TX byte complete
 897:Generated_Source\PSoC5/RS485_Sensor.c ****     *   RS485_Sensor_TX_STS_FIFO_EMPTY      Interrupt when TX FIFO is empty
 898:Generated_Source\PSoC5/RS485_Sensor.c ****     *   RS485_Sensor_TX_STS_FIFO_FULL       Interrupt when TX FIFO is full
 899:Generated_Source\PSoC5/RS485_Sensor.c ****     *   RS485_Sensor_TX_STS_FIFO_NOT_FULL   Interrupt when TX FIFO is not full
 900:Generated_Source\PSoC5/RS485_Sensor.c ****     *
 901:Generated_Source\PSoC5/RS485_Sensor.c ****     * Return:
 902:Generated_Source\PSoC5/RS485_Sensor.c ****     *  None.
 903:Generated_Source\PSoC5/RS485_Sensor.c ****     *
 904:Generated_Source\PSoC5/RS485_Sensor.c ****     * Theory:
 905:Generated_Source\PSoC5/RS485_Sensor.c ****     *  Enables the output of specific status bits to the interrupt controller
 906:Generated_Source\PSoC5/RS485_Sensor.c ****     *
 907:Generated_Source\PSoC5/RS485_Sensor.c ****     *******************************************************************************/
 908:Generated_Source\PSoC5/RS485_Sensor.c ****     void RS485_Sensor_SetTxInterruptMode(uint8 intSrc) 
 909:Generated_Source\PSoC5/RS485_Sensor.c ****     {
 826              		.loc 1 909 0
 827              		.cfi_startproc
 828              		@ args = 0, pretend = 0, frame = 0
 829              		@ frame_needed = 0, uses_anonymous_args = 0
ARM GAS  C:\Users\IroTeam\AppData\Local\Temp\ccGexqi8.s 			page 32


 830              		@ link register save eliminated.
 831              	.LVL48:
 910:Generated_Source\PSoC5/RS485_Sensor.c ****         RS485_Sensor_TXSTATUS_MASK_REG = intSrc;
 832              		.loc 1 910 0
 833 0000 014B     		ldr	r3, .L71
 834 0002 1870     		strb	r0, [r3]
 835 0004 7047     		bx	lr
 836              	.L72:
 837 0006 00BF     		.align	2
 838              	.L71:
 839 0008 89640040 		.word	1073767561
 840              		.cfi_endproc
 841              	.LFE16:
 842              		.size	RS485_Sensor_SetTxInterruptMode, .-RS485_Sensor_SetTxInterruptMode
 843              		.section	.text.RS485_Sensor_WriteTxData,"ax",%progbits
 844              		.align	1
 845              		.global	RS485_Sensor_WriteTxData
 846              		.thumb
 847              		.thumb_func
 848              		.type	RS485_Sensor_WriteTxData, %function
 849              	RS485_Sensor_WriteTxData:
 850              	.LFB17:
 911:Generated_Source\PSoC5/RS485_Sensor.c ****     }
 912:Generated_Source\PSoC5/RS485_Sensor.c **** 
 913:Generated_Source\PSoC5/RS485_Sensor.c **** 
 914:Generated_Source\PSoC5/RS485_Sensor.c ****     /*******************************************************************************
 915:Generated_Source\PSoC5/RS485_Sensor.c ****     * Function Name: RS485_Sensor_WriteTxData
 916:Generated_Source\PSoC5/RS485_Sensor.c ****     ********************************************************************************
 917:Generated_Source\PSoC5/RS485_Sensor.c ****     *
 918:Generated_Source\PSoC5/RS485_Sensor.c ****     * Summary:
 919:Generated_Source\PSoC5/RS485_Sensor.c ****     *  Places a byte of data into the transmit buffer to be sent when the bus is
 920:Generated_Source\PSoC5/RS485_Sensor.c ****     *  available without checking the TX status register. You must check status
 921:Generated_Source\PSoC5/RS485_Sensor.c ****     *  separately.
 922:Generated_Source\PSoC5/RS485_Sensor.c ****     *
 923:Generated_Source\PSoC5/RS485_Sensor.c ****     * Parameters:
 924:Generated_Source\PSoC5/RS485_Sensor.c ****     *  txDataByte: data byte
 925:Generated_Source\PSoC5/RS485_Sensor.c ****     *
 926:Generated_Source\PSoC5/RS485_Sensor.c ****     * Return:
 927:Generated_Source\PSoC5/RS485_Sensor.c ****     * None.
 928:Generated_Source\PSoC5/RS485_Sensor.c ****     *
 929:Generated_Source\PSoC5/RS485_Sensor.c ****     * Global Variables:
 930:Generated_Source\PSoC5/RS485_Sensor.c ****     *  RS485_Sensor_txBuffer - RAM buffer pointer for save data for transmission
 931:Generated_Source\PSoC5/RS485_Sensor.c ****     *  RS485_Sensor_txBufferWrite - cyclic index for write to txBuffer,
 932:Generated_Source\PSoC5/RS485_Sensor.c ****     *    incremented after each byte saved to buffer.
 933:Generated_Source\PSoC5/RS485_Sensor.c ****     *  RS485_Sensor_txBufferRead - cyclic index for read from txBuffer,
 934:Generated_Source\PSoC5/RS485_Sensor.c ****     *    checked to identify the condition to write to FIFO directly or to TX buffer
 935:Generated_Source\PSoC5/RS485_Sensor.c ****     *  RS485_Sensor_initVar - checked to identify that the component has been
 936:Generated_Source\PSoC5/RS485_Sensor.c ****     *    initialized.
 937:Generated_Source\PSoC5/RS485_Sensor.c ****     *
 938:Generated_Source\PSoC5/RS485_Sensor.c ****     * Reentrant:
 939:Generated_Source\PSoC5/RS485_Sensor.c ****     *  No.
 940:Generated_Source\PSoC5/RS485_Sensor.c ****     *
 941:Generated_Source\PSoC5/RS485_Sensor.c ****     *******************************************************************************/
 942:Generated_Source\PSoC5/RS485_Sensor.c ****     void RS485_Sensor_WriteTxData(uint8 txDataByte) 
 943:Generated_Source\PSoC5/RS485_Sensor.c ****     {
 851              		.loc 1 943 0
 852              		.cfi_startproc
ARM GAS  C:\Users\IroTeam\AppData\Local\Temp\ccGexqi8.s 			page 33


 853              		@ args = 0, pretend = 0, frame = 0
 854              		@ frame_needed = 0, uses_anonymous_args = 0
 855              	.LVL49:
 856 0000 10B5     		push	{r4, lr}
 857              		.cfi_def_cfa_offset 8
 858              		.cfi_offset 4, -8
 859              		.cfi_offset 14, -4
 944:Generated_Source\PSoC5/RS485_Sensor.c ****         /* If not Initialized then skip this function*/
 945:Generated_Source\PSoC5/RS485_Sensor.c ****         if(RS485_Sensor_initVar != 0u)
 860              		.loc 1 945 0
 861 0002 104B     		ldr	r3, .L81
 862 0004 5978     		ldrb	r1, [r3, #1]	@ zero_extendqisi2
 863 0006 1A46     		mov	r2, r3
 864 0008 D9B1     		cbz	r1, .L73
 946:Generated_Source\PSoC5/RS485_Sensor.c ****         {
 947:Generated_Source\PSoC5/RS485_Sensor.c ****         #if (RS485_Sensor_TX_INTERRUPT_ENABLED)
 948:Generated_Source\PSoC5/RS485_Sensor.c **** 
 949:Generated_Source\PSoC5/RS485_Sensor.c ****             /* Protect variables that could change on interrupt. */
 950:Generated_Source\PSoC5/RS485_Sensor.c ****             RS485_Sensor_DisableTxInt();
 865              		.loc 1 950 0
 866 000a 0F49     		ldr	r1, .L81+4
 867 000c 0824     		movs	r4, #8
 868 000e 0C60     		str	r4, [r1]
 951:Generated_Source\PSoC5/RS485_Sensor.c **** 
 952:Generated_Source\PSoC5/RS485_Sensor.c ****             if( (RS485_Sensor_txBufferRead == RS485_Sensor_txBufferWrite) &&
 869              		.loc 1 952 0
 870 0010 1989     		ldrh	r1, [r3, #8]
 871 0012 5B89     		ldrh	r3, [r3, #10]
 872 0014 89B2     		uxth	r1, r1
 873 0016 9942     		cmp	r1, r3
 874 0018 06D1     		bne	.L75
 953:Generated_Source\PSoC5/RS485_Sensor.c ****                 ((RS485_Sensor_TXSTATUS_REG & RS485_Sensor_TX_STS_FIFO_FULL) == 0u) )
 875              		.loc 1 953 0 discriminator 1
 876 001a 0C49     		ldr	r1, .L81+8
 877 001c 0978     		ldrb	r1, [r1]	@ zero_extendqisi2
 952:Generated_Source\PSoC5/RS485_Sensor.c ****                 ((RS485_Sensor_TXSTATUS_REG & RS485_Sensor_TX_STS_FIFO_FULL) == 0u) )
 878              		.loc 1 952 0 discriminator 1
 879 001e 4907     		lsls	r1, r1, #29
 880 0020 02D4     		bmi	.L75
 954:Generated_Source\PSoC5/RS485_Sensor.c ****             {
 955:Generated_Source\PSoC5/RS485_Sensor.c ****                 /* Add directly to the FIFO. */
 956:Generated_Source\PSoC5/RS485_Sensor.c ****                 RS485_Sensor_TXDATA_REG = txDataByte;
 881              		.loc 1 956 0
 882 0022 0B4B     		ldr	r3, .L81+12
 883 0024 1870     		strb	r0, [r3]
 884 0026 09E0     		b	.L76
 885              	.L75:
 957:Generated_Source\PSoC5/RS485_Sensor.c ****             }
 958:Generated_Source\PSoC5/RS485_Sensor.c ****             else
 959:Generated_Source\PSoC5/RS485_Sensor.c ****             {
 960:Generated_Source\PSoC5/RS485_Sensor.c ****                 if(RS485_Sensor_txBufferWrite >= RS485_Sensor_TX_BUFFER_SIZE)
 886              		.loc 1 960 0
 887 0028 B3F5006F 		cmp	r3, #2048
 961:Generated_Source\PSoC5/RS485_Sensor.c ****                 {
 962:Generated_Source\PSoC5/RS485_Sensor.c ****                     RS485_Sensor_txBufferWrite = 0u;
 888              		.loc 1 962 0
 889 002c 24BF     		itt	cs
ARM GAS  C:\Users\IroTeam\AppData\Local\Temp\ccGexqi8.s 			page 34


 890 002e 0023     		movcs	r3, #0
 891 0030 5381     		strhcs	r3, [r2, #10]	@ movhi
 963:Generated_Source\PSoC5/RS485_Sensor.c ****                 }
 964:Generated_Source\PSoC5/RS485_Sensor.c **** 
 965:Generated_Source\PSoC5/RS485_Sensor.c ****                 RS485_Sensor_txBuffer[RS485_Sensor_txBufferWrite] = txDataByte;
 892              		.loc 1 965 0
 893 0032 5389     		ldrh	r3, [r2, #10]
 894 0034 0749     		ldr	r1, .L81+16
 895 0036 C854     		strb	r0, [r1, r3]
 966:Generated_Source\PSoC5/RS485_Sensor.c **** 
 967:Generated_Source\PSoC5/RS485_Sensor.c ****                 /* Add to the software buffer. */
 968:Generated_Source\PSoC5/RS485_Sensor.c ****                 RS485_Sensor_txBufferWrite++;
 896              		.loc 1 968 0
 897 0038 0133     		adds	r3, r3, #1
 898 003a 5381     		strh	r3, [r2, #10]	@ movhi
 899              	.L76:
 969:Generated_Source\PSoC5/RS485_Sensor.c ****             }
 970:Generated_Source\PSoC5/RS485_Sensor.c **** 
 971:Generated_Source\PSoC5/RS485_Sensor.c ****             RS485_Sensor_EnableTxInt();
 900              		.loc 1 971 0
 901 003c 064B     		ldr	r3, .L81+20
 902 003e 0822     		movs	r2, #8
 903 0040 1A60     		str	r2, [r3]
 904              	.L73:
 905 0042 10BD     		pop	{r4, pc}
 906              	.L82:
 907              		.align	2
 908              	.L81:
 909 0044 00000000 		.word	.LANCHOR0
 910 0048 80E100E0 		.word	-536813184
 911 004c 69640040 		.word	1073767529
 912 0050 4D640040 		.word	1073767501
 913 0054 00000000 		.word	RS485_Sensor_txBuffer
 914 0058 00E100E0 		.word	-536813312
 915              		.cfi_endproc
 916              	.LFE17:
 917              		.size	RS485_Sensor_WriteTxData, .-RS485_Sensor_WriteTxData
 918              		.section	.text.RS485_Sensor_ReadTxStatus,"ax",%progbits
 919              		.align	1
 920              		.global	RS485_Sensor_ReadTxStatus
 921              		.thumb
 922              		.thumb_func
 923              		.type	RS485_Sensor_ReadTxStatus, %function
 924              	RS485_Sensor_ReadTxStatus:
 925              	.LFB18:
 972:Generated_Source\PSoC5/RS485_Sensor.c **** 
 973:Generated_Source\PSoC5/RS485_Sensor.c ****         #else
 974:Generated_Source\PSoC5/RS485_Sensor.c **** 
 975:Generated_Source\PSoC5/RS485_Sensor.c ****             /* Add directly to the FIFO. */
 976:Generated_Source\PSoC5/RS485_Sensor.c ****             RS485_Sensor_TXDATA_REG = txDataByte;
 977:Generated_Source\PSoC5/RS485_Sensor.c **** 
 978:Generated_Source\PSoC5/RS485_Sensor.c ****         #endif /*(RS485_Sensor_TX_INTERRUPT_ENABLED) */
 979:Generated_Source\PSoC5/RS485_Sensor.c ****         }
 980:Generated_Source\PSoC5/RS485_Sensor.c ****     }
 981:Generated_Source\PSoC5/RS485_Sensor.c **** 
 982:Generated_Source\PSoC5/RS485_Sensor.c **** 
 983:Generated_Source\PSoC5/RS485_Sensor.c ****     /*******************************************************************************
ARM GAS  C:\Users\IroTeam\AppData\Local\Temp\ccGexqi8.s 			page 35


 984:Generated_Source\PSoC5/RS485_Sensor.c ****     * Function Name: RS485_Sensor_ReadTxStatus
 985:Generated_Source\PSoC5/RS485_Sensor.c ****     ********************************************************************************
 986:Generated_Source\PSoC5/RS485_Sensor.c ****     *
 987:Generated_Source\PSoC5/RS485_Sensor.c ****     * Summary:
 988:Generated_Source\PSoC5/RS485_Sensor.c ****     *  Reads the status register for the TX portion of the UART.
 989:Generated_Source\PSoC5/RS485_Sensor.c ****     *
 990:Generated_Source\PSoC5/RS485_Sensor.c ****     * Parameters:
 991:Generated_Source\PSoC5/RS485_Sensor.c ****     *  None.
 992:Generated_Source\PSoC5/RS485_Sensor.c ****     *
 993:Generated_Source\PSoC5/RS485_Sensor.c ****     * Return:
 994:Generated_Source\PSoC5/RS485_Sensor.c ****     *  Contents of the status register
 995:Generated_Source\PSoC5/RS485_Sensor.c ****     *
 996:Generated_Source\PSoC5/RS485_Sensor.c ****     * Theory:
 997:Generated_Source\PSoC5/RS485_Sensor.c ****     *  This function reads the TX status register, which is cleared on read.
 998:Generated_Source\PSoC5/RS485_Sensor.c ****     *  It is up to the user to handle all bits in this return value accordingly,
 999:Generated_Source\PSoC5/RS485_Sensor.c ****     *  even if the bit was not enabled as an interrupt source the event happened
1000:Generated_Source\PSoC5/RS485_Sensor.c ****     *  and must be handled accordingly.
1001:Generated_Source\PSoC5/RS485_Sensor.c ****     *
1002:Generated_Source\PSoC5/RS485_Sensor.c ****     *******************************************************************************/
1003:Generated_Source\PSoC5/RS485_Sensor.c ****     uint8 RS485_Sensor_ReadTxStatus(void) 
1004:Generated_Source\PSoC5/RS485_Sensor.c ****     {
 926              		.loc 1 1004 0
 927              		.cfi_startproc
 928              		@ args = 0, pretend = 0, frame = 0
 929              		@ frame_needed = 0, uses_anonymous_args = 0
 930              		@ link register save eliminated.
1005:Generated_Source\PSoC5/RS485_Sensor.c ****         return(RS485_Sensor_TXSTATUS_REG);
 931              		.loc 1 1005 0
 932 0000 014B     		ldr	r3, .L84
 933 0002 1878     		ldrb	r0, [r3]	@ zero_extendqisi2
1006:Generated_Source\PSoC5/RS485_Sensor.c ****     }
 934              		.loc 1 1006 0
 935 0004 7047     		bx	lr
 936              	.L85:
 937 0006 00BF     		.align	2
 938              	.L84:
 939 0008 69640040 		.word	1073767529
 940              		.cfi_endproc
 941              	.LFE18:
 942              		.size	RS485_Sensor_ReadTxStatus, .-RS485_Sensor_ReadTxStatus
 943              		.section	.text.RS485_Sensor_PutChar,"ax",%progbits
 944              		.align	1
 945              		.global	RS485_Sensor_PutChar
 946              		.thumb
 947              		.thumb_func
 948              		.type	RS485_Sensor_PutChar, %function
 949              	RS485_Sensor_PutChar:
 950              	.LFB19:
1007:Generated_Source\PSoC5/RS485_Sensor.c **** 
1008:Generated_Source\PSoC5/RS485_Sensor.c **** 
1009:Generated_Source\PSoC5/RS485_Sensor.c ****     /*******************************************************************************
1010:Generated_Source\PSoC5/RS485_Sensor.c ****     * Function Name: RS485_Sensor_PutChar
1011:Generated_Source\PSoC5/RS485_Sensor.c ****     ********************************************************************************
1012:Generated_Source\PSoC5/RS485_Sensor.c ****     *
1013:Generated_Source\PSoC5/RS485_Sensor.c ****     * Summary:
1014:Generated_Source\PSoC5/RS485_Sensor.c ****     *  Puts a byte of data into the transmit buffer to be sent when the bus is
1015:Generated_Source\PSoC5/RS485_Sensor.c ****     *  available. This is a blocking API that waits until the TX buffer has room to
ARM GAS  C:\Users\IroTeam\AppData\Local\Temp\ccGexqi8.s 			page 36


1016:Generated_Source\PSoC5/RS485_Sensor.c ****     *  hold the data.
1017:Generated_Source\PSoC5/RS485_Sensor.c ****     *
1018:Generated_Source\PSoC5/RS485_Sensor.c ****     * Parameters:
1019:Generated_Source\PSoC5/RS485_Sensor.c ****     *  txDataByte: Byte containing the data to transmit
1020:Generated_Source\PSoC5/RS485_Sensor.c ****     *
1021:Generated_Source\PSoC5/RS485_Sensor.c ****     * Return:
1022:Generated_Source\PSoC5/RS485_Sensor.c ****     *  None.
1023:Generated_Source\PSoC5/RS485_Sensor.c ****     *
1024:Generated_Source\PSoC5/RS485_Sensor.c ****     * Global Variables:
1025:Generated_Source\PSoC5/RS485_Sensor.c ****     *  RS485_Sensor_txBuffer - RAM buffer pointer for save data for transmission
1026:Generated_Source\PSoC5/RS485_Sensor.c ****     *  RS485_Sensor_txBufferWrite - cyclic index for write to txBuffer,
1027:Generated_Source\PSoC5/RS485_Sensor.c ****     *     checked to identify free space in txBuffer and incremented after each byte
1028:Generated_Source\PSoC5/RS485_Sensor.c ****     *     saved to buffer.
1029:Generated_Source\PSoC5/RS485_Sensor.c ****     *  RS485_Sensor_txBufferRead - cyclic index for read from txBuffer,
1030:Generated_Source\PSoC5/RS485_Sensor.c ****     *     checked to identify free space in txBuffer.
1031:Generated_Source\PSoC5/RS485_Sensor.c ****     *  RS485_Sensor_initVar - checked to identify that the component has been
1032:Generated_Source\PSoC5/RS485_Sensor.c ****     *     initialized.
1033:Generated_Source\PSoC5/RS485_Sensor.c ****     *
1034:Generated_Source\PSoC5/RS485_Sensor.c ****     * Reentrant:
1035:Generated_Source\PSoC5/RS485_Sensor.c ****     *  No.
1036:Generated_Source\PSoC5/RS485_Sensor.c ****     *
1037:Generated_Source\PSoC5/RS485_Sensor.c ****     * Theory:
1038:Generated_Source\PSoC5/RS485_Sensor.c ****     *  Allows the user to transmit any byte of data in a single transfer
1039:Generated_Source\PSoC5/RS485_Sensor.c ****     *
1040:Generated_Source\PSoC5/RS485_Sensor.c ****     *******************************************************************************/
1041:Generated_Source\PSoC5/RS485_Sensor.c ****     void RS485_Sensor_PutChar(uint8 txDataByte) 
1042:Generated_Source\PSoC5/RS485_Sensor.c ****     {
 951              		.loc 1 1042 0
 952              		.cfi_startproc
 953              		@ args = 0, pretend = 0, frame = 0
 954              		@ frame_needed = 0, uses_anonymous_args = 0
 955              	.LVL50:
 956 0000 30B5     		push	{r4, r5, lr}
 957              		.cfi_def_cfa_offset 12
 958              		.cfi_offset 4, -12
 959              		.cfi_offset 5, -8
 960              		.cfi_offset 14, -4
1043:Generated_Source\PSoC5/RS485_Sensor.c ****     #if (RS485_Sensor_TX_INTERRUPT_ENABLED)
1044:Generated_Source\PSoC5/RS485_Sensor.c ****         /* The temporary output pointer is used since it takes two instructions
1045:Generated_Source\PSoC5/RS485_Sensor.c ****         *  to increment with a wrap, and we can't risk doing that with the real
1046:Generated_Source\PSoC5/RS485_Sensor.c ****         *  pointer and getting an interrupt in between instructions.
1047:Generated_Source\PSoC5/RS485_Sensor.c ****         */
1048:Generated_Source\PSoC5/RS485_Sensor.c ****         uint16 locTxBufferWrite;
1049:Generated_Source\PSoC5/RS485_Sensor.c ****         uint16 locTxBufferRead;
1050:Generated_Source\PSoC5/RS485_Sensor.c **** 
1051:Generated_Source\PSoC5/RS485_Sensor.c ****         do
1052:Generated_Source\PSoC5/RS485_Sensor.c ****         { /* Block if software buffer is full, so we don't overwrite. */
1053:Generated_Source\PSoC5/RS485_Sensor.c **** 
1054:Generated_Source\PSoC5/RS485_Sensor.c ****         #if ((RS485_Sensor_TX_BUFFER_SIZE > RS485_Sensor_MAX_BYTE_VALUE) && (CY_PSOC3))
1055:Generated_Source\PSoC5/RS485_Sensor.c ****             /* Disable TX interrupt to protect variables from modification */
1056:Generated_Source\PSoC5/RS485_Sensor.c ****             RS485_Sensor_DisableTxInt();
1057:Generated_Source\PSoC5/RS485_Sensor.c ****         #endif /* (RS485_Sensor_TX_BUFFER_SIZE > RS485_Sensor_MAX_BYTE_VALUE) && (CY_PSOC3) */
1058:Generated_Source\PSoC5/RS485_Sensor.c **** 
1059:Generated_Source\PSoC5/RS485_Sensor.c ****             locTxBufferWrite = RS485_Sensor_txBufferWrite;
1060:Generated_Source\PSoC5/RS485_Sensor.c ****             locTxBufferRead  = RS485_Sensor_txBufferRead;
1061:Generated_Source\PSoC5/RS485_Sensor.c **** 
1062:Generated_Source\PSoC5/RS485_Sensor.c ****         #if ((RS485_Sensor_TX_BUFFER_SIZE > RS485_Sensor_MAX_BYTE_VALUE) && (CY_PSOC3))
ARM GAS  C:\Users\IroTeam\AppData\Local\Temp\ccGexqi8.s 			page 37


1063:Generated_Source\PSoC5/RS485_Sensor.c ****             /* Enable interrupt to continue transmission */
1064:Generated_Source\PSoC5/RS485_Sensor.c ****             RS485_Sensor_EnableTxInt();
1065:Generated_Source\PSoC5/RS485_Sensor.c ****         #endif /* (RS485_Sensor_TX_BUFFER_SIZE > RS485_Sensor_MAX_BYTE_VALUE) && (CY_PSOC3) */
1066:Generated_Source\PSoC5/RS485_Sensor.c ****         }
1067:Generated_Source\PSoC5/RS485_Sensor.c ****         while( (locTxBufferWrite < locTxBufferRead) ? (locTxBufferWrite == (locTxBufferRead - 1u)) 
 961              		.loc 1 1067 0
 962 0002 40F2FF75 		movw	r5, #2047
1059:Generated_Source\PSoC5/RS485_Sensor.c ****             locTxBufferRead  = RS485_Sensor_txBufferRead;
 963              		.loc 1 1059 0
 964 0006 144C     		ldr	r4, .L98
 965 0008 6389     		ldrh	r3, [r4, #10]
 966              	.L89:
 967              	.LVL51:
1060:Generated_Source\PSoC5/RS485_Sensor.c **** 
 968              		.loc 1 1060 0
 969 000a 2289     		ldrh	r2, [r4, #8]
 970 000c 92B2     		uxth	r2, r2
 971              	.LVL52:
 972              		.loc 1 1067 0
 973 000e 9342     		cmp	r3, r2
 974 0010 02D2     		bcs	.L87
 975              		.loc 1 1067 0 is_stmt 0 discriminator 1
 976 0012 511E     		subs	r1, r2, #1
 977 0014 9942     		cmp	r1, r3
 978 0016 01E0     		b	.L97
 979              	.L87:
 980              		.loc 1 1067 0 discriminator 2
 981 0018 991A     		subs	r1, r3, r2
 982 001a A942     		cmp	r1, r5
 983              	.L97:
 984 001c 14BF     		ite	ne
 985 001e 0021     		movne	r1, #0
 986 0020 0121     		moveq	r1, #1
1068:Generated_Source\PSoC5/RS485_Sensor.c ****                                 ((locTxBufferWrite - locTxBufferRead) ==
1069:Generated_Source\PSoC5/RS485_Sensor.c ****                                 (uint16)(RS485_Sensor_TX_BUFFER_SIZE - 1u)) );
 987              		.loc 1 1069 0 is_stmt 1 discriminator 2
 988 0022 0029     		cmp	r1, #0
 989 0024 F1D1     		bne	.L89
1070:Generated_Source\PSoC5/RS485_Sensor.c **** 
1071:Generated_Source\PSoC5/RS485_Sensor.c ****         if( (locTxBufferRead == locTxBufferWrite) &&
 990              		.loc 1 1071 0
 991 0026 9342     		cmp	r3, r2
 992 0028 0C4A     		ldr	r2, .L98+4
 993              	.LVL53:
 994 002a 05D1     		bne	.L90
1072:Generated_Source\PSoC5/RS485_Sensor.c ****             ((RS485_Sensor_TXSTATUS_REG & RS485_Sensor_TX_STS_FIFO_FULL) == 0u) )
 995              		.loc 1 1072 0 discriminator 1
 996 002c 1178     		ldrb	r1, [r2]	@ zero_extendqisi2
1071:Generated_Source\PSoC5/RS485_Sensor.c ****             ((RS485_Sensor_TXSTATUS_REG & RS485_Sensor_TX_STS_FIFO_FULL) == 0u) )
 997              		.loc 1 1071 0 discriminator 1
 998 002e 4907     		lsls	r1, r1, #29
 999 0030 02D4     		bmi	.L90
1073:Generated_Source\PSoC5/RS485_Sensor.c ****         {
1074:Generated_Source\PSoC5/RS485_Sensor.c ****             /* Add directly to the FIFO */
1075:Generated_Source\PSoC5/RS485_Sensor.c ****             RS485_Sensor_TXDATA_REG = txDataByte;
 1000              		.loc 1 1075 0
 1001 0032 0B4B     		ldr	r3, .L98+8
ARM GAS  C:\Users\IroTeam\AppData\Local\Temp\ccGexqi8.s 			page 38


 1002 0034 1870     		strb	r0, [r3]
 1003              	.LVL54:
 1004 0036 30BD     		pop	{r4, r5, pc}
 1005              	.LVL55:
 1006              	.L90:
1076:Generated_Source\PSoC5/RS485_Sensor.c ****         }
1077:Generated_Source\PSoC5/RS485_Sensor.c ****         else
1078:Generated_Source\PSoC5/RS485_Sensor.c ****         {
1079:Generated_Source\PSoC5/RS485_Sensor.c ****             if(locTxBufferWrite >= RS485_Sensor_TX_BUFFER_SIZE)
1080:Generated_Source\PSoC5/RS485_Sensor.c ****             {
1081:Generated_Source\PSoC5/RS485_Sensor.c ****                 locTxBufferWrite = 0u;
 1007              		.loc 1 1081 0
 1008 0038 B3F5006F 		cmp	r3, #2048
1082:Generated_Source\PSoC5/RS485_Sensor.c ****             }
1083:Generated_Source\PSoC5/RS485_Sensor.c ****             /* Add to the software buffer. */
1084:Generated_Source\PSoC5/RS485_Sensor.c ****             RS485_Sensor_txBuffer[locTxBufferWrite] = txDataByte;
 1009              		.loc 1 1084 0
 1010 003c 0949     		ldr	r1, .L98+12
1081:Generated_Source\PSoC5/RS485_Sensor.c ****             }
 1011              		.loc 1 1081 0
 1012 003e 28BF     		it	cs
 1013 0040 0023     		movcs	r3, #0
 1014              	.LVL56:
 1015              		.loc 1 1084 0
 1016 0042 C854     		strb	r0, [r1, r3]
 1017              	.LVL57:
1085:Generated_Source\PSoC5/RS485_Sensor.c ****             locTxBufferWrite++;
1086:Generated_Source\PSoC5/RS485_Sensor.c **** 
1087:Generated_Source\PSoC5/RS485_Sensor.c ****             /* Finally, update the real output pointer */
1088:Generated_Source\PSoC5/RS485_Sensor.c ****         #if ((RS485_Sensor_TX_BUFFER_SIZE > RS485_Sensor_MAX_BYTE_VALUE) && (CY_PSOC3))
1089:Generated_Source\PSoC5/RS485_Sensor.c ****             RS485_Sensor_DisableTxInt();
1090:Generated_Source\PSoC5/RS485_Sensor.c ****         #endif /* (RS485_Sensor_TX_BUFFER_SIZE > RS485_Sensor_MAX_BYTE_VALUE) && (CY_PSOC3) */
1091:Generated_Source\PSoC5/RS485_Sensor.c **** 
1092:Generated_Source\PSoC5/RS485_Sensor.c ****             RS485_Sensor_txBufferWrite = locTxBufferWrite;
 1018              		.loc 1 1092 0
 1019 0044 0133     		adds	r3, r3, #1
 1020              	.LVL58:
 1021 0046 6381     		strh	r3, [r4, #10]	@ movhi
1093:Generated_Source\PSoC5/RS485_Sensor.c **** 
1094:Generated_Source\PSoC5/RS485_Sensor.c ****         #if ((RS485_Sensor_TX_BUFFER_SIZE > RS485_Sensor_MAX_BYTE_VALUE) && (CY_PSOC3))
1095:Generated_Source\PSoC5/RS485_Sensor.c ****             RS485_Sensor_EnableTxInt();
1096:Generated_Source\PSoC5/RS485_Sensor.c ****         #endif /* (RS485_Sensor_TX_BUFFER_SIZE > RS485_Sensor_MAX_BYTE_VALUE) && (CY_PSOC3) */
1097:Generated_Source\PSoC5/RS485_Sensor.c **** 
1098:Generated_Source\PSoC5/RS485_Sensor.c ****             if(0u != (RS485_Sensor_TXSTATUS_REG & RS485_Sensor_TX_STS_FIFO_EMPTY))
 1022              		.loc 1 1098 0
 1023 0048 1378     		ldrb	r3, [r2]	@ zero_extendqisi2
 1024              	.LVL59:
 1025 004a 9B07     		lsls	r3, r3, #30
 1026              	.LVL60:
1099:Generated_Source\PSoC5/RS485_Sensor.c ****             {
1100:Generated_Source\PSoC5/RS485_Sensor.c ****                 /* Trigger TX interrupt to send software buffer */
1101:Generated_Source\PSoC5/RS485_Sensor.c ****                 RS485_Sensor_SetPendingTxInt();
 1027              		.loc 1 1101 0
 1028 004c 42BF     		ittt	mi
 1029 004e 064B     		ldrmi	r3, .L98+16
 1030 0050 0822     		movmi	r2, #8
 1031 0052 1A60     		strmi	r2, [r3]
ARM GAS  C:\Users\IroTeam\AppData\Local\Temp\ccGexqi8.s 			page 39


 1032 0054 30BD     		pop	{r4, r5, pc}
 1033              	.L99:
 1034 0056 00BF     		.align	2
 1035              	.L98:
 1036 0058 00000000 		.word	.LANCHOR0
 1037 005c 69640040 		.word	1073767529
 1038 0060 4D640040 		.word	1073767501
 1039 0064 00000000 		.word	RS485_Sensor_txBuffer
 1040 0068 00E200E0 		.word	-536813056
 1041              		.cfi_endproc
 1042              	.LFE19:
 1043              		.size	RS485_Sensor_PutChar, .-RS485_Sensor_PutChar
 1044              		.section	.text.RS485_Sensor_PutString,"ax",%progbits
 1045              		.align	1
 1046              		.global	RS485_Sensor_PutString
 1047              		.thumb
 1048              		.thumb_func
 1049              		.type	RS485_Sensor_PutString, %function
 1050              	RS485_Sensor_PutString:
 1051              	.LFB20:
1102:Generated_Source\PSoC5/RS485_Sensor.c ****             }
1103:Generated_Source\PSoC5/RS485_Sensor.c ****         }
1104:Generated_Source\PSoC5/RS485_Sensor.c **** 
1105:Generated_Source\PSoC5/RS485_Sensor.c ****     #else
1106:Generated_Source\PSoC5/RS485_Sensor.c **** 
1107:Generated_Source\PSoC5/RS485_Sensor.c ****         while((RS485_Sensor_TXSTATUS_REG & RS485_Sensor_TX_STS_FIFO_FULL) != 0u)
1108:Generated_Source\PSoC5/RS485_Sensor.c ****         {
1109:Generated_Source\PSoC5/RS485_Sensor.c ****             /* Wait for room in the FIFO */
1110:Generated_Source\PSoC5/RS485_Sensor.c ****         }
1111:Generated_Source\PSoC5/RS485_Sensor.c **** 
1112:Generated_Source\PSoC5/RS485_Sensor.c ****         /* Add directly to the FIFO */
1113:Generated_Source\PSoC5/RS485_Sensor.c ****         RS485_Sensor_TXDATA_REG = txDataByte;
1114:Generated_Source\PSoC5/RS485_Sensor.c **** 
1115:Generated_Source\PSoC5/RS485_Sensor.c ****     #endif /* RS485_Sensor_TX_INTERRUPT_ENABLED */
1116:Generated_Source\PSoC5/RS485_Sensor.c ****     }
1117:Generated_Source\PSoC5/RS485_Sensor.c **** 
1118:Generated_Source\PSoC5/RS485_Sensor.c **** 
1119:Generated_Source\PSoC5/RS485_Sensor.c ****     /*******************************************************************************
1120:Generated_Source\PSoC5/RS485_Sensor.c ****     * Function Name: RS485_Sensor_PutString
1121:Generated_Source\PSoC5/RS485_Sensor.c ****     ********************************************************************************
1122:Generated_Source\PSoC5/RS485_Sensor.c ****     *
1123:Generated_Source\PSoC5/RS485_Sensor.c ****     * Summary:
1124:Generated_Source\PSoC5/RS485_Sensor.c ****     *  Sends a NULL terminated string to the TX buffer for transmission.
1125:Generated_Source\PSoC5/RS485_Sensor.c ****     *
1126:Generated_Source\PSoC5/RS485_Sensor.c ****     * Parameters:
1127:Generated_Source\PSoC5/RS485_Sensor.c ****     *  string[]: Pointer to the null terminated string array residing in RAM or ROM
1128:Generated_Source\PSoC5/RS485_Sensor.c ****     *
1129:Generated_Source\PSoC5/RS485_Sensor.c ****     * Return:
1130:Generated_Source\PSoC5/RS485_Sensor.c ****     *  None.
1131:Generated_Source\PSoC5/RS485_Sensor.c ****     *
1132:Generated_Source\PSoC5/RS485_Sensor.c ****     * Global Variables:
1133:Generated_Source\PSoC5/RS485_Sensor.c ****     *  RS485_Sensor_initVar - checked to identify that the component has been
1134:Generated_Source\PSoC5/RS485_Sensor.c ****     *     initialized.
1135:Generated_Source\PSoC5/RS485_Sensor.c ****     *
1136:Generated_Source\PSoC5/RS485_Sensor.c ****     * Reentrant:
1137:Generated_Source\PSoC5/RS485_Sensor.c ****     *  No.
1138:Generated_Source\PSoC5/RS485_Sensor.c ****     *
ARM GAS  C:\Users\IroTeam\AppData\Local\Temp\ccGexqi8.s 			page 40


1139:Generated_Source\PSoC5/RS485_Sensor.c ****     * Theory:
1140:Generated_Source\PSoC5/RS485_Sensor.c ****     *  If there is not enough memory in the TX buffer for the entire string, this
1141:Generated_Source\PSoC5/RS485_Sensor.c ****     *  function blocks until the last character of the string is loaded into the
1142:Generated_Source\PSoC5/RS485_Sensor.c ****     *  TX buffer.
1143:Generated_Source\PSoC5/RS485_Sensor.c ****     *
1144:Generated_Source\PSoC5/RS485_Sensor.c ****     *******************************************************************************/
1145:Generated_Source\PSoC5/RS485_Sensor.c ****     void RS485_Sensor_PutString(const char8 string[]) 
1146:Generated_Source\PSoC5/RS485_Sensor.c ****     {
 1052              		.loc 1 1146 0
 1053              		.cfi_startproc
 1054              		@ args = 0, pretend = 0, frame = 0
 1055              		@ frame_needed = 0, uses_anonymous_args = 0
 1056              	.LVL61:
 1057 0000 38B5     		push	{r3, r4, r5, lr}
 1058              		.cfi_def_cfa_offset 16
 1059              		.cfi_offset 3, -16
 1060              		.cfi_offset 4, -12
 1061              		.cfi_offset 5, -8
 1062              		.cfi_offset 14, -4
1147:Generated_Source\PSoC5/RS485_Sensor.c ****         uint16 bufIndex = 0u;
1148:Generated_Source\PSoC5/RS485_Sensor.c **** 
1149:Generated_Source\PSoC5/RS485_Sensor.c ****         /* If not Initialized then skip this function */
1150:Generated_Source\PSoC5/RS485_Sensor.c ****         if(RS485_Sensor_initVar != 0u)
 1063              		.loc 1 1150 0
 1064 0002 064B     		ldr	r3, .L107
1146:Generated_Source\PSoC5/RS485_Sensor.c ****         uint16 bufIndex = 0u;
 1065              		.loc 1 1146 0
 1066 0004 0546     		mov	r5, r0
 1067              		.loc 1 1150 0
 1068 0006 5B78     		ldrb	r3, [r3, #1]	@ zero_extendqisi2
 1069 0008 3BB1     		cbz	r3, .L100
 1070 000a 0024     		movs	r4, #0
 1071              	.LVL62:
 1072              	.L102:
1151:Generated_Source\PSoC5/RS485_Sensor.c ****         {
1152:Generated_Source\PSoC5/RS485_Sensor.c ****             /* This is a blocking function, it will not exit until all data is sent */
1153:Generated_Source\PSoC5/RS485_Sensor.c ****             while(string[bufIndex] != (char8) 0)
 1073              		.loc 1 1153 0
 1074 000c A3B2     		uxth	r3, r4
 1075              	.LVL63:
 1076 000e E85C     		ldrb	r0, [r5, r3]	@ zero_extendqisi2
 1077 0010 0134     		adds	r4, r4, #1
 1078 0012 10B1     		cbz	r0, .L100
1154:Generated_Source\PSoC5/RS485_Sensor.c ****             {
1155:Generated_Source\PSoC5/RS485_Sensor.c ****                 RS485_Sensor_PutChar((uint8)string[bufIndex]);
 1079              		.loc 1 1155 0
 1080 0014 FFF7FEFF 		bl	RS485_Sensor_PutChar
 1081              	.LVL64:
 1082 0018 F8E7     		b	.L102
 1083              	.LVL65:
 1084              	.L100:
 1085 001a 38BD     		pop	{r3, r4, r5, pc}
 1086              	.LVL66:
 1087              	.L108:
 1088              		.align	2
 1089              	.L107:
 1090 001c 00000000 		.word	.LANCHOR0
ARM GAS  C:\Users\IroTeam\AppData\Local\Temp\ccGexqi8.s 			page 41


 1091              		.cfi_endproc
 1092              	.LFE20:
 1093              		.size	RS485_Sensor_PutString, .-RS485_Sensor_PutString
 1094              		.section	.text.RS485_Sensor_PutArray,"ax",%progbits
 1095              		.align	1
 1096              		.global	RS485_Sensor_PutArray
 1097              		.thumb
 1098              		.thumb_func
 1099              		.type	RS485_Sensor_PutArray, %function
 1100              	RS485_Sensor_PutArray:
 1101              	.LFB21:
1156:Generated_Source\PSoC5/RS485_Sensor.c ****                 bufIndex++;
1157:Generated_Source\PSoC5/RS485_Sensor.c ****             }
1158:Generated_Source\PSoC5/RS485_Sensor.c ****         }
1159:Generated_Source\PSoC5/RS485_Sensor.c ****     }
1160:Generated_Source\PSoC5/RS485_Sensor.c **** 
1161:Generated_Source\PSoC5/RS485_Sensor.c **** 
1162:Generated_Source\PSoC5/RS485_Sensor.c ****     /*******************************************************************************
1163:Generated_Source\PSoC5/RS485_Sensor.c ****     * Function Name: RS485_Sensor_PutArray
1164:Generated_Source\PSoC5/RS485_Sensor.c ****     ********************************************************************************
1165:Generated_Source\PSoC5/RS485_Sensor.c ****     *
1166:Generated_Source\PSoC5/RS485_Sensor.c ****     * Summary:
1167:Generated_Source\PSoC5/RS485_Sensor.c ****     *  Places N bytes of data from a memory array into the TX buffer for
1168:Generated_Source\PSoC5/RS485_Sensor.c ****     *  transmission.
1169:Generated_Source\PSoC5/RS485_Sensor.c ****     *
1170:Generated_Source\PSoC5/RS485_Sensor.c ****     * Parameters:
1171:Generated_Source\PSoC5/RS485_Sensor.c ****     *  string[]: Address of the memory array residing in RAM or ROM.
1172:Generated_Source\PSoC5/RS485_Sensor.c ****     *  byteCount: Number of bytes to be transmitted. The type depends on TX Buffer
1173:Generated_Source\PSoC5/RS485_Sensor.c ****     *             Size parameter.
1174:Generated_Source\PSoC5/RS485_Sensor.c ****     *
1175:Generated_Source\PSoC5/RS485_Sensor.c ****     * Return:
1176:Generated_Source\PSoC5/RS485_Sensor.c ****     *  None.
1177:Generated_Source\PSoC5/RS485_Sensor.c ****     *
1178:Generated_Source\PSoC5/RS485_Sensor.c ****     * Global Variables:
1179:Generated_Source\PSoC5/RS485_Sensor.c ****     *  RS485_Sensor_initVar - checked to identify that the component has been
1180:Generated_Source\PSoC5/RS485_Sensor.c ****     *     initialized.
1181:Generated_Source\PSoC5/RS485_Sensor.c ****     *
1182:Generated_Source\PSoC5/RS485_Sensor.c ****     * Reentrant:
1183:Generated_Source\PSoC5/RS485_Sensor.c ****     *  No.
1184:Generated_Source\PSoC5/RS485_Sensor.c ****     *
1185:Generated_Source\PSoC5/RS485_Sensor.c ****     * Theory:
1186:Generated_Source\PSoC5/RS485_Sensor.c ****     *  If there is not enough memory in the TX buffer for the entire string, this
1187:Generated_Source\PSoC5/RS485_Sensor.c ****     *  function blocks until the last character of the string is loaded into the
1188:Generated_Source\PSoC5/RS485_Sensor.c ****     *  TX buffer.
1189:Generated_Source\PSoC5/RS485_Sensor.c ****     *
1190:Generated_Source\PSoC5/RS485_Sensor.c ****     *******************************************************************************/
1191:Generated_Source\PSoC5/RS485_Sensor.c ****     void RS485_Sensor_PutArray(const uint8 string[], uint16 byteCount)
1192:Generated_Source\PSoC5/RS485_Sensor.c ****                                                                     
1193:Generated_Source\PSoC5/RS485_Sensor.c ****     {
 1102              		.loc 1 1193 0
 1103              		.cfi_startproc
 1104              		@ args = 0, pretend = 0, frame = 0
 1105              		@ frame_needed = 0, uses_anonymous_args = 0
 1106              	.LVL67:
 1107 0000 38B5     		push	{r3, r4, r5, lr}
 1108              		.cfi_def_cfa_offset 16
 1109              		.cfi_offset 3, -16
ARM GAS  C:\Users\IroTeam\AppData\Local\Temp\ccGexqi8.s 			page 42


 1110              		.cfi_offset 4, -12
 1111              		.cfi_offset 5, -8
 1112              		.cfi_offset 14, -4
1194:Generated_Source\PSoC5/RS485_Sensor.c ****         uint16 bufIndex = 0u;
1195:Generated_Source\PSoC5/RS485_Sensor.c **** 
1196:Generated_Source\PSoC5/RS485_Sensor.c ****         /* If not Initialized then skip this function */
1197:Generated_Source\PSoC5/RS485_Sensor.c ****         if(RS485_Sensor_initVar != 0u)
 1113              		.loc 1 1197 0
 1114 0002 074B     		ldr	r3, .L114
 1115 0004 5B78     		ldrb	r3, [r3, #1]	@ zero_extendqisi2
 1116 0006 4BB1     		cbz	r3, .L109
 1117 0008 0139     		subs	r1, r1, #1
 1118              	.LVL68:
 1119 000a 451E     		subs	r5, r0, #1
 1120 000c 4418     		adds	r4, r0, r1
 1121              	.LVL69:
 1122              	.L111:
1198:Generated_Source\PSoC5/RS485_Sensor.c ****         {
1199:Generated_Source\PSoC5/RS485_Sensor.c ****             while(bufIndex < byteCount)
 1123              		.loc 1 1199 0
 1124 000e A542     		cmp	r5, r4
 1125 0010 04D0     		beq	.L109
1200:Generated_Source\PSoC5/RS485_Sensor.c ****             {
1201:Generated_Source\PSoC5/RS485_Sensor.c ****                 RS485_Sensor_PutChar(string[bufIndex]);
 1126              		.loc 1 1201 0
 1127 0012 15F8010F 		ldrb	r0, [r5, #1]!	@ zero_extendqisi2
 1128              	.LVL70:
 1129 0016 FFF7FEFF 		bl	RS485_Sensor_PutChar
 1130              	.LVL71:
 1131 001a F8E7     		b	.L111
 1132              	.LVL72:
 1133              	.L109:
 1134 001c 38BD     		pop	{r3, r4, r5, pc}
 1135              	.L115:
 1136 001e 00BF     		.align	2
 1137              	.L114:
 1138 0020 00000000 		.word	.LANCHOR0
 1139              		.cfi_endproc
 1140              	.LFE21:
 1141              		.size	RS485_Sensor_PutArray, .-RS485_Sensor_PutArray
 1142              		.section	.text.RS485_Sensor_PutCRLF,"ax",%progbits
 1143              		.align	1
 1144              		.global	RS485_Sensor_PutCRLF
 1145              		.thumb
 1146              		.thumb_func
 1147              		.type	RS485_Sensor_PutCRLF, %function
 1148              	RS485_Sensor_PutCRLF:
 1149              	.LFB22:
1202:Generated_Source\PSoC5/RS485_Sensor.c ****                 bufIndex++;
1203:Generated_Source\PSoC5/RS485_Sensor.c ****             }
1204:Generated_Source\PSoC5/RS485_Sensor.c ****         }
1205:Generated_Source\PSoC5/RS485_Sensor.c ****     }
1206:Generated_Source\PSoC5/RS485_Sensor.c **** 
1207:Generated_Source\PSoC5/RS485_Sensor.c **** 
1208:Generated_Source\PSoC5/RS485_Sensor.c ****     /*******************************************************************************
1209:Generated_Source\PSoC5/RS485_Sensor.c ****     * Function Name: RS485_Sensor_PutCRLF
1210:Generated_Source\PSoC5/RS485_Sensor.c ****     ********************************************************************************
ARM GAS  C:\Users\IroTeam\AppData\Local\Temp\ccGexqi8.s 			page 43


1211:Generated_Source\PSoC5/RS485_Sensor.c ****     *
1212:Generated_Source\PSoC5/RS485_Sensor.c ****     * Summary:
1213:Generated_Source\PSoC5/RS485_Sensor.c ****     *  Writes a byte of data followed by a carriage return (0x0D) and line feed
1214:Generated_Source\PSoC5/RS485_Sensor.c ****     *  (0x0A) to the transmit buffer.
1215:Generated_Source\PSoC5/RS485_Sensor.c ****     *
1216:Generated_Source\PSoC5/RS485_Sensor.c ****     * Parameters:
1217:Generated_Source\PSoC5/RS485_Sensor.c ****     *  txDataByte: Data byte to transmit before the carriage return and line feed.
1218:Generated_Source\PSoC5/RS485_Sensor.c ****     *
1219:Generated_Source\PSoC5/RS485_Sensor.c ****     * Return:
1220:Generated_Source\PSoC5/RS485_Sensor.c ****     *  None.
1221:Generated_Source\PSoC5/RS485_Sensor.c ****     *
1222:Generated_Source\PSoC5/RS485_Sensor.c ****     * Global Variables:
1223:Generated_Source\PSoC5/RS485_Sensor.c ****     *  RS485_Sensor_initVar - checked to identify that the component has been
1224:Generated_Source\PSoC5/RS485_Sensor.c ****     *     initialized.
1225:Generated_Source\PSoC5/RS485_Sensor.c ****     *
1226:Generated_Source\PSoC5/RS485_Sensor.c ****     * Reentrant:
1227:Generated_Source\PSoC5/RS485_Sensor.c ****     *  No.
1228:Generated_Source\PSoC5/RS485_Sensor.c ****     *
1229:Generated_Source\PSoC5/RS485_Sensor.c ****     *******************************************************************************/
1230:Generated_Source\PSoC5/RS485_Sensor.c ****     void RS485_Sensor_PutCRLF(uint8 txDataByte) 
1231:Generated_Source\PSoC5/RS485_Sensor.c ****     {
 1150              		.loc 1 1231 0
 1151              		.cfi_startproc
 1152              		@ args = 0, pretend = 0, frame = 0
 1153              		@ frame_needed = 0, uses_anonymous_args = 0
 1154              	.LVL73:
 1155 0000 08B5     		push	{r3, lr}
 1156              		.cfi_def_cfa_offset 8
 1157              		.cfi_offset 3, -8
 1158              		.cfi_offset 14, -4
1232:Generated_Source\PSoC5/RS485_Sensor.c ****         /* If not Initialized then skip this function */
1233:Generated_Source\PSoC5/RS485_Sensor.c ****         if(RS485_Sensor_initVar != 0u)
 1159              		.loc 1 1233 0
 1160 0002 074B     		ldr	r3, .L118
 1161 0004 5B78     		ldrb	r3, [r3, #1]	@ zero_extendqisi2
 1162 0006 4BB1     		cbz	r3, .L116
1234:Generated_Source\PSoC5/RS485_Sensor.c ****         {
1235:Generated_Source\PSoC5/RS485_Sensor.c ****             RS485_Sensor_PutChar(txDataByte);
 1163              		.loc 1 1235 0
 1164 0008 FFF7FEFF 		bl	RS485_Sensor_PutChar
 1165              	.LVL74:
1236:Generated_Source\PSoC5/RS485_Sensor.c ****             RS485_Sensor_PutChar(0x0Du);
 1166              		.loc 1 1236 0
 1167 000c 0D20     		movs	r0, #13
 1168 000e FFF7FEFF 		bl	RS485_Sensor_PutChar
 1169              	.LVL75:
1237:Generated_Source\PSoC5/RS485_Sensor.c ****             RS485_Sensor_PutChar(0x0Au);
1238:Generated_Source\PSoC5/RS485_Sensor.c ****         }
1239:Generated_Source\PSoC5/RS485_Sensor.c ****     }
 1170              		.loc 1 1239 0
 1171 0012 BDE80840 		pop	{r3, lr}
 1172              		.cfi_remember_state
 1173              		.cfi_restore 14
 1174              		.cfi_restore 3
 1175              		.cfi_def_cfa_offset 0
1237:Generated_Source\PSoC5/RS485_Sensor.c ****             RS485_Sensor_PutChar(0x0Au);
 1176              		.loc 1 1237 0
ARM GAS  C:\Users\IroTeam\AppData\Local\Temp\ccGexqi8.s 			page 44


 1177 0016 0A20     		movs	r0, #10
 1178 0018 FFF7FEBF 		b	RS485_Sensor_PutChar
 1179              	.LVL76:
 1180              	.L116:
 1181              		.cfi_restore_state
 1182 001c 08BD     		pop	{r3, pc}
 1183              	.L119:
 1184 001e 00BF     		.align	2
 1185              	.L118:
 1186 0020 00000000 		.word	.LANCHOR0
 1187              		.cfi_endproc
 1188              	.LFE22:
 1189              		.size	RS485_Sensor_PutCRLF, .-RS485_Sensor_PutCRLF
 1190              		.section	.text.RS485_Sensor_GetTxBufferSize,"ax",%progbits
 1191              		.align	1
 1192              		.global	RS485_Sensor_GetTxBufferSize
 1193              		.thumb
 1194              		.thumb_func
 1195              		.type	RS485_Sensor_GetTxBufferSize, %function
 1196              	RS485_Sensor_GetTxBufferSize:
 1197              	.LFB23:
1240:Generated_Source\PSoC5/RS485_Sensor.c **** 
1241:Generated_Source\PSoC5/RS485_Sensor.c **** 
1242:Generated_Source\PSoC5/RS485_Sensor.c ****     /*******************************************************************************
1243:Generated_Source\PSoC5/RS485_Sensor.c ****     * Function Name: RS485_Sensor_GetTxBufferSize
1244:Generated_Source\PSoC5/RS485_Sensor.c ****     ********************************************************************************
1245:Generated_Source\PSoC5/RS485_Sensor.c ****     *
1246:Generated_Source\PSoC5/RS485_Sensor.c ****     * Summary:
1247:Generated_Source\PSoC5/RS485_Sensor.c ****     *  Returns the number of bytes in the TX buffer which are waiting to be 
1248:Generated_Source\PSoC5/RS485_Sensor.c ****     *  transmitted.
1249:Generated_Source\PSoC5/RS485_Sensor.c ****     *  * TX software buffer is disabled (TX Buffer Size parameter is equal to 4): 
1250:Generated_Source\PSoC5/RS485_Sensor.c ****     *    returns 0 for empty TX FIFO, 1 for not full TX FIFO or 4 for full TX FIFO.
1251:Generated_Source\PSoC5/RS485_Sensor.c ****     *  * TX software buffer is enabled: returns the number of bytes in the TX 
1252:Generated_Source\PSoC5/RS485_Sensor.c ****     *    software buffer which are waiting to be transmitted. Bytes available in the
1253:Generated_Source\PSoC5/RS485_Sensor.c ****     *    TX FIFO do not count.
1254:Generated_Source\PSoC5/RS485_Sensor.c ****     *
1255:Generated_Source\PSoC5/RS485_Sensor.c ****     * Parameters:
1256:Generated_Source\PSoC5/RS485_Sensor.c ****     *  None.
1257:Generated_Source\PSoC5/RS485_Sensor.c ****     *
1258:Generated_Source\PSoC5/RS485_Sensor.c ****     * Return:
1259:Generated_Source\PSoC5/RS485_Sensor.c ****     *  Number of bytes used in the TX buffer. Return value type depends on the TX 
1260:Generated_Source\PSoC5/RS485_Sensor.c ****     *  Buffer Size parameter.
1261:Generated_Source\PSoC5/RS485_Sensor.c ****     *
1262:Generated_Source\PSoC5/RS485_Sensor.c ****     * Global Variables:
1263:Generated_Source\PSoC5/RS485_Sensor.c ****     *  RS485_Sensor_txBufferWrite - used to calculate left space.
1264:Generated_Source\PSoC5/RS485_Sensor.c ****     *  RS485_Sensor_txBufferRead - used to calculate left space.
1265:Generated_Source\PSoC5/RS485_Sensor.c ****     *
1266:Generated_Source\PSoC5/RS485_Sensor.c ****     * Reentrant:
1267:Generated_Source\PSoC5/RS485_Sensor.c ****     *  No.
1268:Generated_Source\PSoC5/RS485_Sensor.c ****     *
1269:Generated_Source\PSoC5/RS485_Sensor.c ****     * Theory:
1270:Generated_Source\PSoC5/RS485_Sensor.c ****     *  Allows the user to find out how full the TX Buffer is.
1271:Generated_Source\PSoC5/RS485_Sensor.c ****     *
1272:Generated_Source\PSoC5/RS485_Sensor.c ****     *******************************************************************************/
1273:Generated_Source\PSoC5/RS485_Sensor.c ****     uint16 RS485_Sensor_GetTxBufferSize(void)
1274:Generated_Source\PSoC5/RS485_Sensor.c ****                                                             
1275:Generated_Source\PSoC5/RS485_Sensor.c ****     {
ARM GAS  C:\Users\IroTeam\AppData\Local\Temp\ccGexqi8.s 			page 45


 1198              		.loc 1 1275 0
 1199              		.cfi_startproc
 1200              		@ args = 0, pretend = 0, frame = 0
 1201              		@ frame_needed = 0, uses_anonymous_args = 0
 1202              		@ link register save eliminated.
1276:Generated_Source\PSoC5/RS485_Sensor.c ****         uint16 size;
1277:Generated_Source\PSoC5/RS485_Sensor.c **** 
1278:Generated_Source\PSoC5/RS485_Sensor.c ****     #if (RS485_Sensor_TX_INTERRUPT_ENABLED)
1279:Generated_Source\PSoC5/RS485_Sensor.c **** 
1280:Generated_Source\PSoC5/RS485_Sensor.c ****         /* Protect variables that could change on interrupt. */
1281:Generated_Source\PSoC5/RS485_Sensor.c ****         RS485_Sensor_DisableTxInt();
 1203              		.loc 1 1281 0
 1204 0000 0B4B     		ldr	r3, .L125
 1205 0002 0822     		movs	r2, #8
 1206 0004 1A60     		str	r2, [r3]
1282:Generated_Source\PSoC5/RS485_Sensor.c **** 
1283:Generated_Source\PSoC5/RS485_Sensor.c ****         if(RS485_Sensor_txBufferRead == RS485_Sensor_txBufferWrite)
 1207              		.loc 1 1283 0
 1208 0006 0B4A     		ldr	r2, .L125+4
 1209 0008 1189     		ldrh	r1, [r2, #8]
 1210 000a 5389     		ldrh	r3, [r2, #10]
 1211 000c 89B2     		uxth	r1, r1
 1212 000e 9942     		cmp	r1, r3
 1213 0010 09D0     		beq	.L123
1284:Generated_Source\PSoC5/RS485_Sensor.c ****         {
1285:Generated_Source\PSoC5/RS485_Sensor.c ****             size = 0u;
1286:Generated_Source\PSoC5/RS485_Sensor.c ****         }
1287:Generated_Source\PSoC5/RS485_Sensor.c ****         else if(RS485_Sensor_txBufferRead < RS485_Sensor_txBufferWrite)
 1214              		.loc 1 1287 0
 1215 0012 1189     		ldrh	r1, [r2, #8]
1288:Generated_Source\PSoC5/RS485_Sensor.c ****         {
1289:Generated_Source\PSoC5/RS485_Sensor.c ****             size = (RS485_Sensor_txBufferWrite - RS485_Sensor_txBufferRead);
 1216              		.loc 1 1289 0
 1217 0014 1089     		ldrh	r0, [r2, #8]
1287:Generated_Source\PSoC5/RS485_Sensor.c ****         {
 1218              		.loc 1 1287 0
 1219 0016 89B2     		uxth	r1, r1
 1220 0018 8B42     		cmp	r3, r1
1290:Generated_Source\PSoC5/RS485_Sensor.c ****         }
1291:Generated_Source\PSoC5/RS485_Sensor.c ****         else
1292:Generated_Source\PSoC5/RS485_Sensor.c ****         {
1293:Generated_Source\PSoC5/RS485_Sensor.c ****             size = (RS485_Sensor_TX_BUFFER_SIZE - RS485_Sensor_txBufferRead) +
 1221              		.loc 1 1293 0
 1222 001a 98BF     		it	ls
 1223 001c 03F50063 		addls	r3, r3, #2048
 1224 0020 181A     		subs	r0, r3, r0
 1225 0022 80B2     		uxth	r0, r0
 1226              	.LVL77:
 1227 0024 00E0     		b	.L121
 1228              	.LVL78:
 1229              	.L123:
1285:Generated_Source\PSoC5/RS485_Sensor.c ****         }
 1230              		.loc 1 1285 0
 1231 0026 0020     		movs	r0, #0
 1232              	.L121:
 1233              	.LVL79:
1294:Generated_Source\PSoC5/RS485_Sensor.c ****                     RS485_Sensor_txBufferWrite;
ARM GAS  C:\Users\IroTeam\AppData\Local\Temp\ccGexqi8.s 			page 46


1295:Generated_Source\PSoC5/RS485_Sensor.c ****         }
1296:Generated_Source\PSoC5/RS485_Sensor.c **** 
1297:Generated_Source\PSoC5/RS485_Sensor.c ****         RS485_Sensor_EnableTxInt();
 1234              		.loc 1 1297 0
 1235 0028 034B     		ldr	r3, .L125+8
 1236 002a 0822     		movs	r2, #8
 1237 002c 1A60     		str	r2, [r3]
1298:Generated_Source\PSoC5/RS485_Sensor.c **** 
1299:Generated_Source\PSoC5/RS485_Sensor.c ****     #else
1300:Generated_Source\PSoC5/RS485_Sensor.c **** 
1301:Generated_Source\PSoC5/RS485_Sensor.c ****         size = RS485_Sensor_TXSTATUS_REG;
1302:Generated_Source\PSoC5/RS485_Sensor.c **** 
1303:Generated_Source\PSoC5/RS485_Sensor.c ****         /* Is the fifo is full. */
1304:Generated_Source\PSoC5/RS485_Sensor.c ****         if((size & RS485_Sensor_TX_STS_FIFO_FULL) != 0u)
1305:Generated_Source\PSoC5/RS485_Sensor.c ****         {
1306:Generated_Source\PSoC5/RS485_Sensor.c ****             size = RS485_Sensor_FIFO_LENGTH;
1307:Generated_Source\PSoC5/RS485_Sensor.c ****         }
1308:Generated_Source\PSoC5/RS485_Sensor.c ****         else if((size & RS485_Sensor_TX_STS_FIFO_EMPTY) != 0u)
1309:Generated_Source\PSoC5/RS485_Sensor.c ****         {
1310:Generated_Source\PSoC5/RS485_Sensor.c ****             size = 0u;
1311:Generated_Source\PSoC5/RS485_Sensor.c ****         }
1312:Generated_Source\PSoC5/RS485_Sensor.c ****         else
1313:Generated_Source\PSoC5/RS485_Sensor.c ****         {
1314:Generated_Source\PSoC5/RS485_Sensor.c ****             /* We only know there is data in the fifo. */
1315:Generated_Source\PSoC5/RS485_Sensor.c ****             size = 1u;
1316:Generated_Source\PSoC5/RS485_Sensor.c ****         }
1317:Generated_Source\PSoC5/RS485_Sensor.c **** 
1318:Generated_Source\PSoC5/RS485_Sensor.c ****     #endif /* (RS485_Sensor_TX_INTERRUPT_ENABLED) */
1319:Generated_Source\PSoC5/RS485_Sensor.c **** 
1320:Generated_Source\PSoC5/RS485_Sensor.c ****     return(size);
1321:Generated_Source\PSoC5/RS485_Sensor.c ****     }
 1238              		.loc 1 1321 0
 1239 002e 7047     		bx	lr
 1240              	.L126:
 1241              		.align	2
 1242              	.L125:
 1243 0030 80E100E0 		.word	-536813184
 1244 0034 00000000 		.word	.LANCHOR0
 1245 0038 00E100E0 		.word	-536813312
 1246              		.cfi_endproc
 1247              	.LFE23:
 1248              		.size	RS485_Sensor_GetTxBufferSize, .-RS485_Sensor_GetTxBufferSize
 1249              		.section	.text.RS485_Sensor_ClearTxBuffer,"ax",%progbits
 1250              		.align	1
 1251              		.global	RS485_Sensor_ClearTxBuffer
 1252              		.thumb
 1253              		.thumb_func
 1254              		.type	RS485_Sensor_ClearTxBuffer, %function
 1255              	RS485_Sensor_ClearTxBuffer:
 1256              	.LFB24:
1322:Generated_Source\PSoC5/RS485_Sensor.c **** 
1323:Generated_Source\PSoC5/RS485_Sensor.c **** 
1324:Generated_Source\PSoC5/RS485_Sensor.c ****     /*******************************************************************************
1325:Generated_Source\PSoC5/RS485_Sensor.c ****     * Function Name: RS485_Sensor_ClearTxBuffer
1326:Generated_Source\PSoC5/RS485_Sensor.c ****     ********************************************************************************
1327:Generated_Source\PSoC5/RS485_Sensor.c ****     *
1328:Generated_Source\PSoC5/RS485_Sensor.c ****     * Summary:
ARM GAS  C:\Users\IroTeam\AppData\Local\Temp\ccGexqi8.s 			page 47


1329:Generated_Source\PSoC5/RS485_Sensor.c ****     *  Clears all data from the TX buffer and hardware TX FIFO.
1330:Generated_Source\PSoC5/RS485_Sensor.c ****     *
1331:Generated_Source\PSoC5/RS485_Sensor.c ****     * Parameters:
1332:Generated_Source\PSoC5/RS485_Sensor.c ****     *  None.
1333:Generated_Source\PSoC5/RS485_Sensor.c ****     *
1334:Generated_Source\PSoC5/RS485_Sensor.c ****     * Return:
1335:Generated_Source\PSoC5/RS485_Sensor.c ****     *  None.
1336:Generated_Source\PSoC5/RS485_Sensor.c ****     *
1337:Generated_Source\PSoC5/RS485_Sensor.c ****     * Global Variables:
1338:Generated_Source\PSoC5/RS485_Sensor.c ****     *  RS485_Sensor_txBufferWrite - cleared to zero.
1339:Generated_Source\PSoC5/RS485_Sensor.c ****     *  RS485_Sensor_txBufferRead - cleared to zero.
1340:Generated_Source\PSoC5/RS485_Sensor.c ****     *
1341:Generated_Source\PSoC5/RS485_Sensor.c ****     * Reentrant:
1342:Generated_Source\PSoC5/RS485_Sensor.c ****     *  No.
1343:Generated_Source\PSoC5/RS485_Sensor.c ****     *
1344:Generated_Source\PSoC5/RS485_Sensor.c ****     * Theory:
1345:Generated_Source\PSoC5/RS485_Sensor.c ****     *  Setting the pointers to zero makes the system believe there is no data to
1346:Generated_Source\PSoC5/RS485_Sensor.c ****     *  read and writing will resume at address 0 overwriting any data that may have
1347:Generated_Source\PSoC5/RS485_Sensor.c ****     *  remained in the RAM.
1348:Generated_Source\PSoC5/RS485_Sensor.c ****     *
1349:Generated_Source\PSoC5/RS485_Sensor.c ****     * Side Effects:
1350:Generated_Source\PSoC5/RS485_Sensor.c ****     *  Data waiting in the transmit buffer is not sent; a byte that is currently
1351:Generated_Source\PSoC5/RS485_Sensor.c ****     *  transmitting finishes transmitting.
1352:Generated_Source\PSoC5/RS485_Sensor.c ****     *
1353:Generated_Source\PSoC5/RS485_Sensor.c ****     *******************************************************************************/
1354:Generated_Source\PSoC5/RS485_Sensor.c ****     void RS485_Sensor_ClearTxBuffer(void) 
1355:Generated_Source\PSoC5/RS485_Sensor.c ****     {
 1257              		.loc 1 1355 0
 1258              		.cfi_startproc
 1259              		@ args = 0, pretend = 0, frame = 0
 1260              		@ frame_needed = 0, uses_anonymous_args = 0
 1261 0000 08B5     		push	{r3, lr}
 1262              		.cfi_def_cfa_offset 8
 1263              		.cfi_offset 3, -8
 1264              		.cfi_offset 14, -4
1356:Generated_Source\PSoC5/RS485_Sensor.c ****         uint8 enableInterrupts;
1357:Generated_Source\PSoC5/RS485_Sensor.c **** 
1358:Generated_Source\PSoC5/RS485_Sensor.c ****         enableInterrupts = CyEnterCriticalSection();
 1265              		.loc 1 1358 0
 1266 0002 FFF7FEFF 		bl	CyEnterCriticalSection
 1267              	.LVL80:
1359:Generated_Source\PSoC5/RS485_Sensor.c ****         /* Clear the HW FIFO */
1360:Generated_Source\PSoC5/RS485_Sensor.c ****         RS485_Sensor_TXDATA_AUX_CTL_REG |= (uint8)  RS485_Sensor_TX_FIFO_CLR;
 1268              		.loc 1 1360 0
 1269 0006 0A4B     		ldr	r3, .L128
 1270 0008 1A78     		ldrb	r2, [r3]	@ zero_extendqisi2
 1271 000a 42F00102 		orr	r2, r2, #1
 1272 000e 1A70     		strb	r2, [r3]
1361:Generated_Source\PSoC5/RS485_Sensor.c ****         RS485_Sensor_TXDATA_AUX_CTL_REG &= (uint8) ~RS485_Sensor_TX_FIFO_CLR;
 1273              		.loc 1 1361 0
 1274 0010 1A78     		ldrb	r2, [r3]	@ zero_extendqisi2
 1275 0012 02F0FE02 		and	r2, r2, #254
 1276 0016 1A70     		strb	r2, [r3]
1362:Generated_Source\PSoC5/RS485_Sensor.c ****         CyExitCriticalSection(enableInterrupts);
 1277              		.loc 1 1362 0
 1278 0018 FFF7FEFF 		bl	CyExitCriticalSection
 1279              	.LVL81:
ARM GAS  C:\Users\IroTeam\AppData\Local\Temp\ccGexqi8.s 			page 48


1363:Generated_Source\PSoC5/RS485_Sensor.c **** 
1364:Generated_Source\PSoC5/RS485_Sensor.c ****     #if (RS485_Sensor_TX_INTERRUPT_ENABLED)
1365:Generated_Source\PSoC5/RS485_Sensor.c **** 
1366:Generated_Source\PSoC5/RS485_Sensor.c ****         /* Protect variables that could change on interrupt. */
1367:Generated_Source\PSoC5/RS485_Sensor.c ****         RS485_Sensor_DisableTxInt();
 1280              		.loc 1 1367 0
 1281 001c 054A     		ldr	r2, .L128+4
 1282 001e 0823     		movs	r3, #8
 1283 0020 1360     		str	r3, [r2]
1368:Generated_Source\PSoC5/RS485_Sensor.c **** 
1369:Generated_Source\PSoC5/RS485_Sensor.c ****         RS485_Sensor_txBufferRead = 0u;
 1284              		.loc 1 1369 0
 1285 0022 054A     		ldr	r2, .L128+8
 1286 0024 0021     		movs	r1, #0
 1287 0026 1181     		strh	r1, [r2, #8]	@ movhi
1370:Generated_Source\PSoC5/RS485_Sensor.c ****         RS485_Sensor_txBufferWrite = 0u;
 1288              		.loc 1 1370 0
 1289 0028 5181     		strh	r1, [r2, #10]	@ movhi
1371:Generated_Source\PSoC5/RS485_Sensor.c **** 
1372:Generated_Source\PSoC5/RS485_Sensor.c ****         /* Enable Tx interrupt. */
1373:Generated_Source\PSoC5/RS485_Sensor.c ****         RS485_Sensor_EnableTxInt();
 1290              		.loc 1 1373 0
 1291 002a 044A     		ldr	r2, .L128+12
 1292 002c 1360     		str	r3, [r2]
 1293 002e 08BD     		pop	{r3, pc}
 1294              	.L129:
 1295              		.align	2
 1296              	.L128:
 1297 0030 9D640040 		.word	1073767581
 1298 0034 80E100E0 		.word	-536813184
 1299 0038 00000000 		.word	.LANCHOR0
 1300 003c 00E100E0 		.word	-536813312
 1301              		.cfi_endproc
 1302              	.LFE24:
 1303              		.size	RS485_Sensor_ClearTxBuffer, .-RS485_Sensor_ClearTxBuffer
 1304              		.section	.text.RS485_Sensor_SendBreak,"ax",%progbits
 1305              		.align	1
 1306              		.global	RS485_Sensor_SendBreak
 1307              		.thumb
 1308              		.thumb_func
 1309              		.type	RS485_Sensor_SendBreak, %function
 1310              	RS485_Sensor_SendBreak:
 1311              	.LFB25:
1374:Generated_Source\PSoC5/RS485_Sensor.c **** 
1375:Generated_Source\PSoC5/RS485_Sensor.c ****     #endif /* (RS485_Sensor_TX_INTERRUPT_ENABLED) */
1376:Generated_Source\PSoC5/RS485_Sensor.c ****     }
1377:Generated_Source\PSoC5/RS485_Sensor.c **** 
1378:Generated_Source\PSoC5/RS485_Sensor.c **** 
1379:Generated_Source\PSoC5/RS485_Sensor.c ****     /*******************************************************************************
1380:Generated_Source\PSoC5/RS485_Sensor.c ****     * Function Name: RS485_Sensor_SendBreak
1381:Generated_Source\PSoC5/RS485_Sensor.c ****     ********************************************************************************
1382:Generated_Source\PSoC5/RS485_Sensor.c ****     *
1383:Generated_Source\PSoC5/RS485_Sensor.c ****     * Summary:
1384:Generated_Source\PSoC5/RS485_Sensor.c ****     *  Transmits a break signal on the bus.
1385:Generated_Source\PSoC5/RS485_Sensor.c ****     *
1386:Generated_Source\PSoC5/RS485_Sensor.c ****     * Parameters:
1387:Generated_Source\PSoC5/RS485_Sensor.c ****     *  uint8 retMode:  Send Break return mode. See the following table for options.
ARM GAS  C:\Users\IroTeam\AppData\Local\Temp\ccGexqi8.s 			page 49


1388:Generated_Source\PSoC5/RS485_Sensor.c ****     *   RS485_Sensor_SEND_BREAK - Initialize registers for break, send the Break
1389:Generated_Source\PSoC5/RS485_Sensor.c ****     *       signal and return immediately.
1390:Generated_Source\PSoC5/RS485_Sensor.c ****     *   RS485_Sensor_WAIT_FOR_COMPLETE_REINIT - Wait until break transmission is
1391:Generated_Source\PSoC5/RS485_Sensor.c ****     *       complete, reinitialize registers to normal transmission mode then return
1392:Generated_Source\PSoC5/RS485_Sensor.c ****     *   RS485_Sensor_REINIT - Reinitialize registers to normal transmission mode
1393:Generated_Source\PSoC5/RS485_Sensor.c ****     *       then return.
1394:Generated_Source\PSoC5/RS485_Sensor.c ****     *   RS485_Sensor_SEND_WAIT_REINIT - Performs both options: 
1395:Generated_Source\PSoC5/RS485_Sensor.c ****     *      RS485_Sensor_SEND_BREAK and RS485_Sensor_WAIT_FOR_COMPLETE_REINIT.
1396:Generated_Source\PSoC5/RS485_Sensor.c ****     *      This option is recommended for most cases.
1397:Generated_Source\PSoC5/RS485_Sensor.c ****     *
1398:Generated_Source\PSoC5/RS485_Sensor.c ****     * Return:
1399:Generated_Source\PSoC5/RS485_Sensor.c ****     *  None.
1400:Generated_Source\PSoC5/RS485_Sensor.c ****     *
1401:Generated_Source\PSoC5/RS485_Sensor.c ****     * Global Variables:
1402:Generated_Source\PSoC5/RS485_Sensor.c ****     *  RS485_Sensor_initVar - checked to identify that the component has been
1403:Generated_Source\PSoC5/RS485_Sensor.c ****     *     initialized.
1404:Generated_Source\PSoC5/RS485_Sensor.c ****     *  txPeriod - static variable, used for keeping TX period configuration.
1405:Generated_Source\PSoC5/RS485_Sensor.c ****     *
1406:Generated_Source\PSoC5/RS485_Sensor.c ****     * Reentrant:
1407:Generated_Source\PSoC5/RS485_Sensor.c ****     *  No.
1408:Generated_Source\PSoC5/RS485_Sensor.c ****     *
1409:Generated_Source\PSoC5/RS485_Sensor.c ****     * Theory:
1410:Generated_Source\PSoC5/RS485_Sensor.c ****     *  SendBreak function initializes registers to send 13-bit break signal. It is
1411:Generated_Source\PSoC5/RS485_Sensor.c ****     *  important to return the registers configuration to normal for continue 8-bit
1412:Generated_Source\PSoC5/RS485_Sensor.c ****     *  operation.
1413:Generated_Source\PSoC5/RS485_Sensor.c ****     *  There are 3 variants for this API usage:
1414:Generated_Source\PSoC5/RS485_Sensor.c ****     *  1) SendBreak(3) - function will send the Break signal and take care on the
1415:Generated_Source\PSoC5/RS485_Sensor.c ****     *     configuration returning. Function will block CPU until transmission
1416:Generated_Source\PSoC5/RS485_Sensor.c ****     *     complete.
1417:Generated_Source\PSoC5/RS485_Sensor.c ****     *  2) User may want to use blocking time if UART configured to the low speed
1418:Generated_Source\PSoC5/RS485_Sensor.c ****     *     operation
1419:Generated_Source\PSoC5/RS485_Sensor.c ****     *     Example for this case:
1420:Generated_Source\PSoC5/RS485_Sensor.c ****     *     SendBreak(0);     - initialize Break signal transmission
1421:Generated_Source\PSoC5/RS485_Sensor.c ****     *         Add your code here to use CPU time
1422:Generated_Source\PSoC5/RS485_Sensor.c ****     *     SendBreak(1);     - complete Break operation
1423:Generated_Source\PSoC5/RS485_Sensor.c ****     *  3) Same to 2) but user may want to initialize and use the interrupt to
1424:Generated_Source\PSoC5/RS485_Sensor.c ****     *     complete break operation.
1425:Generated_Source\PSoC5/RS485_Sensor.c ****     *     Example for this case:
1426:Generated_Source\PSoC5/RS485_Sensor.c ****     *     Initialize TX interrupt with "TX - On TX Complete" parameter
1427:Generated_Source\PSoC5/RS485_Sensor.c ****     *     SendBreak(0);     - initialize Break signal transmission
1428:Generated_Source\PSoC5/RS485_Sensor.c ****     *         Add your code here to use CPU time
1429:Generated_Source\PSoC5/RS485_Sensor.c ****     *     When interrupt appear with RS485_Sensor_TX_STS_COMPLETE status:
1430:Generated_Source\PSoC5/RS485_Sensor.c ****     *     SendBreak(2);     - complete Break operation
1431:Generated_Source\PSoC5/RS485_Sensor.c ****     *
1432:Generated_Source\PSoC5/RS485_Sensor.c ****     * Side Effects:
1433:Generated_Source\PSoC5/RS485_Sensor.c ****     *  The RS485_Sensor_SendBreak() function initializes registers to send a
1434:Generated_Source\PSoC5/RS485_Sensor.c ****     *  break signal.
1435:Generated_Source\PSoC5/RS485_Sensor.c ****     *  Break signal length depends on the break signal bits configuration.
1436:Generated_Source\PSoC5/RS485_Sensor.c ****     *  The register configuration should be reinitialized before normal 8-bit
1437:Generated_Source\PSoC5/RS485_Sensor.c ****     *  communication can continue.
1438:Generated_Source\PSoC5/RS485_Sensor.c ****     *
1439:Generated_Source\PSoC5/RS485_Sensor.c ****     *******************************************************************************/
1440:Generated_Source\PSoC5/RS485_Sensor.c ****     void RS485_Sensor_SendBreak(uint8 retMode) 
1441:Generated_Source\PSoC5/RS485_Sensor.c ****     {
 1312              		.loc 1 1441 0
 1313              		.cfi_startproc
 1314              		@ args = 0, pretend = 0, frame = 0
ARM GAS  C:\Users\IroTeam\AppData\Local\Temp\ccGexqi8.s 			page 50


 1315              		@ frame_needed = 0, uses_anonymous_args = 0
 1316              		@ link register save eliminated.
 1317              	.LVL82:
1442:Generated_Source\PSoC5/RS485_Sensor.c **** 
1443:Generated_Source\PSoC5/RS485_Sensor.c ****         /* If not Initialized then skip this function*/
1444:Generated_Source\PSoC5/RS485_Sensor.c ****         if(RS485_Sensor_initVar != 0u)
 1318              		.loc 1 1444 0
 1319 0000 124B     		ldr	r3, .L153
 1320 0002 5A78     		ldrb	r2, [r3, #1]	@ zero_extendqisi2
 1321 0004 02B3     		cbz	r2, .L130
 1322              	.LBB2:
1445:Generated_Source\PSoC5/RS485_Sensor.c ****         {
1446:Generated_Source\PSoC5/RS485_Sensor.c ****             /* Set the Counter to 13-bits and transmit a 00 byte */
1447:Generated_Source\PSoC5/RS485_Sensor.c ****             /* When that is done then reset the counter value back */
1448:Generated_Source\PSoC5/RS485_Sensor.c ****             uint8 tmpStat;
1449:Generated_Source\PSoC5/RS485_Sensor.c **** 
1450:Generated_Source\PSoC5/RS485_Sensor.c ****         #if(RS485_Sensor_HD_ENABLED) /* Half Duplex mode*/
1451:Generated_Source\PSoC5/RS485_Sensor.c **** 
1452:Generated_Source\PSoC5/RS485_Sensor.c ****             if( (retMode == RS485_Sensor_SEND_BREAK) ||
1453:Generated_Source\PSoC5/RS485_Sensor.c ****                 (retMode == RS485_Sensor_SEND_WAIT_REINIT ) )
1454:Generated_Source\PSoC5/RS485_Sensor.c ****             {
1455:Generated_Source\PSoC5/RS485_Sensor.c ****                 /* CTRL_HD_SEND_BREAK - sends break bits in HD mode */
1456:Generated_Source\PSoC5/RS485_Sensor.c ****                 RS485_Sensor_WriteControlRegister(RS485_Sensor_ReadControlRegister() |
1457:Generated_Source\PSoC5/RS485_Sensor.c ****                                                       RS485_Sensor_CTRL_HD_SEND_BREAK);
1458:Generated_Source\PSoC5/RS485_Sensor.c ****                 /* Send zeros */
1459:Generated_Source\PSoC5/RS485_Sensor.c ****                 RS485_Sensor_TXDATA_REG = 0u;
1460:Generated_Source\PSoC5/RS485_Sensor.c **** 
1461:Generated_Source\PSoC5/RS485_Sensor.c ****                 do /* Wait until transmit starts */
1462:Generated_Source\PSoC5/RS485_Sensor.c ****                 {
1463:Generated_Source\PSoC5/RS485_Sensor.c ****                     tmpStat = RS485_Sensor_TXSTATUS_REG;
1464:Generated_Source\PSoC5/RS485_Sensor.c ****                 }
1465:Generated_Source\PSoC5/RS485_Sensor.c ****                 while((tmpStat & RS485_Sensor_TX_STS_FIFO_EMPTY) != 0u);
1466:Generated_Source\PSoC5/RS485_Sensor.c ****             }
1467:Generated_Source\PSoC5/RS485_Sensor.c **** 
1468:Generated_Source\PSoC5/RS485_Sensor.c ****             if( (retMode == RS485_Sensor_WAIT_FOR_COMPLETE_REINIT) ||
1469:Generated_Source\PSoC5/RS485_Sensor.c ****                 (retMode == RS485_Sensor_SEND_WAIT_REINIT) )
1470:Generated_Source\PSoC5/RS485_Sensor.c ****             {
1471:Generated_Source\PSoC5/RS485_Sensor.c ****                 do /* Wait until transmit complete */
1472:Generated_Source\PSoC5/RS485_Sensor.c ****                 {
1473:Generated_Source\PSoC5/RS485_Sensor.c ****                     tmpStat = RS485_Sensor_TXSTATUS_REG;
1474:Generated_Source\PSoC5/RS485_Sensor.c ****                 }
1475:Generated_Source\PSoC5/RS485_Sensor.c ****                 while(((uint8)~tmpStat & RS485_Sensor_TX_STS_COMPLETE) != 0u);
1476:Generated_Source\PSoC5/RS485_Sensor.c ****             }
1477:Generated_Source\PSoC5/RS485_Sensor.c **** 
1478:Generated_Source\PSoC5/RS485_Sensor.c ****             if( (retMode == RS485_Sensor_WAIT_FOR_COMPLETE_REINIT) ||
1479:Generated_Source\PSoC5/RS485_Sensor.c ****                 (retMode == RS485_Sensor_REINIT) ||
1480:Generated_Source\PSoC5/RS485_Sensor.c ****                 (retMode == RS485_Sensor_SEND_WAIT_REINIT) )
1481:Generated_Source\PSoC5/RS485_Sensor.c ****             {
1482:Generated_Source\PSoC5/RS485_Sensor.c ****                 RS485_Sensor_WriteControlRegister(RS485_Sensor_ReadControlRegister() &
1483:Generated_Source\PSoC5/RS485_Sensor.c ****                                               (uint8)~RS485_Sensor_CTRL_HD_SEND_BREAK);
1484:Generated_Source\PSoC5/RS485_Sensor.c ****             }
1485:Generated_Source\PSoC5/RS485_Sensor.c **** 
1486:Generated_Source\PSoC5/RS485_Sensor.c ****         #else /* RS485_Sensor_HD_ENABLED Full Duplex mode */
1487:Generated_Source\PSoC5/RS485_Sensor.c **** 
1488:Generated_Source\PSoC5/RS485_Sensor.c ****             static uint8 txPeriod;
1489:Generated_Source\PSoC5/RS485_Sensor.c **** 
1490:Generated_Source\PSoC5/RS485_Sensor.c ****             if( (retMode == RS485_Sensor_SEND_BREAK) ||
ARM GAS  C:\Users\IroTeam\AppData\Local\Temp\ccGexqi8.s 			page 51


 1323              		.loc 1 1490 0
 1324 0006 08B1     		cbz	r0, .L133
 1325              		.loc 1 1490 0 is_stmt 0 discriminator 1
 1326 0008 0328     		cmp	r0, #3
 1327 000a 1BD1     		bne	.L134
 1328              	.L133:
1491:Generated_Source\PSoC5/RS485_Sensor.c ****                 (retMode == RS485_Sensor_SEND_WAIT_REINIT) )
1492:Generated_Source\PSoC5/RS485_Sensor.c ****             {
1493:Generated_Source\PSoC5/RS485_Sensor.c ****                 /* CTRL_HD_SEND_BREAK - skip to send parity bit at Break signal in Full Duplex mode
1494:Generated_Source\PSoC5/RS485_Sensor.c ****                 #if( (RS485_Sensor_PARITY_TYPE != RS485_Sensor__B_UART__NONE_REVB) || \
1495:Generated_Source\PSoC5/RS485_Sensor.c ****                                     (RS485_Sensor_PARITY_TYPE_SW != 0u) )
1496:Generated_Source\PSoC5/RS485_Sensor.c ****                     RS485_Sensor_WriteControlRegister(RS485_Sensor_ReadControlRegister() |
1497:Generated_Source\PSoC5/RS485_Sensor.c ****                                                           RS485_Sensor_CTRL_HD_SEND_BREAK);
1498:Generated_Source\PSoC5/RS485_Sensor.c ****                 #endif /* End RS485_Sensor_PARITY_TYPE != RS485_Sensor__B_UART__NONE_REVB  */
1499:Generated_Source\PSoC5/RS485_Sensor.c **** 
1500:Generated_Source\PSoC5/RS485_Sensor.c ****                 #if(RS485_Sensor_TXCLKGEN_DP)
1501:Generated_Source\PSoC5/RS485_Sensor.c ****                     txPeriod = RS485_Sensor_TXBITCLKTX_COMPLETE_REG;
 1329              		.loc 1 1501 0 is_stmt 1
 1330 000c 104A     		ldr	r2, .L153+4
 1331 000e 1178     		ldrb	r1, [r2]	@ zero_extendqisi2
 1332 0010 1973     		strb	r1, [r3, #12]
1502:Generated_Source\PSoC5/RS485_Sensor.c ****                     RS485_Sensor_TXBITCLKTX_COMPLETE_REG = RS485_Sensor_TXBITCTR_BREAKBITS;
 1333              		.loc 1 1502 0
 1334 0012 6721     		movs	r1, #103
 1335 0014 1170     		strb	r1, [r2]
1503:Generated_Source\PSoC5/RS485_Sensor.c ****                 #else
1504:Generated_Source\PSoC5/RS485_Sensor.c ****                     txPeriod = RS485_Sensor_TXBITCTR_PERIOD_REG;
1505:Generated_Source\PSoC5/RS485_Sensor.c ****                     RS485_Sensor_TXBITCTR_PERIOD_REG = RS485_Sensor_TXBITCTR_BREAKBITS8X;
1506:Generated_Source\PSoC5/RS485_Sensor.c ****                 #endif /* End RS485_Sensor_TXCLKGEN_DP */
1507:Generated_Source\PSoC5/RS485_Sensor.c **** 
1508:Generated_Source\PSoC5/RS485_Sensor.c ****                 /* Send zeros */
1509:Generated_Source\PSoC5/RS485_Sensor.c ****                 RS485_Sensor_TXDATA_REG = 0u;
 1336              		.loc 1 1509 0
 1337 0016 0021     		movs	r1, #0
 1338 0018 9174     		strb	r1, [r2, #18]
1510:Generated_Source\PSoC5/RS485_Sensor.c **** 
1511:Generated_Source\PSoC5/RS485_Sensor.c ****                 do /* Wait until transmit starts */
1512:Generated_Source\PSoC5/RS485_Sensor.c ****                 {
1513:Generated_Source\PSoC5/RS485_Sensor.c ****                     tmpStat = RS485_Sensor_TXSTATUS_REG;
 1339              		.loc 1 1513 0
 1340 001a 0E49     		ldr	r1, .L153+8
 1341              	.L135:
 1342              		.loc 1 1513 0 is_stmt 0 discriminator 1
 1343 001c 0A78     		ldrb	r2, [r1]	@ zero_extendqisi2
 1344              	.LVL83:
1514:Generated_Source\PSoC5/RS485_Sensor.c ****                 }
1515:Generated_Source\PSoC5/RS485_Sensor.c ****                 while((tmpStat & RS485_Sensor_TX_STS_FIFO_EMPTY) != 0u);
 1345              		.loc 1 1515 0 is_stmt 1 discriminator 1
 1346 001e 9207     		lsls	r2, r2, #30
 1347              	.LVL84:
 1348 0020 FCD4     		bmi	.L135
1516:Generated_Source\PSoC5/RS485_Sensor.c ****             }
1517:Generated_Source\PSoC5/RS485_Sensor.c **** 
1518:Generated_Source\PSoC5/RS485_Sensor.c ****             if( (retMode == RS485_Sensor_WAIT_FOR_COMPLETE_REINIT) ||
 1349              		.loc 1 1518 0
 1350 0022 00F0FD02 		and	r2, r0, #253
 1351 0026 012A     		cmp	r2, #1
ARM GAS  C:\Users\IroTeam\AppData\Local\Temp\ccGexqi8.s 			page 52


 1352              	.L152:
 1353 0028 03D0     		beq	.L136
 1354              	.L140:
1519:Generated_Source\PSoC5/RS485_Sensor.c ****                 (retMode == RS485_Sensor_SEND_WAIT_REINIT) )
1520:Generated_Source\PSoC5/RS485_Sensor.c ****             {
1521:Generated_Source\PSoC5/RS485_Sensor.c ****                 do /* Wait until transmit complete */
1522:Generated_Source\PSoC5/RS485_Sensor.c ****                 {
1523:Generated_Source\PSoC5/RS485_Sensor.c ****                     tmpStat = RS485_Sensor_TXSTATUS_REG;
1524:Generated_Source\PSoC5/RS485_Sensor.c ****                 }
1525:Generated_Source\PSoC5/RS485_Sensor.c ****                 while(((uint8)~tmpStat & RS485_Sensor_TX_STS_COMPLETE) != 0u);
1526:Generated_Source\PSoC5/RS485_Sensor.c ****             }
1527:Generated_Source\PSoC5/RS485_Sensor.c **** 
1528:Generated_Source\PSoC5/RS485_Sensor.c ****             if( (retMode == RS485_Sensor_WAIT_FOR_COMPLETE_REINIT) ||
 1355              		.loc 1 1528 0
 1356 002a 0138     		subs	r0, r0, #1
 1357              	.LVL85:
 1358 002c 0228     		cmp	r0, #2
 1359 002e 05D9     		bls	.L137
 1360 0030 7047     		bx	lr
 1361              	.LVL86:
 1362              	.L136:
1523:Generated_Source\PSoC5/RS485_Sensor.c ****                 }
 1363              		.loc 1 1523 0
 1364 0032 0849     		ldr	r1, .L153+8
 1365              	.L139:
1523:Generated_Source\PSoC5/RS485_Sensor.c ****                 }
 1366              		.loc 1 1523 0 is_stmt 0 discriminator 1
 1367 0034 0A78     		ldrb	r2, [r1]	@ zero_extendqisi2
 1368              	.LVL87:
1525:Generated_Source\PSoC5/RS485_Sensor.c ****             }
 1369              		.loc 1 1525 0 is_stmt 1 discriminator 1
 1370 0036 D207     		lsls	r2, r2, #31
 1371              	.LVL88:
 1372 0038 FCD5     		bpl	.L139
 1373 003a F6E7     		b	.L140
 1374              	.LVL89:
 1375              	.L137:
1529:Generated_Source\PSoC5/RS485_Sensor.c ****                 (retMode == RS485_Sensor_REINIT) ||
1530:Generated_Source\PSoC5/RS485_Sensor.c ****                 (retMode == RS485_Sensor_SEND_WAIT_REINIT) )
1531:Generated_Source\PSoC5/RS485_Sensor.c ****             {
1532:Generated_Source\PSoC5/RS485_Sensor.c **** 
1533:Generated_Source\PSoC5/RS485_Sensor.c ****             #if(RS485_Sensor_TXCLKGEN_DP)
1534:Generated_Source\PSoC5/RS485_Sensor.c ****                 RS485_Sensor_TXBITCLKTX_COMPLETE_REG = txPeriod;
 1376              		.loc 1 1534 0
 1377 003c 1A7B     		ldrb	r2, [r3, #12]	@ zero_extendqisi2
 1378 003e 044B     		ldr	r3, .L153+4
 1379 0040 1A70     		strb	r2, [r3]
 1380              	.LBE2:
1535:Generated_Source\PSoC5/RS485_Sensor.c ****             #else
1536:Generated_Source\PSoC5/RS485_Sensor.c ****                 RS485_Sensor_TXBITCTR_PERIOD_REG = txPeriod;
1537:Generated_Source\PSoC5/RS485_Sensor.c ****             #endif /* End RS485_Sensor_TXCLKGEN_DP */
1538:Generated_Source\PSoC5/RS485_Sensor.c **** 
1539:Generated_Source\PSoC5/RS485_Sensor.c ****             #if( (RS485_Sensor_PARITY_TYPE != RS485_Sensor__B_UART__NONE_REVB) || \
1540:Generated_Source\PSoC5/RS485_Sensor.c ****                  (RS485_Sensor_PARITY_TYPE_SW != 0u) )
1541:Generated_Source\PSoC5/RS485_Sensor.c ****                 RS485_Sensor_WriteControlRegister(RS485_Sensor_ReadControlRegister() &
1542:Generated_Source\PSoC5/RS485_Sensor.c ****                                                       (uint8) ~RS485_Sensor_CTRL_HD_SEND_BREAK);
1543:Generated_Source\PSoC5/RS485_Sensor.c ****             #endif /* End RS485_Sensor_PARITY_TYPE != NONE */
ARM GAS  C:\Users\IroTeam\AppData\Local\Temp\ccGexqi8.s 			page 53


1544:Generated_Source\PSoC5/RS485_Sensor.c ****             }
1545:Generated_Source\PSoC5/RS485_Sensor.c ****         #endif    /* End RS485_Sensor_HD_ENABLED */
1546:Generated_Source\PSoC5/RS485_Sensor.c ****         }
1547:Generated_Source\PSoC5/RS485_Sensor.c ****     }
 1381              		.loc 1 1547 0
 1382 0042 7047     		bx	lr
 1383              	.LVL90:
 1384              	.L134:
 1385              	.LBB3:
1518:Generated_Source\PSoC5/RS485_Sensor.c ****                 (retMode == RS485_Sensor_SEND_WAIT_REINIT) )
 1386              		.loc 1 1518 0
 1387 0044 0128     		cmp	r0, #1
 1388 0046 EFE7     		b	.L152
 1389              	.L130:
 1390 0048 7047     		bx	lr
 1391              	.L154:
 1392 004a 00BF     		.align	2
 1393              	.L153:
 1394 004c 00000000 		.word	.LANCHOR0
 1395 0050 3B640040 		.word	1073767483
 1396 0054 69640040 		.word	1073767529
 1397              	.LBE3:
 1398              		.cfi_endproc
 1399              	.LFE25:
 1400              		.size	RS485_Sensor_SendBreak, .-RS485_Sensor_SendBreak
 1401              		.section	.text.RS485_Sensor_SetTxAddressMode,"ax",%progbits
 1402              		.align	1
 1403              		.global	RS485_Sensor_SetTxAddressMode
 1404              		.thumb
 1405              		.thumb_func
 1406              		.type	RS485_Sensor_SetTxAddressMode, %function
 1407              	RS485_Sensor_SetTxAddressMode:
 1408              	.LFB26:
1548:Generated_Source\PSoC5/RS485_Sensor.c **** 
1549:Generated_Source\PSoC5/RS485_Sensor.c **** 
1550:Generated_Source\PSoC5/RS485_Sensor.c ****     /*******************************************************************************
1551:Generated_Source\PSoC5/RS485_Sensor.c ****     * Function Name: RS485_Sensor_SetTxAddressMode
1552:Generated_Source\PSoC5/RS485_Sensor.c ****     ********************************************************************************
1553:Generated_Source\PSoC5/RS485_Sensor.c ****     *
1554:Generated_Source\PSoC5/RS485_Sensor.c ****     * Summary:
1555:Generated_Source\PSoC5/RS485_Sensor.c ****     *  Configures the transmitter to signal the next bytes is address or data.
1556:Generated_Source\PSoC5/RS485_Sensor.c ****     *
1557:Generated_Source\PSoC5/RS485_Sensor.c ****     * Parameters:
1558:Generated_Source\PSoC5/RS485_Sensor.c ****     *  addressMode: 
1559:Generated_Source\PSoC5/RS485_Sensor.c ****     *       RS485_Sensor_SET_SPACE - Configure the transmitter to send the next
1560:Generated_Source\PSoC5/RS485_Sensor.c ****     *                                    byte as a data.
1561:Generated_Source\PSoC5/RS485_Sensor.c ****     *       RS485_Sensor_SET_MARK  - Configure the transmitter to send the next
1562:Generated_Source\PSoC5/RS485_Sensor.c ****     *                                    byte as an address.
1563:Generated_Source\PSoC5/RS485_Sensor.c ****     *
1564:Generated_Source\PSoC5/RS485_Sensor.c ****     * Return:
1565:Generated_Source\PSoC5/RS485_Sensor.c ****     *  None.
1566:Generated_Source\PSoC5/RS485_Sensor.c ****     *
1567:Generated_Source\PSoC5/RS485_Sensor.c ****     * Side Effects:
1568:Generated_Source\PSoC5/RS485_Sensor.c ****     *  This function sets and clears RS485_Sensor_CTRL_MARK bit in the Control
1569:Generated_Source\PSoC5/RS485_Sensor.c ****     *  register.
1570:Generated_Source\PSoC5/RS485_Sensor.c ****     *
1571:Generated_Source\PSoC5/RS485_Sensor.c ****     *******************************************************************************/
ARM GAS  C:\Users\IroTeam\AppData\Local\Temp\ccGexqi8.s 			page 54


1572:Generated_Source\PSoC5/RS485_Sensor.c ****     void RS485_Sensor_SetTxAddressMode(uint8 addressMode) 
1573:Generated_Source\PSoC5/RS485_Sensor.c ****     {
 1409              		.loc 1 1573 0
 1410              		.cfi_startproc
 1411              		@ args = 0, pretend = 0, frame = 0
 1412              		@ frame_needed = 0, uses_anonymous_args = 0
 1413              		@ link register save eliminated.
 1414              	.LVL91:
 1415 0000 7047     		bx	lr
 1416              		.cfi_endproc
 1417              	.LFE26:
 1418              		.size	RS485_Sensor_SetTxAddressMode, .-RS485_Sensor_SetTxAddressMode
 1419              		.global	RS485_Sensor_rxBufferOverflow
 1420              		.global	RS485_Sensor_rxBufferLoopDetect
 1421              		.global	RS485_Sensor_rxBufferWrite
 1422              		.global	RS485_Sensor_rxBufferRead
 1423              		.comm	RS485_Sensor_rxBuffer,256,1
 1424              		.global	RS485_Sensor_errorStatus
 1425              		.global	RS485_Sensor_txBufferWrite
 1426              		.global	RS485_Sensor_txBufferRead
 1427              		.comm	RS485_Sensor_txBuffer,2048,1
 1428              		.global	RS485_Sensor_initVar
 1429              		.bss
 1430              		.align	1
 1431              		.set	.LANCHOR0,. + 0
 1432              		.type	RS485_Sensor_errorStatus, %object
 1433              		.size	RS485_Sensor_errorStatus, 1
 1434              	RS485_Sensor_errorStatus:
 1435 0000 00       		.space	1
 1436              		.type	RS485_Sensor_initVar, %object
 1437              		.size	RS485_Sensor_initVar, 1
 1438              	RS485_Sensor_initVar:
 1439 0001 00       		.space	1
 1440              		.type	RS485_Sensor_rxBufferRead, %object
 1441              		.size	RS485_Sensor_rxBufferRead, 2
 1442              	RS485_Sensor_rxBufferRead:
 1443 0002 0000     		.space	2
 1444              		.type	RS485_Sensor_rxBufferWrite, %object
 1445              		.size	RS485_Sensor_rxBufferWrite, 2
 1446              	RS485_Sensor_rxBufferWrite:
 1447 0004 0000     		.space	2
 1448              		.type	RS485_Sensor_rxBufferLoopDetect, %object
 1449              		.size	RS485_Sensor_rxBufferLoopDetect, 1
 1450              	RS485_Sensor_rxBufferLoopDetect:
 1451 0006 00       		.space	1
 1452              		.type	RS485_Sensor_rxBufferOverflow, %object
 1453              		.size	RS485_Sensor_rxBufferOverflow, 1
 1454              	RS485_Sensor_rxBufferOverflow:
 1455 0007 00       		.space	1
 1456              		.type	RS485_Sensor_txBufferRead, %object
 1457              		.size	RS485_Sensor_txBufferRead, 2
 1458              	RS485_Sensor_txBufferRead:
 1459 0008 0000     		.space	2
 1460              		.type	RS485_Sensor_txBufferWrite, %object
 1461              		.size	RS485_Sensor_txBufferWrite, 2
 1462              	RS485_Sensor_txBufferWrite:
 1463 000a 0000     		.space	2
ARM GAS  C:\Users\IroTeam\AppData\Local\Temp\ccGexqi8.s 			page 55


 1464              		.type	txPeriod.5166, %object
 1465              		.size	txPeriod.5166, 1
 1466              	txPeriod.5166:
 1467 000c 00       		.space	1
 1468              		.text
 1469              	.Letext0:
 1470              		.file 2 "Generated_Source\\PSoC5\\cytypes.h"
 1471              		.file 3 "Generated_Source\\PSoC5\\CyLib.h"
 1472              		.file 4 "Generated_Source\\PSoC5\\RS485_Sensor_IntClock.h"