ARM GAS  C:\Users\IroTeam\AppData\Local\Temp\ccGexqi8.s 			page 1


   1              		.syntax unified
   2              		.cpu cortex-m3
   3              		.fpu softvfp
   4              		.eabi_attribute 20, 1
   5              		.eabi_attribute 21, 1
   6              		.eabi_attribute 23, 3
   7              		.eabi_attribute 24, 1
   8              		.eabi_attribute 25, 1
   9              		.eabi_attribute 26, 1
  10              		.eabi_attribute 30, 4
  11              		.eabi_attribute 34, 1
  12              		.eabi_attribute 18, 4
  13              		.thumb
  14              		.syntax unified
  15              		.file	"RS485_Sensor.c"
  16              		.text
  17              	.Ltext0:
  18              		.cfi_sections	.debug_frame
  19              		.section	.text.RS485_Sensor_Init,"ax",%progbits
  20              		.align	1
  21              		.global	RS485_Sensor_Init
  22              		.thumb
  23              		.thumb_func
  24              		.type	RS485_Sensor_Init, %function
  25              	RS485_Sensor_Init:
  26              	.LFB1:
  27              		.file 1 "Generated_Source\\PSoC5\\RS485_Sensor.c"
   1:Generated_Source\PSoC5/RS485_Sensor.c **** /*******************************************************************************
   2:Generated_Source\PSoC5/RS485_Sensor.c **** * File Name: RS485_Sensor.c
   3:Generated_Source\PSoC5/RS485_Sensor.c **** * Version 2.50
   4:Generated_Source\PSoC5/RS485_Sensor.c **** *
   5:Generated_Source\PSoC5/RS485_Sensor.c **** * Description:
   6:Generated_Source\PSoC5/RS485_Sensor.c **** *  This file provides all API functionality of the UART component
   7:Generated_Source\PSoC5/RS485_Sensor.c **** *
   8:Generated_Source\PSoC5/RS485_Sensor.c **** * Note:
   9:Generated_Source\PSoC5/RS485_Sensor.c **** *
  10:Generated_Source\PSoC5/RS485_Sensor.c **** ********************************************************************************
  11:Generated_Source\PSoC5/RS485_Sensor.c **** * Copyright 2008-2015, Cypress Semiconductor Corporation.  All rights reserved.
  12:Generated_Source\PSoC5/RS485_Sensor.c **** * You may use this file only in accordance with the license, terms, conditions,
  13:Generated_Source\PSoC5/RS485_Sensor.c **** * disclaimers, and limitations in the end user license agreement accompanying
  14:Generated_Source\PSoC5/RS485_Sensor.c **** * the software package with which this file was provided.
  15:Generated_Source\PSoC5/RS485_Sensor.c **** *******************************************************************************/
  16:Generated_Source\PSoC5/RS485_Sensor.c **** 
  17:Generated_Source\PSoC5/RS485_Sensor.c **** #include "RS485_Sensor.h"
  18:Generated_Source\PSoC5/RS485_Sensor.c **** #if (RS485_Sensor_INTERNAL_CLOCK_USED)
  19:Generated_Source\PSoC5/RS485_Sensor.c ****     #include "RS485_Sensor_IntClock.h"
  20:Generated_Source\PSoC5/RS485_Sensor.c **** #endif /* End RS485_Sensor_INTERNAL_CLOCK_USED */
  21:Generated_Source\PSoC5/RS485_Sensor.c **** 
  22:Generated_Source\PSoC5/RS485_Sensor.c **** 
  23:Generated_Source\PSoC5/RS485_Sensor.c **** /***************************************
  24:Generated_Source\PSoC5/RS485_Sensor.c **** * Global data allocation
  25:Generated_Source\PSoC5/RS485_Sensor.c **** ***************************************/
  26:Generated_Source\PSoC5/RS485_Sensor.c **** 
  27:Generated_Source\PSoC5/RS485_Sensor.c **** uint8 RS485_Sensor_initVar = 0u;
  28:Generated_Source\PSoC5/RS485_Sensor.c **** 
  29:Generated_Source\PSoC5/RS485_Sensor.c **** #if (RS485_Sensor_TX_INTERRUPT_ENABLED && RS485_Sensor_TX_ENABLED)
  30:Generated_Source\PSoC5/RS485_Sensor.c ****     volatile uint8 RS485_Sensor_txBuffer[RS485_Sensor_TX_BUFFER_SIZE];
ARM GAS  C:\Users\IroTeam\AppData\Local\Temp\ccGexqi8.s 			page 2


  31:Generated_Source\PSoC5/RS485_Sensor.c ****     volatile uint16 RS485_Sensor_txBufferRead = 0u;
  32:Generated_Source\PSoC5/RS485_Sensor.c ****     uint16 RS485_Sensor_txBufferWrite = 0u;
  33:Generated_Source\PSoC5/RS485_Sensor.c **** #endif /* (RS485_Sensor_TX_INTERRUPT_ENABLED && RS485_Sensor_TX_ENABLED) */
  34:Generated_Source\PSoC5/RS485_Sensor.c **** 
  35:Generated_Source\PSoC5/RS485_Sensor.c **** #if (RS485_Sensor_RX_INTERRUPT_ENABLED && (RS485_Sensor_RX_ENABLED || RS485_Sensor_HD_ENABLED))
  36:Generated_Source\PSoC5/RS485_Sensor.c ****     uint8 RS485_Sensor_errorStatus = 0u;
  37:Generated_Source\PSoC5/RS485_Sensor.c ****     volatile uint8 RS485_Sensor_rxBuffer[RS485_Sensor_RX_BUFFER_SIZE];
  38:Generated_Source\PSoC5/RS485_Sensor.c ****     volatile uint16 RS485_Sensor_rxBufferRead  = 0u;
  39:Generated_Source\PSoC5/RS485_Sensor.c ****     volatile uint16 RS485_Sensor_rxBufferWrite = 0u;
  40:Generated_Source\PSoC5/RS485_Sensor.c ****     volatile uint8 RS485_Sensor_rxBufferLoopDetect = 0u;
  41:Generated_Source\PSoC5/RS485_Sensor.c ****     volatile uint8 RS485_Sensor_rxBufferOverflow   = 0u;
  42:Generated_Source\PSoC5/RS485_Sensor.c ****     #if (RS485_Sensor_RXHW_ADDRESS_ENABLED)
  43:Generated_Source\PSoC5/RS485_Sensor.c ****         volatile uint8 RS485_Sensor_rxAddressMode = RS485_Sensor_RX_ADDRESS_MODE;
  44:Generated_Source\PSoC5/RS485_Sensor.c ****         volatile uint8 RS485_Sensor_rxAddressDetected = 0u;
  45:Generated_Source\PSoC5/RS485_Sensor.c ****     #endif /* (RS485_Sensor_RXHW_ADDRESS_ENABLED) */
  46:Generated_Source\PSoC5/RS485_Sensor.c **** #endif /* (RS485_Sensor_RX_INTERRUPT_ENABLED && (RS485_Sensor_RX_ENABLED || RS485_Sensor_HD_ENABLED
  47:Generated_Source\PSoC5/RS485_Sensor.c **** 
  48:Generated_Source\PSoC5/RS485_Sensor.c **** 
  49:Generated_Source\PSoC5/RS485_Sensor.c **** /*******************************************************************************
  50:Generated_Source\PSoC5/RS485_Sensor.c **** * Function Name: RS485_Sensor_Start
  51:Generated_Source\PSoC5/RS485_Sensor.c **** ********************************************************************************
  52:Generated_Source\PSoC5/RS485_Sensor.c **** *
  53:Generated_Source\PSoC5/RS485_Sensor.c **** * Summary:
  54:Generated_Source\PSoC5/RS485_Sensor.c **** *  This is the preferred method to begin component operation.
  55:Generated_Source\PSoC5/RS485_Sensor.c **** *  RS485_Sensor_Start() sets the initVar variable, calls the
  56:Generated_Source\PSoC5/RS485_Sensor.c **** *  RS485_Sensor_Init() function, and then calls the
  57:Generated_Source\PSoC5/RS485_Sensor.c **** *  RS485_Sensor_Enable() function.
  58:Generated_Source\PSoC5/RS485_Sensor.c **** *
  59:Generated_Source\PSoC5/RS485_Sensor.c **** * Parameters:
  60:Generated_Source\PSoC5/RS485_Sensor.c **** *  None.
  61:Generated_Source\PSoC5/RS485_Sensor.c **** *
  62:Generated_Source\PSoC5/RS485_Sensor.c **** * Return:
  63:Generated_Source\PSoC5/RS485_Sensor.c **** *  None.
  64:Generated_Source\PSoC5/RS485_Sensor.c **** *
  65:Generated_Source\PSoC5/RS485_Sensor.c **** * Global variables:
  66:Generated_Source\PSoC5/RS485_Sensor.c **** *  The RS485_Sensor_intiVar variable is used to indicate initial
  67:Generated_Source\PSoC5/RS485_Sensor.c **** *  configuration of this component. The variable is initialized to zero (0u)
  68:Generated_Source\PSoC5/RS485_Sensor.c **** *  and set to one (1u) the first time RS485_Sensor_Start() is called. This
  69:Generated_Source\PSoC5/RS485_Sensor.c **** *  allows for component initialization without re-initialization in all
  70:Generated_Source\PSoC5/RS485_Sensor.c **** *  subsequent calls to the RS485_Sensor_Start() routine.
  71:Generated_Source\PSoC5/RS485_Sensor.c **** *
  72:Generated_Source\PSoC5/RS485_Sensor.c **** * Reentrant:
  73:Generated_Source\PSoC5/RS485_Sensor.c **** *  No.
  74:Generated_Source\PSoC5/RS485_Sensor.c **** *
  75:Generated_Source\PSoC5/RS485_Sensor.c **** *******************************************************************************/
  76:Generated_Source\PSoC5/RS485_Sensor.c **** void RS485_Sensor_Start(void) 
  77:Generated_Source\PSoC5/RS485_Sensor.c **** {
  78:Generated_Source\PSoC5/RS485_Sensor.c ****     /* If not initialized then initialize all required hardware and software */
  79:Generated_Source\PSoC5/RS485_Sensor.c ****     if(RS485_Sensor_initVar == 0u)
  80:Generated_Source\PSoC5/RS485_Sensor.c ****     {
  81:Generated_Source\PSoC5/RS485_Sensor.c ****         RS485_Sensor_Init();
  82:Generated_Source\PSoC5/RS485_Sensor.c ****         RS485_Sensor_initVar = 1u;
  83:Generated_Source\PSoC5/RS485_Sensor.c ****     }
  84:Generated_Source\PSoC5/RS485_Sensor.c **** 
  85:Generated_Source\PSoC5/RS485_Sensor.c ****     RS485_Sensor_Enable();
  86:Generated_Source\PSoC5/RS485_Sensor.c **** }
  87:Generated_Source\PSoC5/RS485_Sensor.c **** 
ARM GAS  C:\Users\IroTeam\AppData\Local\Temp\ccGexqi8.s 			page 3


  88:Generated_Source\PSoC5/RS485_Sensor.c **** 
  89:Generated_Source\PSoC5/RS485_Sensor.c **** /*******************************************************************************
  90:Generated_Source\PSoC5/RS485_Sensor.c **** * Function Name: RS485_Sensor_Init
  91:Generated_Source\PSoC5/RS485_Sensor.c **** ********************************************************************************
  92:Generated_Source\PSoC5/RS485_Sensor.c **** *
  93:Generated_Source\PSoC5/RS485_Sensor.c **** * Summary:
  94:Generated_Source\PSoC5/RS485_Sensor.c **** *  Initializes or restores the component according to the customizer Configure
  95:Generated_Source\PSoC5/RS485_Sensor.c **** *  dialog settings. It is not necessary to call RS485_Sensor_Init() because
  96:Generated_Source\PSoC5/RS485_Sensor.c **** *  the RS485_Sensor_Start() API calls this function and is the preferred
  97:Generated_Source\PSoC5/RS485_Sensor.c **** *  method to begin component operation.
  98:Generated_Source\PSoC5/RS485_Sensor.c **** *
  99:Generated_Source\PSoC5/RS485_Sensor.c **** * Parameters:
 100:Generated_Source\PSoC5/RS485_Sensor.c **** *  None.
 101:Generated_Source\PSoC5/RS485_Sensor.c **** *
 102:Generated_Source\PSoC5/RS485_Sensor.c **** * Return:
 103:Generated_Source\PSoC5/RS485_Sensor.c **** *  None.
 104:Generated_Source\PSoC5/RS485_Sensor.c **** *
 105:Generated_Source\PSoC5/RS485_Sensor.c **** *******************************************************************************/
 106:Generated_Source\PSoC5/RS485_Sensor.c **** void RS485_Sensor_Init(void) 
 107:Generated_Source\PSoC5/RS485_Sensor.c **** {
  28              		.loc 1 107 0
  29              		.cfi_startproc
  30              		@ args = 0, pretend = 0, frame = 0
  31              		@ frame_needed = 0, uses_anonymous_args = 0
  32 0000 08B5     		push	{r3, lr}
  33              		.cfi_def_cfa_offset 8
  34              		.cfi_offset 3, -8
  35              		.cfi_offset 14, -4
 108:Generated_Source\PSoC5/RS485_Sensor.c ****     #if(RS485_Sensor_RX_ENABLED || RS485_Sensor_HD_ENABLED)
 109:Generated_Source\PSoC5/RS485_Sensor.c **** 
 110:Generated_Source\PSoC5/RS485_Sensor.c ****         #if (RS485_Sensor_RX_INTERRUPT_ENABLED)
 111:Generated_Source\PSoC5/RS485_Sensor.c ****             /* Set RX interrupt vector and priority */
 112:Generated_Source\PSoC5/RS485_Sensor.c ****             (void) CyIntSetVector(RS485_Sensor_RX_VECT_NUM, &RS485_Sensor_RXISR);
  36              		.loc 1 112 0
  37 0002 1049     		ldr	r1, .L2
  38 0004 0220     		movs	r0, #2
  39 0006 FFF7FEFF 		bl	CyIntSetVector
  40              	.LVL0:
 113:Generated_Source\PSoC5/RS485_Sensor.c ****             CyIntSetPriority(RS485_Sensor_RX_VECT_NUM, RS485_Sensor_RX_PRIOR_NUM);
  41              		.loc 1 113 0
  42 000a 0721     		movs	r1, #7
  43 000c 0220     		movs	r0, #2
  44 000e FFF7FEFF 		bl	CyIntSetPriority
  45              	.LVL1:
 114:Generated_Source\PSoC5/RS485_Sensor.c ****             RS485_Sensor_errorStatus = 0u;
  46              		.loc 1 114 0
  47 0012 0D4B     		ldr	r3, .L2+4
  48 0014 0022     		movs	r2, #0
  49 0016 1A70     		strb	r2, [r3]
 115:Generated_Source\PSoC5/RS485_Sensor.c ****         #endif /* (RS485_Sensor_RX_INTERRUPT_ENABLED) */
 116:Generated_Source\PSoC5/RS485_Sensor.c **** 
 117:Generated_Source\PSoC5/RS485_Sensor.c ****         #if (RS485_Sensor_RXHW_ADDRESS_ENABLED)
 118:Generated_Source\PSoC5/RS485_Sensor.c ****             RS485_Sensor_SetRxAddressMode(RS485_Sensor_RX_ADDRESS_MODE);
 119:Generated_Source\PSoC5/RS485_Sensor.c ****             RS485_Sensor_SetRxAddress1(RS485_Sensor_RX_HW_ADDRESS1);
 120:Generated_Source\PSoC5/RS485_Sensor.c ****             RS485_Sensor_SetRxAddress2(RS485_Sensor_RX_HW_ADDRESS2);
 121:Generated_Source\PSoC5/RS485_Sensor.c ****         #endif /* End RS485_Sensor_RXHW_ADDRESS_ENABLED */
 122:Generated_Source\PSoC5/RS485_Sensor.c **** 
ARM GAS  C:\Users\IroTeam\AppData\Local\Temp\ccGexqi8.s 			page 4


 123:Generated_Source\PSoC5/RS485_Sensor.c ****         /* Init Count7 period */
 124:Generated_Source\PSoC5/RS485_Sensor.c ****         RS485_Sensor_RXBITCTR_PERIOD_REG = RS485_Sensor_RXBITCTR_INIT;
  50              		.loc 1 124 0
  51 0018 0C4B     		ldr	r3, .L2+8
  52 001a 7222     		movs	r2, #114
  53 001c 1A70     		strb	r2, [r3]
 125:Generated_Source\PSoC5/RS485_Sensor.c ****         /* Configure the Initial RX interrupt mask */
 126:Generated_Source\PSoC5/RS485_Sensor.c ****         RS485_Sensor_RXSTATUS_MASK_REG  = RS485_Sensor_INIT_RX_INTERRUPTS_MASK;
  54              		.loc 1 126 0
  55 001e 2022     		movs	r2, #32
  56 0020 5A70     		strb	r2, [r3, #1]
 127:Generated_Source\PSoC5/RS485_Sensor.c ****     #endif /* End RS485_Sensor_RX_ENABLED || RS485_Sensor_HD_ENABLED*/
 128:Generated_Source\PSoC5/RS485_Sensor.c **** 
 129:Generated_Source\PSoC5/RS485_Sensor.c ****     #if(RS485_Sensor_TX_ENABLED)
 130:Generated_Source\PSoC5/RS485_Sensor.c ****         #if (RS485_Sensor_TX_INTERRUPT_ENABLED)
 131:Generated_Source\PSoC5/RS485_Sensor.c ****             /* Set TX interrupt vector and priority */
 132:Generated_Source\PSoC5/RS485_Sensor.c ****             (void) CyIntSetVector(RS485_Sensor_TX_VECT_NUM, &RS485_Sensor_TXISR);
  57              		.loc 1 132 0
  58 0022 0B49     		ldr	r1, .L2+12
  59 0024 0320     		movs	r0, #3
  60 0026 FFF7FEFF 		bl	CyIntSetVector
  61              	.LVL2:
 133:Generated_Source\PSoC5/RS485_Sensor.c ****             CyIntSetPriority(RS485_Sensor_TX_VECT_NUM, RS485_Sensor_TX_PRIOR_NUM);
  62              		.loc 1 133 0
  63 002a 0721     		movs	r1, #7
  64 002c 0320     		movs	r0, #3
  65 002e FFF7FEFF 		bl	CyIntSetPriority
  66              	.LVL3:
 134:Generated_Source\PSoC5/RS485_Sensor.c ****         #endif /* (RS485_Sensor_TX_INTERRUPT_ENABLED) */
 135:Generated_Source\PSoC5/RS485_Sensor.c **** 
 136:Generated_Source\PSoC5/RS485_Sensor.c ****         /* Write Counter Value for TX Bit Clk Generator*/
 137:Generated_Source\PSoC5/RS485_Sensor.c ****         #if (RS485_Sensor_TXCLKGEN_DP)
 138:Generated_Source\PSoC5/RS485_Sensor.c ****             RS485_Sensor_TXBITCLKGEN_CTR_REG = RS485_Sensor_BIT_CENTER;
  67              		.loc 1 138 0
  68 0032 084B     		ldr	r3, .L2+16
  69 0034 0622     		movs	r2, #6
  70 0036 1A70     		strb	r2, [r3]
 139:Generated_Source\PSoC5/RS485_Sensor.c ****             RS485_Sensor_TXBITCLKTX_COMPLETE_REG = ((RS485_Sensor_NUMBER_OF_DATA_BITS +
  71              		.loc 1 139 0
  72 0038 4722     		movs	r2, #71
  73 003a 1A74     		strb	r2, [r3, #16]
 140:Generated_Source\PSoC5/RS485_Sensor.c ****                         RS485_Sensor_NUMBER_OF_START_BIT) * RS485_Sensor_OVER_SAMPLE_COUNT) - 1u;
 141:Generated_Source\PSoC5/RS485_Sensor.c ****         #else
 142:Generated_Source\PSoC5/RS485_Sensor.c ****             RS485_Sensor_TXBITCTR_PERIOD_REG = ((RS485_Sensor_NUMBER_OF_DATA_BITS +
 143:Generated_Source\PSoC5/RS485_Sensor.c ****                         RS485_Sensor_NUMBER_OF_START_BIT) * RS485_Sensor_OVER_SAMPLE_8) - 1u;
 144:Generated_Source\PSoC5/RS485_Sensor.c ****         #endif /* End RS485_Sensor_TXCLKGEN_DP */
 145:Generated_Source\PSoC5/RS485_Sensor.c **** 
 146:Generated_Source\PSoC5/RS485_Sensor.c ****         /* Configure the Initial TX interrupt mask */
 147:Generated_Source\PSoC5/RS485_Sensor.c ****         #if (RS485_Sensor_TX_INTERRUPT_ENABLED)
 148:Generated_Source\PSoC5/RS485_Sensor.c ****             RS485_Sensor_TXSTATUS_MASK_REG = RS485_Sensor_TX_STS_FIFO_EMPTY;
  74              		.loc 1 148 0
  75 003c 0222     		movs	r2, #2
  76 003e 83F85E20 		strb	r2, [r3, #94]
  77 0042 08BD     		pop	{r3, pc}
  78              	.L3:
  79              		.align	2
  80              	.L2:
ARM GAS  C:\Users\IroTeam\AppData\Local\Temp\ccGexqi8.s 			page 5


  81 0044 00000000 		.word	RS485_Sensor_RXISR
  82 0048 00000000 		.word	.LANCHOR0
  83 004c 8B640040 		.word	1073767563
  84 0050 00000000 		.word	RS485_Sensor_TXISR
  85 0054 2B640040 		.word	1073767467
  86              		.cfi_endproc
  87              	.LFE1:
  88              		.size	RS485_Sensor_Init, .-RS485_Sensor_Init
  89              		.section	.text.RS485_Sensor_Enable,"ax",%progbits
  90              		.align	1
  91              		.global	RS485_Sensor_Enable
  92              		.thumb
  93              		.thumb_func
  94              		.type	RS485_Sensor_Enable, %function
  95              	RS485_Sensor_Enable:
  96              	.LFB2:
 149:Generated_Source\PSoC5/RS485_Sensor.c ****         #else
 150:Generated_Source\PSoC5/RS485_Sensor.c ****             RS485_Sensor_TXSTATUS_MASK_REG = RS485_Sensor_INIT_TX_INTERRUPTS_MASK;
 151:Generated_Source\PSoC5/RS485_Sensor.c ****         #endif /*End RS485_Sensor_TX_INTERRUPT_ENABLED*/
 152:Generated_Source\PSoC5/RS485_Sensor.c **** 
 153:Generated_Source\PSoC5/RS485_Sensor.c ****     #endif /* End RS485_Sensor_TX_ENABLED */
 154:Generated_Source\PSoC5/RS485_Sensor.c **** 
 155:Generated_Source\PSoC5/RS485_Sensor.c ****     #if(RS485_Sensor_PARITY_TYPE_SW)  /* Write Parity to Control Register */
 156:Generated_Source\PSoC5/RS485_Sensor.c ****         RS485_Sensor_WriteControlRegister( \
 157:Generated_Source\PSoC5/RS485_Sensor.c ****             (RS485_Sensor_ReadControlRegister() & (uint8)~RS485_Sensor_CTRL_PARITY_TYPE_MASK) | \
 158:Generated_Source\PSoC5/RS485_Sensor.c ****             (uint8)(RS485_Sensor_PARITY_TYPE << RS485_Sensor_CTRL_PARITY_TYPE0_SHIFT) );
 159:Generated_Source\PSoC5/RS485_Sensor.c ****     #endif /* End RS485_Sensor_PARITY_TYPE_SW */
 160:Generated_Source\PSoC5/RS485_Sensor.c **** }
 161:Generated_Source\PSoC5/RS485_Sensor.c **** 
 162:Generated_Source\PSoC5/RS485_Sensor.c **** 
 163:Generated_Source\PSoC5/RS485_Sensor.c **** /*******************************************************************************
 164:Generated_Source\PSoC5/RS485_Sensor.c **** * Function Name: RS485_Sensor_Enable
 165:Generated_Source\PSoC5/RS485_Sensor.c **** ********************************************************************************
 166:Generated_Source\PSoC5/RS485_Sensor.c **** *
 167:Generated_Source\PSoC5/RS485_Sensor.c **** * Summary:
 168:Generated_Source\PSoC5/RS485_Sensor.c **** *  Activates the hardware and begins component operation. It is not necessary
 169:Generated_Source\PSoC5/RS485_Sensor.c **** *  to call RS485_Sensor_Enable() because the RS485_Sensor_Start() API
 170:Generated_Source\PSoC5/RS485_Sensor.c **** *  calls this function, which is the preferred method to begin component
 171:Generated_Source\PSoC5/RS485_Sensor.c **** *  operation.
 172:Generated_Source\PSoC5/RS485_Sensor.c **** 
 173:Generated_Source\PSoC5/RS485_Sensor.c **** * Parameters:
 174:Generated_Source\PSoC5/RS485_Sensor.c **** *  None.
 175:Generated_Source\PSoC5/RS485_Sensor.c **** *
 176:Generated_Source\PSoC5/RS485_Sensor.c **** * Return:
 177:Generated_Source\PSoC5/RS485_Sensor.c **** *  None.
 178:Generated_Source\PSoC5/RS485_Sensor.c **** *
 179:Generated_Source\PSoC5/RS485_Sensor.c **** * Global Variables:
 180:Generated_Source\PSoC5/RS485_Sensor.c **** *  RS485_Sensor_rxAddressDetected - set to initial state (0).
 181:Generated_Source\PSoC5/RS485_Sensor.c **** *
 182:Generated_Source\PSoC5/RS485_Sensor.c **** *******************************************************************************/
 183:Generated_Source\PSoC5/RS485_Sensor.c **** void RS485_Sensor_Enable(void) 
 184:Generated_Source\PSoC5/RS485_Sensor.c **** {
  97              		.loc 1 184 0
  98              		.cfi_startproc
  99              		@ args = 0, pretend = 0, frame = 0
 100              		@ frame_needed = 0, uses_anonymous_args = 0
 101 0000 10B5     		push	{r4, lr}
ARM GAS  C:\Users\IroTeam\AppData\Local\Temp\ccGexqi8.s 			page 6


 102              		.cfi_def_cfa_offset 8
 103              		.cfi_offset 4, -8
 104              		.cfi_offset 14, -4
 185:Generated_Source\PSoC5/RS485_Sensor.c ****     uint8 enableInterrupts;
 186:Generated_Source\PSoC5/RS485_Sensor.c ****     enableInterrupts = CyEnterCriticalSection();
 105              		.loc 1 186 0
 106 0002 FFF7FEFF 		bl	CyEnterCriticalSection
 107              	.LVL4:
 108 0006 0446     		mov	r4, r0
 109              	.LVL5:
 187:Generated_Source\PSoC5/RS485_Sensor.c **** 
 188:Generated_Source\PSoC5/RS485_Sensor.c ****     #if (RS485_Sensor_RX_ENABLED || RS485_Sensor_HD_ENABLED)
 189:Generated_Source\PSoC5/RS485_Sensor.c ****         /* RX Counter (Count7) Enable */
 190:Generated_Source\PSoC5/RS485_Sensor.c ****         RS485_Sensor_RXBITCTR_CONTROL_REG |= RS485_Sensor_CNTR_ENABLE;
 110              		.loc 1 190 0
 111 0008 0D4A     		ldr	r2, .L5
 191:Generated_Source\PSoC5/RS485_Sensor.c **** 
 192:Generated_Source\PSoC5/RS485_Sensor.c ****         /* Enable the RX Interrupt */
 193:Generated_Source\PSoC5/RS485_Sensor.c ****         RS485_Sensor_RXSTATUS_ACTL_REG  |= RS485_Sensor_INT_ENABLE;
 194:Generated_Source\PSoC5/RS485_Sensor.c **** 
 195:Generated_Source\PSoC5/RS485_Sensor.c ****         #if (RS485_Sensor_RX_INTERRUPT_ENABLED)
 196:Generated_Source\PSoC5/RS485_Sensor.c ****             RS485_Sensor_EnableRxInt();
 197:Generated_Source\PSoC5/RS485_Sensor.c **** 
 198:Generated_Source\PSoC5/RS485_Sensor.c ****             #if (RS485_Sensor_RXHW_ADDRESS_ENABLED)
 199:Generated_Source\PSoC5/RS485_Sensor.c ****                 RS485_Sensor_rxAddressDetected = 0u;
 200:Generated_Source\PSoC5/RS485_Sensor.c ****             #endif /* (RS485_Sensor_RXHW_ADDRESS_ENABLED) */
 201:Generated_Source\PSoC5/RS485_Sensor.c ****         #endif /* (RS485_Sensor_RX_INTERRUPT_ENABLED) */
 202:Generated_Source\PSoC5/RS485_Sensor.c ****     #endif /* (RS485_Sensor_RX_ENABLED || RS485_Sensor_HD_ENABLED) */
 203:Generated_Source\PSoC5/RS485_Sensor.c **** 
 204:Generated_Source\PSoC5/RS485_Sensor.c ****     #if(RS485_Sensor_TX_ENABLED)
 205:Generated_Source\PSoC5/RS485_Sensor.c ****         /* TX Counter (DP/Count7) Enable */
 206:Generated_Source\PSoC5/RS485_Sensor.c ****         #if(!RS485_Sensor_TXCLKGEN_DP)
 207:Generated_Source\PSoC5/RS485_Sensor.c ****             RS485_Sensor_TXBITCTR_CONTROL_REG |= RS485_Sensor_CNTR_ENABLE;
 208:Generated_Source\PSoC5/RS485_Sensor.c ****         #endif /* End RS485_Sensor_TXCLKGEN_DP */
 209:Generated_Source\PSoC5/RS485_Sensor.c **** 
 210:Generated_Source\PSoC5/RS485_Sensor.c ****         /* Enable the TX Interrupt */
 211:Generated_Source\PSoC5/RS485_Sensor.c ****         RS485_Sensor_TXSTATUS_ACTL_REG |= RS485_Sensor_INT_ENABLE;
 112              		.loc 1 211 0
 113 000a 0E49     		ldr	r1, .L5+4
 190:Generated_Source\PSoC5/RS485_Sensor.c **** 
 114              		.loc 1 190 0
 115 000c 1378     		ldrb	r3, [r2]	@ zero_extendqisi2
 116 000e 43F02003 		orr	r3, r3, #32
 117 0012 1370     		strb	r3, [r2]
 193:Generated_Source\PSoC5/RS485_Sensor.c **** 
 118              		.loc 1 193 0
 119 0014 5378     		ldrb	r3, [r2, #1]	@ zero_extendqisi2
 120 0016 43F01003 		orr	r3, r3, #16
 121 001a 5370     		strb	r3, [r2, #1]
 196:Generated_Source\PSoC5/RS485_Sensor.c **** 
 122              		.loc 1 196 0
 123 001c 0A4A     		ldr	r2, .L5+8
 124 001e 0423     		movs	r3, #4
 125 0020 1360     		str	r3, [r2]
 126              		.loc 1 211 0
 127 0022 0B78     		ldrb	r3, [r1]	@ zero_extendqisi2
 128 0024 43F01003 		orr	r3, r3, #16
ARM GAS  C:\Users\IroTeam\AppData\Local\Temp\ccGexqi8.s 			page 7


 129 0028 0B70     		strb	r3, [r1]
 212:Generated_Source\PSoC5/RS485_Sensor.c ****         #if (RS485_Sensor_TX_INTERRUPT_ENABLED)
 213:Generated_Source\PSoC5/RS485_Sensor.c ****             RS485_Sensor_ClearPendingTxInt(); /* Clear history of TX_NOT_EMPTY */
 130              		.loc 1 213 0
 131 002a 0849     		ldr	r1, .L5+12
 132 002c 0823     		movs	r3, #8
 133 002e 0B60     		str	r3, [r1]
 214:Generated_Source\PSoC5/RS485_Sensor.c ****             RS485_Sensor_EnableTxInt();
 134              		.loc 1 214 0
 135 0030 1360     		str	r3, [r2]
 215:Generated_Source\PSoC5/RS485_Sensor.c ****         #endif /* (RS485_Sensor_TX_INTERRUPT_ENABLED) */
 216:Generated_Source\PSoC5/RS485_Sensor.c ****      #endif /* (RS485_Sensor_TX_INTERRUPT_ENABLED) */
 217:Generated_Source\PSoC5/RS485_Sensor.c **** 
 218:Generated_Source\PSoC5/RS485_Sensor.c ****     #if (RS485_Sensor_INTERNAL_CLOCK_USED)
 219:Generated_Source\PSoC5/RS485_Sensor.c ****         RS485_Sensor_IntClock_Start();  /* Enable the clock */
 136              		.loc 1 219 0
 137 0032 FFF7FEFF 		bl	RS485_Sensor_IntClock_Start
 138              	.LVL6:
 220:Generated_Source\PSoC5/RS485_Sensor.c ****     #endif /* (RS485_Sensor_INTERNAL_CLOCK_USED) */
 221:Generated_Source\PSoC5/RS485_Sensor.c **** 
 222:Generated_Source\PSoC5/RS485_Sensor.c ****     CyExitCriticalSection(enableInterrupts);
 139              		.loc 1 222 0
 140 0036 2046     		mov	r0, r4
 223:Generated_Source\PSoC5/RS485_Sensor.c **** }
 141              		.loc 1 223 0
 142 0038 BDE81040 		pop	{r4, lr}
 143              		.cfi_restore 14
 144              		.cfi_restore 4
 145              		.cfi_def_cfa_offset 0
 146              	.LVL7:
 222:Generated_Source\PSoC5/RS485_Sensor.c **** }
 147              		.loc 1 222 0
 148 003c FFF7FEBF 		b	CyExitCriticalSection
 149              	.LVL8:
 150              	.L6:
 151              		.align	2
 152              	.L5:
 153 0040 9B640040 		.word	1073767579
 154 0044 99640040 		.word	1073767577
 155 0048 00E100E0 		.word	-536813312
 156 004c 80E200E0 		.word	-536812928
 157              		.cfi_endproc
 158              	.LFE2:
 159              		.size	RS485_Sensor_Enable, .-RS485_Sensor_Enable
 160              		.section	.text.RS485_Sensor_Start,"ax",%progbits
 161              		.align	1
 162              		.global	RS485_Sensor_Start
 163              		.thumb
 164              		.thumb_func
 165              		.type	RS485_Sensor_Start, %function
 166              	RS485_Sensor_Start:
 167              	.LFB0:
  77:Generated_Source\PSoC5/RS485_Sensor.c ****     /* If not initialized then initialize all required hardware and software */
 168              		.loc 1 77 0
 169              		.cfi_startproc
 170              		@ args = 0, pretend = 0, frame = 0
 171              		@ frame_needed = 0, uses_anonymous_args = 0
ARM GAS  C:\Users\IroTeam\AppData\Local\Temp\ccGexqi8.s 			page 8


 172 0000 10B5     		push	{r4, lr}
 173              		.cfi_def_cfa_offset 8
 174              		.cfi_offset 4, -8
 175              		.cfi_offset 14, -4
  79:Generated_Source\PSoC5/RS485_Sensor.c ****     {
 176              		.loc 1 79 0
 177 0002 054C     		ldr	r4, .L10
 178 0004 6378     		ldrb	r3, [r4, #1]	@ zero_extendqisi2
 179 0006 1BB9     		cbnz	r3, .L8
  81:Generated_Source\PSoC5/RS485_Sensor.c ****         RS485_Sensor_initVar = 1u;
 180              		.loc 1 81 0
 181 0008 FFF7FEFF 		bl	RS485_Sensor_Init
 182              	.LVL9:
  82:Generated_Source\PSoC5/RS485_Sensor.c ****     }
 183              		.loc 1 82 0
 184 000c 0123     		movs	r3, #1
 185 000e 6370     		strb	r3, [r4, #1]
 186              	.L8:
  86:Generated_Source\PSoC5/RS485_Sensor.c **** 
 187              		.loc 1 86 0
 188 0010 BDE81040 		pop	{r4, lr}
 189              		.cfi_restore 14
 190              		.cfi_restore 4
 191              		.cfi_def_cfa_offset 0
  85:Generated_Source\PSoC5/RS485_Sensor.c **** }
 192              		.loc 1 85 0
 193 0014 FFF7FEBF 		b	RS485_Sensor_Enable
 194              	.LVL10:
 195              	.L11:
 196              		.align	2
 197              	.L10:
 198 0018 00000000 		.word	.LANCHOR0
 199              		.cfi_endproc
 200              	.LFE0:
 201              		.size	RS485_Sensor_Start, .-RS485_Sensor_Start
 202              		.section	.text.RS485_Sensor_Stop,"ax",%progbits
 203              		.align	1
 204              		.global	RS485_Sensor_Stop
 205              		.thumb
 206              		.thumb_func
 207              		.type	RS485_Sensor_Stop, %function
 208              	RS485_Sensor_Stop:
 209              	.LFB3:
 224:Generated_Source\PSoC5/RS485_Sensor.c **** 
 225:Generated_Source\PSoC5/RS485_Sensor.c **** 
 226:Generated_Source\PSoC5/RS485_Sensor.c **** /*******************************************************************************
 227:Generated_Source\PSoC5/RS485_Sensor.c **** * Function Name: RS485_Sensor_Stop
 228:Generated_Source\PSoC5/RS485_Sensor.c **** ********************************************************************************
 229:Generated_Source\PSoC5/RS485_Sensor.c **** *
 230:Generated_Source\PSoC5/RS485_Sensor.c **** * Summary:
 231:Generated_Source\PSoC5/RS485_Sensor.c **** *  Disables the UART operation.
 232:Generated_Source\PSoC5/RS485_Sensor.c **** *
 233:Generated_Source\PSoC5/RS485_Sensor.c **** * Parameters:
 234:Generated_Source\PSoC5/RS485_Sensor.c **** *  None.
 235:Generated_Source\PSoC5/RS485_Sensor.c **** *
 236:Generated_Source\PSoC5/RS485_Sensor.c **** * Return:
 237:Generated_Source\PSoC5/RS485_Sensor.c **** *  None.
ARM GAS  C:\Users\IroTeam\AppData\Local\Temp\ccGexqi8.s 			page 9


 238:Generated_Source\PSoC5/RS485_Sensor.c **** *
 239:Generated_Source\PSoC5/RS485_Sensor.c **** *******************************************************************************/
 240:Generated_Source\PSoC5/RS485_Sensor.c **** void RS485_Sensor_Stop(void) 
 241:Generated_Source\PSoC5/RS485_Sensor.c **** {
 210              		.loc 1 241 0
 211              		.cfi_startproc
 212              		@ args = 0, pretend = 0, frame = 0
 213              		@ frame_needed = 0, uses_anonymous_args = 0
 214 0000 10B5     		push	{r4, lr}
 215              		.cfi_def_cfa_offset 8
 216              		.cfi_offset 4, -8
 217              		.cfi_offset 14, -4
 242:Generated_Source\PSoC5/RS485_Sensor.c ****     uint8 enableInterrupts;
 243:Generated_Source\PSoC5/RS485_Sensor.c ****     enableInterrupts = CyEnterCriticalSection();
 218              		.loc 1 243 0
 219 0002 FFF7FEFF 		bl	CyEnterCriticalSection
 220              	.LVL11:
 221 0006 0446     		mov	r4, r0
 222              	.LVL12:
 244:Generated_Source\PSoC5/RS485_Sensor.c **** 
 245:Generated_Source\PSoC5/RS485_Sensor.c ****     /* Write Bit Counter Disable */
 246:Generated_Source\PSoC5/RS485_Sensor.c ****     #if (RS485_Sensor_RX_ENABLED || RS485_Sensor_HD_ENABLED)
 247:Generated_Source\PSoC5/RS485_Sensor.c ****         RS485_Sensor_RXBITCTR_CONTROL_REG &= (uint8) ~RS485_Sensor_CNTR_ENABLE;
 223              		.loc 1 247 0
 224 0008 0D4A     		ldr	r2, .L13
 225 000a 1378     		ldrb	r3, [r2]	@ zero_extendqisi2
 226 000c 03F0DF03 		and	r3, r3, #223
 227 0010 1370     		strb	r3, [r2]
 248:Generated_Source\PSoC5/RS485_Sensor.c ****     #endif /* (RS485_Sensor_RX_ENABLED || RS485_Sensor_HD_ENABLED) */
 249:Generated_Source\PSoC5/RS485_Sensor.c **** 
 250:Generated_Source\PSoC5/RS485_Sensor.c ****     #if (RS485_Sensor_TX_ENABLED)
 251:Generated_Source\PSoC5/RS485_Sensor.c ****         #if(!RS485_Sensor_TXCLKGEN_DP)
 252:Generated_Source\PSoC5/RS485_Sensor.c ****             RS485_Sensor_TXBITCTR_CONTROL_REG &= (uint8) ~RS485_Sensor_CNTR_ENABLE;
 253:Generated_Source\PSoC5/RS485_Sensor.c ****         #endif /* (!RS485_Sensor_TXCLKGEN_DP) */
 254:Generated_Source\PSoC5/RS485_Sensor.c ****     #endif /* (RS485_Sensor_TX_ENABLED) */
 255:Generated_Source\PSoC5/RS485_Sensor.c **** 
 256:Generated_Source\PSoC5/RS485_Sensor.c ****     #if (RS485_Sensor_INTERNAL_CLOCK_USED)
 257:Generated_Source\PSoC5/RS485_Sensor.c ****         RS485_Sensor_IntClock_Stop();   /* Disable the clock */
 228              		.loc 1 257 0
 229 0012 FFF7FEFF 		bl	RS485_Sensor_IntClock_Stop
 230              	.LVL13:
 258:Generated_Source\PSoC5/RS485_Sensor.c ****     #endif /* (RS485_Sensor_INTERNAL_CLOCK_USED) */
 259:Generated_Source\PSoC5/RS485_Sensor.c **** 
 260:Generated_Source\PSoC5/RS485_Sensor.c ****     /* Disable internal interrupt component */
 261:Generated_Source\PSoC5/RS485_Sensor.c ****     #if (RS485_Sensor_RX_ENABLED || RS485_Sensor_HD_ENABLED)
 262:Generated_Source\PSoC5/RS485_Sensor.c ****         RS485_Sensor_RXSTATUS_ACTL_REG  &= (uint8) ~RS485_Sensor_INT_ENABLE;
 231              		.loc 1 262 0
 232 0016 0B4A     		ldr	r2, .L13+4
 263:Generated_Source\PSoC5/RS485_Sensor.c **** 
 264:Generated_Source\PSoC5/RS485_Sensor.c ****         #if (RS485_Sensor_RX_INTERRUPT_ENABLED)
 265:Generated_Source\PSoC5/RS485_Sensor.c ****             RS485_Sensor_DisableRxInt();
 266:Generated_Source\PSoC5/RS485_Sensor.c ****         #endif /* (RS485_Sensor_RX_INTERRUPT_ENABLED) */
 267:Generated_Source\PSoC5/RS485_Sensor.c ****     #endif /* (RS485_Sensor_RX_ENABLED || RS485_Sensor_HD_ENABLED) */
 268:Generated_Source\PSoC5/RS485_Sensor.c **** 
 269:Generated_Source\PSoC5/RS485_Sensor.c ****     #if (RS485_Sensor_TX_ENABLED)
 270:Generated_Source\PSoC5/RS485_Sensor.c ****         RS485_Sensor_TXSTATUS_ACTL_REG &= (uint8) ~RS485_Sensor_INT_ENABLE;
 233              		.loc 1 270 0
ARM GAS  C:\Users\IroTeam\AppData\Local\Temp\ccGexqi8.s 			page 10


 234 0018 0B49     		ldr	r1, .L13+8
 262:Generated_Source\PSoC5/RS485_Sensor.c **** 
 235              		.loc 1 262 0
 236 001a 1378     		ldrb	r3, [r2]	@ zero_extendqisi2
 271:Generated_Source\PSoC5/RS485_Sensor.c **** 
 272:Generated_Source\PSoC5/RS485_Sensor.c ****         #if (RS485_Sensor_TX_INTERRUPT_ENABLED)
 273:Generated_Source\PSoC5/RS485_Sensor.c ****             RS485_Sensor_DisableTxInt();
 274:Generated_Source\PSoC5/RS485_Sensor.c ****         #endif /* (RS485_Sensor_TX_INTERRUPT_ENABLED) */
 275:Generated_Source\PSoC5/RS485_Sensor.c ****     #endif /* (RS485_Sensor_TX_ENABLED) */
 276:Generated_Source\PSoC5/RS485_Sensor.c **** 
 277:Generated_Source\PSoC5/RS485_Sensor.c ****     CyExitCriticalSection(enableInterrupts);
 237              		.loc 1 277 0
 238 001c 2046     		mov	r0, r4
 262:Generated_Source\PSoC5/RS485_Sensor.c **** 
 239              		.loc 1 262 0
 240 001e 03F0EF03 		and	r3, r3, #239
 241 0022 1370     		strb	r3, [r2]
 265:Generated_Source\PSoC5/RS485_Sensor.c ****         #endif /* (RS485_Sensor_RX_INTERRUPT_ENABLED) */
 242              		.loc 1 265 0
 243 0024 094A     		ldr	r2, .L13+12
 244 0026 0423     		movs	r3, #4
 245 0028 1360     		str	r3, [r2]
 270:Generated_Source\PSoC5/RS485_Sensor.c **** 
 246              		.loc 1 270 0
 247 002a 0B78     		ldrb	r3, [r1]	@ zero_extendqisi2
 248 002c 03F0EF03 		and	r3, r3, #239
 249 0030 0B70     		strb	r3, [r1]
 273:Generated_Source\PSoC5/RS485_Sensor.c ****         #endif /* (RS485_Sensor_TX_INTERRUPT_ENABLED) */
 250              		.loc 1 273 0
 251 0032 0823     		movs	r3, #8
 252 0034 1360     		str	r3, [r2]
 278:Generated_Source\PSoC5/RS485_Sensor.c **** }
 253              		.loc 1 278 0
 254 0036 BDE81040 		pop	{r4, lr}
 255              		.cfi_restore 14
 256              		.cfi_restore 4
 257              		.cfi_def_cfa_offset 0
 258              	.LVL14:
 277:Generated_Source\PSoC5/RS485_Sensor.c **** }
 259              		.loc 1 277 0
 260 003a FFF7FEBF 		b	CyExitCriticalSection
 261              	.LVL15:
 262              	.L14:
 263 003e 00BF     		.align	2
 264              	.L13:
 265 0040 9B640040 		.word	1073767579
 266 0044 9C640040 		.word	1073767580
 267 0048 99640040 		.word	1073767577
 268 004c 80E100E0 		.word	-536813184
 269              		.cfi_endproc
 270              	.LFE3:
 271              		.size	RS485_Sensor_Stop, .-RS485_Sensor_Stop
 272              		.section	.text.RS485_Sensor_ReadControlRegister,"ax",%progbits
 273              		.align	1
 274              		.global	RS485_Sensor_ReadControlRegister
 275              		.thumb
 276              		.thumb_func
ARM GAS  C:\Users\IroTeam\AppData\Local\Temp\ccGexqi8.s 			page 11


 277              		.type	RS485_Sensor_ReadControlRegister, %function
 278              	RS485_Sensor_ReadControlRegister:
 279              	.LFB4:
 279:Generated_Source\PSoC5/RS485_Sensor.c **** 
 280:Generated_Source\PSoC5/RS485_Sensor.c **** 
 281:Generated_Source\PSoC5/RS485_Sensor.c **** /*******************************************************************************
 282:Generated_Source\PSoC5/RS485_Sensor.c **** * Function Name: RS485_Sensor_ReadControlRegister
 283:Generated_Source\PSoC5/RS485_Sensor.c **** ********************************************************************************
 284:Generated_Source\PSoC5/RS485_Sensor.c **** *
 285:Generated_Source\PSoC5/RS485_Sensor.c **** * Summary:
 286:Generated_Source\PSoC5/RS485_Sensor.c **** *  Returns the current value of the control register.
 287:Generated_Source\PSoC5/RS485_Sensor.c **** *
 288:Generated_Source\PSoC5/RS485_Sensor.c **** * Parameters:
 289:Generated_Source\PSoC5/RS485_Sensor.c **** *  None.
 290:Generated_Source\PSoC5/RS485_Sensor.c **** *
 291:Generated_Source\PSoC5/RS485_Sensor.c **** * Return:
 292:Generated_Source\PSoC5/RS485_Sensor.c **** *  Contents of the control register.
 293:Generated_Source\PSoC5/RS485_Sensor.c **** *
 294:Generated_Source\PSoC5/RS485_Sensor.c **** *******************************************************************************/
 295:Generated_Source\PSoC5/RS485_Sensor.c **** uint8 RS485_Sensor_ReadControlRegister(void) 
 296:Generated_Source\PSoC5/RS485_Sensor.c **** {
 280              		.loc 1 296 0
 281              		.cfi_startproc
 282              		@ args = 0, pretend = 0, frame = 0
 283              		@ frame_needed = 0, uses_anonymous_args = 0
 284              		@ link register save eliminated.
 297:Generated_Source\PSoC5/RS485_Sensor.c ****     #if (RS485_Sensor_CONTROL_REG_REMOVED)
 298:Generated_Source\PSoC5/RS485_Sensor.c ****         return(0u);
 299:Generated_Source\PSoC5/RS485_Sensor.c ****     #else
 300:Generated_Source\PSoC5/RS485_Sensor.c ****         return(RS485_Sensor_CONTROL_REG);
 301:Generated_Source\PSoC5/RS485_Sensor.c ****     #endif /* (RS485_Sensor_CONTROL_REG_REMOVED) */
 302:Generated_Source\PSoC5/RS485_Sensor.c **** }
 285              		.loc 1 302 0
 286 0000 0020     		movs	r0, #0
 287 0002 7047     		bx	lr
 288              		.cfi_endproc
 289              	.LFE4:
 290              		.size	RS485_Sensor_ReadControlRegister, .-RS485_Sensor_ReadControlRegister
 291              		.section	.text.RS485_Sensor_WriteControlRegister,"ax",%progbits
 292              		.align	1
 293              		.global	RS485_Sensor_WriteControlRegister
 294              		.thumb
 295              		.thumb_func
 296              		.type	RS485_Sensor_WriteControlRegister, %function
 297              	RS485_Sensor_WriteControlRegister:
 298              	.LFB30:
 299              		.cfi_startproc
 300              		@ args = 0, pretend = 0, frame = 0
 301              		@ frame_needed = 0, uses_anonymous_args = 0
 302              		@ link register save eliminated.
 303 0000 7047     		bx	lr
 304              		.cfi_endproc
 305              	.LFE30:
 306              		.size	RS485_Sensor_WriteControlRegister, .-RS485_Sensor_WriteControlRegister
 307              		.section	.text.RS485_Sensor_SetRxInterruptMode,"ax",%progbits
 308              		.align	1
 309              		.global	RS485_Sensor_SetRxInterruptMode
ARM GAS  C:\Users\IroTeam\AppData\Local\Temp\ccGexqi8.s 			page 12


 310              		.thumb
 311              		.thumb_func
 312              		.type	RS485_Sensor_SetRxInterruptMode, %function
 313              	RS485_Sensor_SetRxInterruptMode:
 314              	.LFB6:
 303:Generated_Source\PSoC5/RS485_Sensor.c **** 
 304:Generated_Source\PSoC5/RS485_Sensor.c **** 
 305:Generated_Source\PSoC5/RS485_Sensor.c **** /*******************************************************************************
 306:Generated_Source\PSoC5/RS485_Sensor.c **** * Function Name: RS485_Sensor_WriteControlRegister
 307:Generated_Source\PSoC5/RS485_Sensor.c **** ********************************************************************************
 308:Generated_Source\PSoC5/RS485_Sensor.c **** *
 309:Generated_Source\PSoC5/RS485_Sensor.c **** * Summary:
 310:Generated_Source\PSoC5/RS485_Sensor.c **** *  Writes an 8-bit value into the control register
 311:Generated_Source\PSoC5/RS485_Sensor.c **** *
 312:Generated_Source\PSoC5/RS485_Sensor.c **** * Parameters:
 313:Generated_Source\PSoC5/RS485_Sensor.c **** *  control:  control register value
 314:Generated_Source\PSoC5/RS485_Sensor.c **** *
 315:Generated_Source\PSoC5/RS485_Sensor.c **** * Return:
 316:Generated_Source\PSoC5/RS485_Sensor.c **** *  None.
 317:Generated_Source\PSoC5/RS485_Sensor.c **** *
 318:Generated_Source\PSoC5/RS485_Sensor.c **** *******************************************************************************/
 319:Generated_Source\PSoC5/RS485_Sensor.c **** void  RS485_Sensor_WriteControlRegister(uint8 control) 
 320:Generated_Source\PSoC5/RS485_Sensor.c **** {
 321:Generated_Source\PSoC5/RS485_Sensor.c ****     #if (RS485_Sensor_CONTROL_REG_REMOVED)
 322:Generated_Source\PSoC5/RS485_Sensor.c ****         if(0u != control)
 323:Generated_Source\PSoC5/RS485_Sensor.c ****         {
 324:Generated_Source\PSoC5/RS485_Sensor.c ****             /* Suppress compiler warning */
 325:Generated_Source\PSoC5/RS485_Sensor.c ****         }
 326:Generated_Source\PSoC5/RS485_Sensor.c ****     #else
 327:Generated_Source\PSoC5/RS485_Sensor.c ****        RS485_Sensor_CONTROL_REG = control;
 328:Generated_Source\PSoC5/RS485_Sensor.c ****     #endif /* (RS485_Sensor_CONTROL_REG_REMOVED) */
 329:Generated_Source\PSoC5/RS485_Sensor.c **** }
 330:Generated_Source\PSoC5/RS485_Sensor.c **** 
 331:Generated_Source\PSoC5/RS485_Sensor.c **** 
 332:Generated_Source\PSoC5/RS485_Sensor.c **** #if(RS485_Sensor_RX_ENABLED || RS485_Sensor_HD_ENABLED)
 333:Generated_Source\PSoC5/RS485_Sensor.c ****     /*******************************************************************************
 334:Generated_Source\PSoC5/RS485_Sensor.c ****     * Function Name: RS485_Sensor_SetRxInterruptMode
 335:Generated_Source\PSoC5/RS485_Sensor.c ****     ********************************************************************************
 336:Generated_Source\PSoC5/RS485_Sensor.c ****     *
 337:Generated_Source\PSoC5/RS485_Sensor.c ****     * Summary:
 338:Generated_Source\PSoC5/RS485_Sensor.c ****     *  Configures the RX interrupt sources enabled.
 339:Generated_Source\PSoC5/RS485_Sensor.c ****     *
 340:Generated_Source\PSoC5/RS485_Sensor.c ****     * Parameters:
 341:Generated_Source\PSoC5/RS485_Sensor.c ****     *  IntSrc:  Bit field containing the RX interrupts to enable. Based on the 
 342:Generated_Source\PSoC5/RS485_Sensor.c ****     *  bit-field arrangement of the status register. This value must be a 
 343:Generated_Source\PSoC5/RS485_Sensor.c ****     *  combination of status register bit-masks shown below:
 344:Generated_Source\PSoC5/RS485_Sensor.c ****     *      RS485_Sensor_RX_STS_FIFO_NOTEMPTY    Interrupt on byte received.
 345:Generated_Source\PSoC5/RS485_Sensor.c ****     *      RS485_Sensor_RX_STS_PAR_ERROR        Interrupt on parity error.
 346:Generated_Source\PSoC5/RS485_Sensor.c ****     *      RS485_Sensor_RX_STS_STOP_ERROR       Interrupt on stop error.
 347:Generated_Source\PSoC5/RS485_Sensor.c ****     *      RS485_Sensor_RX_STS_BREAK            Interrupt on break.
 348:Generated_Source\PSoC5/RS485_Sensor.c ****     *      RS485_Sensor_RX_STS_OVERRUN          Interrupt on overrun error.
 349:Generated_Source\PSoC5/RS485_Sensor.c ****     *      RS485_Sensor_RX_STS_ADDR_MATCH       Interrupt on address match.
 350:Generated_Source\PSoC5/RS485_Sensor.c ****     *      RS485_Sensor_RX_STS_MRKSPC           Interrupt on address detect.
 351:Generated_Source\PSoC5/RS485_Sensor.c ****     *
 352:Generated_Source\PSoC5/RS485_Sensor.c ****     * Return:
 353:Generated_Source\PSoC5/RS485_Sensor.c ****     *  None.
 354:Generated_Source\PSoC5/RS485_Sensor.c ****     *
ARM GAS  C:\Users\IroTeam\AppData\Local\Temp\ccGexqi8.s 			page 13


 355:Generated_Source\PSoC5/RS485_Sensor.c ****     * Theory:
 356:Generated_Source\PSoC5/RS485_Sensor.c ****     *  Enables the output of specific status bits to the interrupt controller
 357:Generated_Source\PSoC5/RS485_Sensor.c ****     *
 358:Generated_Source\PSoC5/RS485_Sensor.c ****     *******************************************************************************/
 359:Generated_Source\PSoC5/RS485_Sensor.c ****     void RS485_Sensor_SetRxInterruptMode(uint8 intSrc) 
 360:Generated_Source\PSoC5/RS485_Sensor.c ****     {
 315              		.loc 1 360 0
 316              		.cfi_startproc
 317              		@ args = 0, pretend = 0, frame = 0
 318              		@ frame_needed = 0, uses_anonymous_args = 0
 319              		@ link register save eliminated.
 320              	.LVL16:
 361:Generated_Source\PSoC5/RS485_Sensor.c ****         RS485_Sensor_RXSTATUS_MASK_REG  = intSrc;
 321              		.loc 1 361 0
 322 0000 014B     		ldr	r3, .L18
 323 0002 1870     		strb	r0, [r3]
 324 0004 7047     		bx	lr
 325              	.L19:
 326 0006 00BF     		.align	2
 327              	.L18:
 328 0008 8C640040 		.word	1073767564
 329              		.cfi_endproc
 330              	.LFE6:
 331              		.size	RS485_Sensor_SetRxInterruptMode, .-RS485_Sensor_SetRxInterruptMode
 332              		.section	.text.RS485_Sensor_ReadRxData,"ax",%progbits
 333              		.align	1
 334              		.global	RS485_Sensor_ReadRxData
 335              		.thumb
 336              		.thumb_func
 337              		.type	RS485_Sensor_ReadRxData, %function
 338              	RS485_Sensor_ReadRxData:
 339              	.LFB7:
 362:Generated_Source\PSoC5/RS485_Sensor.c ****     }
 363:Generated_Source\PSoC5/RS485_Sensor.c **** 
 364:Generated_Source\PSoC5/RS485_Sensor.c **** 
 365:Generated_Source\PSoC5/RS485_Sensor.c ****     /*******************************************************************************
 366:Generated_Source\PSoC5/RS485_Sensor.c ****     * Function Name: RS485_Sensor_ReadRxData
 367:Generated_Source\PSoC5/RS485_Sensor.c ****     ********************************************************************************
 368:Generated_Source\PSoC5/RS485_Sensor.c ****     *
 369:Generated_Source\PSoC5/RS485_Sensor.c ****     * Summary:
 370:Generated_Source\PSoC5/RS485_Sensor.c ****     *  Returns the next byte of received data. This function returns data without
 371:Generated_Source\PSoC5/RS485_Sensor.c ****     *  checking the status. You must check the status separately.
 372:Generated_Source\PSoC5/RS485_Sensor.c ****     *
 373:Generated_Source\PSoC5/RS485_Sensor.c ****     * Parameters:
 374:Generated_Source\PSoC5/RS485_Sensor.c ****     *  None.
 375:Generated_Source\PSoC5/RS485_Sensor.c ****     *
 376:Generated_Source\PSoC5/RS485_Sensor.c ****     * Return:
 377:Generated_Source\PSoC5/RS485_Sensor.c ****     *  Received data from RX register
 378:Generated_Source\PSoC5/RS485_Sensor.c ****     *
 379:Generated_Source\PSoC5/RS485_Sensor.c ****     * Global Variables:
 380:Generated_Source\PSoC5/RS485_Sensor.c ****     *  RS485_Sensor_rxBuffer - RAM buffer pointer for save received data.
 381:Generated_Source\PSoC5/RS485_Sensor.c ****     *  RS485_Sensor_rxBufferWrite - cyclic index for write to rxBuffer,
 382:Generated_Source\PSoC5/RS485_Sensor.c ****     *     checked to identify new data.
 383:Generated_Source\PSoC5/RS485_Sensor.c ****     *  RS485_Sensor_rxBufferRead - cyclic index for read from rxBuffer,
 384:Generated_Source\PSoC5/RS485_Sensor.c ****     *     incremented after each byte has been read from buffer.
 385:Generated_Source\PSoC5/RS485_Sensor.c ****     *  RS485_Sensor_rxBufferLoopDetect - cleared if loop condition was detected
 386:Generated_Source\PSoC5/RS485_Sensor.c ****     *     in RX ISR.
ARM GAS  C:\Users\IroTeam\AppData\Local\Temp\ccGexqi8.s 			page 14


 387:Generated_Source\PSoC5/RS485_Sensor.c ****     *
 388:Generated_Source\PSoC5/RS485_Sensor.c ****     * Reentrant:
 389:Generated_Source\PSoC5/RS485_Sensor.c ****     *  No.
 390:Generated_Source\PSoC5/RS485_Sensor.c ****     *
 391:Generated_Source\PSoC5/RS485_Sensor.c ****     *******************************************************************************/
 392:Generated_Source\PSoC5/RS485_Sensor.c ****     uint8 RS485_Sensor_ReadRxData(void) 
 393:Generated_Source\PSoC5/RS485_Sensor.c ****     {
 340              		.loc 1 393 0
 341              		.cfi_startproc
 342              		@ args = 0, pretend = 0, frame = 0
 343              		@ frame_needed = 0, uses_anonymous_args = 0
 344              		@ link register save eliminated.
 394:Generated_Source\PSoC5/RS485_Sensor.c ****         uint8 rxData;
 395:Generated_Source\PSoC5/RS485_Sensor.c **** 
 396:Generated_Source\PSoC5/RS485_Sensor.c ****     #if (RS485_Sensor_RX_INTERRUPT_ENABLED)
 397:Generated_Source\PSoC5/RS485_Sensor.c **** 
 398:Generated_Source\PSoC5/RS485_Sensor.c ****         uint16 locRxBufferRead;
 399:Generated_Source\PSoC5/RS485_Sensor.c ****         uint16 locRxBufferWrite;
 400:Generated_Source\PSoC5/RS485_Sensor.c **** 
 401:Generated_Source\PSoC5/RS485_Sensor.c ****         /* Protect variables that could change on interrupt */
 402:Generated_Source\PSoC5/RS485_Sensor.c ****         RS485_Sensor_DisableRxInt();
 345              		.loc 1 402 0
 346 0000 114B     		ldr	r3, .L28
 347 0002 0422     		movs	r2, #4
 348 0004 1A60     		str	r2, [r3]
 403:Generated_Source\PSoC5/RS485_Sensor.c **** 
 404:Generated_Source\PSoC5/RS485_Sensor.c ****         locRxBufferRead  = RS485_Sensor_rxBufferRead;
 349              		.loc 1 404 0
 350 0006 114A     		ldr	r2, .L28+4
 351 0008 5388     		ldrh	r3, [r2, #2]
 405:Generated_Source\PSoC5/RS485_Sensor.c ****         locRxBufferWrite = RS485_Sensor_rxBufferWrite;
 352              		.loc 1 405 0
 353 000a 9188     		ldrh	r1, [r2, #4]
 406:Generated_Source\PSoC5/RS485_Sensor.c **** 
 407:Generated_Source\PSoC5/RS485_Sensor.c ****         if( (RS485_Sensor_rxBufferLoopDetect != 0u) || (locRxBufferRead != locRxBufferWrite) )
 354              		.loc 1 407 0
 355 000c 9079     		ldrb	r0, [r2, #6]	@ zero_extendqisi2
 404:Generated_Source\PSoC5/RS485_Sensor.c ****         locRxBufferWrite = RS485_Sensor_rxBufferWrite;
 356              		.loc 1 404 0
 357 000e 9BB2     		uxth	r3, r3
 358              	.LVL17:
 405:Generated_Source\PSoC5/RS485_Sensor.c ****         locRxBufferWrite = RS485_Sensor_rxBufferWrite;
 359              		.loc 1 405 0
 360 0010 89B2     		uxth	r1, r1
 361              	.LVL18:
 362              		.loc 1 407 0
 363 0012 08B9     		cbnz	r0, .L21
 364              		.loc 1 407 0 is_stmt 0 discriminator 1
 365 0014 8B42     		cmp	r3, r1
 366 0016 0FD0     		beq	.L22
 367              	.L21:
 408:Generated_Source\PSoC5/RS485_Sensor.c ****         {
 409:Generated_Source\PSoC5/RS485_Sensor.c ****             rxData = RS485_Sensor_rxBuffer[locRxBufferRead];
 368              		.loc 1 409 0 is_stmt 1
 369 0018 0D49     		ldr	r1, .L28+8
 370              	.LVL19:
 371 001a C85C     		ldrb	r0, [r1, r3]	@ zero_extendqisi2
ARM GAS  C:\Users\IroTeam\AppData\Local\Temp\ccGexqi8.s 			page 15


 410:Generated_Source\PSoC5/RS485_Sensor.c ****             locRxBufferRead++;
 372              		.loc 1 410 0
 373 001c 0133     		adds	r3, r3, #1
 374              	.LVL20:
 375 001e 9BB2     		uxth	r3, r3
 376              	.LVL21:
 411:Generated_Source\PSoC5/RS485_Sensor.c **** 
 412:Generated_Source\PSoC5/RS485_Sensor.c ****             if(locRxBufferRead >= RS485_Sensor_RX_BUFFER_SIZE)
 413:Generated_Source\PSoC5/RS485_Sensor.c ****             {
 414:Generated_Source\PSoC5/RS485_Sensor.c ****                 locRxBufferRead = 0u;
 377              		.loc 1 414 0
 378 0020 B3F5807F 		cmp	r3, #256
 379 0024 28BF     		it	cs
 380 0026 0023     		movcs	r3, #0
 415:Generated_Source\PSoC5/RS485_Sensor.c ****             }
 416:Generated_Source\PSoC5/RS485_Sensor.c ****             /* Update the real pointer */
 417:Generated_Source\PSoC5/RS485_Sensor.c ****             RS485_Sensor_rxBufferRead = locRxBufferRead;
 381              		.loc 1 417 0
 382 0028 5380     		strh	r3, [r2, #2]	@ movhi
 418:Generated_Source\PSoC5/RS485_Sensor.c **** 
 419:Generated_Source\PSoC5/RS485_Sensor.c ****             if(RS485_Sensor_rxBufferLoopDetect != 0u)
 383              		.loc 1 419 0
 384 002a 9379     		ldrb	r3, [r2, #6]	@ zero_extendqisi2
 409:Generated_Source\PSoC5/RS485_Sensor.c ****             locRxBufferRead++;
 385              		.loc 1 409 0
 386 002c C0B2     		uxtb	r0, r0
 387              	.LVL22:
 388              		.loc 1 419 0
 389 002e 33B1     		cbz	r3, .L24
 420:Generated_Source\PSoC5/RS485_Sensor.c ****             {
 421:Generated_Source\PSoC5/RS485_Sensor.c ****                 RS485_Sensor_rxBufferLoopDetect = 0u;
 390              		.loc 1 421 0
 391 0030 064B     		ldr	r3, .L28+4
 392 0032 0022     		movs	r2, #0
 393 0034 9A71     		strb	r2, [r3, #6]
 394 0036 02E0     		b	.L24
 395              	.LVL23:
 396              	.L22:
 422:Generated_Source\PSoC5/RS485_Sensor.c ****                 #if ((RS485_Sensor_RX_INTERRUPT_ENABLED) && (RS485_Sensor_FLOW_CONTROL != 0u))
 423:Generated_Source\PSoC5/RS485_Sensor.c ****                     /* When Hardware Flow Control selected - return RX mask */
 424:Generated_Source\PSoC5/RS485_Sensor.c ****                     #if( RS485_Sensor_HD_ENABLED )
 425:Generated_Source\PSoC5/RS485_Sensor.c ****                         if((RS485_Sensor_CONTROL_REG & RS485_Sensor_CTRL_HD_SEND) == 0u)
 426:Generated_Source\PSoC5/RS485_Sensor.c ****                         {   /* In Half duplex mode return RX mask only in RX
 427:Generated_Source\PSoC5/RS485_Sensor.c ****                             *  configuration set, otherwise
 428:Generated_Source\PSoC5/RS485_Sensor.c ****                             *  mask will be returned in LoadRxConfig() API.
 429:Generated_Source\PSoC5/RS485_Sensor.c ****                             */
 430:Generated_Source\PSoC5/RS485_Sensor.c ****                             RS485_Sensor_RXSTATUS_MASK_REG  |= RS485_Sensor_RX_STS_FIFO_NOTEMPTY;
 431:Generated_Source\PSoC5/RS485_Sensor.c ****                         }
 432:Generated_Source\PSoC5/RS485_Sensor.c ****                     #else
 433:Generated_Source\PSoC5/RS485_Sensor.c ****                         RS485_Sensor_RXSTATUS_MASK_REG  |= RS485_Sensor_RX_STS_FIFO_NOTEMPTY;
 434:Generated_Source\PSoC5/RS485_Sensor.c ****                     #endif /* end RS485_Sensor_HD_ENABLED */
 435:Generated_Source\PSoC5/RS485_Sensor.c ****                 #endif /* ((RS485_Sensor_RX_INTERRUPT_ENABLED) && (RS485_Sensor_FLOW_CONTROL != 0u)
 436:Generated_Source\PSoC5/RS485_Sensor.c ****             }
 437:Generated_Source\PSoC5/RS485_Sensor.c ****         }
 438:Generated_Source\PSoC5/RS485_Sensor.c ****         else
 439:Generated_Source\PSoC5/RS485_Sensor.c ****         {   /* Needs to check status for RX_STS_FIFO_NOTEMPTY bit */
 440:Generated_Source\PSoC5/RS485_Sensor.c ****             rxData = RS485_Sensor_RXDATA_REG;
ARM GAS  C:\Users\IroTeam\AppData\Local\Temp\ccGexqi8.s 			page 16


 397              		.loc 1 440 0
 398 0038 064B     		ldr	r3, .L28+12
 399              	.LVL24:
 400 003a 1878     		ldrb	r0, [r3]	@ zero_extendqisi2
 401 003c C0B2     		uxtb	r0, r0
 402              	.LVL25:
 403              	.L24:
 441:Generated_Source\PSoC5/RS485_Sensor.c ****         }
 442:Generated_Source\PSoC5/RS485_Sensor.c **** 
 443:Generated_Source\PSoC5/RS485_Sensor.c ****         RS485_Sensor_EnableRxInt();
 404              		.loc 1 443 0
 405 003e 064B     		ldr	r3, .L28+16
 406 0040 0422     		movs	r2, #4
 407 0042 1A60     		str	r2, [r3]
 444:Generated_Source\PSoC5/RS485_Sensor.c **** 
 445:Generated_Source\PSoC5/RS485_Sensor.c ****     #else
 446:Generated_Source\PSoC5/RS485_Sensor.c **** 
 447:Generated_Source\PSoC5/RS485_Sensor.c ****         /* Needs to check status for RX_STS_FIFO_NOTEMPTY bit */
 448:Generated_Source\PSoC5/RS485_Sensor.c ****         rxData = RS485_Sensor_RXDATA_REG;
 449:Generated_Source\PSoC5/RS485_Sensor.c **** 
 450:Generated_Source\PSoC5/RS485_Sensor.c ****     #endif /* (RS485_Sensor_RX_INTERRUPT_ENABLED) */
 451:Generated_Source\PSoC5/RS485_Sensor.c **** 
 452:Generated_Source\PSoC5/RS485_Sensor.c ****         return(rxData);
 453:Generated_Source\PSoC5/RS485_Sensor.c ****     }
 408              		.loc 1 453 0
 409 0044 7047     		bx	lr
 410              	.L29:
 411 0046 00BF     		.align	2
 412              	.L28:
 413 0048 80E100E0 		.word	-536813184
 414 004c 00000000 		.word	.LANCHOR0
 415 0050 00000000 		.word	RS485_Sensor_rxBuffer
 416 0054 48640040 		.word	1073767496
 417 0058 00E100E0 		.word	-536813312
 418              		.cfi_endproc
 419              	.LFE7:
 420              		.size	RS485_Sensor_ReadRxData, .-RS485_Sensor_ReadRxData
 421              		.section	.text.RS485_Sensor_ReadRxStatus,"ax",%progbits
 422              		.align	1
 423              		.global	RS485_Sensor_ReadRxStatus
 424              		.thumb
 425              		.thumb_func
 426              		.type	RS485_Sensor_ReadRxStatus, %function
 427              	RS485_Sensor_ReadRxStatus:
 428              	.LFB8:
 454:Generated_Source\PSoC5/RS485_Sensor.c **** 
 455:Generated_Source\PSoC5/RS485_Sensor.c **** 
 456:Generated_Source\PSoC5/RS485_Sensor.c ****     /*******************************************************************************
 457:Generated_Source\PSoC5/RS485_Sensor.c ****     * Function Name: RS485_Sensor_ReadRxStatus
 458:Generated_Source\PSoC5/RS485_Sensor.c ****     ********************************************************************************
 459:Generated_Source\PSoC5/RS485_Sensor.c ****     *
 460:Generated_Source\PSoC5/RS485_Sensor.c ****     * Summary:
 461:Generated_Source\PSoC5/RS485_Sensor.c ****     *  Returns the current state of the receiver status register and the software
 462:Generated_Source\PSoC5/RS485_Sensor.c ****     *  buffer overflow status.
 463:Generated_Source\PSoC5/RS485_Sensor.c ****     *
 464:Generated_Source\PSoC5/RS485_Sensor.c ****     * Parameters:
 465:Generated_Source\PSoC5/RS485_Sensor.c ****     *  None.
ARM GAS  C:\Users\IroTeam\AppData\Local\Temp\ccGexqi8.s 			page 17


 466:Generated_Source\PSoC5/RS485_Sensor.c ****     *
 467:Generated_Source\PSoC5/RS485_Sensor.c ****     * Return:
 468:Generated_Source\PSoC5/RS485_Sensor.c ****     *  Current state of the status register.
 469:Generated_Source\PSoC5/RS485_Sensor.c ****     *
 470:Generated_Source\PSoC5/RS485_Sensor.c ****     * Side Effect:
 471:Generated_Source\PSoC5/RS485_Sensor.c ****     *  All status register bits are clear-on-read except
 472:Generated_Source\PSoC5/RS485_Sensor.c ****     *  RS485_Sensor_RX_STS_FIFO_NOTEMPTY.
 473:Generated_Source\PSoC5/RS485_Sensor.c ****     *  RS485_Sensor_RX_STS_FIFO_NOTEMPTY clears immediately after RX data
 474:Generated_Source\PSoC5/RS485_Sensor.c ****     *  register read.
 475:Generated_Source\PSoC5/RS485_Sensor.c ****     *
 476:Generated_Source\PSoC5/RS485_Sensor.c ****     * Global Variables:
 477:Generated_Source\PSoC5/RS485_Sensor.c ****     *  RS485_Sensor_rxBufferOverflow - used to indicate overload condition.
 478:Generated_Source\PSoC5/RS485_Sensor.c ****     *   It set to one in RX interrupt when there isn't free space in
 479:Generated_Source\PSoC5/RS485_Sensor.c ****     *   RS485_Sensor_rxBufferRead to write new data. This condition returned
 480:Generated_Source\PSoC5/RS485_Sensor.c ****     *   and cleared to zero by this API as an
 481:Generated_Source\PSoC5/RS485_Sensor.c ****     *   RS485_Sensor_RX_STS_SOFT_BUFF_OVER bit along with RX Status register
 482:Generated_Source\PSoC5/RS485_Sensor.c ****     *   bits.
 483:Generated_Source\PSoC5/RS485_Sensor.c ****     *
 484:Generated_Source\PSoC5/RS485_Sensor.c ****     *******************************************************************************/
 485:Generated_Source\PSoC5/RS485_Sensor.c ****     uint8 RS485_Sensor_ReadRxStatus(void) 
 486:Generated_Source\PSoC5/RS485_Sensor.c ****     {
 429              		.loc 1 486 0
 430              		.cfi_startproc
 431              		@ args = 0, pretend = 0, frame = 0
 432              		@ frame_needed = 0, uses_anonymous_args = 0
 433              		@ link register save eliminated.
 487:Generated_Source\PSoC5/RS485_Sensor.c ****         uint8 status;
 488:Generated_Source\PSoC5/RS485_Sensor.c **** 
 489:Generated_Source\PSoC5/RS485_Sensor.c ****         status = RS485_Sensor_RXSTATUS_REG & RS485_Sensor_RX_HW_MASK;
 434              		.loc 1 489 0
 435 0000 054B     		ldr	r3, .L35
 436 0002 1878     		ldrb	r0, [r3]	@ zero_extendqisi2
 490:Generated_Source\PSoC5/RS485_Sensor.c **** 
 491:Generated_Source\PSoC5/RS485_Sensor.c ****     #if (RS485_Sensor_RX_INTERRUPT_ENABLED)
 492:Generated_Source\PSoC5/RS485_Sensor.c ****         if(RS485_Sensor_rxBufferOverflow != 0u)
 437              		.loc 1 492 0
 438 0004 054B     		ldr	r3, .L35+4
 489:Generated_Source\PSoC5/RS485_Sensor.c **** 
 439              		.loc 1 489 0
 440 0006 00F07F00 		and	r0, r0, #127
 441              	.LVL26:
 442              		.loc 1 492 0
 443 000a DA79     		ldrb	r2, [r3, #7]	@ zero_extendqisi2
 444 000c 1AB1     		cbz	r2, .L31
 493:Generated_Source\PSoC5/RS485_Sensor.c ****         {
 494:Generated_Source\PSoC5/RS485_Sensor.c ****             status |= RS485_Sensor_RX_STS_SOFT_BUFF_OVER;
 495:Generated_Source\PSoC5/RS485_Sensor.c ****             RS485_Sensor_rxBufferOverflow = 0u;
 445              		.loc 1 495 0
 446 000e 0022     		movs	r2, #0
 494:Generated_Source\PSoC5/RS485_Sensor.c ****             RS485_Sensor_rxBufferOverflow = 0u;
 447              		.loc 1 494 0
 448 0010 40F08000 		orr	r0, r0, #128
 449              	.LVL27:
 450              		.loc 1 495 0
 451 0014 DA71     		strb	r2, [r3, #7]
 452              	.L31:
 496:Generated_Source\PSoC5/RS485_Sensor.c ****         }
ARM GAS  C:\Users\IroTeam\AppData\Local\Temp\ccGexqi8.s 			page 18


 497:Generated_Source\PSoC5/RS485_Sensor.c ****     #endif /* (RS485_Sensor_RX_INTERRUPT_ENABLED) */
 498:Generated_Source\PSoC5/RS485_Sensor.c **** 
 499:Generated_Source\PSoC5/RS485_Sensor.c ****         return(status);
 500:Generated_Source\PSoC5/RS485_Sensor.c ****     }
 453              		.loc 1 500 0
 454 0016 7047     		bx	lr
 455              	.L36:
 456              		.align	2
 457              	.L35:
 458 0018 6C640040 		.word	1073767532
 459 001c 00000000 		.word	.LANCHOR0
 460              		.cfi_endproc
 461              	.LFE8:
 462              		.size	RS485_Sensor_ReadRxStatus, .-RS485_Sensor_ReadRxStatus
 463              		.section	.text.RS485_Sensor_GetChar,"ax",%progbits
 464              		.align	1
 465              		.global	RS485_Sensor_GetChar
 466              		.thumb
 467              		.thumb_func
 468              		.type	RS485_Sensor_GetChar, %function
 469              	RS485_Sensor_GetChar:
 470              	.LFB9:
 501:Generated_Source\PSoC5/RS485_Sensor.c **** 
 502:Generated_Source\PSoC5/RS485_Sensor.c **** 
 503:Generated_Source\PSoC5/RS485_Sensor.c ****     /*******************************************************************************
 504:Generated_Source\PSoC5/RS485_Sensor.c ****     * Function Name: RS485_Sensor_GetChar
 505:Generated_Source\PSoC5/RS485_Sensor.c ****     ********************************************************************************
 506:Generated_Source\PSoC5/RS485_Sensor.c ****     *
 507:Generated_Source\PSoC5/RS485_Sensor.c ****     * Summary:
 508:Generated_Source\PSoC5/RS485_Sensor.c ****     *  Returns the last received byte of data. RS485_Sensor_GetChar() is
 509:Generated_Source\PSoC5/RS485_Sensor.c ****     *  designed for ASCII characters and returns a uint8 where 1 to 255 are values
 510:Generated_Source\PSoC5/RS485_Sensor.c ****     *  for valid characters and 0 indicates an error occurred or no data is present.
 511:Generated_Source\PSoC5/RS485_Sensor.c ****     *
 512:Generated_Source\PSoC5/RS485_Sensor.c ****     * Parameters:
 513:Generated_Source\PSoC5/RS485_Sensor.c ****     *  None.
 514:Generated_Source\PSoC5/RS485_Sensor.c ****     *
 515:Generated_Source\PSoC5/RS485_Sensor.c ****     * Return:
 516:Generated_Source\PSoC5/RS485_Sensor.c ****     *  Character read from UART RX buffer. ASCII characters from 1 to 255 are valid.
 517:Generated_Source\PSoC5/RS485_Sensor.c ****     *  A returned zero signifies an error condition or no data available.
 518:Generated_Source\PSoC5/RS485_Sensor.c ****     *
 519:Generated_Source\PSoC5/RS485_Sensor.c ****     * Global Variables:
 520:Generated_Source\PSoC5/RS485_Sensor.c ****     *  RS485_Sensor_rxBuffer - RAM buffer pointer for save received data.
 521:Generated_Source\PSoC5/RS485_Sensor.c ****     *  RS485_Sensor_rxBufferWrite - cyclic index for write to rxBuffer,
 522:Generated_Source\PSoC5/RS485_Sensor.c ****     *     checked to identify new data.
 523:Generated_Source\PSoC5/RS485_Sensor.c ****     *  RS485_Sensor_rxBufferRead - cyclic index for read from rxBuffer,
 524:Generated_Source\PSoC5/RS485_Sensor.c ****     *     incremented after each byte has been read from buffer.
 525:Generated_Source\PSoC5/RS485_Sensor.c ****     *  RS485_Sensor_rxBufferLoopDetect - cleared if loop condition was detected
 526:Generated_Source\PSoC5/RS485_Sensor.c ****     *     in RX ISR.
 527:Generated_Source\PSoC5/RS485_Sensor.c ****     *
 528:Generated_Source\PSoC5/RS485_Sensor.c ****     * Reentrant:
 529:Generated_Source\PSoC5/RS485_Sensor.c ****     *  No.
 530:Generated_Source\PSoC5/RS485_Sensor.c ****     *
 531:Generated_Source\PSoC5/RS485_Sensor.c ****     *******************************************************************************/
 532:Generated_Source\PSoC5/RS485_Sensor.c ****     uint8 RS485_Sensor_GetChar(void) 
 533:Generated_Source\PSoC5/RS485_Sensor.c ****     {
 471              		.loc 1 533 0
 472              		.cfi_startproc
ARM GAS  C:\Users\IroTeam\AppData\Local\Temp\ccGexqi8.s 			page 19


 473              		@ args = 0, pretend = 0, frame = 0
 474              		@ frame_needed = 0, uses_anonymous_args = 0
 475              		@ link register save eliminated.
 476              	.LVL28:
 534:Generated_Source\PSoC5/RS485_Sensor.c ****         uint8 rxData = 0u;
 535:Generated_Source\PSoC5/RS485_Sensor.c ****         uint8 rxStatus;
 536:Generated_Source\PSoC5/RS485_Sensor.c **** 
 537:Generated_Source\PSoC5/RS485_Sensor.c ****     #if (RS485_Sensor_RX_INTERRUPT_ENABLED)
 538:Generated_Source\PSoC5/RS485_Sensor.c ****         uint16 locRxBufferRead;
 539:Generated_Source\PSoC5/RS485_Sensor.c ****         uint16 locRxBufferWrite;
 540:Generated_Source\PSoC5/RS485_Sensor.c **** 
 541:Generated_Source\PSoC5/RS485_Sensor.c ****         /* Protect variables that could change on interrupt */
 542:Generated_Source\PSoC5/RS485_Sensor.c ****         RS485_Sensor_DisableRxInt();
 477              		.loc 1 542 0
 478 0000 164B     		ldr	r3, .L47
 479 0002 0422     		movs	r2, #4
 480 0004 1A60     		str	r2, [r3]
 543:Generated_Source\PSoC5/RS485_Sensor.c **** 
 544:Generated_Source\PSoC5/RS485_Sensor.c ****         locRxBufferRead  = RS485_Sensor_rxBufferRead;
 481              		.loc 1 544 0
 482 0006 164A     		ldr	r2, .L47+4
 483 0008 5388     		ldrh	r3, [r2, #2]
 545:Generated_Source\PSoC5/RS485_Sensor.c ****         locRxBufferWrite = RS485_Sensor_rxBufferWrite;
 484              		.loc 1 545 0
 485 000a 9188     		ldrh	r1, [r2, #4]
 546:Generated_Source\PSoC5/RS485_Sensor.c **** 
 547:Generated_Source\PSoC5/RS485_Sensor.c ****         if( (RS485_Sensor_rxBufferLoopDetect != 0u) || (locRxBufferRead != locRxBufferWrite) )
 486              		.loc 1 547 0
 487 000c 9079     		ldrb	r0, [r2, #6]	@ zero_extendqisi2
 544:Generated_Source\PSoC5/RS485_Sensor.c ****         locRxBufferWrite = RS485_Sensor_rxBufferWrite;
 488              		.loc 1 544 0
 489 000e 9BB2     		uxth	r3, r3
 490              	.LVL29:
 545:Generated_Source\PSoC5/RS485_Sensor.c ****         locRxBufferWrite = RS485_Sensor_rxBufferWrite;
 491              		.loc 1 545 0
 492 0010 89B2     		uxth	r1, r1
 493              	.LVL30:
 494              		.loc 1 547 0
 495 0012 08B9     		cbnz	r0, .L38
 496              		.loc 1 547 0 is_stmt 0 discriminator 1
 497 0014 8B42     		cmp	r3, r1
 498 0016 0FD0     		beq	.L39
 499              	.L38:
 548:Generated_Source\PSoC5/RS485_Sensor.c ****         {
 549:Generated_Source\PSoC5/RS485_Sensor.c ****             rxData = RS485_Sensor_rxBuffer[locRxBufferRead];
 500              		.loc 1 549 0 is_stmt 1
 501 0018 1249     		ldr	r1, .L47+8
 502              	.LVL31:
 503 001a C85C     		ldrb	r0, [r1, r3]	@ zero_extendqisi2
 550:Generated_Source\PSoC5/RS485_Sensor.c ****             locRxBufferRead++;
 504              		.loc 1 550 0
 505 001c 0133     		adds	r3, r3, #1
 506              	.LVL32:
 507 001e 9BB2     		uxth	r3, r3
 508              	.LVL33:
 551:Generated_Source\PSoC5/RS485_Sensor.c ****             if(locRxBufferRead >= RS485_Sensor_RX_BUFFER_SIZE)
 552:Generated_Source\PSoC5/RS485_Sensor.c ****             {
ARM GAS  C:\Users\IroTeam\AppData\Local\Temp\ccGexqi8.s 			page 20


 553:Generated_Source\PSoC5/RS485_Sensor.c ****                 locRxBufferRead = 0u;
 509              		.loc 1 553 0
 510 0020 B3F5807F 		cmp	r3, #256
 511 0024 28BF     		it	cs
 512 0026 0023     		movcs	r3, #0
 554:Generated_Source\PSoC5/RS485_Sensor.c ****             }
 555:Generated_Source\PSoC5/RS485_Sensor.c ****             /* Update the real pointer */
 556:Generated_Source\PSoC5/RS485_Sensor.c ****             RS485_Sensor_rxBufferRead = locRxBufferRead;
 513              		.loc 1 556 0
 514 0028 5380     		strh	r3, [r2, #2]	@ movhi
 557:Generated_Source\PSoC5/RS485_Sensor.c **** 
 558:Generated_Source\PSoC5/RS485_Sensor.c ****             if(RS485_Sensor_rxBufferLoopDetect != 0u)
 515              		.loc 1 558 0
 516 002a 9379     		ldrb	r3, [r2, #6]	@ zero_extendqisi2
 549:Generated_Source\PSoC5/RS485_Sensor.c ****             locRxBufferRead++;
 517              		.loc 1 549 0
 518 002c C0B2     		uxtb	r0, r0
 519              	.LVL34:
 520              		.loc 1 558 0
 521 002e 8BB1     		cbz	r3, .L41
 559:Generated_Source\PSoC5/RS485_Sensor.c ****             {
 560:Generated_Source\PSoC5/RS485_Sensor.c ****                 RS485_Sensor_rxBufferLoopDetect = 0u;
 522              		.loc 1 560 0
 523 0030 0B4B     		ldr	r3, .L47+4
 524 0032 0022     		movs	r2, #0
 525 0034 9A71     		strb	r2, [r3, #6]
 526 0036 0DE0     		b	.L41
 527              	.LVL35:
 528              	.L39:
 561:Generated_Source\PSoC5/RS485_Sensor.c ****                 #if( (RS485_Sensor_RX_INTERRUPT_ENABLED) && (RS485_Sensor_FLOW_CONTROL != 0u) )
 562:Generated_Source\PSoC5/RS485_Sensor.c ****                     /* When Hardware Flow Control selected - return RX mask */
 563:Generated_Source\PSoC5/RS485_Sensor.c ****                     #if( RS485_Sensor_HD_ENABLED )
 564:Generated_Source\PSoC5/RS485_Sensor.c ****                         if((RS485_Sensor_CONTROL_REG & RS485_Sensor_CTRL_HD_SEND) == 0u)
 565:Generated_Source\PSoC5/RS485_Sensor.c ****                         {   /* In Half duplex mode return RX mask only if
 566:Generated_Source\PSoC5/RS485_Sensor.c ****                             *  RX configuration set, otherwise
 567:Generated_Source\PSoC5/RS485_Sensor.c ****                             *  mask will be returned in LoadRxConfig() API.
 568:Generated_Source\PSoC5/RS485_Sensor.c ****                             */
 569:Generated_Source\PSoC5/RS485_Sensor.c ****                             RS485_Sensor_RXSTATUS_MASK_REG |= RS485_Sensor_RX_STS_FIFO_NOTEMPTY;
 570:Generated_Source\PSoC5/RS485_Sensor.c ****                         }
 571:Generated_Source\PSoC5/RS485_Sensor.c ****                     #else
 572:Generated_Source\PSoC5/RS485_Sensor.c ****                         RS485_Sensor_RXSTATUS_MASK_REG |= RS485_Sensor_RX_STS_FIFO_NOTEMPTY;
 573:Generated_Source\PSoC5/RS485_Sensor.c ****                     #endif /* end RS485_Sensor_HD_ENABLED */
 574:Generated_Source\PSoC5/RS485_Sensor.c ****                 #endif /* RS485_Sensor_RX_INTERRUPT_ENABLED and Hardware flow control*/
 575:Generated_Source\PSoC5/RS485_Sensor.c ****             }
 576:Generated_Source\PSoC5/RS485_Sensor.c **** 
 577:Generated_Source\PSoC5/RS485_Sensor.c ****         }
 578:Generated_Source\PSoC5/RS485_Sensor.c ****         else
 579:Generated_Source\PSoC5/RS485_Sensor.c ****         {   rxStatus = RS485_Sensor_RXSTATUS_REG;
 529              		.loc 1 579 0
 530 0038 0B4B     		ldr	r3, .L47+12
 531              	.LVL36:
 532 003a 1B78     		ldrb	r3, [r3]	@ zero_extendqisi2
 533 003c DBB2     		uxtb	r3, r3
 534              	.LVL37:
 580:Generated_Source\PSoC5/RS485_Sensor.c ****             if((rxStatus & RS485_Sensor_RX_STS_FIFO_NOTEMPTY) != 0u)
 535              		.loc 1 580 0
 536 003e 03F02002 		and	r2, r3, #32
ARM GAS  C:\Users\IroTeam\AppData\Local\Temp\ccGexqi8.s 			page 21


 537 0042 02F0FF00 		and	r0, r2, #255
 538 0046 2AB1     		cbz	r2, .L41
 581:Generated_Source\PSoC5/RS485_Sensor.c ****             {   /* Read received data from FIFO */
 582:Generated_Source\PSoC5/RS485_Sensor.c ****                 rxData = RS485_Sensor_RXDATA_REG;
 539              		.loc 1 582 0
 540 0048 084A     		ldr	r2, .L47+16
 583:Generated_Source\PSoC5/RS485_Sensor.c ****                 /*Check status on error*/
 584:Generated_Source\PSoC5/RS485_Sensor.c ****                 if((rxStatus & (RS485_Sensor_RX_STS_BREAK | RS485_Sensor_RX_STS_PAR_ERROR |
 585:Generated_Source\PSoC5/RS485_Sensor.c ****                                 RS485_Sensor_RX_STS_STOP_ERROR | RS485_Sensor_RX_STS_OVERRUN)) != 0
 586:Generated_Source\PSoC5/RS485_Sensor.c ****                 {
 587:Generated_Source\PSoC5/RS485_Sensor.c ****                     rxData = 0u;
 541              		.loc 1 587 0
 542 004a 13F01E0F 		tst	r3, #30
 582:Generated_Source\PSoC5/RS485_Sensor.c ****                 /*Check status on error*/
 543              		.loc 1 582 0
 544 004e 1078     		ldrb	r0, [r2]	@ zero_extendqisi2
 545              	.LVL38:
 546              		.loc 1 587 0
 547 0050 18BF     		it	ne
 548 0052 0020     		movne	r0, #0
 549              	.LVL39:
 550              	.L41:
 588:Generated_Source\PSoC5/RS485_Sensor.c ****                 }
 589:Generated_Source\PSoC5/RS485_Sensor.c ****             }
 590:Generated_Source\PSoC5/RS485_Sensor.c ****         }
 591:Generated_Source\PSoC5/RS485_Sensor.c **** 
 592:Generated_Source\PSoC5/RS485_Sensor.c ****         RS485_Sensor_EnableRxInt();
 551              		.loc 1 592 0
 552 0054 064B     		ldr	r3, .L47+20
 553 0056 0422     		movs	r2, #4
 554 0058 1A60     		str	r2, [r3]
 593:Generated_Source\PSoC5/RS485_Sensor.c **** 
 594:Generated_Source\PSoC5/RS485_Sensor.c ****     #else
 595:Generated_Source\PSoC5/RS485_Sensor.c **** 
 596:Generated_Source\PSoC5/RS485_Sensor.c ****         rxStatus =RS485_Sensor_RXSTATUS_REG;
 597:Generated_Source\PSoC5/RS485_Sensor.c ****         if((rxStatus & RS485_Sensor_RX_STS_FIFO_NOTEMPTY) != 0u)
 598:Generated_Source\PSoC5/RS485_Sensor.c ****         {
 599:Generated_Source\PSoC5/RS485_Sensor.c ****             /* Read received data from FIFO */
 600:Generated_Source\PSoC5/RS485_Sensor.c ****             rxData = RS485_Sensor_RXDATA_REG;
 601:Generated_Source\PSoC5/RS485_Sensor.c **** 
 602:Generated_Source\PSoC5/RS485_Sensor.c ****             /*Check status on error*/
 603:Generated_Source\PSoC5/RS485_Sensor.c ****             if((rxStatus & (RS485_Sensor_RX_STS_BREAK | RS485_Sensor_RX_STS_PAR_ERROR |
 604:Generated_Source\PSoC5/RS485_Sensor.c ****                             RS485_Sensor_RX_STS_STOP_ERROR | RS485_Sensor_RX_STS_OVERRUN)) != 0u)
 605:Generated_Source\PSoC5/RS485_Sensor.c ****             {
 606:Generated_Source\PSoC5/RS485_Sensor.c ****                 rxData = 0u;
 607:Generated_Source\PSoC5/RS485_Sensor.c ****             }
 608:Generated_Source\PSoC5/RS485_Sensor.c ****         }
 609:Generated_Source\PSoC5/RS485_Sensor.c ****     #endif /* (RS485_Sensor_RX_INTERRUPT_ENABLED) */
 610:Generated_Source\PSoC5/RS485_Sensor.c **** 
 611:Generated_Source\PSoC5/RS485_Sensor.c ****         return(rxData);
 612:Generated_Source\PSoC5/RS485_Sensor.c ****     }
 555              		.loc 1 612 0
 556 005a 7047     		bx	lr
 557              	.L48:
 558              		.align	2
 559              	.L47:
 560 005c 80E100E0 		.word	-536813184
ARM GAS  C:\Users\IroTeam\AppData\Local\Temp\ccGexqi8.s 			page 22


 561 0060 00000000 		.word	.LANCHOR0
 562 0064 00000000 		.word	RS485_Sensor_rxBuffer
 563 0068 6C640040 		.word	1073767532
 564 006c 48640040 		.word	1073767496
 565 0070 00E100E0 		.word	-536813312
 566              		.cfi_endproc
 567              	.LFE9:
 568              		.size	RS485_Sensor_GetChar, .-RS485_Sensor_GetChar
 569              		.section	.text.RS485_Sensor_GetByte,"ax",%progbits
 570              		.align	1
 571              		.global	RS485_Sensor_GetByte
 572              		.thumb
 573              		.thumb_func
 574              		.type	RS485_Sensor_GetByte, %function
 575              	RS485_Sensor_GetByte:
 576              	.LFB10:
 613:Generated_Source\PSoC5/RS485_Sensor.c **** 
 614:Generated_Source\PSoC5/RS485_Sensor.c **** 
 615:Generated_Source\PSoC5/RS485_Sensor.c ****     /*******************************************************************************
 616:Generated_Source\PSoC5/RS485_Sensor.c ****     * Function Name: RS485_Sensor_GetByte
 617:Generated_Source\PSoC5/RS485_Sensor.c ****     ********************************************************************************
 618:Generated_Source\PSoC5/RS485_Sensor.c ****     *
 619:Generated_Source\PSoC5/RS485_Sensor.c ****     * Summary:
 620:Generated_Source\PSoC5/RS485_Sensor.c ****     *  Reads UART RX buffer immediately, returns received character and error
 621:Generated_Source\PSoC5/RS485_Sensor.c ****     *  condition.
 622:Generated_Source\PSoC5/RS485_Sensor.c ****     *
 623:Generated_Source\PSoC5/RS485_Sensor.c ****     * Parameters:
 624:Generated_Source\PSoC5/RS485_Sensor.c ****     *  None.
 625:Generated_Source\PSoC5/RS485_Sensor.c ****     *
 626:Generated_Source\PSoC5/RS485_Sensor.c ****     * Return:
 627:Generated_Source\PSoC5/RS485_Sensor.c ****     *  MSB contains status and LSB contains UART RX data. If the MSB is nonzero,
 628:Generated_Source\PSoC5/RS485_Sensor.c ****     *  an error has occurred.
 629:Generated_Source\PSoC5/RS485_Sensor.c ****     *
 630:Generated_Source\PSoC5/RS485_Sensor.c ****     * Reentrant:
 631:Generated_Source\PSoC5/RS485_Sensor.c ****     *  No.
 632:Generated_Source\PSoC5/RS485_Sensor.c ****     *
 633:Generated_Source\PSoC5/RS485_Sensor.c ****     *******************************************************************************/
 634:Generated_Source\PSoC5/RS485_Sensor.c ****     uint16 RS485_Sensor_GetByte(void) 
 635:Generated_Source\PSoC5/RS485_Sensor.c ****     {
 577              		.loc 1 635 0
 578              		.cfi_startproc
 579              		@ args = 0, pretend = 0, frame = 0
 580              		@ frame_needed = 0, uses_anonymous_args = 0
 581 0000 10B5     		push	{r4, lr}
 582              		.cfi_def_cfa_offset 8
 583              		.cfi_offset 4, -8
 584              		.cfi_offset 14, -4
 636:Generated_Source\PSoC5/RS485_Sensor.c ****         
 637:Generated_Source\PSoC5/RS485_Sensor.c ****     #if (RS485_Sensor_RX_INTERRUPT_ENABLED)
 638:Generated_Source\PSoC5/RS485_Sensor.c ****         uint16 locErrorStatus;
 639:Generated_Source\PSoC5/RS485_Sensor.c ****         /* Protect variables that could change on interrupt */
 640:Generated_Source\PSoC5/RS485_Sensor.c ****         RS485_Sensor_DisableRxInt();
 585              		.loc 1 640 0
 586 0002 074A     		ldr	r2, .L50
 587 0004 0423     		movs	r3, #4
 588 0006 1360     		str	r3, [r2]
 641:Generated_Source\PSoC5/RS485_Sensor.c ****         locErrorStatus = (uint16)RS485_Sensor_errorStatus;
ARM GAS  C:\Users\IroTeam\AppData\Local\Temp\ccGexqi8.s 			page 23


 589              		.loc 1 641 0
 590 0008 064A     		ldr	r2, .L50+4
 642:Generated_Source\PSoC5/RS485_Sensor.c ****         RS485_Sensor_errorStatus = 0u;
 591              		.loc 1 642 0
 592 000a 0021     		movs	r1, #0
 641:Generated_Source\PSoC5/RS485_Sensor.c ****         locErrorStatus = (uint16)RS485_Sensor_errorStatus;
 593              		.loc 1 641 0
 594 000c 1478     		ldrb	r4, [r2]	@ zero_extendqisi2
 595              	.LVL40:
 596              		.loc 1 642 0
 597 000e 1170     		strb	r1, [r2]
 643:Generated_Source\PSoC5/RS485_Sensor.c ****         RS485_Sensor_EnableRxInt();
 598              		.loc 1 643 0
 599 0010 054A     		ldr	r2, .L50+8
 600 0012 1360     		str	r3, [r2]
 644:Generated_Source\PSoC5/RS485_Sensor.c ****         return ( (uint16)(locErrorStatus << 8u) | RS485_Sensor_ReadRxData() );
 601              		.loc 1 644 0
 602 0014 FFF7FEFF 		bl	RS485_Sensor_ReadRxData
 603              	.LVL41:
 604 0018 40EA0420 		orr	r0, r0, r4, lsl #8
 645:Generated_Source\PSoC5/RS485_Sensor.c ****     #else
 646:Generated_Source\PSoC5/RS485_Sensor.c ****         return ( ((uint16)RS485_Sensor_ReadRxStatus() << 8u) | RS485_Sensor_ReadRxData() );
 647:Generated_Source\PSoC5/RS485_Sensor.c ****     #endif /* RS485_Sensor_RX_INTERRUPT_ENABLED */
 648:Generated_Source\PSoC5/RS485_Sensor.c ****         
 649:Generated_Source\PSoC5/RS485_Sensor.c ****     }
 605              		.loc 1 649 0
 606 001c 80B2     		uxth	r0, r0
 607 001e 10BD     		pop	{r4, pc}
 608              	.LVL42:
 609              	.L51:
 610              		.align	2
 611              	.L50:
 612 0020 80E100E0 		.word	-536813184
 613 0024 00000000 		.word	.LANCHOR0
 614 0028 00E100E0 		.word	-536813312
 615              		.cfi_endproc
 616              	.LFE10:
 617              		.size	RS485_Sensor_GetByte, .-RS485_Sensor_GetByte
 618              		.section	.text.RS485_Sensor_GetRxBufferSize,"ax",%progbits
 619              		.align	1
 620              		.global	RS485_Sensor_GetRxBufferSize
 621              		.thumb
 622              		.thumb_func
 623              		.type	RS485_Sensor_GetRxBufferSize, %function
 624              	RS485_Sensor_GetRxBufferSize:
 625              	.LFB11:
 650:Generated_Source\PSoC5/RS485_Sensor.c **** 
 651:Generated_Source\PSoC5/RS485_Sensor.c **** 
 652:Generated_Source\PSoC5/RS485_Sensor.c ****     /*******************************************************************************
 653:Generated_Source\PSoC5/RS485_Sensor.c ****     * Function Name: RS485_Sensor_GetRxBufferSize
 654:Generated_Source\PSoC5/RS485_Sensor.c ****     ********************************************************************************
 655:Generated_Source\PSoC5/RS485_Sensor.c ****     *
 656:Generated_Source\PSoC5/RS485_Sensor.c ****     * Summary:
 657:Generated_Source\PSoC5/RS485_Sensor.c ****     *  Returns the number of received bytes available in the RX buffer.
 658:Generated_Source\PSoC5/RS485_Sensor.c ****     *  * RX software buffer is disabled (RX Buffer Size parameter is equal to 4): 
 659:Generated_Source\PSoC5/RS485_Sensor.c ****     *    returns 0 for empty RX FIFO or 1 for not empty RX FIFO.
 660:Generated_Source\PSoC5/RS485_Sensor.c ****     *  * RX software buffer is enabled: returns the number of bytes available in 
ARM GAS  C:\Users\IroTeam\AppData\Local\Temp\ccGexqi8.s 			page 24


 661:Generated_Source\PSoC5/RS485_Sensor.c ****     *    the RX software buffer. Bytes available in the RX FIFO do not take to 
 662:Generated_Source\PSoC5/RS485_Sensor.c ****     *    account.
 663:Generated_Source\PSoC5/RS485_Sensor.c ****     *
 664:Generated_Source\PSoC5/RS485_Sensor.c ****     * Parameters:
 665:Generated_Source\PSoC5/RS485_Sensor.c ****     *  None.
 666:Generated_Source\PSoC5/RS485_Sensor.c ****     *
 667:Generated_Source\PSoC5/RS485_Sensor.c ****     * Return:
 668:Generated_Source\PSoC5/RS485_Sensor.c ****     *  uint16: Number of bytes in the RX buffer. 
 669:Generated_Source\PSoC5/RS485_Sensor.c ****     *    Return value type depends on RX Buffer Size parameter.
 670:Generated_Source\PSoC5/RS485_Sensor.c ****     *
 671:Generated_Source\PSoC5/RS485_Sensor.c ****     * Global Variables:
 672:Generated_Source\PSoC5/RS485_Sensor.c ****     *  RS485_Sensor_rxBufferWrite - used to calculate left bytes.
 673:Generated_Source\PSoC5/RS485_Sensor.c ****     *  RS485_Sensor_rxBufferRead - used to calculate left bytes.
 674:Generated_Source\PSoC5/RS485_Sensor.c ****     *  RS485_Sensor_rxBufferLoopDetect - checked to decide left bytes amount.
 675:Generated_Source\PSoC5/RS485_Sensor.c ****     *
 676:Generated_Source\PSoC5/RS485_Sensor.c ****     * Reentrant:
 677:Generated_Source\PSoC5/RS485_Sensor.c ****     *  No.
 678:Generated_Source\PSoC5/RS485_Sensor.c ****     *
 679:Generated_Source\PSoC5/RS485_Sensor.c ****     * Theory:
 680:Generated_Source\PSoC5/RS485_Sensor.c ****     *  Allows the user to find out how full the RX Buffer is.
 681:Generated_Source\PSoC5/RS485_Sensor.c ****     *
 682:Generated_Source\PSoC5/RS485_Sensor.c ****     *******************************************************************************/
 683:Generated_Source\PSoC5/RS485_Sensor.c ****     uint16 RS485_Sensor_GetRxBufferSize(void)
 684:Generated_Source\PSoC5/RS485_Sensor.c ****                                                             
 685:Generated_Source\PSoC5/RS485_Sensor.c ****     {
 626              		.loc 1 685 0
 627              		.cfi_startproc
 628              		@ args = 0, pretend = 0, frame = 0
 629              		@ frame_needed = 0, uses_anonymous_args = 0
 630              		@ link register save eliminated.
 686:Generated_Source\PSoC5/RS485_Sensor.c ****         uint16 size;
 687:Generated_Source\PSoC5/RS485_Sensor.c **** 
 688:Generated_Source\PSoC5/RS485_Sensor.c ****     #if (RS485_Sensor_RX_INTERRUPT_ENABLED)
 689:Generated_Source\PSoC5/RS485_Sensor.c **** 
 690:Generated_Source\PSoC5/RS485_Sensor.c ****         /* Protect variables that could change on interrupt */
 691:Generated_Source\PSoC5/RS485_Sensor.c ****         RS485_Sensor_DisableRxInt();
 631              		.loc 1 691 0
 632 0000 124B     		ldr	r3, .L58
 633 0002 0422     		movs	r2, #4
 634 0004 1A60     		str	r2, [r3]
 692:Generated_Source\PSoC5/RS485_Sensor.c **** 
 693:Generated_Source\PSoC5/RS485_Sensor.c ****         if(RS485_Sensor_rxBufferRead == RS485_Sensor_rxBufferWrite)
 635              		.loc 1 693 0
 636 0006 124A     		ldr	r2, .L58+4
 637 0008 5188     		ldrh	r1, [r2, #2]
 638 000a 9388     		ldrh	r3, [r2, #4]
 639 000c 89B2     		uxth	r1, r1
 640 000e 9BB2     		uxth	r3, r3
 641 0010 9942     		cmp	r1, r3
 642 0012 06D1     		bne	.L53
 694:Generated_Source\PSoC5/RS485_Sensor.c ****         {
 695:Generated_Source\PSoC5/RS485_Sensor.c ****             if(RS485_Sensor_rxBufferLoopDetect != 0u)
 643              		.loc 1 695 0
 644 0014 9379     		ldrb	r3, [r2, #6]	@ zero_extendqisi2
 645 0016 002B     		cmp	r3, #0
 696:Generated_Source\PSoC5/RS485_Sensor.c ****             {
 697:Generated_Source\PSoC5/RS485_Sensor.c ****                 size = RS485_Sensor_RX_BUFFER_SIZE;
ARM GAS  C:\Users\IroTeam\AppData\Local\Temp\ccGexqi8.s 			page 25


 698:Generated_Source\PSoC5/RS485_Sensor.c ****             }
 699:Generated_Source\PSoC5/RS485_Sensor.c ****             else
 700:Generated_Source\PSoC5/RS485_Sensor.c ****             {
 701:Generated_Source\PSoC5/RS485_Sensor.c ****                 size = 0u;
 646              		.loc 1 701 0
 647 0018 14BF     		ite	ne
 648 001a 4FF48070 		movne	r0, #256
 649 001e 0020     		moveq	r0, #0
 650 0020 10E0     		b	.L54
 651              	.L53:
 702:Generated_Source\PSoC5/RS485_Sensor.c ****             }
 703:Generated_Source\PSoC5/RS485_Sensor.c ****         }
 704:Generated_Source\PSoC5/RS485_Sensor.c ****         else if(RS485_Sensor_rxBufferRead < RS485_Sensor_rxBufferWrite)
 652              		.loc 1 704 0
 653 0022 5188     		ldrh	r1, [r2, #2]
 654 0024 9388     		ldrh	r3, [r2, #4]
 655 0026 89B2     		uxth	r1, r1
 656 0028 9BB2     		uxth	r3, r3
 657 002a 9942     		cmp	r1, r3
 705:Generated_Source\PSoC5/RS485_Sensor.c ****         {
 706:Generated_Source\PSoC5/RS485_Sensor.c ****             size = (RS485_Sensor_rxBufferWrite - RS485_Sensor_rxBufferRead);
 707:Generated_Source\PSoC5/RS485_Sensor.c ****         }
 708:Generated_Source\PSoC5/RS485_Sensor.c ****         else
 709:Generated_Source\PSoC5/RS485_Sensor.c ****         {
 710:Generated_Source\PSoC5/RS485_Sensor.c ****             size = (RS485_Sensor_RX_BUFFER_SIZE - RS485_Sensor_rxBufferRead) + RS485_Sensor_rxBuffe
 658              		.loc 1 710 0
 659 002c 2BBF     		itete	cs
 660 002e 9088     		ldrhcs	r0, [r2, #4]
 706:Generated_Source\PSoC5/RS485_Sensor.c ****         }
 661              		.loc 1 706 0
 662 0030 9388     		ldrhcc	r3, [r2, #4]
 663              		.loc 1 710 0
 664 0032 80B2     		uxthcs	r0, r0
 706:Generated_Source\PSoC5/RS485_Sensor.c ****         }
 665              		.loc 1 706 0
 666 0034 5088     		ldrhcc	r0, [r2, #2]
 667              		.loc 1 710 0
 668 0036 25BF     		ittet	cs
 669 0038 5388     		ldrhcs	r3, [r2, #2]
 670 003a 00F58070 		addcs	r0, r0, #256
 706:Generated_Source\PSoC5/RS485_Sensor.c ****         }
 671              		.loc 1 706 0
 672 003e 181A     		subcc	r0, r3, r0
 673              		.loc 1 710 0
 674 0040 C01A     		subcs	r0, r0, r3
 675 0042 80B2     		uxth	r0, r0
 676              	.LVL43:
 677              	.L54:
 711:Generated_Source\PSoC5/RS485_Sensor.c ****         }
 712:Generated_Source\PSoC5/RS485_Sensor.c **** 
 713:Generated_Source\PSoC5/RS485_Sensor.c ****         RS485_Sensor_EnableRxInt();
 678              		.loc 1 713 0
 679 0044 034B     		ldr	r3, .L58+8
 680 0046 0422     		movs	r2, #4
 681 0048 1A60     		str	r2, [r3]
 714:Generated_Source\PSoC5/RS485_Sensor.c **** 
 715:Generated_Source\PSoC5/RS485_Sensor.c ****     #else
ARM GAS  C:\Users\IroTeam\AppData\Local\Temp\ccGexqi8.s 			page 26


 716:Generated_Source\PSoC5/RS485_Sensor.c **** 
 717:Generated_Source\PSoC5/RS485_Sensor.c ****         /* We can only know if there is data in the fifo. */
 718:Generated_Source\PSoC5/RS485_Sensor.c ****         size = ((RS485_Sensor_RXSTATUS_REG & RS485_Sensor_RX_STS_FIFO_NOTEMPTY) != 0u) ? 1u : 0u;
 719:Generated_Source\PSoC5/RS485_Sensor.c **** 
 720:Generated_Source\PSoC5/RS485_Sensor.c ****     #endif /* (RS485_Sensor_RX_INTERRUPT_ENABLED) */
 721:Generated_Source\PSoC5/RS485_Sensor.c **** 
 722:Generated_Source\PSoC5/RS485_Sensor.c ****         return(size);
 723:Generated_Source\PSoC5/RS485_Sensor.c ****     }
 682              		.loc 1 723 0
 683 004a 7047     		bx	lr
 684              	.L59:
 685              		.align	2
 686              	.L58:
 687 004c 80E100E0 		.word	-536813184
 688 0050 00000000 		.word	.LANCHOR0
 689 0054 00E100E0 		.word	-536813312
 690              		.cfi_endproc
 691              	.LFE11:
 692              		.size	RS485_Sensor_GetRxBufferSize, .-RS485_Sensor_GetRxBufferSize
 693              		.section	.text.RS485_Sensor_ClearRxBuffer,"ax",%progbits
 694              		.align	1
 695              		.global	RS485_Sensor_ClearRxBuffer
 696              		.thumb
 697              		.thumb_func
 698              		.type	RS485_Sensor_ClearRxBuffer, %function
 699              	RS485_Sensor_ClearRxBuffer:
 700              	.LFB12:
 724:Generated_Source\PSoC5/RS485_Sensor.c **** 
 725:Generated_Source\PSoC5/RS485_Sensor.c **** 
 726:Generated_Source\PSoC5/RS485_Sensor.c ****     /*******************************************************************************
 727:Generated_Source\PSoC5/RS485_Sensor.c ****     * Function Name: RS485_Sensor_ClearRxBuffer
 728:Generated_Source\PSoC5/RS485_Sensor.c ****     ********************************************************************************
 729:Generated_Source\PSoC5/RS485_Sensor.c ****     *
 730:Generated_Source\PSoC5/RS485_Sensor.c ****     * Summary:
 731:Generated_Source\PSoC5/RS485_Sensor.c ****     *  Clears the receiver memory buffer and hardware RX FIFO of all received data.
 732:Generated_Source\PSoC5/RS485_Sensor.c ****     *
 733:Generated_Source\PSoC5/RS485_Sensor.c ****     * Parameters:
 734:Generated_Source\PSoC5/RS485_Sensor.c ****     *  None.
 735:Generated_Source\PSoC5/RS485_Sensor.c ****     *
 736:Generated_Source\PSoC5/RS485_Sensor.c ****     * Return:
 737:Generated_Source\PSoC5/RS485_Sensor.c ****     *  None.
 738:Generated_Source\PSoC5/RS485_Sensor.c ****     *
 739:Generated_Source\PSoC5/RS485_Sensor.c ****     * Global Variables:
 740:Generated_Source\PSoC5/RS485_Sensor.c ****     *  RS485_Sensor_rxBufferWrite - cleared to zero.
 741:Generated_Source\PSoC5/RS485_Sensor.c ****     *  RS485_Sensor_rxBufferRead - cleared to zero.
 742:Generated_Source\PSoC5/RS485_Sensor.c ****     *  RS485_Sensor_rxBufferLoopDetect - cleared to zero.
 743:Generated_Source\PSoC5/RS485_Sensor.c ****     *  RS485_Sensor_rxBufferOverflow - cleared to zero.
 744:Generated_Source\PSoC5/RS485_Sensor.c ****     *
 745:Generated_Source\PSoC5/RS485_Sensor.c ****     * Reentrant:
 746:Generated_Source\PSoC5/RS485_Sensor.c ****     *  No.
 747:Generated_Source\PSoC5/RS485_Sensor.c ****     *
 748:Generated_Source\PSoC5/RS485_Sensor.c ****     * Theory:
 749:Generated_Source\PSoC5/RS485_Sensor.c ****     *  Setting the pointers to zero makes the system believe there is no data to
 750:Generated_Source\PSoC5/RS485_Sensor.c ****     *  read and writing will resume at address 0 overwriting any data that may
 751:Generated_Source\PSoC5/RS485_Sensor.c ****     *  have remained in the RAM.
 752:Generated_Source\PSoC5/RS485_Sensor.c ****     *
 753:Generated_Source\PSoC5/RS485_Sensor.c ****     * Side Effects:
ARM GAS  C:\Users\IroTeam\AppData\Local\Temp\ccGexqi8.s 			page 27


 754:Generated_Source\PSoC5/RS485_Sensor.c ****     *  Any received data not read from the RAM or FIFO buffer will be lost.
 755:Generated_Source\PSoC5/RS485_Sensor.c ****     *
 756:Generated_Source\PSoC5/RS485_Sensor.c ****     *******************************************************************************/
 757:Generated_Source\PSoC5/RS485_Sensor.c ****     void RS485_Sensor_ClearRxBuffer(void) 
 758:Generated_Source\PSoC5/RS485_Sensor.c ****     {
 701              		.loc 1 758 0
 702              		.cfi_startproc
 703              		@ args = 0, pretend = 0, frame = 0
 704              		@ frame_needed = 0, uses_anonymous_args = 0
 705 0000 08B5     		push	{r3, lr}
 706              		.cfi_def_cfa_offset 8
 707              		.cfi_offset 3, -8
 708              		.cfi_offset 14, -4
 759:Generated_Source\PSoC5/RS485_Sensor.c ****         uint8 enableInterrupts;
 760:Generated_Source\PSoC5/RS485_Sensor.c **** 
 761:Generated_Source\PSoC5/RS485_Sensor.c ****         /* Clear the HW FIFO */
 762:Generated_Source\PSoC5/RS485_Sensor.c ****         enableInterrupts = CyEnterCriticalSection();
 709              		.loc 1 762 0
 710 0002 FFF7FEFF 		bl	CyEnterCriticalSection
 711              	.LVL44:
 763:Generated_Source\PSoC5/RS485_Sensor.c ****         RS485_Sensor_RXDATA_AUX_CTL_REG |= (uint8)  RS485_Sensor_RX_FIFO_CLR;
 712              		.loc 1 763 0
 713 0006 0B4B     		ldr	r3, .L61
 714 0008 1A78     		ldrb	r2, [r3]	@ zero_extendqisi2
 715 000a 42F00102 		orr	r2, r2, #1
 716 000e 1A70     		strb	r2, [r3]
 764:Generated_Source\PSoC5/RS485_Sensor.c ****         RS485_Sensor_RXDATA_AUX_CTL_REG &= (uint8) ~RS485_Sensor_RX_FIFO_CLR;
 717              		.loc 1 764 0
 718 0010 1A78     		ldrb	r2, [r3]	@ zero_extendqisi2
 719 0012 02F0FE02 		and	r2, r2, #254
 720 0016 1A70     		strb	r2, [r3]
 765:Generated_Source\PSoC5/RS485_Sensor.c ****         CyExitCriticalSection(enableInterrupts);
 721              		.loc 1 765 0
 722 0018 FFF7FEFF 		bl	CyExitCriticalSection
 723              	.LVL45:
 766:Generated_Source\PSoC5/RS485_Sensor.c **** 
 767:Generated_Source\PSoC5/RS485_Sensor.c ****     #if (RS485_Sensor_RX_INTERRUPT_ENABLED)
 768:Generated_Source\PSoC5/RS485_Sensor.c **** 
 769:Generated_Source\PSoC5/RS485_Sensor.c ****         /* Protect variables that could change on interrupt. */
 770:Generated_Source\PSoC5/RS485_Sensor.c ****         RS485_Sensor_DisableRxInt();
 724              		.loc 1 770 0
 725 001c 064B     		ldr	r3, .L61+4
 726 001e 0421     		movs	r1, #4
 727 0020 1960     		str	r1, [r3]
 771:Generated_Source\PSoC5/RS485_Sensor.c **** 
 772:Generated_Source\PSoC5/RS485_Sensor.c ****         RS485_Sensor_rxBufferRead = 0u;
 728              		.loc 1 772 0
 729 0022 064B     		ldr	r3, .L61+8
 730 0024 0022     		movs	r2, #0
 731 0026 5A80     		strh	r2, [r3, #2]	@ movhi
 773:Generated_Source\PSoC5/RS485_Sensor.c ****         RS485_Sensor_rxBufferWrite = 0u;
 732              		.loc 1 773 0
 733 0028 9A80     		strh	r2, [r3, #4]	@ movhi
 774:Generated_Source\PSoC5/RS485_Sensor.c ****         RS485_Sensor_rxBufferLoopDetect = 0u;
 734              		.loc 1 774 0
 735 002a 9A71     		strb	r2, [r3, #6]
 775:Generated_Source\PSoC5/RS485_Sensor.c ****         RS485_Sensor_rxBufferOverflow = 0u;
ARM GAS  C:\Users\IroTeam\AppData\Local\Temp\ccGexqi8.s 			page 28


 736              		.loc 1 775 0
 737 002c DA71     		strb	r2, [r3, #7]
 776:Generated_Source\PSoC5/RS485_Sensor.c **** 
 777:Generated_Source\PSoC5/RS485_Sensor.c ****         RS485_Sensor_EnableRxInt();
 738              		.loc 1 777 0
 739 002e 044B     		ldr	r3, .L61+12
 740 0030 1960     		str	r1, [r3]
 741 0032 08BD     		pop	{r3, pc}
 742              	.L62:
 743              		.align	2
 744              	.L61:
 745 0034 98640040 		.word	1073767576
 746 0038 80E100E0 		.word	-536813184
 747 003c 00000000 		.word	.LANCHOR0
 748 0040 00E100E0 		.word	-536813312
 749              		.cfi_endproc
 750              	.LFE12:
 751              		.size	RS485_Sensor_ClearRxBuffer, .-RS485_Sensor_ClearRxBuffer
 752              		.section	.text.RS485_Sensor_SetRxAddressMode,"ax",%progbits
 753              		.align	1
 754              		.global	RS485_Sensor_SetRxAddressMode
 755              		.thumb
 756              		.thumb_func
 757              		.type	RS485_Sensor_SetRxAddressMode, %function
 758              	RS485_Sensor_SetRxAddressMode:
 759              	.LFB28:
 760              		.cfi_startproc
 761              		@ args = 0, pretend = 0, frame = 0
 762              		@ frame_needed = 0, uses_anonymous_args = 0
 763              		@ link register save eliminated.
 764 0000 7047     		bx	lr
 765              		.cfi_endproc
 766              	.LFE28:
 767              		.size	RS485_Sensor_SetRxAddressMode, .-RS485_Sensor_SetRxAddressMode
 768              		.section	.text.RS485_Sensor_SetRxAddress1,"ax",%progbits
 769              		.align	1
 770              		.global	RS485_Sensor_SetRxAddress1
 771              		.thumb
 772              		.thumb_func
 773              		.type	RS485_Sensor_SetRxAddress1, %function
 774              	RS485_Sensor_SetRxAddress1:
 775              	.LFB14:
 778:Generated_Source\PSoC5/RS485_Sensor.c **** 
 779:Generated_Source\PSoC5/RS485_Sensor.c ****     #endif /* (RS485_Sensor_RX_INTERRUPT_ENABLED) */
 780:Generated_Source\PSoC5/RS485_Sensor.c **** 
 781:Generated_Source\PSoC5/RS485_Sensor.c ****     }
 782:Generated_Source\PSoC5/RS485_Sensor.c **** 
 783:Generated_Source\PSoC5/RS485_Sensor.c **** 
 784:Generated_Source\PSoC5/RS485_Sensor.c ****     /*******************************************************************************
 785:Generated_Source\PSoC5/RS485_Sensor.c ****     * Function Name: RS485_Sensor_SetRxAddressMode
 786:Generated_Source\PSoC5/RS485_Sensor.c ****     ********************************************************************************
 787:Generated_Source\PSoC5/RS485_Sensor.c ****     *
 788:Generated_Source\PSoC5/RS485_Sensor.c ****     * Summary:
 789:Generated_Source\PSoC5/RS485_Sensor.c ****     *  Sets the software controlled Addressing mode used by the RX portion of the
 790:Generated_Source\PSoC5/RS485_Sensor.c ****     *  UART.
 791:Generated_Source\PSoC5/RS485_Sensor.c ****     *
 792:Generated_Source\PSoC5/RS485_Sensor.c ****     * Parameters:
ARM GAS  C:\Users\IroTeam\AppData\Local\Temp\ccGexqi8.s 			page 29


 793:Generated_Source\PSoC5/RS485_Sensor.c ****     *  addressMode: Enumerated value indicating the mode of RX addressing
 794:Generated_Source\PSoC5/RS485_Sensor.c ****     *  RS485_Sensor__B_UART__AM_SW_BYTE_BYTE -  Software Byte-by-Byte address
 795:Generated_Source\PSoC5/RS485_Sensor.c ****     *                                               detection
 796:Generated_Source\PSoC5/RS485_Sensor.c ****     *  RS485_Sensor__B_UART__AM_SW_DETECT_TO_BUFFER - Software Detect to Buffer
 797:Generated_Source\PSoC5/RS485_Sensor.c ****     *                                               address detection
 798:Generated_Source\PSoC5/RS485_Sensor.c ****     *  RS485_Sensor__B_UART__AM_HW_BYTE_BY_BYTE - Hardware Byte-by-Byte address
 799:Generated_Source\PSoC5/RS485_Sensor.c ****     *                                               detection
 800:Generated_Source\PSoC5/RS485_Sensor.c ****     *  RS485_Sensor__B_UART__AM_HW_DETECT_TO_BUFFER - Hardware Detect to Buffer
 801:Generated_Source\PSoC5/RS485_Sensor.c ****     *                                               address detection
 802:Generated_Source\PSoC5/RS485_Sensor.c ****     *  RS485_Sensor__B_UART__AM_NONE - No address detection
 803:Generated_Source\PSoC5/RS485_Sensor.c ****     *
 804:Generated_Source\PSoC5/RS485_Sensor.c ****     * Return:
 805:Generated_Source\PSoC5/RS485_Sensor.c ****     *  None.
 806:Generated_Source\PSoC5/RS485_Sensor.c ****     *
 807:Generated_Source\PSoC5/RS485_Sensor.c ****     * Global Variables:
 808:Generated_Source\PSoC5/RS485_Sensor.c ****     *  RS485_Sensor_rxAddressMode - the parameter stored in this variable for
 809:Generated_Source\PSoC5/RS485_Sensor.c ****     *   the farther usage in RX ISR.
 810:Generated_Source\PSoC5/RS485_Sensor.c ****     *  RS485_Sensor_rxAddressDetected - set to initial state (0).
 811:Generated_Source\PSoC5/RS485_Sensor.c ****     *
 812:Generated_Source\PSoC5/RS485_Sensor.c ****     *******************************************************************************/
 813:Generated_Source\PSoC5/RS485_Sensor.c ****     void RS485_Sensor_SetRxAddressMode(uint8 addressMode)
 814:Generated_Source\PSoC5/RS485_Sensor.c ****                                                         
 815:Generated_Source\PSoC5/RS485_Sensor.c ****     {
 816:Generated_Source\PSoC5/RS485_Sensor.c ****         #if(RS485_Sensor_RXHW_ADDRESS_ENABLED)
 817:Generated_Source\PSoC5/RS485_Sensor.c ****             #if(RS485_Sensor_CONTROL_REG_REMOVED)
 818:Generated_Source\PSoC5/RS485_Sensor.c ****                 if(0u != addressMode)
 819:Generated_Source\PSoC5/RS485_Sensor.c ****                 {
 820:Generated_Source\PSoC5/RS485_Sensor.c ****                     /* Suppress compiler warning */
 821:Generated_Source\PSoC5/RS485_Sensor.c ****                 }
 822:Generated_Source\PSoC5/RS485_Sensor.c ****             #else /* RS485_Sensor_CONTROL_REG_REMOVED */
 823:Generated_Source\PSoC5/RS485_Sensor.c ****                 uint8 tmpCtrl;
 824:Generated_Source\PSoC5/RS485_Sensor.c ****                 tmpCtrl = RS485_Sensor_CONTROL_REG & (uint8)~RS485_Sensor_CTRL_RXADDR_MODE_MASK;
 825:Generated_Source\PSoC5/RS485_Sensor.c ****                 tmpCtrl |= (uint8)(addressMode << RS485_Sensor_CTRL_RXADDR_MODE0_SHIFT);
 826:Generated_Source\PSoC5/RS485_Sensor.c ****                 RS485_Sensor_CONTROL_REG = tmpCtrl;
 827:Generated_Source\PSoC5/RS485_Sensor.c **** 
 828:Generated_Source\PSoC5/RS485_Sensor.c ****                 #if(RS485_Sensor_RX_INTERRUPT_ENABLED && \
 829:Generated_Source\PSoC5/RS485_Sensor.c ****                    (RS485_Sensor_RXBUFFERSIZE > RS485_Sensor_FIFO_LENGTH) )
 830:Generated_Source\PSoC5/RS485_Sensor.c ****                     RS485_Sensor_rxAddressMode = addressMode;
 831:Generated_Source\PSoC5/RS485_Sensor.c ****                     RS485_Sensor_rxAddressDetected = 0u;
 832:Generated_Source\PSoC5/RS485_Sensor.c ****                 #endif /* End RS485_Sensor_RXBUFFERSIZE > RS485_Sensor_FIFO_LENGTH*/
 833:Generated_Source\PSoC5/RS485_Sensor.c ****             #endif /* End RS485_Sensor_CONTROL_REG_REMOVED */
 834:Generated_Source\PSoC5/RS485_Sensor.c ****         #else /* RS485_Sensor_RXHW_ADDRESS_ENABLED */
 835:Generated_Source\PSoC5/RS485_Sensor.c ****             if(0u != addressMode)
 836:Generated_Source\PSoC5/RS485_Sensor.c ****             {
 837:Generated_Source\PSoC5/RS485_Sensor.c ****                 /* Suppress compiler warning */
 838:Generated_Source\PSoC5/RS485_Sensor.c ****             }
 839:Generated_Source\PSoC5/RS485_Sensor.c ****         #endif /* End RS485_Sensor_RXHW_ADDRESS_ENABLED */
 840:Generated_Source\PSoC5/RS485_Sensor.c ****     }
 841:Generated_Source\PSoC5/RS485_Sensor.c **** 
 842:Generated_Source\PSoC5/RS485_Sensor.c **** 
 843:Generated_Source\PSoC5/RS485_Sensor.c ****     /*******************************************************************************
 844:Generated_Source\PSoC5/RS485_Sensor.c ****     * Function Name: RS485_Sensor_SetRxAddress1
 845:Generated_Source\PSoC5/RS485_Sensor.c ****     ********************************************************************************
 846:Generated_Source\PSoC5/RS485_Sensor.c ****     *
 847:Generated_Source\PSoC5/RS485_Sensor.c ****     * Summary:
 848:Generated_Source\PSoC5/RS485_Sensor.c ****     *  Sets the first of two hardware-detectable receiver addresses.
 849:Generated_Source\PSoC5/RS485_Sensor.c ****     *
ARM GAS  C:\Users\IroTeam\AppData\Local\Temp\ccGexqi8.s 			page 30


 850:Generated_Source\PSoC5/RS485_Sensor.c ****     * Parameters:
 851:Generated_Source\PSoC5/RS485_Sensor.c ****     *  address: Address #1 for hardware address detection.
 852:Generated_Source\PSoC5/RS485_Sensor.c ****     *
 853:Generated_Source\PSoC5/RS485_Sensor.c ****     * Return:
 854:Generated_Source\PSoC5/RS485_Sensor.c ****     *  None.
 855:Generated_Source\PSoC5/RS485_Sensor.c ****     *
 856:Generated_Source\PSoC5/RS485_Sensor.c ****     *******************************************************************************/
 857:Generated_Source\PSoC5/RS485_Sensor.c ****     void RS485_Sensor_SetRxAddress1(uint8 address) 
 858:Generated_Source\PSoC5/RS485_Sensor.c ****     {
 776              		.loc 1 858 0
 777              		.cfi_startproc
 778              		@ args = 0, pretend = 0, frame = 0
 779              		@ frame_needed = 0, uses_anonymous_args = 0
 780              		@ link register save eliminated.
 781              	.LVL46:
 859:Generated_Source\PSoC5/RS485_Sensor.c ****         RS485_Sensor_RXADDRESS1_REG = address;
 782              		.loc 1 859 0
 783 0000 014B     		ldr	r3, .L65
 784 0002 1870     		strb	r0, [r3]
 785 0004 7047     		bx	lr
 786              	.L66:
 787 0006 00BF     		.align	2
 788              	.L65:
 789 0008 28640040 		.word	1073767464
 790              		.cfi_endproc
 791              	.LFE14:
 792              		.size	RS485_Sensor_SetRxAddress1, .-RS485_Sensor_SetRxAddress1
 793              		.section	.text.RS485_Sensor_SetRxAddress2,"ax",%progbits
 794              		.align	1
 795              		.global	RS485_Sensor_SetRxAddress2
 796              		.thumb
 797              		.thumb_func
 798              		.type	RS485_Sensor_SetRxAddress2, %function
 799              	RS485_Sensor_SetRxAddress2:
 800              	.LFB15:
 860:Generated_Source\PSoC5/RS485_Sensor.c ****     }
 861:Generated_Source\PSoC5/RS485_Sensor.c **** 
 862:Generated_Source\PSoC5/RS485_Sensor.c **** 
 863:Generated_Source\PSoC5/RS485_Sensor.c ****     /*******************************************************************************
 864:Generated_Source\PSoC5/RS485_Sensor.c ****     * Function Name: RS485_Sensor_SetRxAddress2
 865:Generated_Source\PSoC5/RS485_Sensor.c ****     ********************************************************************************
 866:Generated_Source\PSoC5/RS485_Sensor.c ****     *
 867:Generated_Source\PSoC5/RS485_Sensor.c ****     * Summary:
 868:Generated_Source\PSoC5/RS485_Sensor.c ****     *  Sets the second of two hardware-detectable receiver addresses.
 869:Generated_Source\PSoC5/RS485_Sensor.c ****     *
 870:Generated_Source\PSoC5/RS485_Sensor.c ****     * Parameters:
 871:Generated_Source\PSoC5/RS485_Sensor.c ****     *  address: Address #2 for hardware address detection.
 872:Generated_Source\PSoC5/RS485_Sensor.c ****     *
 873:Generated_Source\PSoC5/RS485_Sensor.c ****     * Return:
 874:Generated_Source\PSoC5/RS485_Sensor.c ****     *  None.
 875:Generated_Source\PSoC5/RS485_Sensor.c ****     *
 876:Generated_Source\PSoC5/RS485_Sensor.c ****     *******************************************************************************/
 877:Generated_Source\PSoC5/RS485_Sensor.c ****     void RS485_Sensor_SetRxAddress2(uint8 address) 
 878:Generated_Source\PSoC5/RS485_Sensor.c ****     {
 801              		.loc 1 878 0
 802              		.cfi_startproc
 803              		@ args = 0, pretend = 0, frame = 0
ARM GAS  C:\Users\IroTeam\AppData\Local\Temp\ccGexqi8.s 			page 31


 804              		@ frame_needed = 0, uses_anonymous_args = 0
 805              		@ link register save eliminated.
 806              	.LVL47:
 879:Generated_Source\PSoC5/RS485_Sensor.c ****         RS485_Sensor_RXADDRESS2_REG = address;
 807              		.loc 1 879 0
 808 0000 014B     		ldr	r3, .L68
 809 0002 1870     		strb	r0, [r3]
 810 0004 7047     		bx	lr
 811              	.L69:
 812 0006 00BF     		.align	2
 813              	.L68:
 814 0008 38640040 		.word	1073767480
 815              		.cfi_endproc
 816              	.LFE15:
 817              		.size	RS485_Sensor_SetRxAddress2, .-RS485_Sensor_SetRxAddress2
 818              		.section	.text.RS485_Sensor_SetTxInterruptMode,"ax",%progbits
 819              		.align	1
 820              		.global	RS485_Sensor_SetTxInterruptMode
 821              		.thumb
 822              		.thumb_func
 823              		.type	RS485_Sensor_SetTxInterruptMode, %function
 824              	RS485_Sensor_SetTxInterruptMode:
 825              	.LFB16:
 880:Generated_Source\PSoC5/RS485_Sensor.c ****     }
 881:Generated_Source\PSoC5/RS485_Sensor.c **** 
 882:Generated_Source\PSoC5/RS485_Sensor.c **** #endif  /* RS485_Sensor_RX_ENABLED || RS485_Sensor_HD_ENABLED*/
 883:Generated_Source\PSoC5/RS485_Sensor.c **** 
 884:Generated_Source\PSoC5/RS485_Sensor.c **** 
 885:Generated_Source\PSoC5/RS485_Sensor.c **** #if( (RS485_Sensor_TX_ENABLED) || (RS485_Sensor_HD_ENABLED) )
 886:Generated_Source\PSoC5/RS485_Sensor.c ****     /*******************************************************************************
 887:Generated_Source\PSoC5/RS485_Sensor.c ****     * Function Name: RS485_Sensor_SetTxInterruptMode
 888:Generated_Source\PSoC5/RS485_Sensor.c ****     ********************************************************************************
 889:Generated_Source\PSoC5/RS485_Sensor.c ****     *
 890:Generated_Source\PSoC5/RS485_Sensor.c ****     * Summary:
 891:Generated_Source\PSoC5/RS485_Sensor.c ****     *  Configures the TX interrupt sources to be enabled, but does not enable the
 892:Generated_Source\PSoC5/RS485_Sensor.c ****     *  interrupt.
 893:Generated_Source\PSoC5/RS485_Sensor.c ****     *
 894:Generated_Source\PSoC5/RS485_Sensor.c ****     * Parameters:
 895:Generated_Source\PSoC5/RS485_Sensor.c ****     *  intSrc: Bit field containing the TX interrupt sources to enable
 896:Generated_Source\PSoC5/RS485_Sensor.c ****     *   RS485_Sensor_TX_STS_COMPLETE        Interrupt on TX byte complete
 897:Generated_Source\PSoC5/RS485_Sensor.c ****     *   RS485_Sensor_TX_STS_FIFO_EMPTY      Interrupt when TX FIFO is empty
 898:Generated_Source\PSoC5/RS485_Sensor.c ****     *   RS485_Sensor_TX_STS_FIFO_FULL       Interrupt when TX FIFO is full
 899:Generated_Source\PSoC5/RS485_Sensor.c ****     *   RS485_Sensor_TX_STS_FIFO_NOT_FULL   Interrupt when TX FIFO is not full
 900:Generated_Source\PSoC5/RS485_Sensor.c ****     *
 901:Generated_Source\PSoC5/RS485_Sensor.c ****     * Return:
 902:Generated_Source\PSoC5/RS485_Sensor.c ****     *  None.
 903:Generated_Source\PSoC5/RS485_Sensor.c ****     *
 904:Generated_Source\PSoC5/RS485_Sensor.c ****     * Theory:
 905:Generated_Source\PSoC5/RS485_Sensor.c ****     *  Enables the output of specific status bits to the interrupt controller
 906:Generated_Source\PSoC5/RS485_Sensor.c ****     *
 907:Generated_Source\PSoC5/RS485_Sensor.c ****     *******************************************************************************/
 908:Generated_Source\PSoC5/RS485_Sensor.c ****     void RS485_Sensor_SetTxInterruptMode(uint8 intSrc) 
 909:Generated_Source\PSoC5/RS485_Sensor.c ****     {
 826              		.loc 1 909 0
 827              		.cfi_startproc
 828              		@ args = 0, pretend = 0, frame = 0
 829              		@ frame_needed = 0, uses_anonymous_args = 0
ARM GAS  C:\Users\IroTeam\AppData\Local\Temp\ccGexqi8.s 			page 32


 830              		@ link register save eliminated.
 831              	.LVL48:
 910:Generated_Source\PSoC5/RS485_Sensor.c ****         RS485_Sensor_TXSTATUS_MASK_REG = intSrc;
 832              		.loc 1 910 0
 833 0000 014B     		ldr	r3, .L71
 834 0002 1870     		strb	r0, [r3]
 835 0004 7047     		bx	lr
 836              	.L72:
 837 0006 00BF     		.align	2
 838              	.L71:
 839 0008 89640040 		.word	1073767561
 840              		.cfi_endproc
 841              	.LFE16:
 842              		.size	RS485_Sensor_SetTxInterruptMode, .-RS485_Sensor_SetTxInterruptMode
 843              		.section	.text.RS485_Sensor_WriteTxData,"ax",%progbits
 844              		.align	1
 845              		.global	RS485_Sensor_WriteTxData
 846              		.thumb
 847              		.thumb_func
 848              		.type	RS485_Sensor_WriteTxData, %function
 849              	RS485_Sensor_WriteTxData:
 850              	.LFB17:
 911:Generated_Source\PSoC5/RS485_Sensor.c ****     }
 912:Generated_Source\PSoC5/RS485_Sensor.c **** 
 913:Generated_Source\PSoC5/RS485_Sensor.c **** 
 914:Generated_Source\PSoC5/RS485_Sensor.c ****     /*******************************************************************************
 915:Generated_Source\PSoC5/RS485_Sensor.c ****     * Function Name: RS485_Sensor_WriteTxData
 916:Generated_Source\PSoC5/RS485_Sensor.c ****     ********************************************************************************
 917:Generated_Source\PSoC5/RS485_Sensor.c ****     *
 918:Generated_Source\PSoC5/RS485_Sensor.c ****     * Summary:
 919:Generated_Source\PSoC5/RS485_Sensor.c ****     *  Places a byte of data into the transmit buffer to be sent when the bus is
 920:Generated_Source\PSoC5/RS485_Sensor.c ****     *  available without checking the TX status register. You must check status
 921:Generated_Source\PSoC5/RS485_Sensor.c ****     *  separately.
 922:Generated_Source\PSoC5/RS485_Sensor.c ****     *
 923:Generated_Source\PSoC5/RS485_Sensor.c ****     * Parameters:
 924:Generated_Source\PSoC5/RS485_Sensor.c ****     *  txDataByte: data byte
 925:Generated_Source\PSoC5/RS485_Sensor.c ****     *
 926:Generated_Source\PSoC5/RS485_Sensor.c ****     * Return:
 927:Generated_Source\PSoC5/RS485_Sensor.c ****     * None.
 928:Generated_Source\PSoC5/RS485_Sensor.c ****     *
 929:Generated_Source\PSoC5/RS485_Sensor.c ****     * Global Variables:
 930:Generated_Source\PSoC5/RS485_Sensor.c ****     *  RS485_Sensor_txBuffer - RAM buffer pointer for save data for transmission
 931:Generated_Source\PSoC5/RS485_Sensor.c ****     *  RS485_Sensor_txBufferWrite - cyclic index for write to txBuffer,
 932:Generated_Source\PSoC5/RS485_Sensor.c ****     *    incremented after each byte saved to buffer.
 933:Generated_Source\PSoC5/RS485_Sensor.c ****     *  RS485_Sensor_txBufferRead - cyclic index for read from txBuffer,
 934:Generated_Source\PSoC5/RS485_Sensor.c ****     *    checked to identify the condition to write to FIFO directly or to TX buffer
 935:Generated_Source\PSoC5/RS485_Sensor.c ****     *  RS485_Sensor_initVar - checked to identify that the component has been
 936:Generated_Source\PSoC5/RS485_Sensor.c ****     *    initialized.
 937:Generated_Source\PSoC5/RS485_Sensor.c ****     *
 938:Generated_Source\PSoC5/RS485_Sensor.c ****     * Reentrant:
 939:Generated_Source\PSoC5/RS485_Sensor.c ****     *  No.
 940:Generated_Source\PSoC5/RS485_Sensor.c ****     *
 941:Generated_Source\PSoC5/RS485_Sensor.c ****     *******************************************************************************/
 942:Generated_Source\PSoC5/RS485_Sensor.c ****     void RS485_Sensor_WriteTxData(uint8 txDataByte) 
 943:Generated_Source\PSoC5/RS485_Sensor.c ****     {
 851              		.loc 1 943 0
 852              		.cfi_startproc
ARM GAS  C:\Users\IroTeam\AppData\Local\Temp\ccGexqi8.s 			page 33


 853              		@ args = 0, pretend = 0, frame = 0
 854              		@ frame_needed = 0, uses_anonymous_args = 0
 855              	.LVL49:
 856 0000 10B5     		push	{r4, lr}
 857              		.cfi_def_cfa_offset 8
 858              		.cfi_offset 4, -8
 859              		.cfi_offset 14, -4
 944:Generated_Source\PSoC5/RS485_Sensor.c ****         /* If not Initialized then skip this function*/
 945:Generated_Source\PSoC5/RS485_Sensor.c ****         if(RS485_Sensor_initVar != 0u)
 860              		.loc 1 945 0
 861 0002 104B     		ldr	r3, .L81
 862 0004 5978     		ldrb	r1, [r3, #1]	@ zero_extendqisi2
 863 0006 1A46     		mov	r2, r3
 864 0008 D9B1     		cbz	r1, .L73
 946:Generated_Source\PSoC5/RS485_Sensor.c ****         {
 947:Generated_Source\PSoC5/RS485_Sensor.c ****         #if (RS485_Sensor_TX_INTERRUPT_ENABLED)
 948:Generated_Source\PSoC5/RS485_Sensor.c **** 
 949:Generated_Source\PSoC5/RS485_Sensor.c ****             /* Protect variables that could change on interrupt. */
 950:Generated_Source\PSoC5/RS485_Sensor.c ****             RS485_Sensor_DisableTxInt();
 865              		.loc 1 950 0
 866 000a 0F49     		ldr	r1, .L81+4
 867 000c 0824     		movs	r4, #8
 868 000e 0C60     		str	r4, [r1]
 951:Generated_Source\PSoC5/RS485_Sensor.c **** 
 952:Generated_Source\PSoC5/RS485_Sensor.c ****             if( (RS485_Sensor_txBufferRead == RS485_Sensor_txBufferWrite) &&
 869              		.loc 1 952 0
 870 0010 1989     		ldrh	r1, [r3, #8]
 871 0012 5B89     		ldrh	r3, [r3, #10]
 872 0014 89B2     		uxth	r1, r1
 873 0016 9942     		cmp	r1, r3
 874 0018 06D1     		bne	.L75
 953:Generated_Source\PSoC5/RS485_Sensor.c ****                 ((RS485_Sensor_TXSTATUS_REG & RS485_Sensor_TX_STS_FIFO_FULL) == 0u) )
 875              		.loc 1 953 0 discriminator 1
 876 001a 0C49     		ldr	r1, .L81+8
 877 001c 0978     		ldrb	r1, [r1]	@ zero_extendqisi2
 952:Generated_Source\PSoC5/RS485_Sensor.c ****                 ((RS485_Sensor_TXSTATUS_REG & RS485_Sensor_TX_STS_FIFO_FULL) == 0u) )
 878              		.loc 1 952 0 discriminator 1
 879 001e 4907     		lsls	r1, r1, #29
 880 0020 02D4     		bmi	.L75
 954:Generated_Source\PSoC5/RS485_Sensor.c ****             {
 955:Generated_Source\PSoC5/RS485_Sensor.c ****                 /* Add directly to the FIFO. */
 956:Generated_Source\PSoC5/RS485_Sensor.c ****                 RS485_Sensor_TXDATA_REG = txDataByte;
 881              		.loc 1 956 0
 882 0022 0B4B     		ldr	r3, .L81+12
 883 0024 1870     		strb	r0, [r3]
 884 0026 09E0     		b	.L76
 885              	.L75:
 957:Generated_Source\PSoC5/RS485_Sensor.c ****             }
 958:Generated_Source\PSoC5/RS485_Sensor.c ****             else
 959:Generated_Source\PSoC5/RS485_Sensor.c ****             {
 960:Generated_Source\PSoC5/RS485_Sensor.c ****                 if(RS485_Sensor_txBufferWrite >= RS485_Sensor_TX_BUFFER_SIZE)
 886              		.loc 1 960 0
 887 0028 B3F5006F 		cmp	r3, #2048
 961:Generated_Source\PSoC5/RS485_Sensor.c ****                 {
 962:Generated_Source\PSoC5/RS485_Sensor.c ****                     RS485_Sensor_txBufferWrite = 0u;
 888              		.loc 1 962 0
 889 002c 24BF     		itt	cs
ARM GAS  C:\Users\IroTeam\AppData\Local\Temp\ccGexqi8.s 			page 34


 890 002e 0023     		movcs	r3, #0
 891 0030 5381     		strhcs	r3, [r2, #10]	@ movhi
 963:Generated_Source\PSoC5/RS485_Sensor.c ****                 }
 964:Generated_Source\PSoC5/RS485_Sensor.c **** 
 965:Generated_Source\PSoC5/RS485_Sensor.c ****                 RS485_Sensor_txBuffer[RS485_Sensor_txBufferWrite] = txDataByte;
 892              		.loc 1 965 0
 893 0032 5389     		ldrh	r3, [r2, #10]
 894 0034 0749     		ldr	r1, .L81+16
 895 0036 C854     		strb	r0, [r1, r3]
 966:Generated_Source\PSoC5/RS485_Sensor.c **** 
 967:Generated_Source\PSoC5/RS485_Sensor.c ****                 /* Add to the software buffer. */
 968:Generated_Source\PSoC5/RS485_Sensor.c ****                 RS485_Sensor_txBufferWrite++;
 896              		.loc 1 968 0
 897 0038 0133     		adds	r3, r3, #1
 898 003a 5381     		strh	r3, [r2, #10]	@ movhi
 899              	.L76:
 969:Generated_Source\PSoC5/RS485_Sensor.c ****             }
 970:Generated_Source\PSoC5/RS485_Sensor.c **** 
 971:Generated_Source\PSoC5/RS485_Sensor.c ****             RS485_Sensor_EnableTxInt();
 900              		.loc 1 971 0
 901 003c 064B     		ldr	r3, .L81+20
 902 003e 0822     		movs	r2, #8
 903 0040 1A60     		str	r2, [r3]
 904              	.L73:
 905 0042 10BD     		pop	{r4, pc}
 906              	.L82:
 907              		.align	2
 908              	.L81:
 909 0044 00000000 		.word	.LANCHOR0
 910 0048 80E100E0 		.word	-536813184
 911 004c 69640040 		.word	1073767529
 912 0050 4D640040 		.word	1073767501
 913 0054 00000000 		.word	RS485_Sensor_txBuffer
 914 0058 00E100E0 		.word	-536813312
 915              		.cfi_endproc
 916              	.LFE17:
 917              		.size	RS485_Sensor_WriteTxData, .-RS485_Sensor_WriteTxData
 918              		.section	.text.RS485_Sensor_ReadTxStatus,"ax",%progbits
 919              		.align	1
 920              		.global	RS485_Sensor_ReadTxStatus
 921              		.thumb
 922              		.thumb_func
 923              		.type	RS485_Sensor_ReadTxStatus, %function
 924              	RS485_Sensor_ReadTxStatus:
 925              	.LFB18:
 972:Generated_Source\PSoC5/RS485_Sensor.c **** 
 973:Generated_Source\PSoC5/RS485_Sensor.c ****         #else
 974:Generated_Source\PSoC5/RS485_Sensor.c **** 
 975:Generated_Source\PSoC5/RS485_Sensor.c ****             /* Add directly to the FIFO. */
 976:Generated_Source\PSoC5/RS485_Sensor.c ****             RS485_Sensor_TXDATA_REG = txDataByte;
 977:Generated_Source\PSoC5/RS485_Sensor.c **** 
 978:Generated_Source\PSoC5/RS485_Sensor.c ****         #endif /*(RS485_Sensor_TX_INTERRUPT_ENABLED) */
 979:Generated_Source\PSoC5/RS485_Sensor.c ****         }
 980:Generated_Source\PSoC5/RS485_Sensor.c ****     }
 981:Generated_Source\PSoC5/RS485_Sensor.c **** 
 982:Generated_Source\PSoC5/RS485_Sensor.c **** 
 983:Generated_Source\PSoC5/RS485_Sensor.c ****     /*******************************************************************************
ARM GAS  C:\Users\IroTeam\AppData\Local\Temp\ccGexqi8.s 			page 35


 984:Generated_Source\PSoC5/RS485_Sensor.c ****     * Function Name: RS485_Sensor_ReadTxStatus
 985:Generated_Source\PSoC5/RS485_Sensor.c ****     ********************************************************************************
 986:Generated_Source\PSoC5/RS485_Sensor.c ****     *
 987:Generated_Source\PSoC5/RS485_Sensor.c ****     * Summary:
 988:Generated_Source\PSoC5/RS485_Sensor.c ****     *  Reads the status register for the TX portion of the UART.
 989:Generated_Source\PSoC5/RS485_Sensor.c ****     *
 990:Generated_Source\PSoC5/RS485_Sensor.c ****     * Parameters:
 991:Generated_Source\PSoC5/RS485_Sensor.c ****     *  None.
 992:Generated_Source\PSoC5/RS485_Sensor.c ****     *
 993:Generated_Source\PSoC5/RS485_Sensor.c ****     * Return:
 994:Generated_Source\PSoC5/RS485_Sensor.c ****     *  Contents of the status register
 995:Generated_Source\PSoC5/RS485_Sensor.c ****     *
 996:Generated_Source\PSoC5/RS485_Sensor.c ****     * Theory:
 997:Generated_Source\PSoC5/RS485_Sensor.c ****     *  This function reads the TX status register, which is cleared on read.
 998:Generated_Source\PSoC5/RS485_Sensor.c ****     *  It is up to the user to handle all bits in this return value accordingly,
 999:Generated_Source\PSoC5/RS485_Sensor.c ****     *  even if the bit was not enabled as an interrupt source the event happened
1000:Generated_Source\PSoC5/RS485_Sensor.c ****     *  and must be handled accordingly.
1001:Generated_Source\PSoC5/RS485_Sensor.c ****     *
1002:Generated_Source\PSoC5/RS485_Sensor.c ****     *******************************************************************************/
1003:Generated_Source\PSoC5/RS485_Sensor.c ****     uint8 RS485_Sensor_ReadTxStatus(void) 
1004:Generated_Source\PSoC5/RS485_Sensor.c ****     {
 926              		.loc 1 1004 0
 927              		.cfi_startproc
 928              		@ args = 0, pretend = 0, frame = 0
 929              		@ frame_needed = 0, uses_anonymous_args = 0
 930              		@ link register save eliminated.
1005:Generated_Source\PSoC5/RS485_Sensor.c ****         return(RS485_Sensor_TXSTATUS_REG);
 931              		.loc 1 1005 0
 932 0000 014B     		ldr	r3, .L84
 933 0002 1878     		ldrb	r0, [r3]	@ zero_extendqisi2
1006:Generated_Source\PSoC5/RS485_Sensor.c ****     }
 934              		.loc 1 1006 0
 935 0004 7047     		bx	lr
 936              	.L85:
 937 0006 00BF     		.align	2
 938              	.L84:
 939 0008 69640040 		.word	1073767529
 940              		.cfi_endproc
 941              	.LFE18:
 942              		.size	RS485_Sensor_ReadTxStatus, .-RS485_Sensor_ReadTxStatus
 943              		.section	.text.RS485_Sensor_PutChar,"ax",%progbits
 944              		.align	1
 945              		.global	RS485_Sensor_PutChar
 946              		.thumb
 947              		.thumb_func
 948              		.type	RS485_Sensor_PutChar, %function
 949              	RS485_Sensor_PutChar:
 950              	.LFB19:
1007:Generated_Source\PSoC5/RS485_Sensor.c **** 
1008:Generated_Source\PSoC5/RS485_Sensor.c **** 
1009:Generated_Source\PSoC5/RS485_Sensor.c ****     /*******************************************************************************
1010:Generated_Source\PSoC5/RS485_Sensor.c ****     * Function Name: RS485_Sensor_PutChar
1011:Generated_Source\PSoC5/RS485_Sensor.c ****     ********************************************************************************
1012:Generated_Source\PSoC5/RS485_Sensor.c ****     *
1013:Generated_Source\PSoC5/RS485_Sensor.c ****     * Summary:
1014:Generated_Source\PSoC5/RS485_Sensor.c ****     *  Puts a byte of data into the transmit buffer to be sent when the bus is
1015:Generated_Source\PSoC5/RS485_Sensor.c ****     *  available. This is a blocking API that waits until the TX buffer has room to
ARM GAS  C:\Users\IroTeam\AppData\Local\Temp\ccGexqi8.s 			page 36


1016:Generated_Source\PSoC5/RS485_Sensor.c ****     *  hold the data.
1017:Generated_Source\PSoC5/RS485_Sensor.c ****     *
1018:Generated_Source\PSoC5/RS485_Sensor.c ****     * Parameters:
1019:Generated_Source\PSoC5/RS485_Sensor.c ****     *  txDataByte: Byte containing the data to transmit
1020:Generated_Source\PSoC5/RS485_Sensor.c ****     *
1021:Generated_Source\PSoC5/RS485_Sensor.c ****     * Return:
1022:Generated_Source\PSoC5/RS485_Sensor.c ****     *  None.
1023:Generated_Source\PSoC5/RS485_Sensor.c ****     *
1024:Generated_Source\PSoC5/RS485_Sensor.c ****     * Global Variables:
1025:Generated_Source\PSoC5/RS485_Sensor.c ****     *  RS485_Sensor_txBuffer - RAM buffer pointer for save data for transmission
1026:Generated_Source\PSoC5/RS485_Sensor.c ****     *  RS485_Sensor_txBufferWrite - cyclic index for write to txBuffer,
1027:Generated_Source\PSoC5/RS485_Sensor.c ****     *     checked to identify free space in txBuffer and incremented after each byte
1028:Generated_Source\PSoC5/RS485_Sensor.c ****     *     saved to buffer.
1029:Generated_Source\PSoC5/RS485_Sensor.c ****     *  RS485_Sensor_txBufferRead - cyclic index for read from txBuffer,
1030:Generated_Source\PSoC5/RS485_Sensor.c ****     *     checked to identify free space in txBuffer.
1031:Generated_Source\PSoC5/RS485_Sensor.c ****     *  RS485_Sensor_initVar - checked to identify that the component has been
1032:Generated_Source\PSoC5/RS485_Sensor.c ****     *     initialized.
1033:Generated_Source\PSoC5/RS485_Sensor.c ****     *
1034:Generated_Source\PSoC5/RS485_Sensor.c ****     * Reentrant:
1035:Generated_Source\PSoC5/RS485_Sensor.c ****     *  No.
1036:Generated_Source\PSoC5/RS485_Sensor.c ****     *
1037:Generated_Source\PSoC5/RS485_Sensor.c ****     * Theory:
1038:Generated_Source\PSoC5/RS485_Sensor.c ****     *  Allows the user to transmit any byte of data in a single transfer
1039:Generated_Source\PSoC5/RS485_Sensor.c ****     *
1040:Generated_Source\PSoC5/RS485_Sensor.c ****     *******************************************************************************/
1041:Generated_Source\PSoC5/RS485_Sensor.c ****     void RS485_Sensor_PutChar(uint8 txDataByte) 
1042:Generated_Source\PSoC5/RS485_Sensor.c ****     {
 951              		.loc 1 1042 0
 952              		.cfi_startproc
 953              		@ args = 0, pretend = 0, frame = 0
 954              		@ frame_needed = 0, uses_anonymous_args = 0
 955              	.LVL50:
 956 0000 30B5     		push	{r4, r5, lr}
 957              		.cfi_def_cfa_offset 12
 958              		.cfi_offset 4, -12
 959              		.cfi_offset 5, -8
 960              		.cfi_offset 14, -4
1043:Generated_Source\PSoC5/RS485_Sensor.c ****     #if (RS485_Sensor_TX_INTERRUPT_ENABLED)
1044:Generated_Source\PSoC5/RS485_Sensor.c ****         /* The temporary output pointer is used since it takes two instructions
1045:Generated_Source\PSoC5/RS485_Sensor.c ****         *  to increment with a wrap, and we can't risk doing that with the real
1046:Generated_Source\PSoC5/RS485_Sensor.c ****         *  pointer and getting an interrupt in between instructions.
1047:Generated_Source\PSoC5/RS485_Sensor.c ****         */
1048:Generated_Source\PSoC5/RS485_Sensor.c ****         uint16 locTxBufferWrite;
1049:Generated_Source\PSoC5/RS485_Sensor.c ****         uint16 locTxBufferRead;
1050:Generated_Source\PSoC5/RS485_Sensor.c **** 
1051:Generated_Source\PSoC5/RS485_Sensor.c ****         do
1052:Generated_Source\PSoC5/RS485_Sensor.c ****         { /* Block if software buffer is full, so we don't overwrite. */
1053:Generated_Source\PSoC5/RS485_Sensor.c **** 
1054:Generated_Source\PSoC5/RS485_Sensor.c ****         #if ((RS485_Sensor_TX_BUFFER_SIZE > RS485_Sensor_MAX_BYTE_VALUE) && (CY_PSOC3))
1055:Generated_Source\PSoC5/RS485_Sensor.c ****             /* Disable TX interrupt to protect variables from modification */
1056:Generated_Source\PSoC5/RS485_Sensor.c ****             RS485_Sensor_DisableTxInt();
1057:Generated_Source\PSoC5/RS485_Sensor.c ****         #endif /* (RS485_Sensor_TX_BUFFER_SIZE > RS485_Sensor_MAX_BYTE_VALUE) && (CY_PSOC3) */
1058:Generated_Source\PSoC5/RS485_Sensor.c **** 
1059:Generated_Source\PSoC5/RS485_Sensor.c ****             locTxBufferWrite = RS485_Sensor_txBufferWrite;
1060:Generated_Source\PSoC5/RS485_Sensor.c ****             locTxBufferRead  = RS485_Sensor_txBufferRead;
1061:Generated_Source\PSoC5/RS485_Sensor.c **** 
1062:Generated_Source\PSoC5/RS485_Sensor.c ****         #if ((RS485_Sensor_TX_BUFFER_SIZE > RS485_Sensor_MAX_BYTE_VALUE) && (CY_PSOC3))
ARM GAS  C:\Users\IroTeam\AppData\Local\Temp\ccGexqi8.s 			page 37


1063:Generated_Source\PSoC5/RS485_Sensor.c ****             /* Enable interrupt to continue transmission */
1064:Generated_Source\PSoC5/RS485_Sensor.c ****             RS485_Sensor_EnableTxInt();
1065:Generated_Source\PSoC5/RS485_Sensor.c ****         #endif /* (RS485_Sensor_TX_BUFFER_SIZE > RS485_Sensor_MAX_BYTE_VALUE) && (CY_PSOC3) */
1066:Generated_Source\PSoC5/RS485_Sensor.c ****         }
1067:Generated_Source\PSoC5/RS485_Sensor.c ****         while( (locTxBufferWrite < locTxBufferRead) ? (locTxBufferWrite == (locTxBufferRead - 1u)) 
 961              		.loc 1 1067 0
 962 0002 40F2FF75 		movw	r5, #2047
1059:Generated_Source\PSoC5/RS485_Sensor.c ****             locTxBufferRead  = RS485_Sensor_txBufferRead;
 963              		.loc 1 1059 0
 964 0006 144C     		ldr	r4, .L98
 965 0008 6389     		ldrh	r3, [r4, #10]
 966              	.L89:
 967              	.LVL51:
1060:Generated_Source\PSoC5/RS485_Sensor.c **** 
 968              		.loc 1 1060 0
 969 000a 2289     		ldrh	r2, [r4, #8]
 970 000c 92B2     		uxth	r2, r2
 971              	.LVL52:
 972              		.loc 1 1067 0
 973 000e 9342     		cmp	r3, r2
 974 0010 02D2     		bcs	.L87
 975              		.loc 1 1067 0 is_stmt 0 discriminator 1
 976 0012 511E     		subs	r1, r2, #1
 977 0014 9942     		cmp	r1, r3
 978 0016 01E0     		b	.L97
 979              	.L87:
 980              		.loc 1 1067 0 discriminator 2
 981 0018 991A     		subs	r1, r3, r2
 982 001a A942     		cmp	r1, r5
 983              	.L97:
 984 001c 14BF     		ite	ne
 985 001e 0021     		movne	r1, #0
 986 0020 0121     		moveq	r1, #1
1068:Generated_Source\PSoC5/RS485_Sensor.c ****                                 ((locTxBufferWrite - locTxBufferRead) ==
1069:Generated_Source\PSoC5/RS485_Sensor.c ****                                 (uint16)(RS485_Sensor_TX_BUFFER_SIZE - 1u)) );
 987              		.loc 1 1069 0 is_stmt 1 discriminator 2
 988 0022 0029     		cmp	r1, #0
 989 0024 F1D1     		bne	.L89
1070:Generated_Source\PSoC5/RS485_Sensor.c **** 
1071:Generated_Source\PSoC5/RS485_Sensor.c ****         if( (locTxBufferRead == locTxBufferWrite) &&
 990              		.loc 1 1071 0
 991 0026 9342     		cmp	r3, r2
 992 0028 0C4A     		ldr	r2, .L98+4
 993              	.LVL53:
 994 002a 05D1     		bne	.L90
1072:Generated_Source\PSoC5/RS485_Sensor.c ****             ((RS485_Sensor_TXSTATUS_REG & RS485_Sensor_TX_STS_FIFO_FULL) == 0u) )
 995              		.loc 1 1072 0 discriminator 1
 996 002c 1178     		ldrb	r1, [r2]	@ zero_extendqisi2
1071:Generated_Source\PSoC5/RS485_Sensor.c ****             ((RS485_Sensor_TXSTATUS_REG & RS485_Sensor_TX_STS_FIFO_FULL) == 0u) )
 997              		.loc 1 1071 0 discriminator 1
 998 002e 4907     		lsls	r1, r1, #29
 999 0030 02D4     		bmi	.L90
1073:Generated_Source\PSoC5/RS485_Sensor.c ****         {
1074:Generated_Source\PSoC5/RS485_Sensor.c ****             /* Add directly to the FIFO */
1075:Generated_Source\PSoC5/RS485_Sensor.c ****             RS485_Sensor_TXDATA_REG = txDataByte;
 1000              		.loc 1 1075 0
 1001 0032 0B4B     		ldr	r3, .L98+8
ARM GAS  C:\Users\IroTeam\AppData\Local\Temp\ccGexqi8.s 			page 38


 1002 0034 1870     		strb	r0, [r3]
 1003              	.LVL54:
 1004 0036 30BD     		pop	{r4, r5, pc}
 1005              	.LVL55:
 1006              	.L90:
1076:Generated_Source\PSoC5/RS485_Sensor.c ****         }
1077:Generated_Source\PSoC5/RS485_Sensor.c ****         else
1078:Generated_Source\PSoC5/RS485_Sensor.c ****         {
1079:Generated_Source\PSoC5/RS485_Sensor.c ****             if(locTxBufferWrite >= RS485_Sensor_TX_BUFFER_SIZE)
1080:Generated_Source\PSoC5/RS485_Sensor.c ****             {
1081:Generated_Source\PSoC5/RS485_Sensor.c ****                 locTxBufferWrite = 0u;
 1007              		.loc 1 1081 0
 1008 0038 B3F5006F 		cmp	r3, #2048
1082:Generated_Source\PSoC5/RS485_Sensor.c ****             }
1083:Generated_Source\PSoC5/RS485_Sensor.c ****             /* Add to the software buffer. */
1084:Generated_Source\PSoC5/RS485_Sensor.c ****             RS485_Sensor_txBuffer[locTxBufferWrite] = txDataByte;
 1009              		.loc 1 1084 0
 1010 003c 0949     		ldr	r1, .L98+12
1081:Generated_Source\PSoC5/RS485_Sensor.c ****             }
 1011              		.loc 1 1081 0
 1012 003e 28BF     		it	cs
 1013 0040 0023     		movcs	r3, #0
 1014              	.LVL56:
 1015              		.loc 1 1084 0
 1016 0042 C854     		strb	r0, [r1, r3]
 1017              	.LVL57:
1085:Generated_Source\PSoC5/RS485_Sensor.c ****             locTxBufferWrite++;
1086:Generated_Source\PSoC5/RS485_Sensor.c **** 
1087:Generated_Source\PSoC5/RS485_Sensor.c ****             /* Finally, update the real output pointer */
1088:Generated_Source\PSoC5/RS485_Sensor.c ****         #if ((RS485_Sensor_TX_BUFFER_SIZE > RS485_Sensor_MAX_BYTE_VALUE) && (CY_PSOC3))
1089:Generated_Source\PSoC5/RS485_Sensor.c ****             RS485_Sensor_DisableTxInt();
1090:Generated_Source\PSoC5/RS485_Sensor.c ****         #endif /* (RS485_Sensor_TX_BUFFER_SIZE > RS485_Sensor_MAX_BYTE_VALUE) && (CY_PSOC3) */
1091:Generated_Source\PSoC5/RS485_Sensor.c **** 
1092:Generated_Source\PSoC5/RS485_Sensor.c ****             RS485_Sensor_txBufferWrite = locTxBufferWrite;
 1018              		.loc 1 1092 0
 1019 0044 0133     		adds	r3, r3, #1
 1020              	.LVL58:
 1021 0046 6381     		strh	r3, [r4, #10]	@ movhi
1093:Generated_Source\PSoC5/RS485_Sensor.c **** 
1094:Generated_Source\PSoC5/RS485_Sensor.c ****         #if ((RS485_Sensor_TX_BUFFER_SIZE > RS485_Sensor_MAX_BYTE_VALUE) && (CY_PSOC3))
1095:Generated_Source\PSoC5/RS485_Sensor.c ****             RS485_Sensor_EnableTxInt();
1096:Generated_Source\PSoC5/RS485_Sensor.c ****         #endif /* (RS485_Sensor_TX_BUFFER_SIZE > RS485_Sensor_MAX_BYTE_VALUE) && (CY_PSOC3) */
1097:Generated_Source\PSoC5/RS485_Sensor.c **** 
1098:Generated_Source\PSoC5/RS485_Sensor.c ****             if(0u != (RS485_Sensor_TXSTATUS_REG & RS485_Sensor_TX_STS_FIFO_EMPTY))
 1022              		.loc 1 1098 0
 1023 0048 1378     		ldrb	r3, [r2]	@ zero_extendqisi2
 1024              	.LVL59:
 1025 004a 9B07     		lsls	r3, r3, #30
 1026              	.LVL60:
1099:Generated_Source\PSoC5/RS485_Sensor.c ****             {
1100:Generated_Source\PSoC5/RS485_Sensor.c ****                 /* Trigger TX interrupt to send software buffer */
1101:Generated_Source\PSoC5/RS485_Sensor.c ****                 RS485_Sensor_SetPendingTxInt();
 1027              		.loc 1 1101 0
 1028 004c 42BF     		ittt	mi
 1029 004e 064B     		ldrmi	r3, .L98+16
 1030 0050 0822     		movmi	r2, #8
 1031 0052 1A60     		strmi	r2, [r3]
ARM GAS  C:\Users\IroTeam\AppData\Local\Temp\ccGexqi8.s 			page 39


 1032 0054 30BD     		pop	{r4, r5, pc}
 1033              	.L99:
 1034 0056 00BF     		.align	2
 1035              	.L98:
 1036 0058 00000000 		.word	.LANCHOR0
 1037 005c 69640040 		.word	1073767529
 1038 0060 4D640040 		.word	1073767501
 1039 0064 00000000 		.word	RS485_Sensor_txBuffer
 1040 0068 00E200E0 		.word	-536813056
 1041              		.cfi_endproc
 1042              	.LFE19:
 1043              		.size	RS485_Sensor_PutChar, .-RS485_Sensor_PutChar
 1044              		.section	.text.RS485_Sensor_PutString,"ax",%progbits
 1045              		.align	1
 1046              		.global	RS485_Sensor_PutString
 1047              		.thumb
 1048              		.thumb_func
 1049              		.type	RS485_Sensor_PutString, %function
 1050              	RS485_Sensor_PutString:
 1051              	.LFB20:
1102:Generated_Source\PSoC5/RS485_Sensor.c ****             }
1103:Generated_Source\PSoC5/RS485_Sensor.c ****         }
1104:Generated_Source\PSoC5/RS485_Sensor.c **** 
1105:Generated_Source\PSoC5/RS485_Sensor.c ****     #else
1106:Generated_Source\PSoC5/RS485_Sensor.c **** 
1107:Generated_Source\PSoC5/RS485_Sensor.c ****         while((RS485_Sensor_TXSTATUS_REG & RS485_Sensor_TX_STS_FIFO_FULL) != 0u)
1108:Generated_Source\PSoC5/RS485_Sensor.c ****         {
1109:Generated_Source\PSoC5/RS485_Sensor.c ****             /* Wait for room in the FIFO */
1110:Generated_Source\PSoC5/RS485_Sensor.c ****         }
1111:Generated_Source\PSoC5/RS485_Sensor.c **** 
1112:Generated_Source\PSoC5/RS485_Sensor.c ****         /* Add directly to the FIFO */
1113:Generated_Source\PSoC5/RS485_Sensor.c ****         RS485_Sensor_TXDATA_REG = txDataByte;
1114:Generated_Source\PSoC5/RS485_Sensor.c **** 
1115:Generated_Source\PSoC5/RS485_Sensor.c ****     #endif /* RS485_Sensor_TX_INTERRUPT_ENABLED */
1116:Generated_Source\PSoC5/RS485_Sensor.c ****     }
1117:Generated_Source\PSoC5/RS485_Sensor.c **** 
1118:Generated_Source\PSoC5/RS485_Sensor.c **** 
1119:Generated_Source\PSoC5/RS485_Sensor.c ****     /*******************************************************************************
1120:Generated_Source\PSoC5/RS485_Sensor.c ****     * Function Name: RS485_Sensor_PutString
1121:Generated_Source\PSoC5/RS485_Sensor.c ****     ********************************************************************************
1122:Generated_Source\PSoC5/RS485_Sensor.c ****     *
1123:Generated_Source\PSoC5/RS485_Sensor.c ****     * Summary:
1124:Generated_Source\PSoC5/RS485_Sensor.c ****     *  Sends a NULL terminated string to the TX buffer for transmission.
1125:Generated_Source\PSoC5/RS485_Sensor.c ****     *
1126:Generated_Source\PSoC5/RS485_Sensor.c ****     * Parameters:
1127:Generated_Source\PSoC5/RS485_Sensor.c ****     *  string[]: Pointer to the null terminated string array residing in RAM or ROM
1128:Generated_Source\PSoC5/RS485_Sensor.c ****     *
1129:Generated_Source\PSoC5/RS485_Sensor.c ****     * Return:
1130:Generated_Source\PSoC5/RS485_Sensor.c ****     *  None.
1131:Generated_Source\PSoC5/RS485_Sensor.c ****     *
1132:Generated_Source\PSoC5/RS485_Sensor.c ****     * Global Variables:
1133:Generated_Source\PSoC5/RS485_Sensor.c ****     *  RS485_Sensor_initVar - checked to identify that the component has been
1134:Generated_Source\PSoC5/RS485_Sensor.c ****     *     initialized.
1135:Generated_Source\PSoC5/RS485_Sensor.c ****     *
1136:Generated_Source\PSoC5/RS485_Sensor.c ****     * Reentrant:
1137:Generated_Source\PSoC5/RS485_Sensor.c ****     *  No.
1138:Generated_Source\PSoC5/RS485_Sensor.c ****     *
ARM GAS  C:\Users\IroTeam\AppData\Local\Temp\ccGexqi8.s 			page 40


1139:Generated_Source\PSoC5/RS485_Sensor.c ****     * Theory:
1140:Generated_Source\PSoC5/RS485_Sensor.c ****     *  If there is not enough memory in the TX buffer for the entire string, this
1141:Generated_Source\PSoC5/RS485_Sensor.c ****     *  function blocks until the last character of the string is loaded into the
1142:Generated_Source\PSoC5/RS485_Sensor.c ****     *  TX buffer.
1143:Generated_Source\PSoC5/RS485_Sensor.c ****     *
1144:Generated_Source\PSoC5/RS485_Sensor.c ****     *******************************************************************************/
1145:Generated_Source\PSoC5/RS485_Sensor.c ****     void RS485_Sensor_PutString(const char8 string[]) 
1146:Generated_Source\PSoC5/RS485_Sensor.c ****     {
 1052              		.loc 1 1146 0
 1053              		.cfi_startproc
 1054              		@ args = 0, pretend = 0, frame = 0
 1055              		@ frame_needed = 0, uses_anonymous_args = 0
 1056              	.LVL61:
 1057 0000 38B5     		push	{r3, r4, r5, lr}
 1058              		.cfi_def_cfa_offset 16
 1059              		.cfi_offset 3, -16
 1060              		.cfi_offset 4, -12
 1061              		.cfi_offset 5, -8
 1062              		.cfi_offset 14, -4
1147:Generated_Source\PSoC5/RS485_Sensor.c ****         uint16 bufIndex = 0u;
1148:Generated_Source\PSoC5/RS485_Sensor.c **** 
1149:Generated_Source\PSoC5/RS485_Sensor.c ****         /* If not Initialized then skip this function */
1150:Generated_Source\PSoC5/RS485_Sensor.c ****         if(RS485_Sensor_initVar != 0u)
 1063              		.loc 1 1150 0
 1064 0002 064B     		ldr	r3, .L107
1146:Generated_Source\PSoC5/RS485_Sensor.c ****         uint16 bufIndex = 0u;
 1065              		.loc 1 1146 0
 1066 0004 0546     		mov	r5, r0
 1067              		.loc 1 1150 0
 1068 0006 5B78     		ldrb	r3, [r3, #1]	@ zero_extendqisi2
 1069 0008 3BB1     		cbz	r3, .L100
 1070 000a 0024     		movs	r4, #0
 1071              	.LVL62:
 1072              	.L102:
1151:Generated_Source\PSoC5/RS485_Sensor.c ****         {
1152:Generated_Source\PSoC5/RS485_Sensor.c ****             /* This is a blocking function, it will not exit until all data is sent */
1153:Generated_Source\PSoC5/RS485_Sensor.c ****             while(string[bufIndex] != (char8) 0)
 1073              		.loc 1 1153 0
 1074 000c A3B2     		uxth	r3, r4
 1075              	.LVL63:
 1076 000e E85C     		ldrb	r0, [r5, r3]	@ zero_extendqisi2
 1077 0010 0134     		adds	r4, r4, #1
 1078 0012 10B1     		cbz	r0, .L100
1154:Generated_Source\PSoC5/RS485_Sensor.c ****             {
1155:Generated_Source\PSoC5/RS485_Sensor.c ****                 RS485_Sensor_PutChar((uint8)string[bufIndex]);
 1079              		.loc 1 1155 0
 1080 0014 FFF7FEFF 		bl	RS485_Sensor_PutChar
 1081              	.LVL64:
 1082 0018 F8E7     		b	.L102
 1083              	.LVL65:
 1084              	.L100:
 1085 001a 38BD     		pop	{r3, r4, r5, pc}
 1086              	.LVL66:
 1087              	.L108:
 1088              		.align	2
 1089              	.L107:
 1090 001c 00000000 		.word	.LANCHOR0
ARM GAS  C:\Users\IroTeam\AppData\Local\Temp\ccGexqi8.s 			page 41


 1091              		.cfi_endproc
 1092              	.LFE20:
 1093              		.size	RS485_Sensor_PutString, .-RS485_Sensor_PutString
 1094              		.section	.text.RS485_Sensor_PutArray,"ax",%progbits
 1095              		.align	1
 1096              		.global	RS485_Sensor_PutArray
 1097              		.thumb
 1098              		.thumb_func
 1099              		.type	RS485_Sensor_PutArray, %function
 1100              	RS485_Sensor_PutArray:
 1101              	.LFB21:
1156:Generated_Source\PSoC5/RS485_Sensor.c ****                 bufIndex++;
1157:Generated_Source\PSoC5/RS485_Sensor.c ****             }
1158:Generated_Source\PSoC5/RS485_Sensor.c ****         }
1159:Generated_Source\PSoC5/RS485_Sensor.c ****     }
1160:Generated_Source\PSoC5/RS485_Sensor.c **** 
1161:Generated_Source\PSoC5/RS485_Sensor.c **** 
1162:Generated_Source\PSoC5/RS485_Sensor.c ****     /*******************************************************************************
1163:Generated_Source\PSoC5/RS485_Sensor.c ****     * Function Name: RS485_Sensor_PutArray
1164:Generated_Source\PSoC5/RS485_Sensor.c ****     ********************************************************************************
1165:Generated_Source\PSoC5/RS485_Sensor.c ****     *
1166:Generated_Source\PSoC5/RS485_Sensor.c ****     * Summary:
1167:Generated_Source\PSoC5/RS485_Sensor.c ****     *  Places N bytes of data from a memory array into the TX buffer for
1168:Generated_Source\PSoC5/RS485_Sensor.c ****     *  transmission.
1169:Generated_Source\PSoC5/RS485_Sensor.c ****     *
1170:Generated_Source\PSoC5/RS485_Sensor.c ****     * Parameters:
1171:Generated_Source\PSoC5/RS485_Sensor.c ****     *  string[]: Address of the memory array residing in RAM or ROM.
1172:Generated_Source\PSoC5/RS485_Sensor.c ****     *  byteCount: Number of bytes to be transmitted. The type depends on TX Buffer
1173:Generated_Source\PSoC5/RS485_Sensor.c ****     *             Size parameter.
1174:Generated_Source\PSoC5/RS485_Sensor.c ****     *
1175:Generated_Source\PSoC5/RS485_Sensor.c ****     * Return:
1176:Generated_Source\PSoC5/RS485_Sensor.c ****     *  None.
1177:Generated_Source\PSoC5/RS485_Sensor.c ****     *
1178:Generated_Source\PSoC5/RS485_Sensor.c ****     * Global Variables:
1179:Generated_Source\PSoC5/RS485_Sensor.c ****     *  RS485_Sensor_initVar - checked to identify that the component has been
1180:Generated_Source\PSoC5/RS485_Sensor.c ****     *     initialized.
1181:Generated_Source\PSoC5/RS485_Sensor.c ****     *
1182:Generated_Source\PSoC5/RS485_Sensor.c ****     * Reentrant:
1183:Generated_Source\PSoC5/RS485_Sensor.c ****     *  No.
1184:Generated_Source\PSoC5/RS485_Sensor.c ****     *
1185:Generated_Source\PSoC5/RS485_Sensor.c ****     * Theory:
1186:Generated_Source\PSoC5/RS485_Sensor.c ****     *  If there is not enough memory in the TX buffer for the entire string, this
1187:Generated_Source\PSoC5/RS485_Sensor.c ****     *  function blocks until the last character of the string is loaded into the
1188:Generated_Source\PSoC5/RS485_Sensor.c ****     *  TX buffer.
1189:Generated_Source\PSoC5/RS485_Sensor.c ****     *
1190:Generated_Source\PSoC5/RS485_Sensor.c ****     *******************************************************************************/
1191:Generated_Source\PSoC5/RS485_Sensor.c ****     void RS485_Sensor_PutArray(const uint8 string[], uint16 byteCount)
1192:Generated_Source\PSoC5/RS485_Sensor.c ****                                                                     
1193:Generated_Source\PSoC5/RS485_Sensor.c ****     {
 1102              		.loc 1 1193 0
 1103              		.cfi_startproc
 1104              		@ args = 0, pretend = 0, frame = 0
 1105              		@ frame_needed = 0, uses_anonymous_args = 0
 1106              	.LVL67:
 1107 0000 38B5     		push	{r3, r4, r5, lr}
 1108              		.cfi_def_cfa_offset 16
 1109              		.cfi_offset 3, -16
ARM GAS  C:\Users\IroTeam\AppData\Local\Temp\ccGexqi8.s 			page 42


 1110              		.cfi_offset 4, -12
 1111              		.cfi_offset 5, -8
 1112              		.cfi_offset 14, -4
1194:Generated_Source\PSoC5/RS485_Sensor.c ****         uint16 bufIndex = 0u;
1195:Generated_Source\PSoC5/RS485_Sensor.c **** 
1196:Generated_Source\PSoC5/RS485_Sensor.c ****         /* If not Initialized then skip this function */
1197:Generated_Source\PSoC5/RS485_Sensor.c ****         if(RS485_Sensor_initVar != 0u)
 1113              		.loc 1 1197 0
 1114 0002 074B     		ldr	r3, .L114
 1115 0004 5B78     		ldrb	r3, [r3, #1]	@ zero_extendqisi2
 1116 0006 4BB1     		cbz	r3, .L109
 1117 0008 0139     		subs	r1, r1, #1
 1118              	.LVL68:
 1119 000a 451E     		subs	r5, r0, #1
 1120 000c 4418     		adds	r4, r0, r1
 1121              	.LVL69:
 1122              	.L111:
1198:Generated_Source\PSoC5/RS485_Sensor.c ****         {
1199:Generated_Source\PSoC5/RS485_Sensor.c ****             while(bufIndex < byteCount)
 1123              		.loc 1 1199 0
 1124 000e A542     		cmp	r5, r4
 1125 0010 04D0     		beq	.L109
1200:Generated_Source\PSoC5/RS485_Sensor.c ****             {
1201:Generated_Source\PSoC5/RS485_Sensor.c ****                 RS485_Sensor_PutChar(string[bufIndex]);
 1126              		.loc 1 1201 0
 1127 0012 15F8010F 		ldrb	r0, [r5, #1]!	@ zero_extendqisi2
 1128              	.LVL70:
 1129 0016 FFF7FEFF 		bl	RS485_Sensor_PutChar
 1130              	.LVL71:
 1131 001a F8E7     		b	.L111
 1132              	.LVL72:
 1133              	.L109:
 1134 001c 38BD     		pop	{r3, r4, r5, pc}
 1135              	.L115:
 1136 001e 00BF     		.align	2
 1137              	.L114:
 1138 0020 00000000 		.word	.LANCHOR0
 1139              		.cfi_endproc
 1140              	.LFE21:
 1141              		.size	RS485_Sensor_PutArray, .-RS485_Sensor_PutArray
 1142              		.section	.text.RS485_Sensor_PutCRLF,"ax",%progbits
 1143              		.align	1
 1144              		.global	RS485_Sensor_PutCRLF
 1145              		.thumb
 1146              		.thumb_func
 1147              		.type	RS485_Sensor_PutCRLF, %function
 1148              	RS485_Sensor_PutCRLF:
 1149              	.LFB22:
1202:Generated_Source\PSoC5/RS485_Sensor.c ****                 bufIndex++;
1203:Generated_Source\PSoC5/RS485_Sensor.c ****             }
1204:Generated_Source\PSoC5/RS485_Sensor.c ****         }
1205:Generated_Source\PSoC5/RS485_Sensor.c ****     }
1206:Generated_Source\PSoC5/RS485_Sensor.c **** 
1207:Generated_Source\PSoC5/RS485_Sensor.c **** 
1208:Generated_Source\PSoC5/RS485_Sensor.c ****     /*******************************************************************************
1209:Generated_Source\PSoC5/RS485_Sensor.c ****     * Function Name: RS485_Sensor_PutCRLF
1210:Generated_Source\PSoC5/RS485_Sensor.c ****     ********************************************************************************
ARM GAS  C:\Users\IroTeam\AppData\Local\Temp\ccGexqi8.s 			page 43


1211:Generated_Source\PSoC5/RS485_Sensor.c ****     *
1212:Generated_Source\PSoC5/RS485_Sensor.c ****     * Summary:
1213:Generated_Source\PSoC5/RS485_Sensor.c ****     *  Writes a byte of data followed by a carriage return (0x0D) and line feed
1214:Generated_Source\PSoC5/RS485_Sensor.c ****     *  (0x0A) to the transmit buffer.
1215:Generated_Source\PSoC5/RS485_Sensor.c ****     *
1216:Generated_Source\PSoC5/RS485_Sensor.c ****     * Parameters:
1217:Generated_Source\PSoC5/RS485_Sensor.c ****     *  txDataByte: Data byte to transmit before the carriage return and line feed.
1218:Generated_Source\PSoC5/RS485_Sensor.c ****     *
1219:Generated_Source\PSoC5/RS485_Sensor.c ****     * Return:
1220:Generated_Source\PSoC5/RS485_Sensor.c ****     *  None.
1221:Generated_Source\PSoC5/RS485_Sensor.c ****     *
1222:Generated_Source\PSoC5/RS485_Sensor.c ****     * Global Variables:
1223:Generated_Source\PSoC5/RS485_Sensor.c ****     *  RS485_Sensor_initVar - checked to identify that the component has been
1224:Generated_Source\PSoC5/RS485_Sensor.c ****     *     initialized.
1225:Generated_Source\PSoC5/RS485_Sensor.c ****     *
1226:Generated_Source\PSoC5/RS485_Sensor.c ****     * Reentrant:
1227:Generated_Source\PSoC5/RS485_Sensor.c ****     *  No.
1228:Generated_Source\PSoC5/RS485_Sensor.c ****     *
1229:Generated_Source\PSoC5/RS485_Sensor.c ****     *******************************************************************************/
1230:Generated_Source\PSoC5/RS485_Sensor.c ****     void RS485_Sensor_PutCRLF(uint8 txDataByte) 
1231:Generated_Source\PSoC5/RS485_Sensor.c ****     {
 1150              		.loc 1 1231 0
 1151              		.cfi_startproc
 1152              		@ args = 0, pretend = 0, frame = 0
 1153              		@ frame_needed = 0, uses_anonymous_args = 0
 1154              	.LVL73:
 1155 0000 08B5     		push	{r3, lr}
 1156              		.cfi_def_cfa_offset 8
 1157              		.cfi_offset 3, -8
 1158              		.cfi_offset 14, -4
1232:Generated_Source\PSoC5/RS485_Sensor.c ****         /* If not Initialized then skip this function */
1233:Generated_Source\PSoC5/RS485_Sensor.c ****         if(RS485_Sensor_initVar != 0u)
 1159              		.loc 1 1233 0
 1160 0002 074B     		ldr	r3, .L118
 1161 0004 5B78     		ldrb	r3, [r3, #1]	@ zero_extendqisi2
 1162 0006 4BB1     		cbz	r3, .L116
1234:Generated_Source\PSoC5/RS485_Sensor.c ****         {
1235:Generated_Source\PSoC5/RS485_Sensor.c ****             RS485_Sensor_PutChar(txDataByte);
 1163              		.loc 1 1235 0
 1164 0008 FFF7FEFF 		bl	RS485_Sensor_PutChar
 1165              	.LVL74:
1236:Generated_Source\PSoC5/RS485_Sensor.c ****             RS485_Sensor_PutChar(0x0Du);
 1166              		.loc 1 1236 0
 1167 000c 0D20     		movs	r0, #13
 1168 000e FFF7FEFF 		bl	RS485_Sensor_PutChar
 1169              	.LVL75:
1237:Generated_Source\PSoC5/RS485_Sensor.c ****             RS485_Sensor_PutChar(0x0Au);
1238:Generated_Source\PSoC5/RS485_Sensor.c ****         }
1239:Generated_Source\PSoC5/RS485_Sensor.c ****     }
 1170              		.loc 1 1239 0
 1171 0012 BDE80840 		pop	{r3, lr}
 1172              		.cfi_remember_state
 1173              		.cfi_restore 14
 1174              		.cfi_restore 3
 1175              		.cfi_def_cfa_offset 0
1237:Generated_Source\PSoC5/RS485_Sensor.c ****             RS485_Sensor_PutChar(0x0Au);
 1176              		.loc 1 1237 0
ARM GAS  C:\Users\IroTeam\AppData\Local\Temp\ccGexqi8.s 			page 44


 1177 0016 0A20     		movs	r0, #10
 1178 0018 FFF7FEBF 		b	RS485_Sensor_PutChar
 1179              	.LVL76:
 1180              	.L116:
 1181              		.cfi_restore_state
 1182 001c 08BD     		pop	{r3, pc}
 1183              	.L119:
 1184 001e 00BF     		.align	2
 1185              	.L118:
 1186 0020 00000000 		.word	.LANCHOR0
 1187              		.cfi_endproc
 1188              	.LFE22:
 1189              		.size	RS485_Sensor_PutCRLF, .-RS485_Sensor_PutCRLF
 1190              		.section	.text.RS485_Sensor_GetTxBufferSize,"ax",%progbits
 1191              		.align	1
 1192              		.global	RS485_Sensor_GetTxBufferSize
 1193              		.thumb
 1194              		.thumb_func
 1195              		.type	RS485_Sensor_GetTxBufferSize, %function
 1196              	RS485_Sensor_GetTxBufferSize:
 1197              	.LFB23:
1240:Generated_Source\PSoC5/RS485_Sensor.c **** 
1241:Generated_Source\PSoC5/RS485_Sensor.c **** 
1242:Generated_Source\PSoC5/RS485_Sensor.c ****     /*******************************************************************************
1243:Generated_Source\PSoC5/RS485_Sensor.c ****     * Function Name: RS485_Sensor_GetTxBufferSize
1244:Generated_Source\PSoC5/RS485_Sensor.c ****     ********************************************************************************
1245:Generated_Source\PSoC5/RS485_Sensor.c ****     *
1246:Generated_Source\PSoC5/RS485_Sensor.c ****     * Summary:
1247:Generated_Source\PSoC5/RS485_Sensor.c ****     *  Returns the number of bytes in the TX buffer which are waiting to be 
1248:Generated_Source\PSoC5/RS485_Sensor.c ****     *  transmitted.
1249:Generated_Source\PSoC5/RS485_Sensor.c ****     *  * TX software buffer is disabled (TX Buffer Size parameter is equal to 4): 
1250:Generated_Source\PSoC5/RS485_Sensor.c ****     *    returns 0 for empty TX FIFO, 1 for not full TX FIFO or 4 for full TX FIFO.
1251:Generated_Source\PSoC5/RS485_Sensor.c ****     *  * TX software buffer is enabled: returns the number of bytes in the TX 
1252:Generated_Source\PSoC5/RS485_Sensor.c ****     *    software buffer which are waiting to be transmitted. Bytes available in the
1253:Generated_Source\PSoC5/RS485_Sensor.c ****     *    TX FIFO do not count.
1254:Generated_Source\PSoC5/RS485_Sensor.c ****     *
1255:Generated_Source\PSoC5/RS485_Sensor.c ****     * Parameters:
1256:Generated_Source\PSoC5/RS485_Sensor.c ****     *  None.
1257:Generated_Source\PSoC5/RS485_Sensor.c ****     *
1258:Generated_Source\PSoC5/RS485_Sensor.c ****     * Return:
1259:Generated_Source\PSoC5/RS485_Sensor.c ****     *  Number of bytes used in the TX buffer. Return value type depends on the TX 
1260:Generated_Source\PSoC5/RS485_Sensor.c ****     *  Buffer Size parameter.
1261:Generated_Source\PSoC5/RS485_Sensor.c ****     *
1262:Generated_Source\PSoC5/RS485_Sensor.c ****     * Global Variables:
1263:Generated_Source\PSoC5/RS485_Sensor.c ****     *  RS485_Sensor_txBufferWrite - used to calculate left space.
1264:Generated_Source\PSoC5/RS485_Sensor.c ****     *  RS485_Sensor_txBufferRead - used to calculate left space.
1265:Generated_Source\PSoC5/RS485_Sensor.c ****     *
1266:Generated_Source\PSoC5/RS485_Sensor.c ****     * Reentrant:
1267:Generated_Source\PSoC5/RS485_Sensor.c ****     *  No.
1268:Generated_Source\PSoC5/RS485_Sensor.c ****     *
1269:Generated_Source\PSoC5/RS485_Sensor.c ****     * Theory:
1270:Generated_Source\PSoC5/RS485_Sensor.c ****     *  Allows the user to find out how full the TX Buffer is.
1271:Generated_Source\PSoC5/RS485_Sensor.c ****     *
1272:Generated_Source\PSoC5/RS485_Sensor.c ****     *******************************************************************************/
1273:Generated_Source\PSoC5/RS485_Sensor.c ****     uint16 RS485_Sensor_GetTxBufferSize(void)
1274:Generated_Source\PSoC5/RS485_Sensor.c ****                                                             
1275:Generated_Source\PSoC5/RS485_Sensor.c ****     {
ARM GAS  C:\Users\IroTeam\AppData\Local\Temp\ccGexqi8.s 			page 45


 1198              		.loc 1 1275 0
 1199              		.cfi_startproc
 1200              		@ args = 0, pretend = 0, frame = 0
 1201              		@ frame_needed = 0, uses_anonymous_args = 0
 1202              		@ link register save eliminated.
1276:Generated_Source\PSoC5/RS485_Sensor.c ****         uint16 size;
1277:Generated_Source\PSoC5/RS485_Sensor.c **** 
1278:Generated_Source\PSoC5/RS485_Sensor.c ****     #if (RS485_Sensor_TX_INTERRUPT_ENABLED)
1279:Generated_Source\PSoC5/RS485_Sensor.c **** 
1280:Generated_Source\PSoC5/RS485_Sensor.c ****         /* Protect variables that could change on interrupt. */
1281:Generated_Source\PSoC5/RS485_Sensor.c ****         RS485_Sensor_DisableTxInt();
 1203              		.loc 1 1281 0
 1204 0000 0B4B     		ldr	r3, .L125
 1205 0002 0822     		movs	r2, #8
 1206 0004 1A60     		str	r2, [r3]
1282:Generated_Source\PSoC5/RS485_Sensor.c **** 
1283:Generated_Source\PSoC5/RS485_Sensor.c ****         if(RS485_Sensor_txBufferRead == RS485_Sensor_txBufferWrite)
 1207              		.loc 1 1283 0
 1208 0006 0B4A     		ldr	r2, .L125+4
 1209 0008 1189     		ldrh	r1, [r2, #8]
 1210 000a 5389     		ldrh	r3, [r2, #10]
 1211 000c 89B2     		uxth	r1, r1
 1212 000e 9942     		cmp	r1, r3
 1213 0010 09D0     		beq	.L123
1284:Generated_Source\PSoC5/RS485_Sensor.c ****         {
1285:Generated_Source\PSoC5/RS485_Sensor.c ****             size = 0u;
1286:Generated_Source\PSoC5/RS485_Sensor.c ****         }
1287:Generated_Source\PSoC5/RS485_Sensor.c ****         else if(RS485_Sensor_txBufferRead < RS485_Sensor_txBufferWrite)
 1214              		.loc 1 1287 0
 1215 0012 1189     		ldrh	r1, [r2, #8]
1288:Generated_Source\PSoC5/RS485_Sensor.c ****         {
1289:Generated_Source\PSoC5/RS485_Sensor.c ****             size = (RS485_Sensor_txBufferWrite - RS485_Sensor_txBufferRead);
 1216              		.loc 1 1289 0
 1217 0014 1089     		ldrh	r0, [r2, #8]
1287:Generated_Source\PSoC5/RS485_Sensor.c ****         {
 1218              		.loc 1 1287 0
 1219 0016 89B2     		uxth	r1, r1
 1220 0018 8B42     		cmp	r3, r1
1290:Generated_Source\PSoC5/RS485_Sensor.c ****         }
1291:Generated_Source\PSoC5/RS485_Sensor.c ****         else
1292:Generated_Source\PSoC5/RS485_Sensor.c ****         {
1293:Generated_Source\PSoC5/RS485_Sensor.c ****             size = (RS485_Sensor_TX_BUFFER_SIZE - RS485_Sensor_txBufferRead) +
 1221              		.loc 1 1293 0
 1222 001a 98BF     		it	ls
 1223 001c 03F50063 		addls	r3, r3, #2048
 1224 0020 181A     		subs	r0, r3, r0
 1225 0022 80B2     		uxth	r0, r0
 1226              	.LVL77:
 1227 0024 00E0     		b	.L121
 1228              	.LVL78:
 1229              	.L123:
1285:Generated_Source\PSoC5/RS485_Sensor.c ****         }
 1230              		.loc 1 1285 0
 1231 0026 0020     		movs	r0, #0
 1232              	.L121:
 1233              	.LVL79:
1294:Generated_Source\PSoC5/RS485_Sensor.c ****                     RS485_Sensor_txBufferWrite;
ARM GAS  C:\Users\IroTeam\AppData\Local\Temp\ccGexqi8.s 			page 46


1295:Generated_Source\PSoC5/RS485_Sensor.c ****         }
1296:Generated_Source\PSoC5/RS485_Sensor.c **** 
1297:Generated_Source\PSoC5/RS485_Sensor.c ****         RS485_Sensor_EnableTxInt();
 1234              		.loc 1 1297 0
 1235 0028 034B     		ldr	r3, .L125+8
 1236 002a 0822     		movs	r2, #8
 1237 002c 1A60     		str	r2, [r3]
1298:Generated_Source\PSoC5/RS485_Sensor.c **** 
1299:Generated_Source\PSoC5/RS485_Sensor.c ****     #else
1300:Generated_Source\PSoC5/RS485_Sensor.c **** 
1301:Generated_Source\PSoC5/RS485_Sensor.c ****         size = RS485_Sensor_TXSTATUS_REG;
1302:Generated_Source\PSoC5/RS485_Sensor.c **** 
1303:Generated_Source\PSoC5/RS485_Sensor.c ****         /* Is the fifo is full. */
1304:Generated_Source\PSoC5/RS485_Sensor.c ****         if((size & RS485_Sensor_TX_STS_FIFO_FULL) != 0u)
1305:Generated_Source\PSoC5/RS485_Sensor.c ****         {
1306:Generated_Source\PSoC5/RS485_Sensor.c ****             size = RS485_Sensor_FIFO_LENGTH;
1307:Generated_Source\PSoC5/RS485_Sensor.c ****         }
1308:Generated_Source\PSoC5/RS485_Sensor.c ****         else if((size & RS485_Sensor_TX_STS_FIFO_EMPTY) != 0u)
1309:Generated_Source\PSoC5/RS485_Sensor.c ****         {
1310:Generated_Source\PSoC5/RS485_Sensor.c ****             size = 0u;
1311:Generated_Source\PSoC5/RS485_Sensor.c ****         }
1312:Generated_Source\PSoC5/RS485_Sensor.c ****         else
1313:Generated_Source\PSoC5/RS485_Sensor.c ****         {
1314:Generated_Source\PSoC5/RS485_Sensor.c ****             /* We only know there is data in the fifo. */
1315:Generated_Source\PSoC5/RS485_Sensor.c ****             size = 1u;
1316:Generated_Source\PSoC5/RS485_Sensor.c ****         }
1317:Generated_Source\PSoC5/RS485_Sensor.c **** 
1318:Generated_Source\PSoC5/RS485_Sensor.c ****     #endif /* (RS485_Sensor_TX_INTERRUPT_ENABLED) */
1319:Generated_Source\PSoC5/RS485_Sensor.c **** 
1320:Generated_Source\PSoC5/RS485_Sensor.c ****     return(size);
1321:Generated_Source\PSoC5/RS485_Sensor.c ****     }
 1238              		.loc 1 1321 0
 1239 002e 7047     		bx	lr
 1240              	.L126:
 1241              		.align	2
 1242              	.L125:
 1243 0030 80E100E0 		.word	-536813184
 1244 0034 00000000 		.word	.LANCHOR0
 1245 0038 00E100E0 		.word	-536813312
 1246              		.cfi_endproc
 1247              	.LFE23:
 1248              		.size	RS485_Sensor_GetTxBufferSize, .-RS485_Sensor_GetTxBufferSize
 1249              		.section	.text.RS485_Sensor_ClearTxBuffer,"ax",%progbits
 1250              		.align	1
 1251              		.global	RS485_Sensor_ClearTxBuffer
 1252              		.thumb
 1253              		.thumb_func
 1254              		.type	RS485_Sensor_ClearTxBuffer, %function
 1255              	RS485_Sensor_ClearTxBuffer:
 1256              	.LFB24:
1322:Generated_Source\PSoC5/RS485_Sensor.c **** 
1323:Generated_Source\PSoC5/RS485_Sensor.c **** 
1324:Generated_Source\PSoC5/RS485_Sensor.c ****     /*******************************************************************************
1325:Generated_Source\PSoC5/RS485_Sensor.c ****     * Function Name: RS485_Sensor_ClearTxBuffer
1326:Generated_Source\PSoC5/RS485_Sensor.c ****     ********************************************************************************
1327:Generated_Source\PSoC5/RS485_Sensor.c ****     *
1328:Generated_Source\PSoC5/RS485_Sensor.c ****     * Summary:
ARM GAS  C:\Users\IroTeam\AppData\Local\Temp\ccGexqi8.s 			page 47


1329:Generated_Source\PSoC5/RS485_Sensor.c ****     *  Clears all data from the TX buffer and hardware TX FIFO.
1330:Generated_Source\PSoC5/RS485_Sensor.c ****     *
1331:Generated_Source\PSoC5/RS485_Sensor.c ****     * Parameters:
1332:Generated_Source\PSoC5/RS485_Sensor.c ****     *  None.
1333:Generated_Source\PSoC5/RS485_Sensor.c ****     *
1334:Generated_Source\PSoC5/RS485_Sensor.c ****     * Return:
1335:Generated_Source\PSoC5/RS485_Sensor.c ****     *  None.
1336:Generated_Source\PSoC5/RS485_Sensor.c ****     *
1337:Generated_Source\PSoC5/RS485_Sensor.c ****     * Global Variables:
1338:Generated_Source\PSoC5/RS485_Sensor.c ****     *  RS485_Sensor_txBufferWrite - cleared to zero.
1339:Generated_Source\PSoC5/RS485_Sensor.c ****     *  RS485_Sensor_txBufferRead - cleared to zero.
1340:Generated_Source\PSoC5/RS485_Sensor.c ****     *
1341:Generated_Source\PSoC5/RS485_Sensor.c ****     * Reentrant:
1342:Generated_Source\PSoC5/RS485_Sensor.c ****     *  No.
1343:Generated_Source\PSoC5/RS485_Sensor.c ****     *
1344:Generated_Source\PSoC5/RS485_Sensor.c ****     * Theory:
1345:Generated_Source\PSoC5/RS485_Sensor.c ****     *  Setting the pointers to zero makes the system believe there is no data to
1346:Generated_Source\PSoC5/RS485_Sensor.c ****     *  read and writing will resume at address 0 overwriting any data that may have
1347:Generated_Source\PSoC5/RS485_Sensor.c ****     *  remained in the RAM.
1348:Generated_Source\PSoC5/RS485_Sensor.c ****     *
1349:Generated_Source\PSoC5/RS485_Sensor.c ****     * Side Effects:
1350:Generated_Source\PSoC5/RS485_Sensor.c ****     *  Data waiting in the transmit buffer is not sent; a byte that is currently
1351:Generated_Source\PSoC5/RS485_Sensor.c ****     *  transmitting finishes transmitting.
1352:Generated_Source\PSoC5/RS485_Sensor.c ****     *
1353:Generated_Source\PSoC5/RS485_Sensor.c ****     *******************************************************************************/
1354:Generated_Source\PSoC5/RS485_Sensor.c ****     void RS485_Sensor_ClearTxBuffer(void) 
1355:Generated_Source\PSoC5/RS485_Sensor.c ****     {
 1257              		.loc 1 1355 0
 1258              		.cfi_startproc
 1259              		@ args = 0, pretend = 0, frame = 0
 1260              		@ frame_needed = 0, uses_anonymous_args = 0
 1261 0000 08B5     		push	{r3, lr}
 1262              		.cfi_def_cfa_offset 8
 1263              		.cfi_offset 3, -8
 1264              		.cfi_offset 14, -4
1356:Generated_Source\PSoC5/RS485_Sensor.c ****         uint8 enableInterrupts;
1357:Generated_Source\PSoC5/RS485_Sensor.c **** 
1358:Generated_Source\PSoC5/RS485_Sensor.c ****         enableInterrupts = CyEnterCriticalSection();
 1265              		.loc 1 1358 0
 1266 0002 FFF7FEFF 		bl	CyEnterCriticalSection
 1267              	.LVL80:
1359:Generated_Source\PSoC5/RS485_Sensor.c ****         /* Clear the HW FIFO */
1360:Generated_Source\PSoC5/RS485_Sensor.c ****         RS485_Sensor_TXDATA_AUX_CTL_REG |= (uint8)  RS485_Sensor_TX_FIFO_CLR;
 1268              		.loc 1 1360 0
 1269 0006 0A4B     		ldr	r3, .L128
 1270 0008 1A78     		ldrb	r2, [r3]	@ zero_extendqisi2
 1271 000a 42F00102 		orr	r2, r2, #1
 1272 000e 1A70     		strb	r2, [r3]
1361:Generated_Source\PSoC5/RS485_Sensor.c ****         RS485_Sensor_TXDATA_AUX_CTL_REG &= (uint8) ~RS485_Sensor_TX_FIFO_CLR;
 1273              		.loc 1 1361 0
 1274 0010 1A78     		ldrb	r2, [r3]	@ zero_extendqisi2
 1275 0012 02F0FE02 		and	r2, r2, #254
 1276 0016 1A70     		strb	r2, [r3]
1362:Generated_Source\PSoC5/RS485_Sensor.c ****         CyExitCriticalSection(enableInterrupts);
 1277              		.loc 1 1362 0
 1278 0018 FFF7FEFF 		bl	CyExitCriticalSection
 1279              	.LVL81:
ARM GAS  C:\Users\IroTeam\AppData\Local\Temp\ccGexqi8.s 			page 48


1363:Generated_Source\PSoC5/RS485_Sensor.c **** 
1364:Generated_Source\PSoC5/RS485_Sensor.c ****     #if (RS485_Sensor_TX_INTERRUPT_ENABLED)
1365:Generated_Source\PSoC5/RS485_Sensor.c **** 
1366:Generated_Source\PSoC5/RS485_Sensor.c ****         /* Protect variables that could change on interrupt. */
1367:Generated_Source\PSoC5/RS485_Sensor.c ****         RS485_Sensor_DisableTxInt();
 1280              		.loc 1 1367 0
 1281 001c 054A     		ldr	r2, .L128+4
 1282 001e 0823     		movs	r3, #8
 1283 0020 1360     		str	r3, [r2]
1368:Generated_Source\PSoC5/RS485_Sensor.c **** 
1369:Generated_Source\PSoC5/RS485_Sensor.c ****         RS485_Sensor_txBufferRead = 0u;
 1284              		.loc 1 1369 0
 1285 0022 054A     		ldr	r2, .L128+8
 1286 0024 0021     		movs	r1, #0
 1287 0026 1181     		strh	r1, [r2, #8]	@ movhi
1370:Generated_Source\PSoC5/RS485_Sensor.c ****         RS485_Sensor_txBufferWrite = 0u;
 1288              		.loc 1 1370 0
 1289 0028 5181     		strh	r1, [r2, #10]	@ movhi
1371:Generated_Source\PSoC5/RS485_Sensor.c **** 
1372:Generated_Source\PSoC5/RS485_Sensor.c ****         /* Enable Tx interrupt. */
1373:Generated_Source\PSoC5/RS485_Sensor.c ****         RS485_Sensor_EnableTxInt();
 1290              		.loc 1 1373 0
 1291 002a 044A     		ldr	r2, .L128+12
 1292 002c 1360     		str	r3, [r2]
 1293 002e 08BD     		pop	{r3, pc}
 1294              	.L129:
 1295              		.align	2
 1296              	.L128:
 1297 0030 9D640040 		.word	1073767581
 1298 0034 80E100E0 		.word	-536813184
 1299 0038 00000000 		.word	.LANCHOR0
 1300 003c 00E100E0 		.word	-536813312
 1301              		.cfi_endproc
 1302              	.LFE24:
 1303              		.size	RS485_Sensor_ClearTxBuffer, .-RS485_Sensor_ClearTxBuffer
 1304              		.section	.text.RS485_Sensor_SendBreak,"ax",%progbits
 1305              		.align	1
 1306              		.global	RS485_Sensor_SendBreak
 1307              		.thumb
 1308              		.thumb_func
 1309              		.type	RS485_Sensor_SendBreak, %function
 1310              	RS485_Sensor_SendBreak:
 1311              	.LFB25:
1374:Generated_Source\PSoC5/RS485_Sensor.c **** 
1375:Generated_Source\PSoC5/RS485_Sensor.c ****     #endif /* (RS485_Sensor_TX_INTERRUPT_ENABLED) */
1376:Generated_Source\PSoC5/RS485_Sensor.c ****     }
1377:Generated_Source\PSoC5/RS485_Sensor.c **** 
1378:Generated_Source\PSoC5/RS485_Sensor.c **** 
1379:Generated_Source\PSoC5/RS485_Sensor.c ****     /*******************************************************************************
1380:Generated_Source\PSoC5/RS485_Sensor.c ****     * Function Name: RS485_Sensor_SendBreak
1381:Generated_Source\PSoC5/RS485_Sensor.c ****     ********************************************************************************
1382:Generated_Source\PSoC5/RS485_Sensor.c ****     *
1383:Generated_Source\PSoC5/RS485_Sensor.c ****     * Summary:
1384:Generated_Source\PSoC5/RS485_Sensor.c ****     *  Transmits a break signal on the bus.
1385:Generated_Source\PSoC5/RS485_Sensor.c ****     *
1386:Generated_Source\PSoC5/RS485_Sensor.c ****     * Parameters:
1387:Generated_Source\PSoC5/RS485_Sensor.c ****     *  uint8 retMode:  Send Break return mode. See the following table for options.
ARM GAS  C:\Users\IroTeam\AppData\Local\Temp\ccGexqi8.s 			page 49


1388:Generated_Source\PSoC5/RS485_Sensor.c ****     *   RS485_Sensor_SEND_BREAK - Initialize registers for break, send the Break
1389:Generated_Source\PSoC5/RS485_Sensor.c ****     *       signal and return immediately.
1390:Generated_Source\PSoC5/RS485_Sensor.c ****     *   RS485_Sensor_WAIT_FOR_COMPLETE_REINIT - Wait until break transmission is
1391:Generated_Source\PSoC5/RS485_Sensor.c ****     *       complete, reinitialize registers to normal transmission mode then return
1392:Generated_Source\PSoC5/RS485_Sensor.c ****     *   RS485_Sensor_REINIT - Reinitialize registers to normal transmission mode
1393:Generated_Source\PSoC5/RS485_Sensor.c ****     *       then return.
1394:Generated_Source\PSoC5/RS485_Sensor.c ****     *   RS485_Sensor_SEND_WAIT_REINIT - Performs both options: 
1395:Generated_Source\PSoC5/RS485_Sensor.c ****     *      RS485_Sensor_SEND_BREAK and RS485_Sensor_WAIT_FOR_COMPLETE_REINIT.
1396:Generated_Source\PSoC5/RS485_Sensor.c ****     *      This option is recommended for most cases.
1397:Generated_Source\PSoC5/RS485_Sensor.c ****     *
1398:Generated_Source\PSoC5/RS485_Sensor.c ****     * Return:
1399:Generated_Source\PSoC5/RS485_Sensor.c ****     *  None.
1400:Generated_Source\PSoC5/RS485_Sensor.c ****     *
1401:Generated_Source\PSoC5/RS485_Sensor.c ****     * Global Variables:
1402:Generated_Source\PSoC5/RS485_Sensor.c ****     *  RS485_Sensor_initVar - checked to identify that the component has been
1403:Generated_Source\PSoC5/RS485_Sensor.c ****     *     initialized.
1404:Generated_Source\PSoC5/RS485_Sensor.c ****     *  txPeriod - static variable, used for keeping TX period configuration.
1405:Generated_Source\PSoC5/RS485_Sensor.c ****     *
1406:Generated_Source\PSoC5/RS485_Sensor.c ****     * Reentrant:
1407:Generated_Source\PSoC5/RS485_Sensor.c ****     *  No.
1408:Generated_Source\PSoC5/RS485_Sensor.c ****     *
1409:Generated_Source\PSoC5/RS485_Sensor.c ****     * Theory:
1410:Generated_Source\PSoC5/RS485_Sensor.c ****     *  SendBreak function initializes registers to send 13-bit break signal. It is
1411:Generated_Source\PSoC5/RS485_Sensor.c ****     *  important to return the registers configuration to normal for continue 8-bit
1412:Generated_Source\PSoC5/RS485_Sensor.c ****     *  operation.
1413:Generated_Source\PSoC5/RS485_Sensor.c ****     *  There are 3 variants for this API usage:
1414:Generated_Source\PSoC5/RS485_Sensor.c ****     *  1) SendBreak(3) - function will send the Break signal and take care on the
1415:Generated_Source\PSoC5/RS485_Sensor.c ****     *     configuration returning. Function will block CPU until transmission
1416:Generated_Source\PSoC5/RS485_Sensor.c ****     *     complete.
1417:Generated_Source\PSoC5/RS485_Sensor.c ****     *  2) User may want to use blocking time if UART configured to the low speed
1418:Generated_Source\PSoC5/RS485_Sensor.c ****     *     operation
1419:Generated_Source\PSoC5/RS485_Sensor.c ****     *     Example for this case:
1420:Generated_Source\PSoC5/RS485_Sensor.c ****     *     SendBreak(0);     - initialize Break signal transmission
1421:Generated_Source\PSoC5/RS485_Sensor.c ****     *         Add your code here to use CPU time
1422:Generated_Source\PSoC5/RS485_Sensor.c ****     *     SendBreak(1);     - complete Break operation
1423:Generated_Source\PSoC5/RS485_Sensor.c ****     *  3) Same to 2) but user may want to initialize and use the interrupt to
1424:Generated_Source\PSoC5/RS485_Sensor.c ****     *     complete break operation.
1425:Generated_Source\PSoC5/RS485_Sensor.c ****     *     Example for this case:
1426:Generated_Source\PSoC5/RS485_Sensor.c ****     *     Initialize TX interrupt with "TX - On TX Complete" parameter
1427:Generated_Source\PSoC5/RS485_Sensor.c ****     *     SendBreak(0);     - initialize Break signal transmission
1428:Generated_Source\PSoC5/RS485_Sensor.c ****     *         Add your code here to use CPU time
1429:Generated_Source\PSoC5/RS485_Sensor.c ****     *     When interrupt appear with RS485_Sensor_TX_STS_COMPLETE status:
1430:Generated_Source\PSoC5/RS485_Sensor.c ****     *     SendBreak(2);     - complete Break operation
1431:Generated_Source\PSoC5/RS485_Sensor.c ****     *
1432:Generated_Source\PSoC5/RS485_Sensor.c ****     * Side Effects:
1433:Generated_Source\PSoC5/RS485_Sensor.c ****     *  The RS485_Sensor_SendBreak() function initializes registers to send a
1434:Generated_Source\PSoC5/RS485_Sensor.c ****     *  break signal.
1435:Generated_Source\PSoC5/RS485_Sensor.c ****     *  Break signal length depends on the break signal bits configuration.
1436:Generated_Source\PSoC5/RS485_Sensor.c ****     *  The register configuration should be reinitialized before normal 8-bit
1437:Generated_Source\PSoC5/RS485_Sensor.c ****     *  communication can continue.
1438:Generated_Source\PSoC5/RS485_Sensor.c ****     *
1439:Generated_Source\PSoC5/RS485_Sensor.c ****     *******************************************************************************/
1440:Generated_Source\PSoC5/RS485_Sensor.c ****     void RS485_Sensor_SendBreak(uint8 retMode) 
1441:Generated_Source\PSoC5/RS485_Sensor.c ****     {
 1312              		.loc 1 1441 0
 1313              		.cfi_startproc
 1314              		@ args = 0, pretend = 0, frame = 0
ARM GAS  C:\Users\IroTeam\AppData\Local\Temp\ccGexqi8.s 			page 50


 1315              		@ frame_needed = 0, uses_anonymous_args = 0
 1316              		@ link register save eliminated.
 1317              	.LVL82:
1442:Generated_Source\PSoC5/RS485_Sensor.c **** 
1443:Generated_Source\PSoC5/RS485_Sensor.c ****         /* If not Initialized then skip this function*/
1444:Generated_Source\PSoC5/RS485_Sensor.c ****         if(RS485_Sensor_initVar != 0u)
 1318              		.loc 1 1444 0
 1319 0000 124B     		ldr	r3, .L153
 1320 0002 5A78     		ldrb	r2, [r3, #1]	@ zero_extendqisi2
 1321 0004 02B3     		cbz	r2, .L130
 1322              	.LBB2:
1445:Generated_Source\PSoC5/RS485_Sensor.c ****         {
1446:Generated_Source\PSoC5/RS485_Sensor.c ****             /* Set the Counter to 13-bits and transmit a 00 byte */
1447:Generated_Source\PSoC5/RS485_Sensor.c ****             /* When that is done then reset the counter value back */
1448:Generated_Source\PSoC5/RS485_Sensor.c ****             uint8 tmpStat;
1449:Generated_Source\PSoC5/RS485_Sensor.c **** 
1450:Generated_Source\PSoC5/RS485_Sensor.c ****         #if(RS485_Sensor_HD_ENABLED) /* Half Duplex mode*/
1451:Generated_Source\PSoC5/RS485_Sensor.c **** 
1452:Generated_Source\PSoC5/RS485_Sensor.c ****             if( (retMode == RS485_Sensor_SEND_BREAK) ||
1453:Generated_Source\PSoC5/RS485_Sensor.c ****                 (retMode == RS485_Sensor_SEND_WAIT_REINIT ) )
1454:Generated_Source\PSoC5/RS485_Sensor.c ****             {
1455:Generated_Source\PSoC5/RS485_Sensor.c ****                 /* CTRL_HD_SEND_BREAK - sends break bits in HD mode */
1456:Generated_Source\PSoC5/RS485_Sensor.c ****                 RS485_Sensor_WriteControlRegister(RS485_Sensor_ReadControlRegister() |
1457:Generated_Source\PSoC5/RS485_Sensor.c ****                                                       RS485_Sensor_CTRL_HD_SEND_BREAK);
1458:Generated_Source\PSoC5/RS485_Sensor.c ****                 /* Send zeros */
1459:Generated_Source\PSoC5/RS485_Sensor.c ****                 RS485_Sensor_TXDATA_REG = 0u;
1460:Generated_Source\PSoC5/RS485_Sensor.c **** 
1461:Generated_Source\PSoC5/RS485_Sensor.c ****                 do /* Wait until transmit starts */
1462:Generated_Source\PSoC5/RS485_Sensor.c ****                 {
1463:Generated_Source\PSoC5/RS485_Sensor.c ****                     tmpStat = RS485_Sensor_TXSTATUS_REG;
1464:Generated_Source\PSoC5/RS485_Sensor.c ****                 }
1465:Generated_Source\PSoC5/RS485_Sensor.c ****                 while((tmpStat & RS485_Sensor_TX_STS_FIFO_EMPTY) != 0u);
1466:Generated_Source\PSoC5/RS485_Sensor.c ****             }
1467:Generated_Source\PSoC5/RS485_Sensor.c **** 
1468:Generated_Source\PSoC5/RS485_Sensor.c ****             if( (retMode == RS485_Sensor_WAIT_FOR_COMPLETE_REINIT) ||
1469:Generated_Source\PSoC5/RS485_Sensor.c ****                 (retMode == RS485_Sensor_SEND_WAIT_REINIT) )
1470:Generated_Source\PSoC5/RS485_Sensor.c ****             {
1471:Generated_Source\PSoC5/RS485_Sensor.c ****                 do /* Wait until transmit complete */
1472:Generated_Source\PSoC5/RS485_Sensor.c ****                 {
1473:Generated_Source\PSoC5/RS485_Sensor.c ****                     tmpStat = RS485_Sensor_TXSTATUS_REG;
1474:Generated_Source\PSoC5/RS485_Sensor.c ****                 }
1475:Generated_Source\PSoC5/RS485_Sensor.c ****                 while(((uint8)~tmpStat & RS485_Sensor_TX_STS_COMPLETE) != 0u);
1476:Generated_Source\PSoC5/RS485_Sensor.c ****             }
1477:Generated_Source\PSoC5/RS485_Sensor.c **** 
1478:Generated_Source\PSoC5/RS485_Sensor.c ****             if( (retMode == RS485_Sensor_WAIT_FOR_COMPLETE_REINIT) ||
1479:Generated_Source\PSoC5/RS485_Sensor.c ****                 (retMode == RS485_Sensor_REINIT) ||
1480:Generated_Source\PSoC5/RS485_Sensor.c ****                 (retMode == RS485_Sensor_SEND_WAIT_REINIT) )
1481:Generated_Source\PSoC5/RS485_Sensor.c ****             {
1482:Generated_Source\PSoC5/RS485_Sensor.c ****                 RS485_Sensor_WriteControlRegister(RS485_Sensor_ReadControlRegister() &
1483:Generated_Source\PSoC5/RS485_Sensor.c ****                                               (uint8)~RS485_Sensor_CTRL_HD_SEND_BREAK);
1484:Generated_Source\PSoC5/RS485_Sensor.c ****             }
1485:Generated_Source\PSoC5/RS485_Sensor.c **** 
1486:Generated_Source\PSoC5/RS485_Sensor.c ****         #else /* RS485_Sensor_HD_ENABLED Full Duplex mode */
1487:Generated_Source\PSoC5/RS485_Sensor.c **** 
1488:Generated_Source\PSoC5/RS485_Sensor.c ****             static uint8 txPeriod;
1489:Generated_Source\PSoC5/RS485_Sensor.c **** 
1490:Generated_Source\PSoC5/RS485_Sensor.c ****             if( (retMode == RS485_Sensor_SEND_BREAK) ||
ARM GAS  C:\Users\IroTeam\AppData\Local\Temp\ccGexqi8.s 			page 51


 1323              		.loc 1 1490 0
 1324 0006 08B1     		cbz	r0, .L133
 1325              		.loc 1 1490 0 is_stmt 0 discriminator 1
 1326 0008 0328     		cmp	r0, #3
 1327 000a 1BD1     		bne	.L134
 1328              	.L133:
1491:Generated_Source\PSoC5/RS485_Sensor.c ****                 (retMode == RS485_Sensor_SEND_WAIT_REINIT) )
1492:Generated_Source\PSoC5/RS485_Sensor.c ****             {
1493:Generated_Source\PSoC5/RS485_Sensor.c ****                 /* CTRL_HD_SEND_BREAK - skip to send parity bit at Break signal in Full Duplex mode
1494:Generated_Source\PSoC5/RS485_Sensor.c ****                 #if( (RS485_Sensor_PARITY_TYPE != RS485_Sensor__B_UART__NONE_REVB) || \
1495:Generated_Source\PSoC5/RS485_Sensor.c ****                                     (RS485_Sensor_PARITY_TYPE_SW != 0u) )
1496:Generated_Source\PSoC5/RS485_Sensor.c ****                     RS485_Sensor_WriteControlRegister(RS485_Sensor_ReadControlRegister() |
1497:Generated_Source\PSoC5/RS485_Sensor.c ****                                                           RS485_Sensor_CTRL_HD_SEND_BREAK);
1498:Generated_Source\PSoC5/RS485_Sensor.c ****                 #endif /* End RS485_Sensor_PARITY_TYPE != RS485_Sensor__B_UART__NONE_REVB  */
1499:Generated_Source\PSoC5/RS485_Sensor.c **** 
1500:Generated_Source\PSoC5/RS485_Sensor.c ****                 #if(RS485_Sensor_TXCLKGEN_DP)
1501:Generated_Source\PSoC5/RS485_Sensor.c ****                     txPeriod = RS485_Sensor_TXBITCLKTX_COMPLETE_REG;
 1329              		.loc 1 1501 0 is_stmt 1
 1330 000c 104A     		ldr	r2, .L153+4
 1331 000e 1178     		ldrb	r1, [r2]	@ zero_extendqisi2
 1332 0010 1973     		strb	r1, [r3, #12]
1502:Generated_Source\PSoC5/RS485_Sensor.c ****                     RS485_Sensor_TXBITCLKTX_COMPLETE_REG = RS485_Sensor_TXBITCTR_BREAKBITS;
 1333              		.loc 1 1502 0
 1334 0012 6721     		movs	r1, #103
 1335 0014 1170     		strb	r1, [r2]
1503:Generated_Source\PSoC5/RS485_Sensor.c ****                 #else
1504:Generated_Source\PSoC5/RS485_Sensor.c ****                     txPeriod = RS485_Sensor_TXBITCTR_PERIOD_REG;
1505:Generated_Source\PSoC5/RS485_Sensor.c ****                     RS485_Sensor_TXBITCTR_PERIOD_REG = RS485_Sensor_TXBITCTR_BREAKBITS8X;
1506:Generated_Source\PSoC5/RS485_Sensor.c ****                 #endif /* End RS485_Sensor_TXCLKGEN_DP */
1507:Generated_Source\PSoC5/RS485_Sensor.c **** 
1508:Generated_Source\PSoC5/RS485_Sensor.c ****                 /* Send zeros */
1509:Generated_Source\PSoC5/RS485_Sensor.c ****                 RS485_Sensor_TXDATA_REG = 0u;
 1336              		.loc 1 1509 0
 1337 0016 0021     		movs	r1, #0
 1338 0018 9174     		strb	r1, [r2, #18]
1510:Generated_Source\PSoC5/RS485_Sensor.c **** 
1511:Generated_Source\PSoC5/RS485_Sensor.c ****                 do /* Wait until transmit starts */
1512:Generated_Source\PSoC5/RS485_Sensor.c ****                 {
1513:Generated_Source\PSoC5/RS485_Sensor.c ****                     tmpStat = RS485_Sensor_TXSTATUS_REG;
 1339              		.loc 1 1513 0
 1340 001a 0E49     		ldr	r1, .L153+8
 1341              	.L135:
 1342              		.loc 1 1513 0 is_stmt 0 discriminator 1
 1343 001c 0A78     		ldrb	r2, [r1]	@ zero_extendqisi2
 1344              	.LVL83:
1514:Generated_Source\PSoC5/RS485_Sensor.c ****                 }
1515:Generated_Source\PSoC5/RS485_Sensor.c ****                 while((tmpStat & RS485_Sensor_TX_STS_FIFO_EMPTY) != 0u);
 1345              		.loc 1 1515 0 is_stmt 1 discriminator 1
 1346 001e 9207     		lsls	r2, r2, #30
 1347              	.LVL84:
 1348 0020 FCD4     		bmi	.L135
1516:Generated_Source\PSoC5/RS485_Sensor.c ****             }
1517:Generated_Source\PSoC5/RS485_Sensor.c **** 
1518:Generated_Source\PSoC5/RS485_Sensor.c ****             if( (retMode == RS485_Sensor_WAIT_FOR_COMPLETE_REINIT) ||
 1349              		.loc 1 1518 0
 1350 0022 00F0FD02 		and	r2, r0, #253
 1351 0026 012A     		cmp	r2, #1
ARM GAS  C:\Users\IroTeam\AppData\Local\Temp\ccGexqi8.s 			page 52


 1352              	.L152:
 1353 0028 03D0     		beq	.L136
 1354              	.L140:
1519:Generated_Source\PSoC5/RS485_Sensor.c ****                 (retMode == RS485_Sensor_SEND_WAIT_REINIT) )
1520:Generated_Source\PSoC5/RS485_Sensor.c ****             {
1521:Generated_Source\PSoC5/RS485_Sensor.c ****                 do /* Wait until transmit complete */
1522:Generated_Source\PSoC5/RS485_Sensor.c ****                 {
1523:Generated_Source\PSoC5/RS485_Sensor.c ****                     tmpStat = RS485_Sensor_TXSTATUS_REG;
1524:Generated_Source\PSoC5/RS485_Sensor.c ****                 }
1525:Generated_Source\PSoC5/RS485_Sensor.c ****                 while(((uint8)~tmpStat & RS485_Sensor_TX_STS_COMPLETE) != 0u);
1526:Generated_Source\PSoC5/RS485_Sensor.c ****             }
1527:Generated_Source\PSoC5/RS485_Sensor.c **** 
1528:Generated_Source\PSoC5/RS485_Sensor.c ****             if( (retMode == RS485_Sensor_WAIT_FOR_COMPLETE_REINIT) ||
 1355              		.loc 1 1528 0
 1356 002a 0138     		subs	r0, r0, #1
 1357              	.LVL85:
 1358 002c 0228     		cmp	r0, #2
 1359 002e 05D9     		bls	.L137
 1360 0030 7047     		bx	lr
 1361              	.LVL86:
 1362              	.L136:
1523:Generated_Source\PSoC5/RS485_Sensor.c ****                 }
 1363              		.loc 1 1523 0
 1364 0032 0849     		ldr	r1, .L153+8
 1365              	.L139:
1523:Generated_Source\PSoC5/RS485_Sensor.c ****                 }
 1366              		.loc 1 1523 0 is_stmt 0 discriminator 1
 1367 0034 0A78     		ldrb	r2, [r1]	@ zero_extendqisi2
 1368              	.LVL87:
1525:Generated_Source\PSoC5/RS485_Sensor.c ****             }
 1369              		.loc 1 1525 0 is_stmt 1 discriminator 1
 1370 0036 D207     		lsls	r2, r2, #31
 1371              	.LVL88:
 1372 0038 FCD5     		bpl	.L139
 1373 003a F6E7     		b	.L140
 1374              	.LVL89:
 1375              	.L137:
1529:Generated_Source\PSoC5/RS485_Sensor.c ****                 (retMode == RS485_Sensor_REINIT) ||
1530:Generated_Source\PSoC5/RS485_Sensor.c ****                 (retMode == RS485_Sensor_SEND_WAIT_REINIT) )
1531:Generated_Source\PSoC5/RS485_Sensor.c ****             {
1532:Generated_Source\PSoC5/RS485_Sensor.c **** 
1533:Generated_Source\PSoC5/RS485_Sensor.c ****             #if(RS485_Sensor_TXCLKGEN_DP)
1534:Generated_Source\PSoC5/RS485_Sensor.c ****                 RS485_Sensor_TXBITCLKTX_COMPLETE_REG = txPeriod;
 1376              		.loc 1 1534 0
 1377 003c 1A7B     		ldrb	r2, [r3, #12]	@ zero_extendqisi2
 1378 003e 044B     		ldr	r3, .L153+4
 1379 0040 1A70     		strb	r2, [r3]
 1380              	.LBE2:
1535:Generated_Source\PSoC5/RS485_Sensor.c ****             #else
1536:Generated_Source\PSoC5/RS485_Sensor.c ****                 RS485_Sensor_TXBITCTR_PERIOD_REG = txPeriod;
1537:Generated_Source\PSoC5/RS485_Sensor.c ****             #endif /* End RS485_Sensor_TXCLKGEN_DP */
1538:Generated_Source\PSoC5/RS485_Sensor.c **** 
1539:Generated_Source\PSoC5/RS485_Sensor.c ****             #if( (RS485_Sensor_PARITY_TYPE != RS485_Sensor__B_UART__NONE_REVB) || \
1540:Generated_Source\PSoC5/RS485_Sensor.c ****                  (RS485_Sensor_PARITY_TYPE_SW != 0u) )
1541:Generated_Source\PSoC5/RS485_Sensor.c ****                 RS485_Sensor_WriteControlRegister(RS485_Sensor_ReadControlRegister() &
1542:Generated_Source\PSoC5/RS485_Sensor.c ****                                                       (uint8) ~RS485_Sensor_CTRL_HD_SEND_BREAK);
1543:Generated_Source\PSoC5/RS485_Sensor.c ****             #endif /* End RS485_Sensor_PARITY_TYPE != NONE */
ARM GAS  C:\Users\IroTeam\AppData\Local\Temp\ccGexqi8.s 			page 53


1544:Generated_Source\PSoC5/RS485_Sensor.c ****             }
1545:Generated_Source\PSoC5/RS485_Sensor.c ****         #endif    /* End RS485_Sensor_HD_ENABLED */
1546:Generated_Source\PSoC5/RS485_Sensor.c ****         }
1547:Generated_Source\PSoC5/RS485_Sensor.c ****     }
 1381              		.loc 1 1547 0
 1382 0042 7047     		bx	lr
 1383              	.LVL90:
 1384              	.L134:
 1385              	.LBB3:
1518:Generated_Source\PSoC5/RS485_Sensor.c ****                 (retMode == RS485_Sensor_SEND_WAIT_REINIT) )
 1386              		.loc 1 1518 0
 1387 0044 0128     		cmp	r0, #1
 1388 0046 EFE7     		b	.L152
 1389              	.L130:
 1390 0048 7047     		bx	lr
 1391              	.L154:
 1392 004a 00BF     		.align	2
 1393              	.L153:
 1394 004c 00000000 		.word	.LANCHOR0
 1395 0050 3B640040 		.word	1073767483
 1396 0054 69640040 		.word	1073767529
 1397              	.LBE3:
 1398              		.cfi_endproc
 1399              	.LFE25:
 1400              		.size	RS485_Sensor_SendBreak, .-RS485_Sensor_SendBreak
 1401              		.section	.text.RS485_Sensor_SetTxAddressMode,"ax",%progbits
 1402              		.align	1
 1403              		.global	RS485_Sensor_SetTxAddressMode
 1404              		.thumb
 1405              		.thumb_func
 1406              		.type	RS485_Sensor_SetTxAddressMode, %function
 1407              	RS485_Sensor_SetTxAddressMode:
 1408              	.LFB26:
1548:Generated_Source\PSoC5/RS485_Sensor.c **** 
1549:Generated_Source\PSoC5/RS485_Sensor.c **** 
1550:Generated_Source\PSoC5/RS485_Sensor.c ****     /*******************************************************************************
1551:Generated_Source\PSoC5/RS485_Sensor.c ****     * Function Name: RS485_Sensor_SetTxAddressMode
1552:Generated_Source\PSoC5/RS485_Sensor.c ****     ********************************************************************************
1553:Generated_Source\PSoC5/RS485_Sensor.c ****     *
1554:Generated_Source\PSoC5/RS485_Sensor.c ****     * Summary:
1555:Generated_Source\PSoC5/RS485_Sensor.c ****     *  Configures the transmitter to signal the next bytes is address or data.
1556:Generated_Source\PSoC5/RS485_Sensor.c ****     *
1557:Generated_Source\PSoC5/RS485_Sensor.c ****     * Parameters:
1558:Generated_Source\PSoC5/RS485_Sensor.c ****     *  addressMode: 
1559:Generated_Source\PSoC5/RS485_Sensor.c ****     *       RS485_Sensor_SET_SPACE - Configure the transmitter to send the next
1560:Generated_Source\PSoC5/RS485_Sensor.c ****     *                                    byte as a data.
1561:Generated_Source\PSoC5/RS485_Sensor.c ****     *       RS485_Sensor_SET_MARK  - Configure the transmitter to send the next
1562:Generated_Source\PSoC5/RS485_Sensor.c ****     *                                    byte as an address.
1563:Generated_Source\PSoC5/RS485_Sensor.c ****     *
1564:Generated_Source\PSoC5/RS485_Sensor.c ****     * Return:
1565:Generated_Source\PSoC5/RS485_Sensor.c ****     *  None.
1566:Generated_Source\PSoC5/RS485_Sensor.c ****     *
1567:Generated_Source\PSoC5/RS485_Sensor.c ****     * Side Effects:
1568:Generated_Source\PSoC5/RS485_Sensor.c ****     *  This function sets and clears RS485_Sensor_CTRL_MARK bit in the Control
1569:Generated_Source\PSoC5/RS485_Sensor.c ****     *  register.
1570:Generated_Source\PSoC5/RS485_Sensor.c ****     *
1571:Generated_Source\PSoC5/RS485_Sensor.c ****     *******************************************************************************/
ARM GAS  C:\Users\IroTeam\AppData\Local\Temp\ccGexqi8.s 			page 54


1572:Generated_Source\PSoC5/RS485_Sensor.c ****     void RS485_Sensor_SetTxAddressMode(uint8 addressMode) 
1573:Generated_Source\PSoC5/RS485_Sensor.c ****     {
 1409              		.loc 1 1573 0
 1410              		.cfi_startproc
 1411              		@ args = 0, pretend = 0, frame = 0
 1412              		@ frame_needed = 0, uses_anonymous_args = 0
 1413              		@ link register save eliminated.
 1414              	.LVL91:
 1415 0000 7047     		bx	lr
 1416              		.cfi_endproc
 1417              	.LFE26:
 1418              		.size	RS485_Sensor_SetTxAddressMode, .-RS485_Sensor_SetTxAddressMode
 1419              		.global	RS485_Sensor_rxBufferOverflow
 1420              		.global	RS485_Sensor_rxBufferLoopDetect
 1421              		.global	RS485_Sensor_rxBufferWrite
 1422              		.global	RS485_Sensor_rxBufferRead
 1423              		.comm	RS485_Sensor_rxBuffer,256,1
 1424              		.global	RS485_Sensor_errorStatus
 1425              		.global	RS485_Sensor_txBufferWrite
 1426              		.global	RS485_Sensor_txBufferRead
 1427              		.comm	RS485_Sensor_txBuffer,2048,1
 1428              		.global	RS485_Sensor_initVar
 1429              		.bss
 1430              		.align	1
 1431              		.set	.LANCHOR0,. + 0
 1432              		.type	RS485_Sensor_errorStatus, %object
 1433              		.size	RS485_Sensor_errorStatus, 1
 1434              	RS485_Sensor_errorStatus:
 1435 0000 00       		.space	1
 1436              		.type	RS485_Sensor_initVar, %object
 1437              		.size	RS485_Sensor_initVar, 1
 1438              	RS485_Sensor_initVar:
 1439 0001 00       		.space	1
 1440              		.type	RS485_Sensor_rxBufferRead, %object
 1441              		.size	RS485_Sensor_rxBufferRead, 2
 1442              	RS485_Sensor_rxBufferRead:
 1443 0002 0000     		.space	2
 1444              		.type	RS485_Sensor_rxBufferWrite, %object
 1445              		.size	RS485_Sensor_rxBufferWrite, 2
 1446              	RS485_Sensor_rxBufferWrite:
 1447 0004 0000     		.space	2
 1448              		.type	RS485_Sensor_rxBufferLoopDetect, %object
 1449              		.size	RS485_Sensor_rxBufferLoopDetect, 1
 1450              	RS485_Sensor_rxBufferLoopDetect:
 1451 0006 00       		.space	1
 1452              		.type	RS485_Sensor_rxBufferOverflow, %object
 1453              		.size	RS485_Sensor_rxBufferOverflow, 1
 1454              	RS485_Sensor_rxBufferOverflow:
 1455 0007 00       		.space	1
 1456              		.type	RS485_Sensor_txBufferRead, %object
 1457              		.size	RS485_Sensor_txBufferRead, 2
 1458              	RS485_Sensor_txBufferRead:
 1459 0008 0000     		.space	2
 1460              		.type	RS485_Sensor_txBufferWrite, %object
 1461              		.size	RS485_Sensor_txBufferWrite, 2
 1462              	RS485_Sensor_txBufferWrite:
 1463 000a 0000     		.space	2
ARM GAS  C:\Users\IroTeam\AppData\Local\Temp\ccGexqi8.s 			page 55


 1464              		.type	txPeriod.5166, %object
 1465              		.size	txPeriod.5166, 1
 1466              	txPeriod.5166:
 1467 000c 00       		.space	1
 1468              		.text
 1469              	.Letext0:
 1470              		.file 2 "Generated_Source\\PSoC5\\cytypes.h"
 1471              		.file 3 "Generated_Source\\PSoC5\\CyLib.h"
 1472              		.file 4 "Generated_Source\\PSoC5\\RS485_Sensor_IntClock.h"
 1473              		.section	.debug_info,"",%progbits
 1474              	.Ldebug_info0:
 1475 0000 78070000 		.4byte	0x778
 1476 0004 0400     		.2byte	0x4
 1477 0006 00000000 		.4byte	.Ldebug_abbrev0
 1478 000a 04       		.byte	0x4
 1479 000b 01       		.uleb128 0x1
 1480 000c 2C010000 		.4byte	.LASF79
 1481 0010 0C       		.byte	0xc
 1482 0011 7D050000 		.4byte	.LASF80
 1483 0015 FA020000 		.4byte	.LASF81
 1484 0019 18000000 		.4byte	.Ldebug_ranges0+0x18
 1485 001d 00000000 		.4byte	0
 1486 0021 00000000 		.4byte	.Ldebug_line0
 1487 0025 02       		.uleb128 0x2
 1488 0026 01       		.byte	0x1
 1489 0027 06       		.byte	0x6
 1490 0028 20010000 		.4byte	.LASF0
 1491 002c 02       		.uleb128 0x2
 1492 002d 01       		.byte	0x1
 1493 002e 08       		.byte	0x8
 1494 002f F2040000 		.4byte	.LASF1
 1495 0033 02       		.uleb128 0x2
 1496 0034 02       		.byte	0x2
 1497 0035 05       		.byte	0x5
 1498 0036 00050000 		.4byte	.LASF2
 1499 003a 02       		.uleb128 0x2
 1500 003b 02       		.byte	0x2
 1501 003c 07       		.byte	0x7
 1502 003d 56030000 		.4byte	.LASF3
 1503 0041 02       		.uleb128 0x2
 1504 0042 04       		.byte	0x4
 1505 0043 05       		.byte	0x5
 1506 0044 C3010000 		.4byte	.LASF4
 1507 0048 02       		.uleb128 0x2
 1508 0049 04       		.byte	0x4
 1509 004a 07       		.byte	0x7
 1510 004b C0020000 		.4byte	.LASF5
 1511 004f 02       		.uleb128 0x2
 1512 0050 08       		.byte	0x8
 1513 0051 05       		.byte	0x5
 1514 0052 12010000 		.4byte	.LASF6
 1515 0056 02       		.uleb128 0x2
 1516 0057 08       		.byte	0x8
 1517 0058 07       		.byte	0x7
 1518 0059 CC000000 		.4byte	.LASF7
 1519 005d 03       		.uleb128 0x3
 1520 005e 04       		.byte	0x4
ARM GAS  C:\Users\IroTeam\AppData\Local\Temp\ccGexqi8.s 			page 56


 1521 005f 05       		.byte	0x5
 1522 0060 696E7400 		.ascii	"int\000"
 1523 0064 02       		.uleb128 0x2
 1524 0065 04       		.byte	0x4
 1525 0066 07       		.byte	0x7
 1526 0067 55020000 		.4byte	.LASF8
 1527 006b 04       		.uleb128 0x4
 1528 006c E5010000 		.4byte	.LASF9
 1529 0070 02       		.byte	0x2
 1530 0071 E901     		.2byte	0x1e9
 1531 0073 2C000000 		.4byte	0x2c
 1532 0077 04       		.uleb128 0x4
 1533 0078 00000000 		.4byte	.LASF10
 1534 007c 02       		.byte	0x2
 1535 007d EA01     		.2byte	0x1ea
 1536 007f 3A000000 		.4byte	0x3a
 1537 0083 04       		.uleb128 0x4
 1538 0084 36020000 		.4byte	.LASF11
 1539 0088 02       		.byte	0x2
 1540 0089 EB01     		.2byte	0x1eb
 1541 008b 48000000 		.4byte	0x48
 1542 008f 02       		.uleb128 0x2
 1543 0090 04       		.byte	0x4
 1544 0091 04       		.byte	0x4
 1545 0092 B7040000 		.4byte	.LASF12
 1546 0096 02       		.uleb128 0x2
 1547 0097 08       		.byte	0x8
 1548 0098 04       		.byte	0x4
 1549 0099 EB010000 		.4byte	.LASF13
 1550 009d 04       		.uleb128 0x4
 1551 009e D8050000 		.4byte	.LASF14
 1552 00a2 02       		.byte	0x2
 1553 00a3 FA01     		.2byte	0x1fa
 1554 00a5 A9000000 		.4byte	0xa9
 1555 00a9 02       		.uleb128 0x2
 1556 00aa 01       		.byte	0x1
 1557 00ab 08       		.byte	0x8
 1558 00ac A3050000 		.4byte	.LASF15
 1559 00b0 04       		.uleb128 0x4
 1560 00b1 D7040000 		.4byte	.LASF16
 1561 00b5 02       		.byte	0x2
 1562 00b6 9302     		.2byte	0x293
 1563 00b8 BC000000 		.4byte	0xbc
 1564 00bc 05       		.uleb128 0x5
 1565 00bd 6B000000 		.4byte	0x6b
 1566 00c1 05       		.uleb128 0x5
 1567 00c2 77000000 		.4byte	0x77
 1568 00c6 04       		.uleb128 0x4
 1569 00c7 BD030000 		.4byte	.LASF17
 1570 00cb 02       		.byte	0x2
 1571 00cc 9502     		.2byte	0x295
 1572 00ce D2000000 		.4byte	0xd2
 1573 00d2 05       		.uleb128 0x5
 1574 00d3 83000000 		.4byte	0x83
 1575 00d7 02       		.uleb128 0x2
 1576 00d8 08       		.byte	0x8
 1577 00d9 04       		.byte	0x4
ARM GAS  C:\Users\IroTeam\AppData\Local\Temp\ccGexqi8.s 			page 57


 1578 00da 37040000 		.4byte	.LASF18
 1579 00de 02       		.uleb128 0x2
 1580 00df 04       		.byte	0x4
 1581 00e0 07       		.byte	0x7
 1582 00e1 11040000 		.4byte	.LASF19
 1583 00e5 06       		.uleb128 0x6
 1584 00e6 C3030000 		.4byte	.LASF20
 1585 00ea 01       		.byte	0x1
 1586 00eb 6A       		.byte	0x6a
 1587 00ec 00000000 		.4byte	.LFB1
 1588 00f0 58000000 		.4byte	.LFE1-.LFB1
 1589 00f4 01       		.uleb128 0x1
 1590 00f5 9C       		.byte	0x9c
 1591 00f6 4D010000 		.4byte	0x14d
 1592 00fa 07       		.uleb128 0x7
 1593 00fb 0A000000 		.4byte	.LVL0
 1594 00ff 39070000 		.4byte	0x739
 1595 0103 0D010000 		.4byte	0x10d
 1596 0107 08       		.uleb128 0x8
 1597 0108 01       		.uleb128 0x1
 1598 0109 50       		.byte	0x50
 1599 010a 01       		.uleb128 0x1
 1600 010b 32       		.byte	0x32
 1601 010c 00       		.byte	0
 1602 010d 07       		.uleb128 0x7
 1603 010e 12000000 		.4byte	.LVL1
 1604 0112 44070000 		.4byte	0x744
 1605 0116 25010000 		.4byte	0x125
 1606 011a 08       		.uleb128 0x8
 1607 011b 01       		.uleb128 0x1
 1608 011c 50       		.byte	0x50
 1609 011d 01       		.uleb128 0x1
 1610 011e 32       		.byte	0x32
 1611 011f 08       		.uleb128 0x8
 1612 0120 01       		.uleb128 0x1
 1613 0121 51       		.byte	0x51
 1614 0122 01       		.uleb128 0x1
 1615 0123 37       		.byte	0x37
 1616 0124 00       		.byte	0
 1617 0125 07       		.uleb128 0x7
 1618 0126 2A000000 		.4byte	.LVL2
 1619 012a 39070000 		.4byte	0x739
 1620 012e 38010000 		.4byte	0x138
 1621 0132 08       		.uleb128 0x8
 1622 0133 01       		.uleb128 0x1
 1623 0134 50       		.byte	0x50
 1624 0135 01       		.uleb128 0x1
 1625 0136 33       		.byte	0x33
 1626 0137 00       		.byte	0
 1627 0138 09       		.uleb128 0x9
 1628 0139 32000000 		.4byte	.LVL3
 1629 013d 44070000 		.4byte	0x744
 1630 0141 08       		.uleb128 0x8
 1631 0142 01       		.uleb128 0x1
 1632 0143 50       		.byte	0x50
 1633 0144 01       		.uleb128 0x1
 1634 0145 33       		.byte	0x33
ARM GAS  C:\Users\IroTeam\AppData\Local\Temp\ccGexqi8.s 			page 58


 1635 0146 08       		.uleb128 0x8
 1636 0147 01       		.uleb128 0x1
 1637 0148 51       		.byte	0x51
 1638 0149 01       		.uleb128 0x1
 1639 014a 37       		.byte	0x37
 1640 014b 00       		.byte	0
 1641 014c 00       		.byte	0
 1642 014d 06       		.uleb128 0x6
 1643 014e 85000000 		.4byte	.LASF21
 1644 0152 01       		.byte	0x1
 1645 0153 B7       		.byte	0xb7
 1646 0154 00000000 		.4byte	.LFB2
 1647 0158 50000000 		.4byte	.LFE2-.LFB2
 1648 015c 01       		.uleb128 0x1
 1649 015d 9C       		.byte	0x9c
 1650 015e 8D010000 		.4byte	0x18d
 1651 0162 0A       		.uleb128 0xa
 1652 0163 F6050000 		.4byte	.LASF24
 1653 0167 01       		.byte	0x1
 1654 0168 B9       		.byte	0xb9
 1655 0169 6B000000 		.4byte	0x6b
 1656 016d 00000000 		.4byte	.LLST0
 1657 0171 0B       		.uleb128 0xb
 1658 0172 06000000 		.4byte	.LVL4
 1659 0176 4F070000 		.4byte	0x74f
 1660 017a 0B       		.uleb128 0xb
 1661 017b 36000000 		.4byte	.LVL6
 1662 017f 5A070000 		.4byte	0x75a
 1663 0183 0C       		.uleb128 0xc
 1664 0184 40000000 		.4byte	.LVL8
 1665 0188 65070000 		.4byte	0x765
 1666 018c 00       		.byte	0
 1667 018d 06       		.uleb128 0x6
 1668 018e 92060000 		.4byte	.LASF22
 1669 0192 01       		.byte	0x1
 1670 0193 4C       		.byte	0x4c
 1671 0194 00000000 		.4byte	.LFB0
 1672 0198 1C000000 		.4byte	.LFE0-.LFB0
 1673 019c 01       		.uleb128 0x1
 1674 019d 9C       		.byte	0x9c
 1675 019e B5010000 		.4byte	0x1b5
 1676 01a2 0B       		.uleb128 0xb
 1677 01a3 0C000000 		.4byte	.LVL9
 1678 01a7 E5000000 		.4byte	0xe5
 1679 01ab 0C       		.uleb128 0xc
 1680 01ac 18000000 		.4byte	.LVL10
 1681 01b0 4D010000 		.4byte	0x14d
 1682 01b4 00       		.byte	0
 1683 01b5 06       		.uleb128 0x6
 1684 01b6 BA000000 		.4byte	.LASF23
 1685 01ba 01       		.byte	0x1
 1686 01bb F0       		.byte	0xf0
 1687 01bc 00000000 		.4byte	.LFB3
 1688 01c0 50000000 		.4byte	.LFE3-.LFB3
 1689 01c4 01       		.uleb128 0x1
 1690 01c5 9C       		.byte	0x9c
 1691 01c6 F5010000 		.4byte	0x1f5
ARM GAS  C:\Users\IroTeam\AppData\Local\Temp\ccGexqi8.s 			page 59


 1692 01ca 0A       		.uleb128 0xa
 1693 01cb F6050000 		.4byte	.LASF24
 1694 01cf 01       		.byte	0x1
 1695 01d0 F2       		.byte	0xf2
 1696 01d1 6B000000 		.4byte	0x6b
 1697 01d5 13000000 		.4byte	.LLST1
 1698 01d9 0B       		.uleb128 0xb
 1699 01da 06000000 		.4byte	.LVL11
 1700 01de 4F070000 		.4byte	0x74f
 1701 01e2 0B       		.uleb128 0xb
 1702 01e3 16000000 		.4byte	.LVL13
 1703 01e7 70070000 		.4byte	0x770
 1704 01eb 0C       		.uleb128 0xc
 1705 01ec 3E000000 		.4byte	.LVL15
 1706 01f0 65070000 		.4byte	0x765
 1707 01f4 00       		.byte	0
 1708 01f5 0D       		.uleb128 0xd
 1709 01f6 99000000 		.4byte	.LASF46
 1710 01fa 01       		.byte	0x1
 1711 01fb 2701     		.2byte	0x127
 1712 01fd 6B000000 		.4byte	0x6b
 1713 0201 00000000 		.4byte	.LFB4
 1714 0205 04000000 		.4byte	.LFE4-.LFB4
 1715 0209 01       		.uleb128 0x1
 1716 020a 9C       		.byte	0x9c
 1717 020b 0E       		.uleb128 0xe
 1718 020c 81030000 		.4byte	.LASF25
 1719 0210 01       		.byte	0x1
 1720 0211 6701     		.2byte	0x167
 1721 0213 00000000 		.4byte	.LFB6
 1722 0217 0C000000 		.4byte	.LFE6-.LFB6
 1723 021b 01       		.uleb128 0x1
 1724 021c 9C       		.byte	0x9c
 1725 021d 30020000 		.4byte	0x230
 1726 0221 0F       		.uleb128 0xf
 1727 0222 A1030000 		.4byte	.LASF40
 1728 0226 01       		.byte	0x1
 1729 0227 6701     		.2byte	0x167
 1730 0229 6B000000 		.4byte	0x6b
 1731 022d 01       		.uleb128 0x1
 1732 022e 50       		.byte	0x50
 1733 022f 00       		.byte	0
 1734 0230 10       		.uleb128 0x10
 1735 0231 7A060000 		.4byte	.LASF29
 1736 0235 01       		.byte	0x1
 1737 0236 8801     		.2byte	0x188
 1738 0238 6B000000 		.4byte	0x6b
 1739 023c 00000000 		.4byte	.LFB7
 1740 0240 5C000000 		.4byte	.LFE7-.LFB7
 1741 0244 01       		.uleb128 0x1
 1742 0245 9C       		.byte	0x9c
 1743 0246 7B020000 		.4byte	0x27b
 1744 024a 11       		.uleb128 0x11
 1745 024b 6F050000 		.4byte	.LASF26
 1746 024f 01       		.byte	0x1
 1747 0250 8A01     		.2byte	0x18a
 1748 0252 6B000000 		.4byte	0x6b
ARM GAS  C:\Users\IroTeam\AppData\Local\Temp\ccGexqi8.s 			page 60


 1749 0256 26000000 		.4byte	.LLST2
 1750 025a 11       		.uleb128 0x11
 1751 025b DE050000 		.4byte	.LASF27
 1752 025f 01       		.byte	0x1
 1753 0260 8E01     		.2byte	0x18e
 1754 0262 77000000 		.4byte	0x77
 1755 0266 44000000 		.4byte	.LLST3
 1756 026a 11       		.uleb128 0x11
 1757 026b 62040000 		.4byte	.LASF28
 1758 026f 01       		.byte	0x1
 1759 0270 8F01     		.2byte	0x18f
 1760 0272 77000000 		.4byte	0x77
 1761 0276 6F000000 		.4byte	.LLST4
 1762 027a 00       		.byte	0
 1763 027b 10       		.uleb128 0x10
 1764 027c 60060000 		.4byte	.LASF30
 1765 0280 01       		.byte	0x1
 1766 0281 E501     		.2byte	0x1e5
 1767 0283 6B000000 		.4byte	0x6b
 1768 0287 00000000 		.4byte	.LFB8
 1769 028b 20000000 		.4byte	.LFE8-.LFB8
 1770 028f 01       		.uleb128 0x1
 1771 0290 9C       		.byte	0x9c
 1772 0291 A4020000 		.4byte	0x2a4
 1773 0295 12       		.uleb128 0x12
 1774 0296 07060000 		.4byte	.LASF31
 1775 029a 01       		.byte	0x1
 1776 029b E701     		.2byte	0x1e7
 1777 029d 6B000000 		.4byte	0x6b
 1778 02a1 01       		.uleb128 0x1
 1779 02a2 50       		.byte	0x50
 1780 02a3 00       		.byte	0
 1781 02a4 10       		.uleb128 0x10
 1782 02a5 70000000 		.4byte	.LASF32
 1783 02a9 01       		.byte	0x1
 1784 02aa 1402     		.2byte	0x214
 1785 02ac 6B000000 		.4byte	0x6b
 1786 02b0 00000000 		.4byte	.LFB9
 1787 02b4 74000000 		.4byte	.LFE9-.LFB9
 1788 02b8 01       		.uleb128 0x1
 1789 02b9 9C       		.byte	0x9c
 1790 02ba FF020000 		.4byte	0x2ff
 1791 02be 11       		.uleb128 0x11
 1792 02bf 6F050000 		.4byte	.LASF26
 1793 02c3 01       		.byte	0x1
 1794 02c4 1602     		.2byte	0x216
 1795 02c6 6B000000 		.4byte	0x6b
 1796 02ca 8D000000 		.4byte	.LLST5
 1797 02ce 11       		.uleb128 0x11
 1798 02cf 73040000 		.4byte	.LASF33
 1799 02d3 01       		.byte	0x1
 1800 02d4 1702     		.2byte	0x217
 1801 02d6 6B000000 		.4byte	0x6b
 1802 02da C3000000 		.4byte	.LLST6
 1803 02de 11       		.uleb128 0x11
 1804 02df DE050000 		.4byte	.LASF27
 1805 02e3 01       		.byte	0x1
ARM GAS  C:\Users\IroTeam\AppData\Local\Temp\ccGexqi8.s 			page 61


 1806 02e4 1A02     		.2byte	0x21a
 1807 02e6 77000000 		.4byte	0x77
 1808 02ea D6000000 		.4byte	.LLST7
 1809 02ee 11       		.uleb128 0x11
 1810 02ef 62040000 		.4byte	.LASF28
 1811 02f3 01       		.byte	0x1
 1812 02f4 1B02     		.2byte	0x21b
 1813 02f6 77000000 		.4byte	0x77
 1814 02fa 01010000 		.4byte	.LLST8
 1815 02fe 00       		.byte	0
 1816 02ff 10       		.uleb128 0x10
 1817 0300 7C040000 		.4byte	.LASF34
 1818 0304 01       		.byte	0x1
 1819 0305 7A02     		.2byte	0x27a
 1820 0307 77000000 		.4byte	0x77
 1821 030b 00000000 		.4byte	.LFB10
 1822 030f 2C000000 		.4byte	.LFE10-.LFB10
 1823 0313 01       		.uleb128 0x1
 1824 0314 9C       		.byte	0x9c
 1825 0315 33030000 		.4byte	0x333
 1826 0319 11       		.uleb128 0x11
 1827 031a 96020000 		.4byte	.LASF35
 1828 031e 01       		.byte	0x1
 1829 031f 7E02     		.2byte	0x27e
 1830 0321 77000000 		.4byte	0x77
 1831 0325 1F010000 		.4byte	.LLST9
 1832 0329 0B       		.uleb128 0xb
 1833 032a 18000000 		.4byte	.LVL41
 1834 032e 30020000 		.4byte	0x230
 1835 0332 00       		.byte	0
 1836 0333 10       		.uleb128 0x10
 1837 0334 1A040000 		.4byte	.LASF36
 1838 0338 01       		.byte	0x1
 1839 0339 AB02     		.2byte	0x2ab
 1840 033b 77000000 		.4byte	0x77
 1841 033f 00000000 		.4byte	.LFB11
 1842 0343 58000000 		.4byte	.LFE11-.LFB11
 1843 0347 01       		.uleb128 0x1
 1844 0348 9C       		.byte	0x9c
 1845 0349 5C030000 		.4byte	0x35c
 1846 034d 12       		.uleb128 0x12
 1847 034e 51030000 		.4byte	.LASF37
 1848 0352 01       		.byte	0x1
 1849 0353 AE02     		.2byte	0x2ae
 1850 0355 77000000 		.4byte	0x77
 1851 0359 01       		.uleb128 0x1
 1852 035a 50       		.byte	0x50
 1853 035b 00       		.byte	0
 1854 035c 0E       		.uleb128 0xe
 1855 035d 3F000000 		.4byte	.LASF38
 1856 0361 01       		.byte	0x1
 1857 0362 F502     		.2byte	0x2f5
 1858 0364 00000000 		.4byte	.LFB12
 1859 0368 44000000 		.4byte	.LFE12-.LFB12
 1860 036c 01       		.uleb128 0x1
 1861 036d 9C       		.byte	0x9c
 1862 036e 95030000 		.4byte	0x395
ARM GAS  C:\Users\IroTeam\AppData\Local\Temp\ccGexqi8.s 			page 62


 1863 0372 11       		.uleb128 0x11
 1864 0373 F6050000 		.4byte	.LASF24
 1865 0377 01       		.byte	0x1
 1866 0378 F702     		.2byte	0x2f7
 1867 037a 6B000000 		.4byte	0x6b
 1868 037e 32010000 		.4byte	.LLST10
 1869 0382 0B       		.uleb128 0xb
 1870 0383 06000000 		.4byte	.LVL44
 1871 0387 4F070000 		.4byte	0x74f
 1872 038b 0B       		.uleb128 0xb
 1873 038c 1C000000 		.4byte	.LVL45
 1874 0390 65070000 		.4byte	0x765
 1875 0394 00       		.byte	0
 1876 0395 0E       		.uleb128 0xe
 1877 0396 2A060000 		.4byte	.LASF39
 1878 039a 01       		.byte	0x1
 1879 039b 5903     		.2byte	0x359
 1880 039d 00000000 		.4byte	.LFB14
 1881 03a1 0C000000 		.4byte	.LFE14-.LFB14
 1882 03a5 01       		.uleb128 0x1
 1883 03a6 9C       		.byte	0x9c
 1884 03a7 BA030000 		.4byte	0x3ba
 1885 03ab 0F       		.uleb128 0xf
 1886 03ac 43040000 		.4byte	.LASF41
 1887 03b0 01       		.byte	0x1
 1888 03b1 5903     		.2byte	0x359
 1889 03b3 6B000000 		.4byte	0x6b
 1890 03b7 01       		.uleb128 0x1
 1891 03b8 50       		.byte	0x50
 1892 03b9 00       		.byte	0
 1893 03ba 0E       		.uleb128 0xe
 1894 03bb 45060000 		.4byte	.LASF42
 1895 03bf 01       		.byte	0x1
 1896 03c0 6D03     		.2byte	0x36d
 1897 03c2 00000000 		.4byte	.LFB15
 1898 03c6 0C000000 		.4byte	.LFE15-.LFB15
 1899 03ca 01       		.uleb128 0x1
 1900 03cb 9C       		.byte	0x9c
 1901 03cc DF030000 		.4byte	0x3df
 1902 03d0 0F       		.uleb128 0xf
 1903 03d1 43040000 		.4byte	.LASF41
 1904 03d5 01       		.byte	0x1
 1905 03d6 6D03     		.2byte	0x36d
 1906 03d8 6B000000 		.4byte	0x6b
 1907 03dc 01       		.uleb128 0x1
 1908 03dd 50       		.byte	0x50
 1909 03de 00       		.byte	0
 1910 03df 0E       		.uleb128 0xe
 1911 03e0 4F050000 		.4byte	.LASF43
 1912 03e4 01       		.byte	0x1
 1913 03e5 8C03     		.2byte	0x38c
 1914 03e7 00000000 		.4byte	.LFB16
 1915 03eb 0C000000 		.4byte	.LFE16-.LFB16
 1916 03ef 01       		.uleb128 0x1
 1917 03f0 9C       		.byte	0x9c
 1918 03f1 04040000 		.4byte	0x404
 1919 03f5 0F       		.uleb128 0xf
ARM GAS  C:\Users\IroTeam\AppData\Local\Temp\ccGexqi8.s 			page 63


 1920 03f6 A1030000 		.4byte	.LASF40
 1921 03fa 01       		.byte	0x1
 1922 03fb 8C03     		.2byte	0x38c
 1923 03fd 6B000000 		.4byte	0x6b
 1924 0401 01       		.uleb128 0x1
 1925 0402 50       		.byte	0x50
 1926 0403 00       		.byte	0
 1927 0404 0E       		.uleb128 0xe
 1928 0405 CC010000 		.4byte	.LASF44
 1929 0409 01       		.byte	0x1
 1930 040a AE03     		.2byte	0x3ae
 1931 040c 00000000 		.4byte	.LFB17
 1932 0410 5C000000 		.4byte	.LFE17-.LFB17
 1933 0414 01       		.uleb128 0x1
 1934 0415 9C       		.byte	0x9c
 1935 0416 29040000 		.4byte	0x429
 1936 041a 0F       		.uleb128 0xf
 1937 041b 34000000 		.4byte	.LASF45
 1938 041f 01       		.byte	0x1
 1939 0420 AE03     		.2byte	0x3ae
 1940 0422 6B000000 		.4byte	0x6b
 1941 0426 01       		.uleb128 0x1
 1942 0427 50       		.byte	0x50
 1943 0428 00       		.byte	0
 1944 0429 0D       		.uleb128 0xd
 1945 042a 7C020000 		.4byte	.LASF47
 1946 042e 01       		.byte	0x1
 1947 042f EB03     		.2byte	0x3eb
 1948 0431 6B000000 		.4byte	0x6b
 1949 0435 00000000 		.4byte	.LFB18
 1950 0439 0C000000 		.4byte	.LFE18-.LFB18
 1951 043d 01       		.uleb128 0x1
 1952 043e 9C       		.byte	0x9c
 1953 043f 0E       		.uleb128 0xe
 1954 0440 A8030000 		.4byte	.LASF48
 1955 0444 01       		.byte	0x1
 1956 0445 1104     		.2byte	0x411
 1957 0447 00000000 		.4byte	.LFB19
 1958 044b 6C000000 		.4byte	.LFE19-.LFB19
 1959 044f 01       		.uleb128 0x1
 1960 0450 9C       		.byte	0x9c
 1961 0451 84040000 		.4byte	0x484
 1962 0455 0F       		.uleb128 0xf
 1963 0456 34000000 		.4byte	.LASF45
 1964 045a 01       		.byte	0x1
 1965 045b 1104     		.2byte	0x411
 1966 045d 6B000000 		.4byte	0x6b
 1967 0461 01       		.uleb128 0x1
 1968 0462 50       		.byte	0x50
 1969 0463 11       		.uleb128 0x11
 1970 0464 D2020000 		.4byte	.LASF49
 1971 0468 01       		.byte	0x1
 1972 0469 1804     		.2byte	0x418
 1973 046b 77000000 		.4byte	0x77
 1974 046f 45010000 		.4byte	.LLST11
 1975 0473 11       		.uleb128 0x11
 1976 0474 3D020000 		.4byte	.LASF50
ARM GAS  C:\Users\IroTeam\AppData\Local\Temp\ccGexqi8.s 			page 64


 1977 0478 01       		.byte	0x1
 1978 0479 1904     		.2byte	0x419
 1979 047b 77000000 		.4byte	0x77
 1980 047f C3010000 		.4byte	.LLST12
 1981 0483 00       		.byte	0
 1982 0484 0E       		.uleb128 0xe
 1983 0485 4B040000 		.4byte	.LASF51
 1984 0489 01       		.byte	0x1
 1985 048a 7904     		.2byte	0x479
 1986 048c 00000000 		.4byte	.LFB20
 1987 0490 20000000 		.4byte	.LFE20-.LFB20
 1988 0494 01       		.uleb128 0x1
 1989 0495 9C       		.byte	0x9c
 1990 0496 C4040000 		.4byte	0x4c4
 1991 049a 13       		.uleb128 0x13
 1992 049b 76050000 		.4byte	.LASF52
 1993 049f 01       		.byte	0x1
 1994 04a0 7904     		.2byte	0x479
 1995 04a2 C4040000 		.4byte	0x4c4
 1996 04a6 D6010000 		.4byte	.LLST13
 1997 04aa 11       		.uleb128 0x11
 1998 04ab 78030000 		.4byte	.LASF53
 1999 04af 01       		.byte	0x1
 2000 04b0 7B04     		.2byte	0x47b
 2001 04b2 77000000 		.4byte	0x77
 2002 04b6 02020000 		.4byte	.LLST14
 2003 04ba 0B       		.uleb128 0xb
 2004 04bb 18000000 		.4byte	.LVL64
 2005 04bf 3F040000 		.4byte	0x43f
 2006 04c3 00       		.byte	0
 2007 04c4 14       		.uleb128 0x14
 2008 04c5 04       		.byte	0x4
 2009 04c6 CA040000 		.4byte	0x4ca
 2010 04ca 15       		.uleb128 0x15
 2011 04cb 9D000000 		.4byte	0x9d
 2012 04cf 0E       		.uleb128 0xe
 2013 04d0 E3000000 		.4byte	.LASF54
 2014 04d4 01       		.byte	0x1
 2015 04d5 A704     		.2byte	0x4a7
 2016 04d7 00000000 		.4byte	.LFB21
 2017 04db 24000000 		.4byte	.LFE21-.LFB21
 2018 04df 01       		.uleb128 0x1
 2019 04e0 9C       		.byte	0x9c
 2020 04e1 1F050000 		.4byte	0x51f
 2021 04e5 13       		.uleb128 0x13
 2022 04e6 76050000 		.4byte	.LASF52
 2023 04ea 01       		.byte	0x1
 2024 04eb A704     		.2byte	0x4a7
 2025 04ed 1F050000 		.4byte	0x51f
 2026 04f1 37020000 		.4byte	.LLST15
 2027 04f5 13       		.uleb128 0x13
 2028 04f6 45050000 		.4byte	.LASF55
 2029 04fa 01       		.byte	0x1
 2030 04fb A704     		.2byte	0x4a7
 2031 04fd 77000000 		.4byte	0x77
 2032 0501 58020000 		.4byte	.LLST16
 2033 0505 11       		.uleb128 0x11
ARM GAS  C:\Users\IroTeam\AppData\Local\Temp\ccGexqi8.s 			page 65


 2034 0506 78030000 		.4byte	.LASF53
 2035 050a 01       		.byte	0x1
 2036 050b AA04     		.2byte	0x4aa
 2037 050d 77000000 		.4byte	0x77
 2038 0511 79020000 		.4byte	.LLST17
 2039 0515 0B       		.uleb128 0xb
 2040 0516 1A000000 		.4byte	.LVL71
 2041 051a 3F040000 		.4byte	0x43f
 2042 051e 00       		.byte	0
 2043 051f 14       		.uleb128 0x14
 2044 0520 04       		.byte	0x4
 2045 0521 25050000 		.4byte	0x525
 2046 0525 15       		.uleb128 0x15
 2047 0526 6B000000 		.4byte	0x6b
 2048 052a 0E       		.uleb128 0xe
 2049 052b 91040000 		.4byte	.LASF56
 2050 052f 01       		.byte	0x1
 2051 0530 CE04     		.2byte	0x4ce
 2052 0532 00000000 		.4byte	.LFB22
 2053 0536 24000000 		.4byte	.LFE22-.LFB22
 2054 053a 01       		.uleb128 0x1
 2055 053b 9C       		.byte	0x9c
 2056 053c 7C050000 		.4byte	0x57c
 2057 0540 13       		.uleb128 0x13
 2058 0541 34000000 		.4byte	.LASF45
 2059 0545 01       		.byte	0x1
 2060 0546 CE04     		.2byte	0x4ce
 2061 0548 6B000000 		.4byte	0x6b
 2062 054c B3020000 		.4byte	.LLST18
 2063 0550 0B       		.uleb128 0xb
 2064 0551 0C000000 		.4byte	.LVL74
 2065 0555 3F040000 		.4byte	0x43f
 2066 0559 07       		.uleb128 0x7
 2067 055a 12000000 		.4byte	.LVL75
 2068 055e 3F040000 		.4byte	0x43f
 2069 0562 6C050000 		.4byte	0x56c
 2070 0566 08       		.uleb128 0x8
 2071 0567 01       		.uleb128 0x1
 2072 0568 50       		.byte	0x50
 2073 0569 01       		.uleb128 0x1
 2074 056a 3D       		.byte	0x3d
 2075 056b 00       		.byte	0
 2076 056c 16       		.uleb128 0x16
 2077 056d 1C000000 		.4byte	.LVL76
 2078 0571 3F040000 		.4byte	0x43f
 2079 0575 08       		.uleb128 0x8
 2080 0576 01       		.uleb128 0x1
 2081 0577 50       		.byte	0x50
 2082 0578 01       		.uleb128 0x1
 2083 0579 3A       		.byte	0x3a
 2084 057a 00       		.byte	0
 2085 057b 00       		.byte	0
 2086 057c 10       		.uleb128 0x10
 2087 057d F2010000 		.4byte	.LASF57
 2088 0581 01       		.byte	0x1
 2089 0582 F904     		.2byte	0x4f9
 2090 0584 77000000 		.4byte	0x77
ARM GAS  C:\Users\IroTeam\AppData\Local\Temp\ccGexqi8.s 			page 66


 2091 0588 00000000 		.4byte	.LFB23
 2092 058c 3C000000 		.4byte	.LFE23-.LFB23
 2093 0590 01       		.uleb128 0x1
 2094 0591 9C       		.byte	0x9c
 2095 0592 A7050000 		.4byte	0x5a7
 2096 0596 11       		.uleb128 0x11
 2097 0597 51030000 		.4byte	.LASF37
 2098 059b 01       		.byte	0x1
 2099 059c FC04     		.2byte	0x4fc
 2100 059e 77000000 		.4byte	0x77
 2101 05a2 DF020000 		.4byte	.LLST19
 2102 05a6 00       		.byte	0
 2103 05a7 0E       		.uleb128 0xe
 2104 05a8 1B020000 		.4byte	.LASF58
 2105 05ac 01       		.byte	0x1
 2106 05ad 4A05     		.2byte	0x54a
 2107 05af 00000000 		.4byte	.LFB24
 2108 05b3 40000000 		.4byte	.LFE24-.LFB24
 2109 05b7 01       		.uleb128 0x1
 2110 05b8 9C       		.byte	0x9c
 2111 05b9 E0050000 		.4byte	0x5e0
 2112 05bd 11       		.uleb128 0x11
 2113 05be F6050000 		.4byte	.LASF24
 2114 05c2 01       		.byte	0x1
 2115 05c3 4C05     		.2byte	0x54c
 2116 05c5 6B000000 		.4byte	0x6b
 2117 05c9 FD020000 		.4byte	.LLST20
 2118 05cd 0B       		.uleb128 0xb
 2119 05ce 06000000 		.4byte	.LVL80
 2120 05d2 4F070000 		.4byte	0x74f
 2121 05d6 0B       		.uleb128 0xb
 2122 05d7 1C000000 		.4byte	.LVL81
 2123 05db 65070000 		.4byte	0x765
 2124 05df 00       		.byte	0
 2125 05e0 0E       		.uleb128 0xe
 2126 05e1 07000000 		.4byte	.LASF59
 2127 05e5 01       		.byte	0x1
 2128 05e6 A005     		.2byte	0x5a0
 2129 05e8 00000000 		.4byte	.LFB25
 2130 05ec 58000000 		.4byte	.LFE25-.LFB25
 2131 05f0 01       		.uleb128 0x1
 2132 05f1 9C       		.byte	0x9c
 2133 05f2 2F060000 		.4byte	0x62f
 2134 05f6 13       		.uleb128 0x13
 2135 05f7 4D020000 		.4byte	.LASF60
 2136 05fb 01       		.byte	0x1
 2137 05fc A005     		.2byte	0x5a0
 2138 05fe 6B000000 		.4byte	0x6b
 2139 0602 10030000 		.4byte	.LLST21
 2140 0606 17       		.uleb128 0x17
 2141 0607 00000000 		.4byte	.Ldebug_ranges0+0
 2142 060b 11       		.uleb128 0x11
 2143 060c EE050000 		.4byte	.LASF61
 2144 0610 01       		.byte	0x1
 2145 0611 A805     		.2byte	0x5a8
 2146 0613 6B000000 		.4byte	0x6b
 2147 0617 55030000 		.4byte	.LLST22
ARM GAS  C:\Users\IroTeam\AppData\Local\Temp\ccGexqi8.s 			page 67


 2148 061b 12       		.uleb128 0x12
 2149 061c BA010000 		.4byte	.LASF62
 2150 0620 01       		.byte	0x1
 2151 0621 D005     		.2byte	0x5d0
 2152 0623 6B000000 		.4byte	0x6b
 2153 0627 05       		.uleb128 0x5
 2154 0628 03       		.byte	0x3
 2155 0629 0C000000 		.4byte	txPeriod.5166
 2156 062d 00       		.byte	0
 2157 062e 00       		.byte	0
 2158 062f 18       		.uleb128 0x18
 2159 0630 F3030000 		.4byte	.LASF82
 2160 0634 01       		.byte	0x1
 2161 0635 2406     		.2byte	0x624
 2162 0637 01       		.byte	0x1
 2163 0638 49060000 		.4byte	0x649
 2164 063c 19       		.uleb128 0x19
 2165 063d 0F020000 		.4byte	.LASF83
 2166 0641 01       		.byte	0x1
 2167 0642 2406     		.2byte	0x624
 2168 0644 6B000000 		.4byte	0x6b
 2169 0648 00       		.byte	0
 2170 0649 1A       		.uleb128 0x1a
 2171 064a 2F060000 		.4byte	0x62f
 2172 064e 00000000 		.4byte	.LFB26
 2173 0652 02000000 		.4byte	.LFE26-.LFB26
 2174 0656 01       		.uleb128 0x1
 2175 0657 9C       		.byte	0x9c
 2176 0658 64060000 		.4byte	0x664
 2177 065c 1B       		.uleb128 0x1b
 2178 065d 3C060000 		.4byte	0x63c
 2179 0661 01       		.uleb128 0x1
 2180 0662 50       		.byte	0x50
 2181 0663 00       		.byte	0
 2182 0664 1C       		.uleb128 0x1c
 2183 0665 A8050000 		.4byte	.LASF63
 2184 0669 01       		.byte	0x1
 2185 066a 1B       		.byte	0x1b
 2186 066b 6B000000 		.4byte	0x6b
 2187 066f 05       		.uleb128 0x5
 2188 0670 03       		.byte	0x3
 2189 0671 00000000 		.4byte	RS485_Sensor_initVar
 2190 0675 1D       		.uleb128 0x1d
 2191 0676 BC000000 		.4byte	0xbc
 2192 067a 86060000 		.4byte	0x686
 2193 067e 1E       		.uleb128 0x1e
 2194 067f DE000000 		.4byte	0xde
 2195 0683 FF07     		.2byte	0x7ff
 2196 0685 00       		.byte	0
 2197 0686 1C       		.uleb128 0x1c
 2198 0687 5A000000 		.4byte	.LASF64
 2199 068b 01       		.byte	0x1
 2200 068c 1E       		.byte	0x1e
 2201 068d 97060000 		.4byte	0x697
 2202 0691 05       		.uleb128 0x5
 2203 0692 03       		.byte	0x3
 2204 0693 00000000 		.4byte	RS485_Sensor_txBuffer
ARM GAS  C:\Users\IroTeam\AppData\Local\Temp\ccGexqi8.s 			page 68


 2205 0697 05       		.uleb128 0x5
 2206 0698 75060000 		.4byte	0x675
 2207 069c 1C       		.uleb128 0x1c
 2208 069d 62020000 		.4byte	.LASF65
 2209 06a1 01       		.byte	0x1
 2210 06a2 1F       		.byte	0x1f
 2211 06a3 C1000000 		.4byte	0xc1
 2212 06a7 05       		.uleb128 0x5
 2213 06a8 03       		.byte	0x3
 2214 06a9 00000000 		.4byte	RS485_Sensor_txBufferRead
 2215 06ad 1C       		.uleb128 0x1c
 2216 06ae BD050000 		.4byte	.LASF66
 2217 06b2 01       		.byte	0x1
 2218 06b3 20       		.byte	0x20
 2219 06b4 77000000 		.4byte	0x77
 2220 06b8 05       		.uleb128 0x5
 2221 06b9 03       		.byte	0x3
 2222 06ba 00000000 		.4byte	RS485_Sensor_txBufferWrite
 2223 06be 1C       		.uleb128 0x1c
 2224 06bf F9000000 		.4byte	.LASF67
 2225 06c3 01       		.byte	0x1
 2226 06c4 24       		.byte	0x24
 2227 06c5 6B000000 		.4byte	0x6b
 2228 06c9 05       		.uleb128 0x5
 2229 06ca 03       		.byte	0x3
 2230 06cb 00000000 		.4byte	RS485_Sensor_errorStatus
 2231 06cf 1D       		.uleb128 0x1d
 2232 06d0 BC000000 		.4byte	0xbc
 2233 06d4 DF060000 		.4byte	0x6df
 2234 06d8 1F       		.uleb128 0x1f
 2235 06d9 DE000000 		.4byte	0xde
 2236 06dd FF       		.byte	0xff
 2237 06de 00       		.byte	0
 2238 06df 1C       		.uleb128 0x1c
 2239 06e0 DC040000 		.4byte	.LASF68
 2240 06e4 01       		.byte	0x1
 2241 06e5 25       		.byte	0x25
 2242 06e6 F0060000 		.4byte	0x6f0
 2243 06ea 05       		.uleb128 0x5
 2244 06eb 03       		.byte	0x3
 2245 06ec 00000000 		.4byte	RS485_Sensor_rxBuffer
 2246 06f0 05       		.uleb128 0x5
 2247 06f1 CF060000 		.4byte	0x6cf
 2248 06f5 1C       		.uleb128 0x1c
 2249 06f6 BD040000 		.4byte	.LASF69
 2250 06fa 01       		.byte	0x1
 2251 06fb 26       		.byte	0x26
 2252 06fc C1000000 		.4byte	0xc1
 2253 0700 05       		.uleb128 0x5
 2254 0701 03       		.byte	0x3
 2255 0702 00000000 		.4byte	RS485_Sensor_rxBufferRead
 2256 0706 1C       		.uleb128 0x1c
 2257 0707 A5020000 		.4byte	.LASF70
 2258 070b 01       		.byte	0x1
 2259 070c 27       		.byte	0x27
 2260 070d C1000000 		.4byte	0xc1
 2261 0711 05       		.uleb128 0x5
ARM GAS  C:\Users\IroTeam\AppData\Local\Temp\ccGexqi8.s 			page 69


 2262 0712 03       		.byte	0x3
 2263 0713 00000000 		.4byte	RS485_Sensor_rxBufferWrite
 2264 0717 1C       		.uleb128 0x1c
 2265 0718 25050000 		.4byte	.LASF71
 2266 071c 01       		.byte	0x1
 2267 071d 28       		.byte	0x28
 2268 071e BC000000 		.4byte	0xbc
 2269 0722 05       		.uleb128 0x5
 2270 0723 03       		.byte	0x3
 2271 0724 00000000 		.4byte	RS485_Sensor_rxBufferLoopDetect
 2272 0728 1C       		.uleb128 0x1c
 2273 0729 D5030000 		.4byte	.LASF72
 2274 072d 01       		.byte	0x1
 2275 072e 29       		.byte	0x29
 2276 072f BC000000 		.4byte	0xbc
 2277 0733 05       		.uleb128 0x5
 2278 0734 03       		.byte	0x3
 2279 0735 00000000 		.4byte	RS485_Sensor_rxBufferOverflow
 2280 0739 20       		.uleb128 0x20
 2281 073a 69030000 		.4byte	.LASF73
 2282 073e 69030000 		.4byte	.LASF73
 2283 0742 03       		.byte	0x3
 2284 0743 88       		.byte	0x88
 2285 0744 20       		.uleb128 0x20
 2286 0745 A6040000 		.4byte	.LASF74
 2287 0749 A6040000 		.4byte	.LASF74
 2288 074d 03       		.byte	0x3
 2289 074e 8B       		.byte	0x8b
 2290 074f 20       		.uleb128 0x20
 2291 0750 E3020000 		.4byte	.LASF75
 2292 0754 E3020000 		.4byte	.LASF75
 2293 0758 03       		.byte	0x3
 2294 0759 7D       		.byte	0x7d
 2295 075a 20       		.uleb128 0x20
 2296 075b 0E060000 		.4byte	.LASF76
 2297 075f 0E060000 		.4byte	.LASF76
 2298 0763 04       		.byte	0x4
 2299 0764 27       		.byte	0x27
 2300 0765 20       		.uleb128 0x20
 2301 0766 1E000000 		.4byte	.LASF77
 2302 076a 1E000000 		.4byte	.LASF77
 2303 076e 03       		.byte	0x3
 2304 076f 7E       		.byte	0x7e
 2305 0770 20       		.uleb128 0x20
 2306 0771 0A050000 		.4byte	.LASF78
 2307 0775 0A050000 		.4byte	.LASF78
 2308 0779 04       		.byte	0x4
 2309 077a 28       		.byte	0x28
 2310 077b 00       		.byte	0
 2311              		.section	.debug_abbrev,"",%progbits
 2312              	.Ldebug_abbrev0:
 2313 0000 01       		.uleb128 0x1
 2314 0001 11       		.uleb128 0x11
 2315 0002 01       		.byte	0x1
 2316 0003 25       		.uleb128 0x25
 2317 0004 0E       		.uleb128 0xe
 2318 0005 13       		.uleb128 0x13
ARM GAS  C:\Users\IroTeam\AppData\Local\Temp\ccGexqi8.s 			page 70


 2319 0006 0B       		.uleb128 0xb
 2320 0007 03       		.uleb128 0x3
 2321 0008 0E       		.uleb128 0xe
 2322 0009 1B       		.uleb128 0x1b
 2323 000a 0E       		.uleb128 0xe
 2324 000b 55       		.uleb128 0x55
 2325 000c 17       		.uleb128 0x17
 2326 000d 11       		.uleb128 0x11
 2327 000e 01       		.uleb128 0x1
 2328 000f 10       		.uleb128 0x10
 2329 0010 17       		.uleb128 0x17
 2330 0011 00       		.byte	0
 2331 0012 00       		.byte	0
 2332 0013 02       		.uleb128 0x2
 2333 0014 24       		.uleb128 0x24
 2334 0015 00       		.byte	0
 2335 0016 0B       		.uleb128 0xb
 2336 0017 0B       		.uleb128 0xb
 2337 0018 3E       		.uleb128 0x3e
 2338 0019 0B       		.uleb128 0xb
 2339 001a 03       		.uleb128 0x3
 2340 001b 0E       		.uleb128 0xe
 2341 001c 00       		.byte	0
 2342 001d 00       		.byte	0
 2343 001e 03       		.uleb128 0x3
 2344 001f 24       		.uleb128 0x24
 2345 0020 00       		.byte	0
 2346 0021 0B       		.uleb128 0xb
 2347 0022 0B       		.uleb128 0xb
 2348 0023 3E       		.uleb128 0x3e
 2349 0024 0B       		.uleb128 0xb
 2350 0025 03       		.uleb128 0x3
 2351 0026 08       		.uleb128 0x8
 2352 0027 00       		.byte	0
 2353 0028 00       		.byte	0
 2354 0029 04       		.uleb128 0x4
 2355 002a 16       		.uleb128 0x16
 2356 002b 00       		.byte	0
 2357 002c 03       		.uleb128 0x3
 2358 002d 0E       		.uleb128 0xe
 2359 002e 3A       		.uleb128 0x3a
 2360 002f 0B       		.uleb128 0xb
 2361 0030 3B       		.uleb128 0x3b
 2362 0031 05       		.uleb128 0x5
 2363 0032 49       		.uleb128 0x49
 2364 0033 13       		.uleb128 0x13
 2365 0034 00       		.byte	0
 2366 0035 00       		.byte	0
 2367 0036 05       		.uleb128 0x5
 2368 0037 35       		.uleb128 0x35
 2369 0038 00       		.byte	0
 2370 0039 49       		.uleb128 0x49
 2371 003a 13       		.uleb128 0x13
 2372 003b 00       		.byte	0
 2373 003c 00       		.byte	0
 2374 003d 06       		.uleb128 0x6
 2375 003e 2E       		.uleb128 0x2e
ARM GAS  C:\Users\IroTeam\AppData\Local\Temp\ccGexqi8.s 			page 71


 2376 003f 01       		.byte	0x1
 2377 0040 3F       		.uleb128 0x3f
 2378 0041 19       		.uleb128 0x19
 2379 0042 03       		.uleb128 0x3
 2380 0043 0E       		.uleb128 0xe
 2381 0044 3A       		.uleb128 0x3a
 2382 0045 0B       		.uleb128 0xb
 2383 0046 3B       		.uleb128 0x3b
 2384 0047 0B       		.uleb128 0xb
 2385 0048 27       		.uleb128 0x27
 2386 0049 19       		.uleb128 0x19
 2387 004a 11       		.uleb128 0x11
 2388 004b 01       		.uleb128 0x1
 2389 004c 12       		.uleb128 0x12
 2390 004d 06       		.uleb128 0x6
 2391 004e 40       		.uleb128 0x40
 2392 004f 18       		.uleb128 0x18
 2393 0050 9742     		.uleb128 0x2117
 2394 0052 19       		.uleb128 0x19
 2395 0053 01       		.uleb128 0x1
 2396 0054 13       		.uleb128 0x13
 2397 0055 00       		.byte	0
 2398 0056 00       		.byte	0
 2399 0057 07       		.uleb128 0x7
 2400 0058 898201   		.uleb128 0x4109
 2401 005b 01       		.byte	0x1
 2402 005c 11       		.uleb128 0x11
 2403 005d 01       		.uleb128 0x1
 2404 005e 31       		.uleb128 0x31
 2405 005f 13       		.uleb128 0x13
 2406 0060 01       		.uleb128 0x1
 2407 0061 13       		.uleb128 0x13
 2408 0062 00       		.byte	0
 2409 0063 00       		.byte	0
 2410 0064 08       		.uleb128 0x8
 2411 0065 8A8201   		.uleb128 0x410a
 2412 0068 00       		.byte	0
 2413 0069 02       		.uleb128 0x2
 2414 006a 18       		.uleb128 0x18
 2415 006b 9142     		.uleb128 0x2111
 2416 006d 18       		.uleb128 0x18
 2417 006e 00       		.byte	0
 2418 006f 00       		.byte	0
 2419 0070 09       		.uleb128 0x9
 2420 0071 898201   		.uleb128 0x4109
 2421 0074 01       		.byte	0x1
 2422 0075 11       		.uleb128 0x11
 2423 0076 01       		.uleb128 0x1
 2424 0077 31       		.uleb128 0x31
 2425 0078 13       		.uleb128 0x13
 2426 0079 00       		.byte	0
 2427 007a 00       		.byte	0
 2428 007b 0A       		.uleb128 0xa
 2429 007c 34       		.uleb128 0x34
 2430 007d 00       		.byte	0
 2431 007e 03       		.uleb128 0x3
 2432 007f 0E       		.uleb128 0xe
ARM GAS  C:\Users\IroTeam\AppData\Local\Temp\ccGexqi8.s 			page 72


 2433 0080 3A       		.uleb128 0x3a
 2434 0081 0B       		.uleb128 0xb
 2435 0082 3B       		.uleb128 0x3b
 2436 0083 0B       		.uleb128 0xb
 2437 0084 49       		.uleb128 0x49
 2438 0085 13       		.uleb128 0x13
 2439 0086 02       		.uleb128 0x2
 2440 0087 17       		.uleb128 0x17
 2441 0088 00       		.byte	0
 2442 0089 00       		.byte	0
 2443 008a 0B       		.uleb128 0xb
 2444 008b 898201   		.uleb128 0x4109
 2445 008e 00       		.byte	0
 2446 008f 11       		.uleb128 0x11
 2447 0090 01       		.uleb128 0x1
 2448 0091 31       		.uleb128 0x31
 2449 0092 13       		.uleb128 0x13
 2450 0093 00       		.byte	0
 2451 0094 00       		.byte	0
 2452 0095 0C       		.uleb128 0xc
 2453 0096 898201   		.uleb128 0x4109
 2454 0099 00       		.byte	0
 2455 009a 11       		.uleb128 0x11
 2456 009b 01       		.uleb128 0x1
 2457 009c 9542     		.uleb128 0x2115
 2458 009e 19       		.uleb128 0x19
 2459 009f 31       		.uleb128 0x31
 2460 00a0 13       		.uleb128 0x13
 2461 00a1 00       		.byte	0
 2462 00a2 00       		.byte	0
 2463 00a3 0D       		.uleb128 0xd
 2464 00a4 2E       		.uleb128 0x2e
 2465 00a5 00       		.byte	0
 2466 00a6 3F       		.uleb128 0x3f
 2467 00a7 19       		.uleb128 0x19
 2468 00a8 03       		.uleb128 0x3
 2469 00a9 0E       		.uleb128 0xe
 2470 00aa 3A       		.uleb128 0x3a
 2471 00ab 0B       		.uleb128 0xb
 2472 00ac 3B       		.uleb128 0x3b
 2473 00ad 05       		.uleb128 0x5
 2474 00ae 27       		.uleb128 0x27
 2475 00af 19       		.uleb128 0x19
 2476 00b0 49       		.uleb128 0x49
 2477 00b1 13       		.uleb128 0x13
 2478 00b2 11       		.uleb128 0x11
 2479 00b3 01       		.uleb128 0x1
 2480 00b4 12       		.uleb128 0x12
 2481 00b5 06       		.uleb128 0x6
 2482 00b6 40       		.uleb128 0x40
 2483 00b7 18       		.uleb128 0x18
 2484 00b8 9742     		.uleb128 0x2117
 2485 00ba 19       		.uleb128 0x19
 2486 00bb 00       		.byte	0
 2487 00bc 00       		.byte	0
 2488 00bd 0E       		.uleb128 0xe
 2489 00be 2E       		.uleb128 0x2e
ARM GAS  C:\Users\IroTeam\AppData\Local\Temp\ccGexqi8.s 			page 73


 2490 00bf 01       		.byte	0x1
 2491 00c0 3F       		.uleb128 0x3f
 2492 00c1 19       		.uleb128 0x19
 2493 00c2 03       		.uleb128 0x3
 2494 00c3 0E       		.uleb128 0xe
 2495 00c4 3A       		.uleb128 0x3a
 2496 00c5 0B       		.uleb128 0xb
 2497 00c6 3B       		.uleb128 0x3b
 2498 00c7 05       		.uleb128 0x5
 2499 00c8 27       		.uleb128 0x27
 2500 00c9 19       		.uleb128 0x19
 2501 00ca 11       		.uleb128 0x11
 2502 00cb 01       		.uleb128 0x1
 2503 00cc 12       		.uleb128 0x12
 2504 00cd 06       		.uleb128 0x6
 2505 00ce 40       		.uleb128 0x40
 2506 00cf 18       		.uleb128 0x18
 2507 00d0 9742     		.uleb128 0x2117
 2508 00d2 19       		.uleb128 0x19
 2509 00d3 01       		.uleb128 0x1
 2510 00d4 13       		.uleb128 0x13
 2511 00d5 00       		.byte	0
 2512 00d6 00       		.byte	0
 2513 00d7 0F       		.uleb128 0xf
 2514 00d8 05       		.uleb128 0x5
 2515 00d9 00       		.byte	0
 2516 00da 03       		.uleb128 0x3
 2517 00db 0E       		.uleb128 0xe
 2518 00dc 3A       		.uleb128 0x3a
 2519 00dd 0B       		.uleb128 0xb
 2520 00de 3B       		.uleb128 0x3b
 2521 00df 05       		.uleb128 0x5
 2522 00e0 49       		.uleb128 0x49
 2523 00e1 13       		.uleb128 0x13
 2524 00e2 02       		.uleb128 0x2
 2525 00e3 18       		.uleb128 0x18
 2526 00e4 00       		.byte	0
 2527 00e5 00       		.byte	0
 2528 00e6 10       		.uleb128 0x10
 2529 00e7 2E       		.uleb128 0x2e
 2530 00e8 01       		.byte	0x1
 2531 00e9 3F       		.uleb128 0x3f
 2532 00ea 19       		.uleb128 0x19
 2533 00eb 03       		.uleb128 0x3
 2534 00ec 0E       		.uleb128 0xe
 2535 00ed 3A       		.uleb128 0x3a
 2536 00ee 0B       		.uleb128 0xb
 2537 00ef 3B       		.uleb128 0x3b
 2538 00f0 05       		.uleb128 0x5
 2539 00f1 27       		.uleb128 0x27
 2540 00f2 19       		.uleb128 0x19
 2541 00f3 49       		.uleb128 0x49
 2542 00f4 13       		.uleb128 0x13
 2543 00f5 11       		.uleb128 0x11
 2544 00f6 01       		.uleb128 0x1
 2545 00f7 12       		.uleb128 0x12
 2546 00f8 06       		.uleb128 0x6
ARM GAS  C:\Users\IroTeam\AppData\Local\Temp\ccGexqi8.s 			page 74


 2547 00f9 40       		.uleb128 0x40
 2548 00fa 18       		.uleb128 0x18
 2549 00fb 9742     		.uleb128 0x2117
 2550 00fd 19       		.uleb128 0x19
 2551 00fe 01       		.uleb128 0x1
 2552 00ff 13       		.uleb128 0x13
 2553 0100 00       		.byte	0
 2554 0101 00       		.byte	0
 2555 0102 11       		.uleb128 0x11
 2556 0103 34       		.uleb128 0x34
 2557 0104 00       		.byte	0
 2558 0105 03       		.uleb128 0x3
 2559 0106 0E       		.uleb128 0xe
 2560 0107 3A       		.uleb128 0x3a
 2561 0108 0B       		.uleb128 0xb
 2562 0109 3B       		.uleb128 0x3b
 2563 010a 05       		.uleb128 0x5
 2564 010b 49       		.uleb128 0x49
 2565 010c 13       		.uleb128 0x13
 2566 010d 02       		.uleb128 0x2
 2567 010e 17       		.uleb128 0x17
 2568 010f 00       		.byte	0
 2569 0110 00       		.byte	0
 2570 0111 12       		.uleb128 0x12
 2571 0112 34       		.uleb128 0x34
 2572 0113 00       		.byte	0
 2573 0114 03       		.uleb128 0x3
 2574 0115 0E       		.uleb128 0xe
 2575 0116 3A       		.uleb128 0x3a
 2576 0117 0B       		.uleb128 0xb
 2577 0118 3B       		.uleb128 0x3b
 2578 0119 05       		.uleb128 0x5
 2579 011a 49       		.uleb128 0x49
 2580 011b 13       		.uleb128 0x13
 2581 011c 02       		.uleb128 0x2
 2582 011d 18       		.uleb128 0x18
 2583 011e 00       		.byte	0
 2584 011f 00       		.byte	0
 2585 0120 13       		.uleb128 0x13
 2586 0121 05       		.uleb128 0x5
 2587 0122 00       		.byte	0
 2588 0123 03       		.uleb128 0x3
 2589 0124 0E       		.uleb128 0xe
 2590 0125 3A       		.uleb128 0x3a
 2591 0126 0B       		.uleb128 0xb
 2592 0127 3B       		.uleb128 0x3b
 2593 0128 05       		.uleb128 0x5
 2594 0129 49       		.uleb128 0x49
 2595 012a 13       		.uleb128 0x13
 2596 012b 02       		.uleb128 0x2
 2597 012c 17       		.uleb128 0x17
 2598 012d 00       		.byte	0
 2599 012e 00       		.byte	0
 2600 012f 14       		.uleb128 0x14
 2601 0130 0F       		.uleb128 0xf
 2602 0131 00       		.byte	0
 2603 0132 0B       		.uleb128 0xb
ARM GAS  C:\Users\IroTeam\AppData\Local\Temp\ccGexqi8.s 			page 75


 2604 0133 0B       		.uleb128 0xb
 2605 0134 49       		.uleb128 0x49
 2606 0135 13       		.uleb128 0x13
 2607 0136 00       		.byte	0
 2608 0137 00       		.byte	0
 2609 0138 15       		.uleb128 0x15
 2610 0139 26       		.uleb128 0x26
 2611 013a 00       		.byte	0
 2612 013b 49       		.uleb128 0x49
 2613 013c 13       		.uleb128 0x13
 2614 013d 00       		.byte	0
 2615 013e 00       		.byte	0
 2616 013f 16       		.uleb128 0x16
 2617 0140 898201   		.uleb128 0x4109
 2618 0143 01       		.byte	0x1
 2619 0144 11       		.uleb128 0x11
 2620 0145 01       		.uleb128 0x1
 2621 0146 9542     		.uleb128 0x2115
 2622 0148 19       		.uleb128 0x19
 2623 0149 31       		.uleb128 0x31
 2624 014a 13       		.uleb128 0x13
 2625 014b 00       		.byte	0
 2626 014c 00       		.byte	0
 2627 014d 17       		.uleb128 0x17
 2628 014e 0B       		.uleb128 0xb
 2629 014f 01       		.byte	0x1
 2630 0150 55       		.uleb128 0x55
 2631 0151 17       		.uleb128 0x17
 2632 0152 00       		.byte	0
 2633 0153 00       		.byte	0
 2634 0154 18       		.uleb128 0x18
 2635 0155 2E       		.uleb128 0x2e
 2636 0156 01       		.byte	0x1
 2637 0157 3F       		.uleb128 0x3f
 2638 0158 19       		.uleb128 0x19
 2639 0159 03       		.uleb128 0x3
 2640 015a 0E       		.uleb128 0xe
 2641 015b 3A       		.uleb128 0x3a
 2642 015c 0B       		.uleb128 0xb
 2643 015d 3B       		.uleb128 0x3b
 2644 015e 05       		.uleb128 0x5
 2645 015f 27       		.uleb128 0x27
 2646 0160 19       		.uleb128 0x19
 2647 0161 20       		.uleb128 0x20
 2648 0162 0B       		.uleb128 0xb
 2649 0163 01       		.uleb128 0x1
 2650 0164 13       		.uleb128 0x13
 2651 0165 00       		.byte	0
 2652 0166 00       		.byte	0
 2653 0167 19       		.uleb128 0x19
 2654 0168 05       		.uleb128 0x5
 2655 0169 00       		.byte	0
 2656 016a 03       		.uleb128 0x3
 2657 016b 0E       		.uleb128 0xe
 2658 016c 3A       		.uleb128 0x3a
 2659 016d 0B       		.uleb128 0xb
 2660 016e 3B       		.uleb128 0x3b
ARM GAS  C:\Users\IroTeam\AppData\Local\Temp\ccGexqi8.s 			page 76


 2661 016f 05       		.uleb128 0x5
 2662 0170 49       		.uleb128 0x49
 2663 0171 13       		.uleb128 0x13
 2664 0172 00       		.byte	0
 2665 0173 00       		.byte	0
 2666 0174 1A       		.uleb128 0x1a
 2667 0175 2E       		.uleb128 0x2e
 2668 0176 01       		.byte	0x1
 2669 0177 31       		.uleb128 0x31
 2670 0178 13       		.uleb128 0x13
 2671 0179 11       		.uleb128 0x11
 2672 017a 01       		.uleb128 0x1
 2673 017b 12       		.uleb128 0x12
 2674 017c 06       		.uleb128 0x6
 2675 017d 40       		.uleb128 0x40
 2676 017e 18       		.uleb128 0x18
 2677 017f 9742     		.uleb128 0x2117
 2678 0181 19       		.uleb128 0x19
 2679 0182 01       		.uleb128 0x1
 2680 0183 13       		.uleb128 0x13
 2681 0184 00       		.byte	0
 2682 0185 00       		.byte	0
 2683 0186 1B       		.uleb128 0x1b
 2684 0187 05       		.uleb128 0x5
 2685 0188 00       		.byte	0
 2686 0189 31       		.uleb128 0x31
 2687 018a 13       		.uleb128 0x13
 2688 018b 02       		.uleb128 0x2
 2689 018c 18       		.uleb128 0x18
 2690 018d 00       		.byte	0
 2691 018e 00       		.byte	0
 2692 018f 1C       		.uleb128 0x1c
 2693 0190 34       		.uleb128 0x34
 2694 0191 00       		.byte	0
 2695 0192 03       		.uleb128 0x3
 2696 0193 0E       		.uleb128 0xe
 2697 0194 3A       		.uleb128 0x3a
 2698 0195 0B       		.uleb128 0xb
 2699 0196 3B       		.uleb128 0x3b
 2700 0197 0B       		.uleb128 0xb
 2701 0198 49       		.uleb128 0x49
 2702 0199 13       		.uleb128 0x13
 2703 019a 3F       		.uleb128 0x3f
 2704 019b 19       		.uleb128 0x19
 2705 019c 02       		.uleb128 0x2
 2706 019d 18       		.uleb128 0x18
 2707 019e 00       		.byte	0
 2708 019f 00       		.byte	0
 2709 01a0 1D       		.uleb128 0x1d
 2710 01a1 01       		.uleb128 0x1
 2711 01a2 01       		.byte	0x1
 2712 01a3 49       		.uleb128 0x49
 2713 01a4 13       		.uleb128 0x13
 2714 01a5 01       		.uleb128 0x1
 2715 01a6 13       		.uleb128 0x13
 2716 01a7 00       		.byte	0
 2717 01a8 00       		.byte	0
ARM GAS  C:\Users\IroTeam\AppData\Local\Temp\ccGexqi8.s 			page 77


 2718 01a9 1E       		.uleb128 0x1e
 2719 01aa 21       		.uleb128 0x21
 2720 01ab 00       		.byte	0
 2721 01ac 49       		.uleb128 0x49
 2722 01ad 13       		.uleb128 0x13
 2723 01ae 2F       		.uleb128 0x2f
 2724 01af 05       		.uleb128 0x5
 2725 01b0 00       		.byte	0
 2726 01b1 00       		.byte	0
 2727 01b2 1F       		.uleb128 0x1f
 2728 01b3 21       		.uleb128 0x21
 2729 01b4 00       		.byte	0
 2730 01b5 49       		.uleb128 0x49
 2731 01b6 13       		.uleb128 0x13
 2732 01b7 2F       		.uleb128 0x2f
 2733 01b8 0B       		.uleb128 0xb
 2734 01b9 00       		.byte	0
 2735 01ba 00       		.byte	0
 2736 01bb 20       		.uleb128 0x20
 2737 01bc 2E       		.uleb128 0x2e
 2738 01bd 00       		.byte	0
 2739 01be 3F       		.uleb128 0x3f
 2740 01bf 19       		.uleb128 0x19
 2741 01c0 3C       		.uleb128 0x3c
 2742 01c1 19       		.uleb128 0x19
 2743 01c2 6E       		.uleb128 0x6e
 2744 01c3 0E       		.uleb128 0xe
 2745 01c4 03       		.uleb128 0x3
 2746 01c5 0E       		.uleb128 0xe
 2747 01c6 3A       		.uleb128 0x3a
 2748 01c7 0B       		.uleb128 0xb
 2749 01c8 3B       		.uleb128 0x3b
 2750 01c9 0B       		.uleb128 0xb
 2751 01ca 00       		.byte	0
 2752 01cb 00       		.byte	0
 2753 01cc 00       		.byte	0
 2754              		.section	.debug_loc,"",%progbits
 2755              	.Ldebug_loc0:
 2756              	.LLST0:
 2757 0000 08000000 		.4byte	.LVL5
 2758 0004 3C000000 		.4byte	.LVL7
 2759 0008 0100     		.2byte	0x1
 2760 000a 54       		.byte	0x54
 2761 000b 00000000 		.4byte	0
 2762 000f 00000000 		.4byte	0
 2763              	.LLST1:
 2764 0013 08000000 		.4byte	.LVL12
 2765 0017 3A000000 		.4byte	.LVL14
 2766 001b 0100     		.2byte	0x1
 2767 001d 54       		.byte	0x54
 2768 001e 00000000 		.4byte	0
 2769 0022 00000000 		.4byte	0
 2770              	.LLST2:
 2771 0026 2E000000 		.4byte	.LVL22
 2772 002a 38000000 		.4byte	.LVL23
 2773 002e 0100     		.2byte	0x1
 2774 0030 50       		.byte	0x50
ARM GAS  C:\Users\IroTeam\AppData\Local\Temp\ccGexqi8.s 			page 78


 2775 0031 3E000000 		.4byte	.LVL25
 2776 0035 5C000000 		.4byte	.LFE7
 2777 0039 0100     		.2byte	0x1
 2778 003b 50       		.byte	0x50
 2779 003c 00000000 		.4byte	0
 2780 0040 00000000 		.4byte	0
 2781              	.LLST3:
 2782 0044 10000000 		.4byte	.LVL17
 2783 0048 1E000000 		.4byte	.LVL20
 2784 004c 0100     		.2byte	0x1
 2785 004e 53       		.byte	0x53
 2786 004f 1E000000 		.4byte	.LVL20
 2787 0053 20000000 		.4byte	.LVL21
 2788 0057 0300     		.2byte	0x3
 2789 0059 73       		.byte	0x73
 2790 005a 7F       		.sleb128 -1
 2791 005b 9F       		.byte	0x9f
 2792 005c 38000000 		.4byte	.LVL23
 2793 0060 3A000000 		.4byte	.LVL24
 2794 0064 0100     		.2byte	0x1
 2795 0066 53       		.byte	0x53
 2796 0067 00000000 		.4byte	0
 2797 006b 00000000 		.4byte	0
 2798              	.LLST4:
 2799 006f 12000000 		.4byte	.LVL18
 2800 0073 1A000000 		.4byte	.LVL19
 2801 0077 0100     		.2byte	0x1
 2802 0079 51       		.byte	0x51
 2803 007a 38000000 		.4byte	.LVL23
 2804 007e 3E000000 		.4byte	.LVL25
 2805 0082 0100     		.2byte	0x1
 2806 0084 51       		.byte	0x51
 2807 0085 00000000 		.4byte	0
 2808 0089 00000000 		.4byte	0
 2809              	.LLST5:
 2810 008d 00000000 		.4byte	.LVL28
 2811 0091 2E000000 		.4byte	.LVL34
 2812 0095 0200     		.2byte	0x2
 2813 0097 30       		.byte	0x30
 2814 0098 9F       		.byte	0x9f
 2815 0099 2E000000 		.4byte	.LVL34
 2816 009d 38000000 		.4byte	.LVL35
 2817 00a1 0100     		.2byte	0x1
 2818 00a3 50       		.byte	0x50
 2819 00a4 38000000 		.4byte	.LVL35
 2820 00a8 50000000 		.4byte	.LVL38
 2821 00ac 0200     		.2byte	0x2
 2822 00ae 30       		.byte	0x30
 2823 00af 9F       		.byte	0x9f
 2824 00b0 50000000 		.4byte	.LVL38
 2825 00b4 74000000 		.4byte	.LFE9
 2826 00b8 0100     		.2byte	0x1
 2827 00ba 50       		.byte	0x50
 2828 00bb 00000000 		.4byte	0
 2829 00bf 00000000 		.4byte	0
 2830              	.LLST6:
 2831 00c3 3E000000 		.4byte	.LVL37
ARM GAS  C:\Users\IroTeam\AppData\Local\Temp\ccGexqi8.s 			page 79


 2832 00c7 54000000 		.4byte	.LVL39
 2833 00cb 0100     		.2byte	0x1
 2834 00cd 53       		.byte	0x53
 2835 00ce 00000000 		.4byte	0
 2836 00d2 00000000 		.4byte	0
 2837              	.LLST7:
 2838 00d6 10000000 		.4byte	.LVL29
 2839 00da 1E000000 		.4byte	.LVL32
 2840 00de 0100     		.2byte	0x1
 2841 00e0 53       		.byte	0x53
 2842 00e1 1E000000 		.4byte	.LVL32
 2843 00e5 20000000 		.4byte	.LVL33
 2844 00e9 0300     		.2byte	0x3
 2845 00eb 73       		.byte	0x73
 2846 00ec 7F       		.sleb128 -1
 2847 00ed 9F       		.byte	0x9f
 2848 00ee 38000000 		.4byte	.LVL35
 2849 00f2 3A000000 		.4byte	.LVL36
 2850 00f6 0100     		.2byte	0x1
 2851 00f8 53       		.byte	0x53
 2852 00f9 00000000 		.4byte	0
 2853 00fd 00000000 		.4byte	0
 2854              	.LLST8:
 2855 0101 12000000 		.4byte	.LVL30
 2856 0105 1A000000 		.4byte	.LVL31
 2857 0109 0100     		.2byte	0x1
 2858 010b 51       		.byte	0x51
 2859 010c 38000000 		.4byte	.LVL35
 2860 0110 54000000 		.4byte	.LVL39
 2861 0114 0100     		.2byte	0x1
 2862 0116 51       		.byte	0x51
 2863 0117 00000000 		.4byte	0
 2864 011b 00000000 		.4byte	0
 2865              	.LLST9:
 2866 011f 0E000000 		.4byte	.LVL40
 2867 0123 20000000 		.4byte	.LVL42
 2868 0127 0100     		.2byte	0x1
 2869 0129 54       		.byte	0x54
 2870 012a 00000000 		.4byte	0
 2871 012e 00000000 		.4byte	0
 2872              	.LLST10:
 2873 0132 06000000 		.4byte	.LVL44
 2874 0136 1B000000 		.4byte	.LVL45-1
 2875 013a 0100     		.2byte	0x1
 2876 013c 50       		.byte	0x50
 2877 013d 00000000 		.4byte	0
 2878 0141 00000000 		.4byte	0
 2879              	.LLST11:
 2880 0145 0A000000 		.4byte	.LVL51
 2881 0149 36000000 		.4byte	.LVL54
 2882 014d 0500     		.2byte	0x5
 2883 014f 03       		.byte	0x3
 2884 0150 00000000 		.4byte	RS485_Sensor_txBufferWrite
 2885 0154 38000000 		.4byte	.LVL55
 2886 0158 42000000 		.4byte	.LVL56
 2887 015c 0500     		.2byte	0x5
 2888 015e 03       		.byte	0x3
ARM GAS  C:\Users\IroTeam\AppData\Local\Temp\ccGexqi8.s 			page 80


 2889 015f 00000000 		.4byte	RS485_Sensor_txBufferWrite
 2890 0163 42000000 		.4byte	.LVL56
 2891 0167 44000000 		.4byte	.LVL57
 2892 016b 0100     		.2byte	0x1
 2893 016d 53       		.byte	0x53
 2894 016e 44000000 		.4byte	.LVL57
 2895 0172 46000000 		.4byte	.LVL58
 2896 0176 0300     		.2byte	0x3
 2897 0178 73       		.byte	0x73
 2898 0179 01       		.sleb128 1
 2899 017a 9F       		.byte	0x9f
 2900 017b 46000000 		.4byte	.LVL58
 2901 017f 4A000000 		.4byte	.LVL59
 2902 0183 0300     		.2byte	0x3
 2903 0185 73       		.byte	0x73
 2904 0186 00       		.sleb128 0
 2905 0187 9F       		.byte	0x9f
 2906 0188 4C000000 		.4byte	.LVL60
 2907 018c 6C000000 		.4byte	.LFE19
 2908 0190 2900     		.2byte	0x29
 2909 0192 30       		.byte	0x30
 2910 0193 03       		.byte	0x3
 2911 0194 00000000 		.4byte	RS485_Sensor_txBufferWrite
 2912 0198 94       		.byte	0x94
 2913 0199 02       		.byte	0x2
 2914 019a 0A       		.byte	0xa
 2915 019b FFFF     		.2byte	0xffff
 2916 019d 1A       		.byte	0x1a
 2917 019e 03       		.byte	0x3
 2918 019f 00000000 		.4byte	RS485_Sensor_txBufferWrite
 2919 01a3 94       		.byte	0x94
 2920 01a4 02       		.byte	0x2
 2921 01a5 0A       		.byte	0xa
 2922 01a6 FFFF     		.2byte	0xffff
 2923 01a8 1A       		.byte	0x1a
 2924 01a9 40       		.byte	0x40
 2925 01aa 4B       		.byte	0x4b
 2926 01ab 24       		.byte	0x24
 2927 01ac 22       		.byte	0x22
 2928 01ad 0C       		.byte	0xc
 2929 01ae 00080080 		.4byte	0x80000800
 2930 01b2 2A       		.byte	0x2a
 2931 01b3 28       		.byte	0x28
 2932 01b4 0100     		.2byte	0x1
 2933 01b6 16       		.byte	0x16
 2934 01b7 13       		.byte	0x13
 2935 01b8 23       		.byte	0x23
 2936 01b9 01       		.uleb128 0x1
 2937 01ba 9F       		.byte	0x9f
 2938 01bb 00000000 		.4byte	0
 2939 01bf 00000000 		.4byte	0
 2940              	.LLST12:
 2941 01c3 0E000000 		.4byte	.LVL52
 2942 01c7 2A000000 		.4byte	.LVL53
 2943 01cb 0100     		.2byte	0x1
 2944 01cd 52       		.byte	0x52
 2945 01ce 00000000 		.4byte	0
ARM GAS  C:\Users\IroTeam\AppData\Local\Temp\ccGexqi8.s 			page 81


 2946 01d2 00000000 		.4byte	0
 2947              	.LLST13:
 2948 01d6 00000000 		.4byte	.LVL61
 2949 01da 0C000000 		.4byte	.LVL62
 2950 01de 0100     		.2byte	0x1
 2951 01e0 50       		.byte	0x50
 2952 01e1 0C000000 		.4byte	.LVL62
 2953 01e5 1C000000 		.4byte	.LVL66
 2954 01e9 0100     		.2byte	0x1
 2955 01eb 55       		.byte	0x55
 2956 01ec 1C000000 		.4byte	.LVL66
 2957 01f0 20000000 		.4byte	.LFE20
 2958 01f4 0400     		.2byte	0x4
 2959 01f6 F3       		.byte	0xf3
 2960 01f7 01       		.uleb128 0x1
 2961 01f8 50       		.byte	0x50
 2962 01f9 9F       		.byte	0x9f
 2963 01fa 00000000 		.4byte	0
 2964 01fe 00000000 		.4byte	0
 2965              	.LLST14:
 2966 0202 00000000 		.4byte	.LVL61
 2967 0206 0C000000 		.4byte	.LVL62
 2968 020a 0200     		.2byte	0x2
 2969 020c 30       		.byte	0x30
 2970 020d 9F       		.byte	0x9f
 2971 020e 0C000000 		.4byte	.LVL62
 2972 0212 0E000000 		.4byte	.LVL63
 2973 0216 0100     		.2byte	0x1
 2974 0218 54       		.byte	0x54
 2975 0219 0E000000 		.4byte	.LVL63
 2976 021d 17000000 		.4byte	.LVL64-1
 2977 0221 0100     		.2byte	0x1
 2978 0223 53       		.byte	0x53
 2979 0224 18000000 		.4byte	.LVL64
 2980 0228 1A000000 		.4byte	.LVL65
 2981 022c 0100     		.2byte	0x1
 2982 022e 54       		.byte	0x54
 2983 022f 00000000 		.4byte	0
 2984 0233 00000000 		.4byte	0
 2985              	.LLST15:
 2986 0237 00000000 		.4byte	.LVL67
 2987 023b 0E000000 		.4byte	.LVL69
 2988 023f 0100     		.2byte	0x1
 2989 0241 50       		.byte	0x50
 2990 0242 0E000000 		.4byte	.LVL69
 2991 0246 24000000 		.4byte	.LFE21
 2992 024a 0400     		.2byte	0x4
 2993 024c F3       		.byte	0xf3
 2994 024d 01       		.uleb128 0x1
 2995 024e 50       		.byte	0x50
 2996 024f 9F       		.byte	0x9f
 2997 0250 00000000 		.4byte	0
 2998 0254 00000000 		.4byte	0
 2999              	.LLST16:
 3000 0258 00000000 		.4byte	.LVL67
 3001 025c 0A000000 		.4byte	.LVL68
 3002 0260 0100     		.2byte	0x1
ARM GAS  C:\Users\IroTeam\AppData\Local\Temp\ccGexqi8.s 			page 82


 3003 0262 51       		.byte	0x51
 3004 0263 0A000000 		.4byte	.LVL68
 3005 0267 24000000 		.4byte	.LFE21
 3006 026b 0400     		.2byte	0x4
 3007 026d F3       		.byte	0xf3
 3008 026e 01       		.uleb128 0x1
 3009 026f 51       		.byte	0x51
 3010 0270 9F       		.byte	0x9f
 3011 0271 00000000 		.4byte	0
 3012 0275 00000000 		.4byte	0
 3013              	.LLST17:
 3014 0279 00000000 		.4byte	.LVL67
 3015 027d 0E000000 		.4byte	.LVL69
 3016 0281 0200     		.2byte	0x2
 3017 0283 30       		.byte	0x30
 3018 0284 9F       		.byte	0x9f
 3019 0285 0E000000 		.4byte	.LVL69
 3020 0289 16000000 		.4byte	.LVL70
 3021 028d 0900     		.2byte	0x9
 3022 028f 75       		.byte	0x75
 3023 0290 00       		.sleb128 0
 3024 0291 F3       		.byte	0xf3
 3025 0292 01       		.uleb128 0x1
 3026 0293 50       		.byte	0x50
 3027 0294 31       		.byte	0x31
 3028 0295 1C       		.byte	0x1c
 3029 0296 1C       		.byte	0x1c
 3030 0297 9F       		.byte	0x9f
 3031 0298 1A000000 		.4byte	.LVL71
 3032 029c 1C000000 		.4byte	.LVL72
 3033 02a0 0900     		.2byte	0x9
 3034 02a2 75       		.byte	0x75
 3035 02a3 00       		.sleb128 0
 3036 02a4 F3       		.byte	0xf3
 3037 02a5 01       		.uleb128 0x1
 3038 02a6 50       		.byte	0x50
 3039 02a7 31       		.byte	0x31
 3040 02a8 1C       		.byte	0x1c
 3041 02a9 1C       		.byte	0x1c
 3042 02aa 9F       		.byte	0x9f
 3043 02ab 00000000 		.4byte	0
 3044 02af 00000000 		.4byte	0
 3045              	.LLST18:
 3046 02b3 00000000 		.4byte	.LVL73
 3047 02b7 0B000000 		.4byte	.LVL74-1
 3048 02bb 0100     		.2byte	0x1
 3049 02bd 50       		.byte	0x50
 3050 02be 0B000000 		.4byte	.LVL74-1
 3051 02c2 1C000000 		.4byte	.LVL76
 3052 02c6 0400     		.2byte	0x4
 3053 02c8 F3       		.byte	0xf3
 3054 02c9 01       		.uleb128 0x1
 3055 02ca 50       		.byte	0x50
 3056 02cb 9F       		.byte	0x9f
 3057 02cc 1C000000 		.4byte	.LVL76
 3058 02d0 24000000 		.4byte	.LFE22
 3059 02d4 0100     		.2byte	0x1
ARM GAS  C:\Users\IroTeam\AppData\Local\Temp\ccGexqi8.s 			page 83


 3060 02d6 50       		.byte	0x50
 3061 02d7 00000000 		.4byte	0
 3062 02db 00000000 		.4byte	0
 3063              	.LLST19:
 3064 02df 24000000 		.4byte	.LVL77
 3065 02e3 26000000 		.4byte	.LVL78
 3066 02e7 0100     		.2byte	0x1
 3067 02e9 50       		.byte	0x50
 3068 02ea 28000000 		.4byte	.LVL79
 3069 02ee 3C000000 		.4byte	.LFE23
 3070 02f2 0100     		.2byte	0x1
 3071 02f4 50       		.byte	0x50
 3072 02f5 00000000 		.4byte	0
 3073 02f9 00000000 		.4byte	0
 3074              	.LLST20:
 3075 02fd 06000000 		.4byte	.LVL80
 3076 0301 1B000000 		.4byte	.LVL81-1
 3077 0305 0100     		.2byte	0x1
 3078 0307 50       		.byte	0x50
 3079 0308 00000000 		.4byte	0
 3080 030c 00000000 		.4byte	0
 3081              	.LLST21:
 3082 0310 00000000 		.4byte	.LVL82
 3083 0314 2C000000 		.4byte	.LVL85
 3084 0318 0100     		.2byte	0x1
 3085 031a 50       		.byte	0x50
 3086 031b 2C000000 		.4byte	.LVL85
 3087 031f 32000000 		.4byte	.LVL86
 3088 0323 0400     		.2byte	0x4
 3089 0325 F3       		.byte	0xf3
 3090 0326 01       		.uleb128 0x1
 3091 0327 50       		.byte	0x50
 3092 0328 9F       		.byte	0x9f
 3093 0329 32000000 		.4byte	.LVL86
 3094 032d 3C000000 		.4byte	.LVL89
 3095 0331 0100     		.2byte	0x1
 3096 0333 50       		.byte	0x50
 3097 0334 3C000000 		.4byte	.LVL89
 3098 0338 44000000 		.4byte	.LVL90
 3099 033c 0400     		.2byte	0x4
 3100 033e F3       		.byte	0xf3
 3101 033f 01       		.uleb128 0x1
 3102 0340 50       		.byte	0x50
 3103 0341 9F       		.byte	0x9f
 3104 0342 44000000 		.4byte	.LVL90
 3105 0346 58000000 		.4byte	.LFE25
 3106 034a 0100     		.2byte	0x1
 3107 034c 50       		.byte	0x50
 3108 034d 00000000 		.4byte	0
 3109 0351 00000000 		.4byte	0
 3110              	.LLST22:
 3111 0355 1E000000 		.4byte	.LVL83
 3112 0359 20000000 		.4byte	.LVL84
 3113 035d 0100     		.2byte	0x1
 3114 035f 52       		.byte	0x52
 3115 0360 36000000 		.4byte	.LVL87
 3116 0364 38000000 		.4byte	.LVL88
ARM GAS  C:\Users\IroTeam\AppData\Local\Temp\ccGexqi8.s 			page 84


 3117 0368 0100     		.2byte	0x1
 3118 036a 52       		.byte	0x52
 3119 036b 00000000 		.4byte	0
 3120 036f 00000000 		.4byte	0
 3121              		.section	.debug_aranges,"",%progbits
 3122 0000 DC000000 		.4byte	0xdc
 3123 0004 0200     		.2byte	0x2
 3124 0006 00000000 		.4byte	.Ldebug_info0
 3125 000a 04       		.byte	0x4
 3126 000b 00       		.byte	0
 3127 000c 0000     		.2byte	0
 3128 000e 0000     		.2byte	0
 3129 0010 00000000 		.4byte	.LFB1
 3130 0014 58000000 		.4byte	.LFE1-.LFB1
 3131 0018 00000000 		.4byte	.LFB2
 3132 001c 50000000 		.4byte	.LFE2-.LFB2
 3133 0020 00000000 		.4byte	.LFB0
 3134 0024 1C000000 		.4byte	.LFE0-.LFB0
 3135 0028 00000000 		.4byte	.LFB3
 3136 002c 50000000 		.4byte	.LFE3-.LFB3
 3137 0030 00000000 		.4byte	.LFB4
 3138 0034 04000000 		.4byte	.LFE4-.LFB4
 3139 0038 00000000 		.4byte	.LFB6
 3140 003c 0C000000 		.4byte	.LFE6-.LFB6
 3141 0040 00000000 		.4byte	.LFB7
 3142 0044 5C000000 		.4byte	.LFE7-.LFB7
 3143 0048 00000000 		.4byte	.LFB8
 3144 004c 20000000 		.4byte	.LFE8-.LFB8
 3145 0050 00000000 		.4byte	.LFB9
 3146 0054 74000000 		.4byte	.LFE9-.LFB9
 3147 0058 00000000 		.4byte	.LFB10
 3148 005c 2C000000 		.4byte	.LFE10-.LFB10
 3149 0060 00000000 		.4byte	.LFB11
 3150 0064 58000000 		.4byte	.LFE11-.LFB11
 3151 0068 00000000 		.4byte	.LFB12
 3152 006c 44000000 		.4byte	.LFE12-.LFB12
 3153 0070 00000000 		.4byte	.LFB14
 3154 0074 0C000000 		.4byte	.LFE14-.LFB14
 3155 0078 00000000 		.4byte	.LFB15
 3156 007c 0C000000 		.4byte	.LFE15-.LFB15
 3157 0080 00000000 		.4byte	.LFB16
 3158 0084 0C000000 		.4byte	.LFE16-.LFB16
 3159 0088 00000000 		.4byte	.LFB17
 3160 008c 5C000000 		.4byte	.LFE17-.LFB17
 3161 0090 00000000 		.4byte	.LFB18
 3162 0094 0C000000 		.4byte	.LFE18-.LFB18
 3163 0098 00000000 		.4byte	.LFB19
 3164 009c 6C000000 		.4byte	.LFE19-.LFB19
 3165 00a0 00000000 		.4byte	.LFB20
 3166 00a4 20000000 		.4byte	.LFE20-.LFB20
 3167 00a8 00000000 		.4byte	.LFB21
 3168 00ac 24000000 		.4byte	.LFE21-.LFB21
 3169 00b0 00000000 		.4byte	.LFB22
 3170 00b4 24000000 		.4byte	.LFE22-.LFB22
 3171 00b8 00000000 		.4byte	.LFB23
 3172 00bc 3C000000 		.4byte	.LFE23-.LFB23
 3173 00c0 00000000 		.4byte	.LFB24
ARM GAS  C:\Users\IroTeam\AppData\Local\Temp\ccGexqi8.s 			page 85


 3174 00c4 40000000 		.4byte	.LFE24-.LFB24
 3175 00c8 00000000 		.4byte	.LFB25
 3176 00cc 58000000 		.4byte	.LFE25-.LFB25
 3177 00d0 00000000 		.4byte	.LFB26
 3178 00d4 02000000 		.4byte	.LFE26-.LFB26
 3179 00d8 00000000 		.4byte	0
 3180 00dc 00000000 		.4byte	0
 3181              		.section	.debug_ranges,"",%progbits
 3182              	.Ldebug_ranges0:
 3183 0000 06000000 		.4byte	.LBB2
 3184 0004 42000000 		.4byte	.LBE2
 3185 0008 44000000 		.4byte	.LBB3
 3186 000c 58000000 		.4byte	.LBE3
 3187 0010 00000000 		.4byte	0
 3188 0014 00000000 		.4byte	0
 3189 0018 00000000 		.4byte	.LFB1
 3190 001c 58000000 		.4byte	.LFE1
 3191 0020 00000000 		.4byte	.LFB2
 3192 0024 50000000 		.4byte	.LFE2
 3193 0028 00000000 		.4byte	.LFB0
 3194 002c 1C000000 		.4byte	.LFE0
 3195 0030 00000000 		.4byte	.LFB3
 3196 0034 50000000 		.4byte	.LFE3
 3197 0038 00000000 		.4byte	.LFB4
 3198 003c 04000000 		.4byte	.LFE4
 3199 0040 00000000 		.4byte	.LFB6
 3200 0044 0C000000 		.4byte	.LFE6
 3201 0048 00000000 		.4byte	.LFB7
 3202 004c 5C000000 		.4byte	.LFE7
 3203 0050 00000000 		.4byte	.LFB8
 3204 0054 20000000 		.4byte	.LFE8
 3205 0058 00000000 		.4byte	.LFB9
 3206 005c 74000000 		.4byte	.LFE9
 3207 0060 00000000 		.4byte	.LFB10
 3208 0064 2C000000 		.4byte	.LFE10
 3209 0068 00000000 		.4byte	.LFB11
 3210 006c 58000000 		.4byte	.LFE11
 3211 0070 00000000 		.4byte	.LFB12
 3212 0074 44000000 		.4byte	.LFE12
 3213 0078 00000000 		.4byte	.LFB14
 3214 007c 0C000000 		.4byte	.LFE14
 3215 0080 00000000 		.4byte	.LFB15
 3216 0084 0C000000 		.4byte	.LFE15
 3217 0088 00000000 		.4byte	.LFB16
 3218 008c 0C000000 		.4byte	.LFE16
 3219 0090 00000000 		.4byte	.LFB17
 3220 0094 5C000000 		.4byte	.LFE17
 3221 0098 00000000 		.4byte	.LFB18
 3222 009c 0C000000 		.4byte	.LFE18
 3223 00a0 00000000 		.4byte	.LFB19
 3224 00a4 6C000000 		.4byte	.LFE19
 3225 00a8 00000000 		.4byte	.LFB20
 3226 00ac 20000000 		.4byte	.LFE20
 3227 00b0 00000000 		.4byte	.LFB21
 3228 00b4 24000000 		.4byte	.LFE21
 3229 00b8 00000000 		.4byte	.LFB22
 3230 00bc 24000000 		.4byte	.LFE22
ARM GAS  C:\Users\IroTeam\AppData\Local\Temp\ccGexqi8.s 			page 86


 3231 00c0 00000000 		.4byte	.LFB23
 3232 00c4 3C000000 		.4byte	.LFE23
 3233 00c8 00000000 		.4byte	.LFB24
 3234 00cc 40000000 		.4byte	.LFE24
 3235 00d0 00000000 		.4byte	.LFB25
 3236 00d4 58000000 		.4byte	.LFE25
 3237 00d8 00000000 		.4byte	.LFB26
 3238 00dc 02000000 		.4byte	.LFE26
 3239 00e0 00000000 		.4byte	0
 3240 00e4 00000000 		.4byte	0
 3241              		.section	.debug_line,"",%progbits
 3242              	.Ldebug_line0:
 3243 0000 56030000 		.section	.debug_str,"MS",%progbits,1
 3243      02006F00 
 3243      00000201 
 3243      FB0E0D00 
 3243      01010101 
 3244              	.LASF10:
 3245 0000 75696E74 		.ascii	"uint16\000"
 3245      313600
 3246              	.LASF59:
 3247 0007 52533438 		.ascii	"RS485_Sensor_SendBreak\000"
 3247      355F5365 
 3247      6E736F72 
 3247      5F53656E 
 3247      64427265 
 3248              	.LASF77:
 3249 001e 43794578 		.ascii	"CyExitCriticalSection\000"
 3249      69744372 
 3249      69746963 
 3249      616C5365 
 3249      6374696F 
 3250              	.LASF45:
 3251 0034 74784461 		.ascii	"txDataByte\000"
 3251      74614279 
 3251      746500
 3252              	.LASF38:
 3253 003f 52533438 		.ascii	"RS485_Sensor_ClearRxBuffer\000"
 3253      355F5365 
 3253      6E736F72 
 3253      5F436C65 
 3253      61725278 
 3254              	.LASF64:
 3255 005a 52533438 		.ascii	"RS485_Sensor_txBuffer\000"
 3255      355F5365 
 3255      6E736F72 
 3255      5F747842 
 3255      75666665 
 3256              	.LASF32:
 3257 0070 52533438 		.ascii	"RS485_Sensor_GetChar\000"
 3257      355F5365 
 3257      6E736F72 
 3257      5F476574 
 3257      43686172 
 3258              	.LASF21:
 3259 0085 52533438 		.ascii	"RS485_Sensor_Enable\000"
 3259      355F5365 
ARM GAS  C:\Users\IroTeam\AppData\Local\Temp\ccGexqi8.s 			page 87


 3259      6E736F72 
 3259      5F456E61 
 3259      626C6500 
 3260              	.LASF46:
 3261 0099 52533438 		.ascii	"RS485_Sensor_ReadControlRegister\000"
 3261      355F5365 
 3261      6E736F72 
 3261      5F526561 
 3261      64436F6E 
 3262              	.LASF23:
 3263 00ba 52533438 		.ascii	"RS485_Sensor_Stop\000"
 3263      355F5365 
 3263      6E736F72 
 3263      5F53746F 
 3263      7000
 3264              	.LASF7:
 3265 00cc 6C6F6E67 		.ascii	"long long unsigned int\000"
 3265      206C6F6E 
 3265      6720756E 
 3265      7369676E 
 3265      65642069 
 3266              	.LASF54:
 3267 00e3 52533438 		.ascii	"RS485_Sensor_PutArray\000"
 3267      355F5365 
 3267      6E736F72 
 3267      5F507574 
 3267      41727261 
 3268              	.LASF67:
 3269 00f9 52533438 		.ascii	"RS485_Sensor_errorStatus\000"
 3269      355F5365 
 3269      6E736F72 
 3269      5F657272 
 3269      6F725374 
 3270              	.LASF6:
 3271 0112 6C6F6E67 		.ascii	"long long int\000"
 3271      206C6F6E 
 3271      6720696E 
 3271      7400
 3272              	.LASF0:
 3273 0120 7369676E 		.ascii	"signed char\000"
 3273      65642063 
 3273      68617200 
 3274              	.LASF79:
 3275 012c 474E5520 		.ascii	"GNU C11 5.4.1 20160609 (release) [ARM/embedded-5-br"
 3275      43313120 
 3275      352E342E 
 3275      31203230 
 3275      31363036 
 3276 015f 616E6368 		.ascii	"anch revision 237715] -mcpu=cortex-m3 -mthumb -g -O"
 3276      20726576 
 3276      6973696F 
 3276      6E203233 
 3276      37373135 
 3277 0192 73202D66 		.ascii	"s -ffunction-sections -ffat-lto-objects\000"
 3277      66756E63 
 3277      74696F6E 
 3277      2D736563 
ARM GAS  C:\Users\IroTeam\AppData\Local\Temp\ccGexqi8.s 			page 88


 3277      74696F6E 
 3278              	.LASF62:
 3279 01ba 74785065 		.ascii	"txPeriod\000"
 3279      72696F64 
 3279      00
 3280              	.LASF4:
 3281 01c3 6C6F6E67 		.ascii	"long int\000"
 3281      20696E74 
 3281      00
 3282              	.LASF44:
 3283 01cc 52533438 		.ascii	"RS485_Sensor_WriteTxData\000"
 3283      355F5365 
 3283      6E736F72 
 3283      5F577269 
 3283      74655478 
 3284              	.LASF9:
 3285 01e5 75696E74 		.ascii	"uint8\000"
 3285      3800
 3286              	.LASF13:
 3287 01eb 646F7562 		.ascii	"double\000"
 3287      6C6500
 3288              	.LASF57:
 3289 01f2 52533438 		.ascii	"RS485_Sensor_GetTxBufferSize\000"
 3289      355F5365 
 3289      6E736F72 
 3289      5F476574 
 3289      54784275 
 3290              	.LASF83:
 3291 020f 61646472 		.ascii	"addressMode\000"
 3291      6573734D 
 3291      6F646500 
 3292              	.LASF58:
 3293 021b 52533438 		.ascii	"RS485_Sensor_ClearTxBuffer\000"
 3293      355F5365 
 3293      6E736F72 
 3293      5F436C65 
 3293      61725478 
 3294              	.LASF11:
 3295 0236 75696E74 		.ascii	"uint32\000"
 3295      333200
 3296              	.LASF50:
 3297 023d 6C6F6354 		.ascii	"locTxBufferRead\000"
 3297      78427566 
 3297      66657252 
 3297      65616400 
 3298              	.LASF60:
 3299 024d 7265744D 		.ascii	"retMode\000"
 3299      6F646500 
 3300              	.LASF8:
 3301 0255 756E7369 		.ascii	"unsigned int\000"
 3301      676E6564 
 3301      20696E74 
 3301      00
 3302              	.LASF65:
 3303 0262 52533438 		.ascii	"RS485_Sensor_txBufferRead\000"
 3303      355F5365 
 3303      6E736F72 
ARM GAS  C:\Users\IroTeam\AppData\Local\Temp\ccGexqi8.s 			page 89


 3303      5F747842 
 3303      75666665 
 3304              	.LASF47:
 3305 027c 52533438 		.ascii	"RS485_Sensor_ReadTxStatus\000"
 3305      355F5365 
 3305      6E736F72 
 3305      5F526561 
 3305      64547853 
 3306              	.LASF35:
 3307 0296 6C6F6345 		.ascii	"locErrorStatus\000"
 3307      72726F72 
 3307      53746174 
 3307      757300
 3308              	.LASF70:
 3309 02a5 52533438 		.ascii	"RS485_Sensor_rxBufferWrite\000"
 3309      355F5365 
 3309      6E736F72 
 3309      5F727842 
 3309      75666665 
 3310              	.LASF5:
 3311 02c0 6C6F6E67 		.ascii	"long unsigned int\000"
 3311      20756E73 
 3311      69676E65 
 3311      6420696E 
 3311      7400
 3312              	.LASF49:
 3313 02d2 6C6F6354 		.ascii	"locTxBufferWrite\000"
 3313      78427566 
 3313      66657257 
 3313      72697465 
 3313      00
 3314              	.LASF75:
 3315 02e3 4379456E 		.ascii	"CyEnterCriticalSection\000"
 3315      74657243 
 3315      72697469 
 3315      63616C53 
 3315      65637469 
 3316              	.LASF81:
 3317 02fa 453A5C49 		.ascii	"E:\\IroTeam\\Developing Projects\\Cypress\\100 PIN\\"
 3317      726F5465 
 3317      616D5C44 
 3317      6576656C 
 3317      6F70696E 
 3318 0329 63792D6D 		.ascii	"cy-micro\\cy-bootloader\\Bootloader.cydsn\000"
 3318      6963726F 
 3318      5C63792D 
 3318      626F6F74 
 3318      6C6F6164 
 3319              	.LASF37:
 3320 0351 73697A65 		.ascii	"size\000"
 3320      00
 3321              	.LASF3:
 3322 0356 73686F72 		.ascii	"short unsigned int\000"
 3322      7420756E 
 3322      7369676E 
 3322      65642069 
 3322      6E7400
ARM GAS  C:\Users\IroTeam\AppData\Local\Temp\ccGexqi8.s 			page 90


 3323              	.LASF73:
 3324 0369 4379496E 		.ascii	"CyIntSetVector\000"
 3324      74536574 
 3324      56656374 
 3324      6F7200
 3325              	.LASF53:
 3326 0378 62756649 		.ascii	"bufIndex\000"
 3326      6E646578 
 3326      00
 3327              	.LASF25:
 3328 0381 52533438 		.ascii	"RS485_Sensor_SetRxInterruptMode\000"
 3328      355F5365 
 3328      6E736F72 
 3328      5F536574 
 3328      5278496E 
 3329              	.LASF40:
 3330 03a1 696E7453 		.ascii	"intSrc\000"
 3330      726300
 3331              	.LASF48:
 3332 03a8 52533438 		.ascii	"RS485_Sensor_PutChar\000"
 3332      355F5365 
 3332      6E736F72 
 3332      5F507574 
 3332      43686172 
 3333              	.LASF17:
 3334 03bd 72656733 		.ascii	"reg32\000"
 3334      3200
 3335              	.LASF20:
 3336 03c3 52533438 		.ascii	"RS485_Sensor_Init\000"
 3336      355F5365 
 3336      6E736F72 
 3336      5F496E69 
 3336      7400
 3337              	.LASF72:
 3338 03d5 52533438 		.ascii	"RS485_Sensor_rxBufferOverflow\000"
 3338      355F5365 
 3338      6E736F72 
 3338      5F727842 
 3338      75666665 
 3339              	.LASF82:
 3340 03f3 52533438 		.ascii	"RS485_Sensor_SetTxAddressMode\000"
 3340      355F5365 
 3340      6E736F72 
 3340      5F536574 
 3340      54784164 
 3341              	.LASF19:
 3342 0411 73697A65 		.ascii	"sizetype\000"
 3342      74797065 
 3342      00
 3343              	.LASF36:
 3344 041a 52533438 		.ascii	"RS485_Sensor_GetRxBufferSize\000"
 3344      355F5365 
 3344      6E736F72 
 3344      5F476574 
 3344      52784275 
 3345              	.LASF18:
 3346 0437 6C6F6E67 		.ascii	"long double\000"
ARM GAS  C:\Users\IroTeam\AppData\Local\Temp\ccGexqi8.s 			page 91


 3346      20646F75 
 3346      626C6500 
 3347              	.LASF41:
 3348 0443 61646472 		.ascii	"address\000"
 3348      65737300 
 3349              	.LASF51:
 3350 044b 52533438 		.ascii	"RS485_Sensor_PutString\000"
 3350      355F5365 
 3350      6E736F72 
 3350      5F507574 
 3350      53747269 
 3351              	.LASF28:
 3352 0462 6C6F6352 		.ascii	"locRxBufferWrite\000"
 3352      78427566 
 3352      66657257 
 3352      72697465 
 3352      00
 3353              	.LASF33:
 3354 0473 72785374 		.ascii	"rxStatus\000"
 3354      61747573 
 3354      00
 3355              	.LASF34:
 3356 047c 52533438 		.ascii	"RS485_Sensor_GetByte\000"
 3356      355F5365 
 3356      6E736F72 
 3356      5F476574 
 3356      42797465 
 3357              	.LASF56:
 3358 0491 52533438 		.ascii	"RS485_Sensor_PutCRLF\000"
 3358      355F5365 
 3358      6E736F72 
 3358      5F507574 
 3358      43524C46 
 3359              	.LASF74:
 3360 04a6 4379496E 		.ascii	"CyIntSetPriority\000"
 3360      74536574 
 3360      5072696F 
 3360      72697479 
 3360      00
 3361              	.LASF12:
 3362 04b7 666C6F61 		.ascii	"float\000"
 3362      7400
 3363              	.LASF69:
 3364 04bd 52533438 		.ascii	"RS485_Sensor_rxBufferRead\000"
 3364      355F5365 
 3364      6E736F72 
 3364      5F727842 
 3364      75666665 
 3365              	.LASF16:
 3366 04d7 72656738 		.ascii	"reg8\000"
 3366      00
 3367              	.LASF68:
 3368 04dc 52533438 		.ascii	"RS485_Sensor_rxBuffer\000"
 3368      355F5365 
 3368      6E736F72 
 3368      5F727842 
 3368      75666665 
ARM GAS  C:\Users\IroTeam\AppData\Local\Temp\ccGexqi8.s 			page 92


 3369              	.LASF1:
 3370 04f2 756E7369 		.ascii	"unsigned char\000"
 3370      676E6564 
 3370      20636861 
 3370      7200
 3371              	.LASF2:
 3372 0500 73686F72 		.ascii	"short int\000"
 3372      7420696E 
 3372      7400
 3373              	.LASF78:
 3374 050a 52533438 		.ascii	"RS485_Sensor_IntClock_Stop\000"
 3374      355F5365 
 3374      6E736F72 
 3374      5F496E74 
 3374      436C6F63 
 3375              	.LASF71:
 3376 0525 52533438 		.ascii	"RS485_Sensor_rxBufferLoopDetect\000"
 3376      355F5365 
 3376      6E736F72 
 3376      5F727842 
 3376      75666665 
 3377              	.LASF55:
 3378 0545 62797465 		.ascii	"byteCount\000"
 3378      436F756E 
 3378      7400
 3379              	.LASF43:
 3380 054f 52533438 		.ascii	"RS485_Sensor_SetTxInterruptMode\000"
 3380      355F5365 
 3380      6E736F72 
 3380      5F536574 
 3380      5478496E 
 3381              	.LASF26:
 3382 056f 72784461 		.ascii	"rxData\000"
 3382      746100
 3383              	.LASF52:
 3384 0576 73747269 		.ascii	"string\000"
 3384      6E6700
 3385              	.LASF80:
 3386 057d 47656E65 		.ascii	"Generated_Source\\PSoC5\\RS485_Sensor.c\000"
 3386      72617465 
 3386      645F536F 
 3386      75726365 
 3386      5C50536F 
 3387              	.LASF15:
 3388 05a3 63686172 		.ascii	"char\000"
 3388      00
 3389              	.LASF63:
 3390 05a8 52533438 		.ascii	"RS485_Sensor_initVar\000"
 3390      355F5365 
 3390      6E736F72 
 3390      5F696E69 
 3390      74566172 
 3391              	.LASF66:
 3392 05bd 52533438 		.ascii	"RS485_Sensor_txBufferWrite\000"
 3392      355F5365 
 3392      6E736F72 
 3392      5F747842 
ARM GAS  C:\Users\IroTeam\AppData\Local\Temp\ccGexqi8.s 			page 93


 3392      75666665 
 3393              	.LASF14:
 3394 05d8 63686172 		.ascii	"char8\000"
 3394      3800
 3395              	.LASF27:
 3396 05de 6C6F6352 		.ascii	"locRxBufferRead\000"
 3396      78427566 
 3396      66657252 
 3396      65616400 
 3397              	.LASF61:
 3398 05ee 746D7053 		.ascii	"tmpStat\000"
 3398      74617400 
 3399              	.LASF24:
 3400 05f6 656E6162 		.ascii	"enableInterrupts\000"
 3400      6C65496E 
 3400      74657272 
 3400      75707473 
 3400      00
 3401              	.LASF31:
 3402 0607 73746174 		.ascii	"status\000"
 3402      757300
 3403              	.LASF76:
 3404 060e 52533438 		.ascii	"RS485_Sensor_IntClock_Start\000"
 3404      355F5365 
 3404      6E736F72 
 3404      5F496E74 
 3404      436C6F63 
 3405              	.LASF39:
 3406 062a 52533438 		.ascii	"RS485_Sensor_SetRxAddress1\000"
 3406      355F5365 
 3406      6E736F72 
 3406      5F536574 
 3406      52784164 
 3407              	.LASF42:
 3408 0645 52533438 		.ascii	"RS485_Sensor_SetRxAddress2\000"
 3408      355F5365 
 3408      6E736F72 
 3408      5F536574 
 3408      52784164 
 3409              	.LASF30:
 3410 0660 52533438 		.ascii	"RS485_Sensor_ReadRxStatus\000"
 3410      355F5365 
 3410      6E736F72 
 3410      5F526561 
 3410      64527853 
 3411              	.LASF29:
 3412 067a 52533438 		.ascii	"RS485_Sensor_ReadRxData\000"
 3412      355F5365 
 3412      6E736F72 
 3412      5F526561 
 3412      64527844 
 3413              	.LASF22:
 3414 0692 52533438 		.ascii	"RS485_Sensor_Start\000"
 3414      355F5365 
 3414      6E736F72 
 3414      5F537461 
 3414      727400
ARM GAS  C:\Users\IroTeam\AppData\Local\Temp\ccGexqi8.s 			page 94


 3415              		.ident	"GCC: (GNU Tools for ARM Embedded Processors) 5.4.1 20160609 (release) [ARM/embedded-5-bran
